 qagamex86

 Timestamp is 55365faa (Tue Apr 21 16:33:14 2015)

 Preferred load address is 20000000

 Start         Length     Name                   Class
 0001:00000000 000aeb20H .text$mn                CODE
 0001:000aeb20 00000139H .text$x                 CODE
 0002:00000000 00000154H .idata$5                DATA
 0002:00000154 00000004H .CRT$XCA                DATA
 0002:00000158 00000004H .CRT$XCZ                DATA
 0002:0000015c 00000004H .CRT$XIA                DATA
 0002:00000160 00000014H .CRT$XIC                DATA
 0002:00000174 00000004H .CRT$XIZ                DATA
 0002:00000178 00000004H .CRT$XPA                DATA
 0002:0000017c 00000008H .CRT$XPX                DATA
 0002:00000184 00000004H .CRT$XPXA               DATA
 0002:00000188 00000004H .CRT$XPZ                DATA
 0002:0000018c 00000004H .CRT$XTA                DATA
 0002:00000190 00000004H .CRT$XTZ                DATA
 0002:000001a0 00016bc0H .rdata                  DATA
 0002:00016d60 00000064H .rdata$debug            DATA
 0002:00016dc4 00000388H .rdata$r                DATA
 0002:00017150 00000030H .rdata$sxdata           DATA
 0002:00017180 00000004H .rtc$IAA                DATA
 0002:00017184 00000004H .rtc$IZZ                DATA
 0002:00017188 00000004H .rtc$TAA                DATA
 0002:0001718c 00000004H .rtc$TZZ                DATA
 0002:00017190 00000b08H .xdata$x                DATA
 0002:00017ca0 0000005aH .edata                  DATA
 0002:00017cfc 00000014H .idata$2                DATA
 0002:00017d10 00000014H .idata$3                DATA
 0002:00017d24 00000154H .idata$4                DATA
 0002:00017e78 0000061aH .idata$6                DATA
 0003:00000000 00002f64H .data                   DATA
 0003:00002f64 0000014fH .data$r                 DATA
 0003:000030c0 0014d00cH .bss                    DATA
 0004:00000000 00000058H .rsrc$01                DATA
 0004:00000060 00000180H .rsrc$02                DATA

  Address         Publics by Value              Rva+Base       Lib:Object

 0000:00000000       ___guard_fids_table        00000000     <absolute>
 0000:00000000       __except_list              00000000     <absolute>
 0000:00000000       ___guard_fids_count        00000000     <absolute>
 0000:00000000       ___guard_flags             00000000     <absolute>
 0000:0000000c       ___safe_se_handler_count   0000000c     <absolute>
 0000:00000000       ___ImageBase               20000000     <linker-defined>
 0001:00000000       _BotChatTest               20001000 f   ai_chat.obj
 0001:00000d70       _BotChatTime               20001d70 f   ai_chat.obj
 0001:00000db0       _BotChat_Death             20001db0 f   ai_chat.obj
 0001:00001290       _BotChat_EndLevel          20002290 f   ai_chat.obj
 0001:000014e0       _BotChat_EnemySuicide      200024e0 f   ai_chat.obj
 0001:00001670       _BotChat_EnterGame         20002670 f   ai_chat.obj
 0001:000017e0       _BotChat_ExitGame          200027e0 f   ai_chat.obj
 0001:00001930       _BotChat_HitNoDeath        20002930 f   ai_chat.obj
 0001:00001b50       _BotChat_HitNoKill         20002b50 f   ai_chat.obj
 0001:00001d30       _BotChat_HitTalking        20002d30 f   ai_chat.obj
 0001:00001f20       _BotChat_Kill              20002f20 f   ai_chat.obj
 0001:00002200       _BotChat_Random            20003200 f   ai_chat.obj
 0001:00002510       _BotChat_StartLevel        20003510 f   ai_chat.obj
 0001:00002670       _BotFirstClientInRankings  20003670 f   ai_chat.obj
 0001:000027d0       _BotIsFirstInRankings      200037d0 f   ai_chat.obj
 0001:00002910       _BotIsLastInRankings       20003910 f   ai_chat.obj
 0001:00002a50       _BotLastClientInRankings   20003a50 f   ai_chat.obj
 0001:00002bb0       _BotMapTitle               20003bb0 f   ai_chat.obj
 0001:00002c50       _BotNumActivePlayers       20003c50 f   ai_chat.obj
 0001:00002d50       _BotRandomOpponentName     20003d50 f   ai_chat.obj
 0001:00002f40       _BotRandomWeaponName       20003f40 f   ai_chat.obj
 0001:00002ff0       _BotValidChatPosition      20003ff0 f   ai_chat.obj
 0001:00003320       _BotVisibleEnemies         20004320 f   ai_chat.obj
 0001:00003450       _BotWeaponNameForMeansOfDeath 20004450 f   ai_chat.obj
 0001:00003520       _BotAddressedToBot         20004520 f   ai_cmd.obj
 0001:000037d0       _BotGPSToPosition          200047d0 f   ai_cmd.obj
 0001:000038e0       _BotGetItemTeamGoal        200048e0 f   ai_cmd.obj
 0001:00003950       _BotGetMessageTeamGoal     20004950 f   ai_cmd.obj
 0001:000039c0       _BotGetPatrolWaypoints     200049c0 f   ai_cmd.obj
 0001:00003c80       _BotGetTime                20004c80 f   ai_cmd.obj
 0001:00003e10       _BotMatchMessage           20004e10 f   ai_cmd.obj
 0001:00004200       _BotMatch_AttackEnemyBase  20005200 f   ai_cmd.obj
 0001:00004350       _BotMatch_CTF              20005350 f   ai_cmd.obj
 0001:00004530       _BotMatch_Camp             20005530 f   ai_cmd.obj
 0001:00004a40       _BotMatch_CheckPoint       20005a40 f   ai_cmd.obj
 0001:00004da0       _BotMatch_DefendKeyArea    20005da0 f   ai_cmd.obj
 0001:00004f50       _BotMatch_Dismiss          20005f50 f   ai_cmd.obj
 0001:00005040       _BotMatch_EnterGame        20006040 f   ai_cmd.obj
 0001:000050a0       _BotMatch_FormationSpace   200060a0 f   ai_cmd.obj
 0001:000051c0       _BotMatch_GetFlag          200061c0 f   ai_cmd.obj
 0001:00005330       _BotMatch_GetItem          20006330 f   ai_cmd.obj
 0001:00005490       _BotMatch_HelpAccompany    20006490 f   ai_cmd.obj
 0001:000059f0       _BotMatch_JoinSubteam      200069f0 f   ai_cmd.obj
 0001:00005af0       _BotMatch_Kill             20006af0 f   ai_cmd.obj
 0001:00005c70       _BotMatch_LeadTheWay       20006c70 f   ai_cmd.obj
 0001:00006010       _BotMatch_LeaveSubteam     20007010 f   ai_cmd.obj
 0001:000060f0       _BotMatch_NewLeader        200070f0 f   ai_cmd.obj
 0001:00006170       _BotMatch_Patrol           20007170 f   ai_cmd.obj
 0001:000062e0       _BotMatch_ReturnFlag       200072e0 f   ai_cmd.obj
 0001:00006410       _BotMatch_RushBase         20007410 f   ai_cmd.obj
 0001:00006560       _BotMatch_StartTeamLeaderShip 20007560 f   ai_cmd.obj
 0001:00006640       _BotMatch_StopTeamLeaderShip 20007640 f   ai_cmd.obj
 0001:00006740       _BotMatch_Suicide          20007740 f   ai_cmd.obj
 0001:00006800       _BotMatch_TaskPreference   20007800 f   ai_cmd.obj
 0001:000069d0       _BotMatch_WhatAreYouDoing  200079d0 f   ai_cmd.obj
 0001:00006c70       _BotMatch_WhatIsMyCommand  20007c70 f   ai_cmd.obj
 0001:00006ce0       _BotMatch_WhereAreYou      20007ce0 f   ai_cmd.obj
 0001:00006fd0       _BotMatch_WhichTeam        20007fd0 f   ai_cmd.obj
 0001:00007070       _BotMatch_WhoIsTeamLeader  20008070 f   ai_cmd.obj
 0001:000070f0       _BotNearestVisibleItem     200080f0 f   ai_cmd.obj
 0001:000072b0       _BotPrintTeamGoal          200082b0 f   ai_cmd.obj
 0001:00007530       _FindClientByName          20008530 f   ai_cmd.obj
 0001:00007630       _FindEnemyByName           20008630 f   ai_cmd.obj
 0001:00007760       _NumPlayersOnSameTeam      20008760 f   ai_cmd.obj
 0001:000078c0       _AIEnter_Battle_Chase      200088c0 f   ai_dmnet.obj
 0001:00007910       _AIEnter_Battle_Fight      20008910 f   ai_dmnet.obj
 0001:00007960       _AIEnter_Battle_NBG        20008960 f   ai_dmnet.obj
 0001:000079a0       _AIEnter_Battle_Retreat    200089a0 f   ai_dmnet.obj
 0001:000079e0       _AIEnter_Battle_SuicidalFight 200089e0 f   ai_dmnet.obj
 0001:00007a40       _AIEnter_Intermission      20008a40 f   ai_dmnet.obj
 0001:00007ac0       _AIEnter_Observer          20008ac0 f   ai_dmnet.obj
 0001:00007b10       _AIEnter_Respawn           20008b10 f   ai_dmnet.obj
 0001:00007c40       _AIEnter_Seek_ActivateEntity 20008c40 f   ai_dmnet.obj
 0001:00007c80       _AIEnter_Seek_LTG          20008c80 f   ai_dmnet.obj
 0001:00007d20       _AIEnter_Seek_NBG          20008d20 f   ai_dmnet.obj
 0001:00007dc0       _AIEnter_Stand             20008dc0 f   ai_dmnet.obj
 0001:00007e20       _AINode_Battle_Chase       20008e20 f   ai_dmnet.obj
 0001:00008530       _AINode_Battle_Fight       20009530 f   ai_dmnet.obj
 0001:00008b80       _AINode_Battle_NBG         20009b80 f   ai_dmnet.obj
 0001:00009230       _AINode_Battle_Retreat     2000a230 f   ai_dmnet.obj
 0001:00009a20       _AINode_Intermission       2000aa20 f   ai_dmnet.obj
 0001:00009ab0       _AINode_Observer           2000aab0 f   ai_dmnet.obj
 0001:00009af0       _AINode_Respawn            2000aaf0 f   ai_dmnet.obj
 0001:00009c00       _AINode_Seek_ActivateEntity 2000ac00 f   ai_dmnet.obj
 0001:0000a620       _AINode_Seek_LTG           2000b620 f   ai_dmnet.obj
 0001:0000aed0       _AINode_Seek_NBG           2000bed0 f   ai_dmnet.obj
 0001:0000b510       _AINode_Stand              2000c510 f   ai_dmnet.obj
 0001:0000b670       _BotClearPath              2000c670 f   ai_dmnet.obj
 0001:0000bce0       _BotDumpNodeSwitches       2000cce0 f   ai_dmnet.obj
 0001:0000bd90       _BotGetAirGoal             2000cd90 f   ai_dmnet.obj
 0001:0000c090       _BotGetItemLongTermGoal    2000d090 f   ai_dmnet.obj
 0001:0000c200       _BotGetLongTermGoal        2000d200 f   ai_dmnet.obj
 0001:0000e750       _BotGoForAir               2000f750 f   ai_dmnet.obj
 0001:0000e860       _BotLongTermGoal           2000f860 f   ai_dmnet.obj
 0001:0000ef50       _BotNearbyGoal             2000ff50 f   ai_dmnet.obj
 0001:0000f020       _BotReachedGoal            20010020 f   ai_dmnet.obj
 0001:0000f260       _BotRecordNodeSwitch       20010260 f   ai_dmnet.obj
 0001:0000f310       _BotResetNodeSwitches      20010310 f   ai_dmnet.obj
 0001:0000f330       _BotSelectActivateWeapon   20010330 f   ai_dmnet.obj
 0001:0000f660       _BotAIBlocked              20010660 f   ai_dmq3.obj
 0001:0000fcb0       _BotAIPredictObstacles     20010cb0 f   ai_dmq3.obj
 0001:0000fe80       _BotAggression             20010e80 f   ai_dmq3.obj
 0001:000100b0       _BotAimAtEnemy             200110b0 f   ai_dmq3.obj
 0001:00012260       _BotAlternateRoute         20013260 f   ai_dmq3.obj
 0001:00012320       _BotAttackMove             20013320 f   ai_dmq3.obj
 0001:00012db0       _BotBattleUseItems         20013db0 f   ai_dmq3.obj
 0001:00012e50       _BotCTFCarryingFlag        20013e50 f   ai_dmq3.obj
 0001:00012eb0       _BotCTFRetreatGoals        20013eb0 f   ai_dmq3.obj
 0001:00012f50       _BotCTFSeekGoals           20013f50 f   ai_dmq3.obj
 0001:00013c20       _BotCanAndWantsToRocketJump 20014c20 f   ai_dmq3.obj
 0001:00013d30       _BotCheckAir               20014d30 f   ai_dmq3.obj
 0001:00013d80       _BotCheckAttack            20014d80 f   ai_dmq3.obj
 0001:00014620       _BotCheckConsoleMessages   20015620 f   ai_dmq3.obj
 0001:00014aa0       _BotCheckEvents            20015aa0 f   ai_dmq3.obj
 0001:00014f90       _BotCheckForGrenades       20015f90 f   ai_dmq3.obj
 0001:00014fe0       _BotCheckItemPickup        20015fe0 f   ai_dmq3.obj
 0001:00014ff0       _BotCheckSnapshot          20015ff0 f   ai_dmq3.obj
 0001:000150f0       _BotChooseWeapon           200160f0 f   ai_dmq3.obj
 0001:000151a0       _BotClearActivateGoalStack 200161a0 f   ai_dmq3.obj
 0001:000151d0       _BotCreateWayPoint         200161d0 f   ai_dmq3.obj
 0001:000153a0       _BotDeathmatchAI           200163a0 f   ai_dmq3.obj
 0001:000157e0       _BotDontAvoid              200167e0 f   ai_dmq3.obj
 0001:00015860       _BotEnableActivateGoalAreas 20016860 f   ai_dmq3.obj
 0001:00015900       _BotEnemyFlag              20016900 f   ai_dmq3.obj
 0001:00015930       _BotEnemyFlagCarrierVisible 20016930 f   ai_dmq3.obj
 0001:00015a30       _BotEntityVisible          20016a30 f   ai_dmq3.obj
 0001:00016430       _BotFeelingBad             20017430 f   ai_dmq3.obj
 0001:000164b0       _BotFindEnemy              200174b0 f   ai_dmq3.obj
 0001:00016c50       _BotFindWayPoint           20017c50 f   ai_dmq3.obj
 0001:00016ca0       _BotFreeWaypoints          20017ca0 f   ai_dmq3.obj
 0001:00016ce0       _BotFuncButtonActivateGoal 20017ce0 f   ai_dmq3.obj
 0001:000181c0       _BotFuncDoorActivateGoal   200191c0 f   ai_dmq3.obj
 0001:00018570       _BotGetActivateGoal        20019570 f   ai_dmq3.obj
 0001:00018eb0       _BotGetAlternateRouteGoal  20019eb0 f   ai_dmq3.obj
 0001:00019080       _BotGoCamp                 2001a080 f   ai_dmq3.obj
 0001:000191d0       _BotGoForActivateGoal      2001a1d0 f   ai_dmq3.obj
 0001:000192e0       _BotGoForPowerups          2001a2e0 f   ai_dmq3.obj
 0001:00019360       _BotGoalForBSPEntity       2001a360 f   ai_dmq3.obj
 0001:000195e0       _BotHasPersistantPowerupAndWeapon 2001a5e0 f   ai_dmq3.obj
 0001:000197e0       _BotInLavaOrSlime          2001a7e0 f   ai_dmq3.obj
 0001:00019890       _BotInitWaypoints          2001a890 f   ai_dmq3.obj
 0001:000198f0       _BotIntermission           2001a8f0 f   ai_dmq3.obj
 0001:00019940       _BotIsDead                 2001a940 f   ai_dmq3.obj
 0001:00019970       _BotIsGoingToActivateEntity 2001a970 f   ai_dmq3.obj
 0001:00019a40       _BotIsObserver             2001aa40 f   ai_dmq3.obj
 0001:00019ad0       _BotMapScripts             2001aad0 f   ai_dmq3.obj
 0001:0001a160       _BotModelMinsMaxs          2001b160 f   ai_dmq3.obj
 0001:0001a420       _BotOppositeTeam           2001b420 f   ai_dmq3.obj
 0001:0001a460       _BotPointAreaNum           2001b460 f   ai_dmq3.obj
 0001:0001a550       _BotPopFromActivateGoalStack 2001b550 f   ai_dmq3.obj
 0001:0001a5d0       _BotPrintActivateGoalInfo  2001b5d0 f   ai_dmq3.obj
 0001:0001a740       _BotPushOntoActivateGoalStack 2001b740 f   ai_dmq3.obj
 0001:0001a850       _BotRandomMove             2001b850 f   ai_dmq3.obj
 0001:0001a960       _BotRefuseOrder            2001b960 f   ai_dmq3.obj
 0001:0001aa00       _BotRememberLastOrderedTask 2001ba00 f   ai_dmq3.obj
 0001:0001aa80       _BotRoamGoal               2001ba80 f   ai_dmq3.obj
 0001:0001b0b0       _BotSameTeam               2001c0b0 f   ai_dmq3.obj
 0001:0001b1a0       _BotSetEntityNumForGoal    2001c1a0 f   ai_dmq3.obj
 0001:0001b2f0       _BotSetEntityNumForGoalWithModel 2001c2f0 f   ai_dmq3.obj
 0001:0001b460       _BotSetLastOrderedTask     2001c460 f   ai_dmq3.obj
 0001:0001b620       _BotSetMovedir             2001c620 f   ai_dmq3.obj
 0001:0001b720       _BotSetTeamStatus          2001c720 f   ai_dmq3.obj
 0001:0001b730       _BotSetTeleportTime        2001c730 f   ai_dmq3.obj
 0001:0001b780       _BotSetUserInfo            2001c780 f   ai_dmq3.obj
 0001:0001b800       _BotSetupAlternativeRouteGoals 2001c800 f   ai_dmq3.obj
 0001:0001b830       _BotSetupDeathmatchAI      2001c830 f   ai_dmq3.obj
 0001:0001ba30       _BotSetupForMovement       2001ca30 f   ai_dmq3.obj
 0001:0001bc90       _BotShutdownDeathmatchAI   2001cc90 f   ai_dmq3.obj
 0001:0001bcb0       _BotSynonymContext         2001ccb0 f   ai_dmq3.obj
 0001:0001bd00       _BotTeam                   2001cd00 f   ai_dmq3.obj
 0001:0001bdc0       _BotTeamFlag               2001cdc0 f   ai_dmq3.obj
 0001:0001bdf0       _BotTeamFlagCarrier        2001cdf0 f   ai_dmq3.obj
 0001:0001bea0       _BotTeamFlagCarrierVisible 2001cea0 f   ai_dmq3.obj
 0001:0001bfa0       _BotTeamGoals              2001cfa0 f   ai_dmq3.obj
 0001:0001c000       _BotTriggerMultipleActivateGoal 2001d000 f   ai_dmq3.obj
 0001:0001c610       _BotUpdateBattleInventory  2001d610 f   ai_dmq3.obj
 0001:0001c750       _BotUpdateInventory        2001d750 f   ai_dmq3.obj
 0001:0001ce60       _BotVisibleTeamMatesAndEnemies 2001de60 f   ai_dmq3.obj
 0001:0001d080       _BotWantsToCamp            2001e080 f   ai_dmq3.obj
 0001:0001d340       _BotWantsToChase           2001e340 f   ai_dmq3.obj
 0001:0001d400       _BotWantsToHelp            2001e400 f   ai_dmq3.obj
 0001:0001d420       _BotWantsToRetreat         2001e420 f   ai_dmq3.obj
 0001:0001d4f0       _ClientFromName            2001e4f0 f   ai_dmq3.obj
 0001:0001d5c0       _ClientName                2001e5c0 f   ai_dmq3.obj
 0001:0001d670       _ClientOnSameTeamFromName  2001e670 f   ai_dmq3.obj
 0001:0001d750       _ClientSkin                2001e750 f   ai_dmq3.obj
 0001:0001d900       _EasyClientName            2001e900 f   ai_dmq3.obj
 0001:0001dbd0       _EntityCarriesFlag         2001ebd0 f   ai_dmq3.obj
 0001:0001dc10       _EntityHasQuad             2001ec10 f   ai_dmq3.obj
 0001:0001dc40       _EntityIsChatting          2001ec40 f   ai_dmq3.obj
 0001:0001dc70       _EntityIsDead              2001ec70 f   ai_dmq3.obj
 0001:0001dce0       _EntityIsInvisible         2001ece0 f   ai_dmq3.obj
 0001:0001dd20       _EntityIsShooting          2001ed20 f   ai_dmq3.obj
 0001:0001dd50       _InFieldOfVision           2001ed50 f   ai_dmq3.obj
 0001:0001de90       _TeamPlayIsOn              2001ee90 f   ai_dmq3.obj
 0001:0001e060       _stristr                   2001f060 f   ai_dmq3.obj
 0001:0001e100       _AngleDifference           2001f100 f   ai_main.obj
 0001:0001e180       _BotAI                     2001f180 f   ai_main.obj
 0001:0001e6a0       _BotAILoadMap              2001f6a0 f   ai_main.obj
 0001:0001e760       _BotAIRegularUpdate        2001f760 f   ai_main.obj
 0001:0001e7b0       _BotAISetup                2001f7b0 f   ai_main.obj
 0001:0001e940       _BotAISetupClient          2001f940 f   ai_main.obj
 0001:0001ee30       _BotAIShutdown             2001fe30 f   ai_main.obj
 0001:0001eeb0       _BotAIShutdownClient       2001feb0 f   ai_main.obj
 0001:0001efe0       _BotAIStartFrame           2001ffe0 f   ai_main.obj
 0001:0001f7d0       _BotAI_BotInitialChat      200207d0 f   ai_main.obj
 0001:0001f900       _BotAI_GetClientState      20020900 f   ai_main.obj
 0001:0001f960       _BotAI_GetEntityState      20020960 f   ai_main.obj
 0001:0001f9e0       _BotAI_GetSnapshotEntity   200209e0 f   ai_main.obj
 0001:0001fa40       _BotAI_Print               20020a40 f   ai_main.obj
 0001:0001fb60       _BotAI_Trace               20020b60 f   ai_main.obj
 0001:0001fcc0       _BotChangeViewAngle        20020cc0 f   ai_main.obj
 0001:0001fde0       _BotChangeViewAngles       20020de0 f   ai_main.obj
 0001:00020250       _BotEntityInfo             20021250 f   ai_main.obj
 0001:00020270       _BotInitLibrary            20021270 f   ai_main.obj
 0001:00020730       _BotInputToUserCommand     20021730 f   ai_main.obj
 0001:00020c80       _BotInterbreedBots         20021c80 f   ai_main.obj
 0001:00020e60       _BotInterbreedEndMatch     20021e60 f   ai_main.obj
 0001:00020ef0       _BotInterbreeding          20021ef0 f   ai_main.obj
 0001:00021020       _BotReadSessionData        20022020 f   ai_main.obj
 0001:00021190       _BotReportStatus           20022190 f   ai_main.obj
 0001:000215a0       _BotResetState             200225a0 f   ai_main.obj
 0001:000217e0       _BotScheduleBotThink       200227e0 f   ai_main.obj
 0001:00021860       _BotSetInfoConfigString    20022860 f   ai_main.obj
 0001:00021c40       _BotTeamLeader             20022c40 f   ai_main.obj
 0001:00021ca0       _BotTeamplayReport         20022ca0 f   ai_main.obj
 0001:00021ea0       _BotTestAAS                20022ea0 f   ai_main.obj
 0001:00021f90       _BotUpdateInfoConfigStrings 20022f90 f   ai_main.obj
 0001:00022070       _BotUpdateInput            20023070 f   ai_main.obj
 0001:000221e0       _BotWriteInterbreeded      200231e0 f   ai_main.obj
 0001:000222c0       _BotWriteSessionData       200232c0 f   ai_main.obj
 0001:00022450       _NumBots                   20023450 f   ai_main.obj
 0001:00022470       _RemoveColorEscapeSequences 20023470 f   ai_main.obj
 0001:00022520       _BotCTFOrders              20023520 f   ai_team.obj
 0001:000225d0       _BotCTFOrders_BothFlagsAtBase 200235d0 f   ai_team.obj
 0001:00022e60       _BotCTFOrders_BothFlagsNotAtBase 20023e60 f   ai_team.obj
 0001:00023440       _BotCTFOrders_EnemyFlagNotAtBase 20024440 f   ai_team.obj
 0001:00023980       _BotCTFOrders_FlagNotAtBase 20024980 f   ai_team.obj
 0001:00024210       _BotClientTravelTimeToGoal 20025210 f   ai_team.obj
 0001:000242a0       _BotCreateGroup            200252a0 f   ai_team.obj
 0001:00024380       _BotGetTeamMateTaskPreference 20025380 f   ai_team.obj
 0001:000243f0       _BotNumTeamMates           200253f0 f   ai_team.obj
 0001:00024510       _BotSayTeamOrder           20025510 f   ai_team.obj
 0001:00024530       _BotSayTeamOrderAlways     20025530 f   ai_team.obj
 0001:00024600       _BotSayVoiceTeamOrder      20025600 f   ai_team.obj
 0001:00024610       _BotSetTeamMateTaskPreference 20025610 f   ai_team.obj
 0001:00024670       _BotSortTeamMatesByBaseTravelTime 20025670 f   ai_team.obj
 0001:00024880       _BotSortTeamMatesByTaskPreference 20025880 f   ai_team.obj
 0001:00024a40       _BotTeamAI                 20025a40 f   ai_team.obj
 0001:00024f60       _BotTeamOrders             20025f60 f   ai_team.obj
 0001:000251e0       _BotValidTeamLeader        200261e0 f   ai_team.obj
 0001:00025230       _BotVoiceChat              20026230 f   ai_team.obj
 0001:00025240       _BotVoiceChatOnly          20026240 f   ai_team.obj
 0001:00025250       _FindHumanTeamLeader       20026250 f   ai_team.obj
 0001:00025310       _BotVoiceChat_GetFlag      20026310 f   ai_vcmd.obj
 0001:00025420       _BotVoiceChat_Offense      20026420 f   ai_vcmd.obj
 0001:00025510       _BotVoiceChat_DefendFlag   20026510 f   ai_vcmd.obj
 0001:00025540       _BotVoiceChat_Patrol       20026540 f   ai_vcmd.obj
 0001:000255e0       _BotVoiceChat_Camp         200265e0 f   ai_vcmd.obj
 0001:00025880       _BotVoiceChat_FollowMe     20026880 f   ai_vcmd.obj
 0001:00025b50       _BotVoiceChat_FollowFlagCarrier 20026b50 f   ai_vcmd.obj
 0001:00025ba0       _BotVoiceChat_ReturnFlag   20026ba0 f   ai_vcmd.obj
 0001:00025c70       _BotVoiceChat_StartLeader  20026c70 f   ai_vcmd.obj
 0001:00025ca0       _BotVoiceChat_StopLeader   20026ca0 f   ai_vcmd.obj
 0001:00025d20       _BotVoiceChat_WhoIsLeader  20026d20 f   ai_vcmd.obj
 0001:00025dd0       _BotVoiceChat_WantOnDefense 20026dd0 f   ai_vcmd.obj
 0001:00025ea0       _BotVoiceChat_WantOnOffense 20026ea0 f   ai_vcmd.obj
 0001:00025f70       _BotVoiceChat_Dummy        20026f70 f   ai_vcmd.obj
 0001:00025f80       _BotVoiceChat_Defend       20026f80 f   ai_vcmd.obj
 0001:000260c0       _BotVoiceChatCommand       200270c0 f   ai_vcmd.obj
 0001:00026320       _BG_AddPredictableEventToPlayerstate 20027320 f   bg_misc.obj
 0001:000263f0       _BG_CanItemBeGrabbed       200273f0 f   bg_misc.obj
 0001:00026680       _BG_EvaluateTrajectory     20027680 f   bg_misc.obj
 0001:00026b20       _BG_EvaluateTrajectoryDelta 20027b20 f   bg_misc.obj
 0001:00026e60       _BG_FindItem               20027e60 f   bg_misc.obj
 0001:00026eb0       _BG_FindItemForHoldable    20027eb0 f   bg_misc.obj
 0001:00026f20       _BG_FindItemForPowerup     20027f20 f   bg_misc.obj
 0001:00026fa0       _BG_FindItemForWeapon      20027fa0 f   bg_misc.obj
 0001:00027000       _BG_PlayerStateToEntityState 20028000 f   bg_misc.obj
 0001:00027470       _BG_PlayerStateToEntityStateExtraPolate 20028470 f   bg_misc.obj
 0001:000278f0       _BG_PlayerTouchesItem      200288f0 f   bg_misc.obj
 0001:00027a40       _BG_TouchJumpPad           20028a40 f   bg_misc.obj
 0001:00027cb0       _PM_AddEvent               20028cb0 f   bg_pmove.obj
 0001:00027ce0       _PM_AddTouchEnt            20028ce0 f   bg_pmove.obj
 0001:000288b0       _PM_ClipVelocity           200298b0 f   bg_pmove.obj
 0001:0002ad70       _PM_UpdateViewAngles       2002bd70 f   bg_pmove.obj
 0001:0002bd30       _Pmove                     2002cd30 f   bg_pmove.obj
 0001:0002be20       _PmoveSingle               2002ce20 f   bg_pmove.obj
 0001:0002c540       _PM_SlideMove              2002d540 f   bg_slidemove.obj
 0001:0002d430       _PM_StepSlideMove          2002e430 f   bg_slidemove.obj
 0001:0002dba0       _ClientEndFrame            2002eba0 f   g_active.obj
 0001:0002dd20       _ClientEvents              2002ed20 f   g_active.obj
 0001:0002e030       _ClientImpacts             2002f030 f   g_active.obj
 0001:0002e150       _ClientInactivityTimer     2002f150 f   g_active.obj
 0001:0002e290       _ClientIntermissionThink   2002f290 f   g_active.obj
 0001:0002e320       _ClientThink               2002f320 f   g_active.obj
 0001:0002e3a0       _ClientThink_real          2002f3a0 f   g_active.obj
 0001:0002ebe0       _ClientTimerActions        2002fbe0 f   g_active.obj
 0001:0002ee00       _G_RunClient               2002fe00 f   g_active.obj
 0001:0002ee50       _G_SetClientSound          2002fe50 f   g_active.obj
 0001:0002eeb0       _G_TouchTriggers           2002feb0 f   g_active.obj
 0001:0002f3f0       _P_DamageFeedback          200303f0 f   g_active.obj
 0001:0002f5b0       _P_WorldEffects            200305b0 f   g_active.obj
 0001:0002f860       _SendPendingPredictableEvents 20030860 f   g_active.obj
 0001:0002f970       _SpectatorClientEndFrame   20030970 f   g_active.obj
 0001:0002fb00       _SpectatorThink            20030b00 f   g_active.obj
 0001:00031000       _SpawnModelsOnVictoryPads  20032000 f   g_arenas.obj
 0001:00031430       _Svcmd_AbortPodium_f       20032430 f   g_arenas.obj
 0001:00031480       _UpdateTournamentInfo      20032480 f   g_arenas.obj
 0001:00031cf0       _G_AddRandomBot            20032cf0 f   g_bot.obj
 0001:00031fc0       _G_BotConnect              20032fc0 f   g_bot.obj
 0001:000320b0       _G_CheckBotSpawn           200330b0 f   g_bot.obj
 0001:00032190       _G_CheckMinimumPlayers     20033190 f   g_bot.obj
 0001:000323a0       _G_CountBotPlayers         200333a0 f   g_bot.obj
 0001:00032480       _G_CountHumanPlayers       20033480 f   g_bot.obj
 0001:00032510       _G_GetArenaInfoByMap       20033510 f   g_bot.obj
 0001:00032580       _G_GetBotInfoByName        20033580 f   g_bot.obj
 0001:000325f0       _G_GetBotInfoByNumber      200335f0 f   g_bot.obj
 0001:00032640       _G_InitBots                20033640 f   g_bot.obj
 0001:00032db0       _G_ParseInfos              20033db0 f   g_bot.obj
 0001:00032fd0       _G_RemoveQueuedBotBegin    20033fd0 f   g_bot.obj
 0001:00033020       _G_RemoveRandomBot         20034020 f   g_bot.obj
 0001:00033340       _Svcmd_AddBot_f            20034340 f   g_bot.obj
 0001:000334e0       _Svcmd_BotList_f           200344e0 f   g_bot.obj
 0001:000336b0       _trap_Cvar_VariableValue   200346b0 f   g_bot.obj
 0001:00033710       _BodySink                  20034710 f   g_client.obj
 0001:00033790       _ClientBegin               20034790 f   g_client.obj
 0001:00033a60       _ClientConnect             20034a60 f   g_client.obj
 0001:00033cc0       _ClientDisconnect          20034cc0 f   g_client.obj
 0001:00033f20       _ClientSpawn               20034f20 f   g_client.obj
 0001:00034800       _ClientUserinfoChanged     20035800 f   g_client.obj
 0001:00034e20       _CopyToBodyQue             20035e20 f   g_client.obj
 0001:000352e0       _InitBodyQue               200362e0 f   g_client.obj
 0001:00035350       _PickTeam                  20036350 f   g_client.obj
 0001:00035410       _SP_info_player_deathmatch 20036410 f   g_client.obj
 0001:00035490       _SP_info_player_intermission 20036490 f   g_client.obj
 0001:000354a0       _SP_info_player_start      200364a0 f   g_client.obj
 0001:000354d0       _SelectInitialSpawnPoint   200364d0 f   g_client.obj
 0001:00035620       _SelectNearestDeathmatchSpawnPoint 20036620 f   g_client.obj
 0001:00035750       _SelectRandomDeathmatchSpawnPoint 20036750 f   g_client.obj
 0001:00035800       _SelectRandomFurthestSpawnPoint 20036800 f   g_client.obj
 0001:00035cd0       _SelectSpawnPoint          20036cd0 f   g_client.obj
 0001:00035d00       _SelectSpectatorSpawnPoint 20036d00 f   g_client.obj
 0001:00035dc0       _SetClientViewAngle        20036dc0 f   g_client.obj
 0001:00035f00       _SpotWouldTelefrag         20036f00 f   g_client.obj
 0001:000360f0       _TeamCount                 200370f0 f   g_client.obj
 0001:00036170       _TeamLeader                20037170 f   g_client.obj
 0001:00036280       _respawn                   20037280 f   g_client.obj
 0001:000362e0       _BroadcastTeamChange       200372e0 f   g_cmds.obj
 0001:000363c0       _CheatsOk                  200373c0 f   g_cmds.obj
 0001:00036440       _ClientCommand             20037440 f   g_cmds.obj
 0001:000369d0       _ClientNumberFromString    200379d0 f   g_cmds.obj
 0001:00036ba0       _Cmd_CallTeamVote_f        20037ba0 f   g_cmds.obj
 0001:00037260       _Cmd_CallVote_f            20038260 f   g_cmds.obj
 0001:000378a0       _Cmd_FollowCycle_f         200388a0 f   g_cmds.obj
 0001:000379e0       _Cmd_Follow_f              200389e0 f   g_cmds.obj
 0001:00037b30       _Cmd_GameCommand_f         20038b30 f   g_cmds.obj
 0001:00037c10       _Cmd_Give_f                20038c10 f   g_cmds.obj
 0001:00038020       _Cmd_God_f                 20039020 f   g_cmds.obj
 0001:000380a0       _Cmd_Kill_f                200390a0 f   g_cmds.obj
 0001:00038130       _Cmd_LevelShot_f           20039130 f   g_cmds.obj
 0001:000381a0       _Cmd_Noclip_f              200391a0 f   g_cmds.obj
 0001:00038250       _Cmd_Notarget_f            20039250 f   g_cmds.obj
 0001:00038330       _Cmd_Score_f               20039330 f   g_cmds.obj
 0001:00038350       _Cmd_SetViewpos_f          20039350 f   g_cmds.obj
 0001:000384d0       _Cmd_Stats_f               200394d0 f   g_cmds.obj
 0001:000384e0       _Cmd_TeamTask_f            200394e0 f   g_cmds.obj
 0001:000385d0       _Cmd_TeamVote_f            200395d0 f   g_cmds.obj
 0001:000387d0       _Cmd_Team_f                200397d0 f   g_cmds.obj
 0001:00038f40       _Cmd_Vote_f                20039f40 f   g_cmds.obj
 0001:000390e0       _Cmd_Where_f               2003a0e0 f   g_cmds.obj
 0001:00039130       _ConcatArgs                2003a130 f   g_cmds.obj
 0001:00039240       _DeathmatchScoreboardMessage 2003a240 f   g_cmds.obj
 0001:000395b0       _G_Say                     2003a5b0 f   g_cmds.obj
 0001:00039950       _G_Voice                   2003a950 f   g_cmds.obj
 0001:00039af0       _SanitizeString            2003aaf0 f   g_cmds.obj
 0001:00039b70       _SetTeam                   2003ab70 f   g_cmds.obj
 0001:00039fd0       _StopFollowing             2003afd0 f   g_cmds.obj
 0001:0003a080       _AddScore                  2003b080 f   g_combat.obj
 0001:0003a150       _CanDamage                 2003b150 f   g_combat.obj
 0001:0003a6a0       _CheckAlmostCapture        2003b6a0 f   g_combat.obj
 0001:0003a900       _CheckAlmostScored         2003b900 f   g_combat.obj
 0001:0003aac0       _CheckArmor                2003bac0 f   g_combat.obj
 0001:0003ab80       _G_Damage                  2003bb80 f   g_combat.obj
 0001:0003b390       _G_RadiusDamage            2003c390 f   g_combat.obj
 0001:0003b750       _GibEntity                 2003c750 f   g_combat.obj
 0001:0003b820       _LookAtKiller              2003c820 f   g_combat.obj
 0001:0003ba40       _RaySphereIntersections    2003ca40 f   g_combat.obj
 0001:0003bf40       _ScorePlum                 2003cf40 f   g_combat.obj
 0001:0003bfa0       _TossClientItems           2003cfa0 f   g_combat.obj
 0001:0003c1e0       _body_die                  2003d1e0 f   g_combat.obj
 0001:0003c230       _player_die                2003d230 f   g_combat.obj
 0001:0003ca80       _Add_Ammo                  2003da80 f   g_items.obj
 0001:0003caf0       _ClearRegisteredItems      2003daf0 f   g_items.obj
 0001:0003cb40       _Drop_Item                 2003db40 f   g_items.obj
 0001:0003ccf0       _FinishSpawningItem        2003dcf0 f   g_items.obj
 0001:0003d040       _G_BounceItem              2003e040 f   g_items.obj
 0001:0003d480       _G_CheckTeamItems          2003e480 f   g_items.obj
 0001:0003d520       _G_ItemDisabled            2003e520 f   g_items.obj
 0001:0003d580       _G_RunItem                 2003e580 f   g_items.obj
 0001:0003d760       _G_SpawnItem               2003e760 f   g_items.obj
 0001:0003d840       _LaunchItem                2003e840 f   g_items.obj
 0001:0003da70       _Pickup_Ammo               2003ea70 f   g_items.obj
 0001:0003dad0       _Pickup_Armor              2003ead0 f   g_items.obj
 0001:0003db90       _Pickup_Health             2003eb90 f   g_items.obj
 0001:0003dc90       _Pickup_Holdable           2003ec90 f   g_items.obj
 0001:0003dd00       _Pickup_Powerup            2003ed00 f   g_items.obj
 0001:0003e030       _Pickup_Weapon             2003f030 f   g_items.obj
 0001:0003e190       _RegisterItem              2003f190 f   g_items.obj
 0001:0003e1d0       _RespawnItem               2003f1d0 f   g_items.obj
 0001:0003e3e0       _SaveRegisteredItems       2003f3e0 f   g_items.obj
 0001:0003e4d0       _Touch_Item                2003f4d0 f   g_items.obj
 0001:0003e900       _Use_Item                  2003f900 f   g_items.obj
 0001:0003e920       _AddTournamentPlayer       2003f920 f   g_main.obj
 0001:0003ea20       _AdjustTournamentScores    2003fa20 f   g_main.obj
 0001:0003eaf0       _BeginIntermission         2003faf0 f   g_main.obj
 0001:0003ebb0       _CalculateRanks            2003fbb0 f   g_main.obj
 0001:0003f140       _CheckCvars                20040140 f   g_main.obj
 0001:0003f1c0       _CheckExitRules            200401c0 f   g_main.obj
 0001:0003f410       _CheckIntermissionExit     20040410 f   g_main.obj
 0001:0003f590       _CheckTeamLeader           20040590 f   g_main.obj
 0001:0003f6c0       _CheckTeamVote             200406c0 f   g_main.obj
 0001:0003f820       _CheckTournament           20040820 f   g_main.obj
 0001:0003fb20       _CheckVote                 20040b20 f   g_main.obj
 0001:0003fc10       _Com_Error                 20040c10 f   g_main.obj
 0001:0003fc70       _Com_Printf                20040c70 f   g_main.obj
 0001:0003fcd0       _ExitLevel                 20040cd0 f   g_main.obj
 0001:0003fe20       _FindIntermissionPoint     20040e20 f   g_main.obj
 0001:00040000       _G_Error                   20041000 f   g_main.obj
 0001:00040060       _G_FindTeams               20041060 f   g_main.obj
 0001:00040230       _G_InitGame                20041230 f   g_main.obj
 0001:00040500       _G_LogPrintf               20041500 f   g_main.obj
 0001:00040630       _G_Printf                  20041630 f   g_main.obj
 0001:00040690       _G_RegisterCvars           20041690 f   g_main.obj
 0001:00040770       _G_RemapTeamShaders        20041770 f   g_main.obj
 0001:00040780       _G_RunFrame                20041780 f   g_main.obj
 0001:00040a60       _G_RunThink                20041a60 f   g_main.obj
 0001:00040ae0       _G_ShutdownGame            20041ae0 f   g_main.obj
 0001:00040b50       _G_UpdateCvars             20041b50 f   g_main.obj
 0001:00040c20       _LogExit                   20041c20 f   g_main.obj
 0001:00040d60       _MoveClientToIntermission  20041d60 f   g_main.obj
 0001:00040f40       _PrintTeam                 20041f40 f   g_main.obj
 0001:00040fa0       _RemoveTournamentLoser     20041fa0 f   g_main.obj
 0001:00041000       _RemoveTournamentWinner    20042000 f   g_main.obj
 0001:00041060       _ScoreIsTied               20042060 f   g_main.obj
 0001:00041130       _SendScoreboardMessageToAllClients 20042130 f   g_main.obj
 0001:00041190       _SetLeader                 20042190 f   g_main.obj
 0001:00041300       _SortRanks                 20042300 f   g_main.obj
 0001:00041480       _vmMain                    20042480 f   g_main.obj
 0001:000415a0       _G_Alloc                   200425a0 f   g_mem.obj
 0001:00041630       _G_InitMemory              20042630 f   g_mem.obj
 0001:00041650       _Svcmd_GameMem_f           20042650 f   g_mem.obj
 0001:00041790       _InitShooter               20042790 f   g_misc.obj
 0001:000418e0       _SP_info_camp              200428e0 f   g_misc.obj
 0001:00041910       _SP_info_notnull           20042910 f   g_misc.obj
 0001:00041940       _SP_info_null              20042940 f   g_misc.obj
 0001:00041960       _SP_light                  20042960 f   g_misc.obj
 0001:00041980       _SP_misc_model             20042980 f   g_misc.obj
 0001:000419a0       _SP_misc_portal_camera     200429a0 f   g_misc.obj
 0001:00041aa0       _SP_misc_portal_surface    20042aa0 f   g_misc.obj
 0001:00041c00       _SP_misc_teleporter_dest   20042c00 f   g_misc.obj
 0001:00041c10       _SP_shooter_grenade        20042c10 f   g_misc.obj
 0001:00041c30       _SP_shooter_plasma         20042c30 f   g_misc.obj
 0001:00041c50       _SP_shooter_rocket         20042c50 f   g_misc.obj
 0001:00041c70       _TeleportPlayer            20042c70 f   g_misc.obj
 0001:00041f70       _Use_Shooter               20042f70 f   g_misc.obj
 0001:00042320       _locateCamera              20043320 f   g_misc.obj
 0001:00042550       _G_BounceMissile           20043550 f   g_missile.obj
 0001:00042900       _G_ExplodeMissile          20043900 f   g_missile.obj
 0001:00042ac0       _G_MissileImpact           20043ac0 f   g_missile.obj
 0001:00043130       _G_RunMissile              20044130 f   g_missile.obj
 0001:000433d0       _fire_bfg                  200443d0 f   g_missile.obj
 0001:00043680       _fire_grapple              20044680 f   g_missile.obj
 0001:00043920       _fire_grenade              20044920 f   g_missile.obj
 0001:00043be0       _fire_plasma               20044be0 f   g_missile.obj
 0001:00043e90       _fire_rocket               20044e90 f   g_missile.obj
 0001:00044140       _Blocked_Door              20045140 f   g_mover.obj
 0001:00044200       _G_CheckProxMinePosition   20045200 f   g_mover.obj
 0001:00044400       _G_CreateRotationMatrix    20045400 f   g_mover.obj
 0001:00044460       _G_MoverPush               20045460 f   g_mover.obj
 0001:00044ce0       _G_MoverTeam               20045ce0 f   g_mover.obj
 0001:00044fe0       _G_RotatePoint             20045fe0 f   g_mover.obj
 0001:000451f0       _G_RunMover                200461f0 f   g_mover.obj
 0001:00045240       _G_TestEntityPosition      20046240 f   g_mover.obj
 0001:00045330       _G_TransposeMatrix         20046330 f   g_mover.obj
 0001:00045390       _G_TryPushingEntity        20046390 f   g_mover.obj
 0001:00045dd0       _G_TryPushingProxMine      20046dd0 f   g_mover.obj
 0001:000462e0       _InitMover                 200472e0 f   g_mover.obj
 0001:00046740       _MatchTeam                 20047740 f   g_mover.obj
 0001:00046780       _Reached_BinaryMover       20047780 f   g_mover.obj
 0001:000468d0       _Reached_Train             200478d0 f   g_mover.obj
 0001:00046bc0       _ReturnToPos1              20047bc0 f   g_mover.obj
 0001:00046c20       _SP_func_bobbing           20047c20 f   g_mover.obj
 0001:00046e10       _SP_func_button            20047e10 f   g_mover.obj
 0001:00047200       _SP_func_door              20048200 f   g_mover.obj
 0001:000477d0       _SP_func_pendulum          200487d0 f   g_mover.obj
 0001:00047a50       _SP_func_plat              20048a50 f   g_mover.obj
 0001:00047d20       _SP_func_rotating          20048d20 f   g_mover.obj
 0001:00047f30       _SP_func_static            20048f30 f   g_mover.obj
 0001:00048020       _SP_func_train             20049020 f   g_mover.obj
 0001:00048170       _SP_path_corner            20049170 f   g_mover.obj
 0001:000481c0       _SetMoverState             200491c0 f   g_mover.obj
 0001:00048680       _SpawnPlatTrigger          20049680 f   g_mover.obj
 0001:00048a50       _Think_BeginMoving         20049a50 f   g_mover.obj
 0001:00048a80       _Think_MatchTeam           20049a80 f   g_mover.obj
 0001:00048ab0       _Think_SetupTrainTargets   20049ab0 f   g_mover.obj
 0001:00048c00       _Think_SpawnNewDoorTrigger 20049c00 f   g_mover.obj
 0001:00048f00       _Touch_Button              20049f00 f   g_mover.obj
 0001:00048f40       _Touch_DoorTrigger         20049f40 f   g_mover.obj
 0001:000491c0       _Touch_Plat                2004a1c0 f   g_mover.obj
 0001:00049220       _Touch_PlatCenterTrigger   2004a220 f   g_mover.obj
 0001:00049270       _Use_BinaryMover           2004a270 f   g_mover.obj
 0001:00049580       _G_InitSessionData         2004a580 f   g_session.obj
 0001:00049690       _G_InitWorldSession        2004a690 f   g_session.obj
 0001:00049710       _G_ReadSessionData         2004a710 f   g_session.obj
 0001:00049800       _G_WriteClientSessionData  2004a800 f   g_session.obj
 0001:000498a0       _G_WriteSessionData        2004a8a0 f   g_session.obj
 0001:00049920       _SP_item_botroam           2004a920 f   g_spawn.obj
 0001:00049930       _G_AddSpawnVarToken        2004a930 f   g_spawn.obj
 0001:000499b0       _G_CallSpawn               2004a9b0 f   g_spawn.obj
 0001:00049aa0       _G_NewString               2004aaa0 f   g_spawn.obj
 0001:00049b60       _G_ParseField              2004ab60 f   g_spawn.obj
 0001:00049d50       _G_ParseSpawnVars          2004ad50 f   g_spawn.obj
 0001:00049ee0       _G_SpawnEntitiesFromString 2004aee0 f   g_spawn.obj
 0001:00049f40       _G_SpawnFloat              2004af40 f   g_spawn.obj
 0001:00049f80       _G_SpawnGEntityFromSpawnVars 2004af80 f   g_spawn.obj
 0001:0004a1f0       _G_SpawnInt                2004b1f0 f   g_spawn.obj
 0001:0004a230       _G_SpawnString             2004b230 f   g_spawn.obj
 0001:0004a2c0       _G_SpawnVector             2004b2c0 f   g_spawn.obj
 0001:0004a320       _SP_worldspawn             2004b320 f   g_spawn.obj
 0001:0004a5a0       _ClientForString           2004b5a0 f   g_svcmds.obj
 0001:0004a6c0       _ConsoleCommand            2004b6c0 f   g_svcmds.obj
 0001:0004a8e0       _G_FilterPacket            2004b8e0 f   g_svcmds.obj
 0001:0004aa20       _G_ProcessIPBans           2004ba20 f   g_svcmds.obj
 0001:0004acd0       _Svcmd_AddIP_f             2004bcd0 f   g_svcmds.obj
 0001:0004ad40       _Svcmd_EntityList_f        2004bd40 f   g_svcmds.obj
 0001:0004af00       _Svcmd_ForceTeam_f         2004bf00 f   g_svcmds.obj
 0001:0004afa0       _Svcmd_RemoveIP_f          2004bfa0 f   g_svcmds.obj
 0001:0004b270       _PASSFLOAT                 2004c270 f   g_syscalls.obj
 0001:0004b290       _dllEntry                  2004c290 f   g_syscalls.obj
 0001:0004b2b0       _trap_AAS_AlternativeRouteGoals 2004c2b0 f   g_syscalls.obj
 0001:0004b2f0       _trap_AAS_AreaInfo         2004c2f0 f   g_syscalls.obj
 0001:0004b320       _trap_AAS_AreaReachability 2004c320 f   g_syscalls.obj
 0001:0004b350       _trap_AAS_AreaTravelTimeToGoalArea 2004c350 f   g_syscalls.obj
 0001:0004b380       _trap_AAS_BBoxAreas        2004c380 f   g_syscalls.obj
 0001:0004b3b0       _trap_AAS_EnableRoutingArea 2004c3b0 f   g_syscalls.obj
 0001:0004b3e0       _trap_AAS_EntityInfo       2004c3e0 f   g_syscalls.obj
 0001:0004b410       _trap_AAS_FloatForBSPEpairKey 2004c410 f   g_syscalls.obj
 0001:0004b440       _trap_AAS_Initialized      2004c440 f   g_syscalls.obj
 0001:0004b460       _trap_AAS_IntForBSPEpairKey 2004c460 f   g_syscalls.obj
 0001:0004b490       _trap_AAS_NextBSPEntity    2004c490 f   g_syscalls.obj
 0001:0004b4c0       _trap_AAS_PointAreaNum     2004c4c0 f   g_syscalls.obj
 0001:0004b4f0       _trap_AAS_PointContents    2004c4f0 f   g_syscalls.obj
 0001:0004b520       _trap_AAS_PointReachabilityAreaIndex 2004c520 f   g_syscalls.obj
 0001:0004b550       _trap_AAS_PredictClientMovement 2004c550 f   g_syscalls.obj
 0001:0004b5c0       _trap_AAS_PredictRoute     2004c5c0 f   g_syscalls.obj
 0001:0004b610       _trap_AAS_PresenceTypeBoundingBox 2004c610 f   g_syscalls.obj
 0001:0004b640       _trap_AAS_Swimming         2004c640 f   g_syscalls.obj
 0001:0004b670       _trap_AAS_Time             2004c670 f   g_syscalls.obj
 0001:0004b6a0       _trap_AAS_TraceAreas       2004c6a0 f   g_syscalls.obj
 0001:0004b6e0       _trap_AAS_ValueForBSPEpairKey 2004c6e0 f   g_syscalls.obj
 0001:0004b710       _trap_AAS_VectorForBSPEpairKey 2004c710 f   g_syscalls.obj
 0001:0004b740       _trap_AdjustAreaPortalState 2004c740 f   g_syscalls.obj
 0001:0004b770       _trap_AreasConnected       2004c770 f   g_syscalls.obj
 0001:0004b7a0       _trap_Argc                 2004c7a0 f   g_syscalls.obj
 0001:0004b7c0       _trap_Argv                 2004c7c0 f   g_syscalls.obj
 0001:0004b7f0       _trap_BotAddAvoidSpot      2004c7f0 f   g_syscalls.obj
 0001:0004b830       _trap_BotAllocChatState    2004c830 f   g_syscalls.obj
 0001:0004b850       _trap_BotAllocGoalState    2004c850 f   g_syscalls.obj
 0001:0004b880       _trap_BotAllocMoveState    2004c880 f   g_syscalls.obj
 0001:0004b8a0       _trap_BotAllocWeaponState  2004c8a0 f   g_syscalls.obj
 0001:0004b8c0       _trap_BotAllocateClient    2004c8c0 f   g_syscalls.obj
 0001:0004b8e0       _trap_BotAvoidGoalTime     2004c8e0 f   g_syscalls.obj
 0001:0004b910       _trap_BotChatLength        2004c910 f   g_syscalls.obj
 0001:0004b940       _trap_BotChooseBestFightWeapon 2004c940 f   g_syscalls.obj
 0001:0004b970       _trap_BotChooseLTGItem     2004c970 f   g_syscalls.obj
 0001:0004b9a0       _trap_BotChooseNBGItem     2004c9a0 f   g_syscalls.obj
 0001:0004b9f0       _trap_BotDumpAvoidGoals    2004c9f0 f   g_syscalls.obj
 0001:0004ba20       _trap_BotDumpGoalStack     2004ca20 f   g_syscalls.obj
 0001:0004ba50       _trap_BotEmptyGoalStack    2004ca50 f   g_syscalls.obj
 0001:0004ba80       _trap_BotEnterChat         2004ca80 f   g_syscalls.obj
 0001:0004bab0       _trap_BotFindMatch         2004cab0 f   g_syscalls.obj
 0001:0004bae0       _trap_BotFreeCharacter     2004cae0 f   g_syscalls.obj
 0001:0004bb10       _trap_BotFreeChatState     2004cb10 f   g_syscalls.obj
 0001:0004bb40       _trap_BotFreeClient        2004cb40 f   g_syscalls.obj
 0001:0004bb60       _trap_BotFreeGoalState     2004cb60 f   g_syscalls.obj
 0001:0004bb90       _trap_BotFreeItemWeights   2004cb90 f   g_syscalls.obj
 0001:0004bbc0       _trap_BotFreeMoveState     2004cbc0 f   g_syscalls.obj
 0001:0004bbf0       _trap_BotFreeWeaponState   2004cbf0 f   g_syscalls.obj
 0001:0004bc20       _trap_BotGetChatMessage    2004cc20 f   g_syscalls.obj
 0001:0004bc50       _trap_BotGetLevelItemGoal  2004cc50 f   g_syscalls.obj
 0001:0004bc80       _trap_BotGetMapLocationGoal 2004cc80 f   g_syscalls.obj
 0001:0004bcb0       _trap_BotGetNextCampSpotGoal 2004ccb0 f   g_syscalls.obj
 0001:0004bce0       _trap_BotGetSecondGoal     2004cce0 f   g_syscalls.obj
 0001:0004bd10       _trap_BotGetServerCommand  2004cd10 f   g_syscalls.obj
 0001:0004bd40       _trap_BotGetSnapshotEntity 2004cd40 f   g_syscalls.obj
 0001:0004bd70       _trap_BotGetTopGoal        2004cd70 f   g_syscalls.obj
 0001:0004bda0       _trap_BotGetWeaponInfo     2004cda0 f   g_syscalls.obj
 0001:0004bdd0       _trap_BotGoalName          2004cdd0 f   g_syscalls.obj
 0001:0004be00       _trap_BotInitLevelItems    2004ce00 f   g_syscalls.obj
 0001:0004be20       _trap_BotInitMoveState     2004ce20 f   g_syscalls.obj
 0001:0004be50       _trap_BotInitialChat       2004ce50 f   g_syscalls.obj
 0001:0004bea0       _trap_BotInterbreedGoalFuzzyLogic 2004cea0 f   g_syscalls.obj
 0001:0004bed0       _trap_BotItemGoalInVisButNotVisible 2004ced0 f   g_syscalls.obj
 0001:0004bf00       _trap_BotLibDefine         2004cf00 f   g_syscalls.obj
 0001:0004bf30       _trap_BotLibLoadMap        2004cf30 f   g_syscalls.obj
 0001:0004bf60       _trap_BotLibSetup          2004cf60 f   g_syscalls.obj
 0001:0004bf80       _trap_BotLibShutdown       2004cf80 f   g_syscalls.obj
 0001:0004bfa0       _trap_BotLibStartFrame     2004cfa0 f   g_syscalls.obj
 0001:0004bfe0       _trap_BotLibTest           2004cfe0 f   g_syscalls.obj
 0001:0004c010       _trap_BotLibUpdateEntity   2004d010 f   g_syscalls.obj
 0001:0004c040       _trap_BotLibVarGet         2004d040 f   g_syscalls.obj
 0001:0004c070       _trap_BotLibVarSet         2004d070 f   g_syscalls.obj
 0001:0004c0a0       _trap_BotLoadCharacter     2004d0a0 f   g_syscalls.obj
 0001:0004c0e0       _trap_BotLoadChatFile      2004d0e0 f   g_syscalls.obj
 0001:0004c110       _trap_BotLoadItemWeights   2004d110 f   g_syscalls.obj
 0001:0004c140       _trap_BotLoadWeaponWeights 2004d140 f   g_syscalls.obj
 0001:0004c170       _trap_BotMatchVariable     2004d170 f   g_syscalls.obj
 0001:0004c1a0       _trap_BotMoveInDirection   2004d1a0 f   g_syscalls.obj
 0001:0004c1e0       _trap_BotMoveToGoal        2004d1e0 f   g_syscalls.obj
 0001:0004c210       _trap_BotMovementViewTarget 2004d210 f   g_syscalls.obj
 0001:0004c260       _trap_BotMutateGoalFuzzyLogic 2004d260 f   g_syscalls.obj
 0001:0004c290       _trap_BotNextConsoleMessage 2004d290 f   g_syscalls.obj
 0001:0004c2c0       _trap_BotNumConsoleMessages 2004d2c0 f   g_syscalls.obj
 0001:0004c2f0       _trap_BotNumInitialChats   2004d2f0 f   g_syscalls.obj
 0001:0004c320       _trap_BotPopGoal           2004d320 f   g_syscalls.obj
 0001:0004c350       _trap_BotPredictVisiblePosition 2004d350 f   g_syscalls.obj
 0001:0004c390       _trap_BotPushGoal          2004d390 f   g_syscalls.obj
 0001:0004c3c0       _trap_BotQueueConsoleMessage 2004d3c0 f   g_syscalls.obj
 0001:0004c3f0       _trap_BotReachabilityArea  2004d3f0 f   g_syscalls.obj
 0001:0004c420       _trap_BotRemoveConsoleMessage 2004d420 f   g_syscalls.obj
 0001:0004c450       _trap_BotRemoveFromAvoidGoals 2004d450 f   g_syscalls.obj
 0001:0004c480       _trap_BotReplaceSynonyms   2004d480 f   g_syscalls.obj
 0001:0004c4b0       _trap_BotReplyChat         2004d4b0 f   g_syscalls.obj
 0001:0004c500       _trap_BotResetAvoidGoals   2004d500 f   g_syscalls.obj
 0001:0004c530       _trap_BotResetAvoidReach   2004d530 f   g_syscalls.obj
 0001:0004c560       _trap_BotResetGoalState    2004d560 f   g_syscalls.obj
 0001:0004c590       _trap_BotResetLastAvoidReach 2004d590 f   g_syscalls.obj
 0001:0004c5c0       _trap_BotResetMoveState    2004d5c0 f   g_syscalls.obj
 0001:0004c5f0       _trap_BotResetWeaponState  2004d5f0 f   g_syscalls.obj
 0001:0004c620       _trap_BotSaveGoalFuzzyLogic 2004d620 f   g_syscalls.obj
 0001:0004c650       _trap_BotSetAvoidGoalTime  2004d650 f   g_syscalls.obj
 0001:0004c690       _trap_BotSetChatGender     2004d690 f   g_syscalls.obj
 0001:0004c6c0       _trap_BotSetChatName       2004d6c0 f   g_syscalls.obj
 0001:0004c6f0       _trap_BotTouchingGoal      2004d6f0 f   g_syscalls.obj
 0001:0004c720       _trap_BotUpdateEntityItems 2004d720 f   g_syscalls.obj
 0001:0004c740       _trap_BotUserCommand       2004d740 f   g_syscalls.obj
 0001:0004c770       _trap_Characteristic_BFloat 2004d770 f   g_syscalls.obj
 0001:0004c7d0       _trap_Characteristic_BInteger 2004d7d0 f   g_syscalls.obj
 0001:0004c800       _trap_Characteristic_Float 2004d800 f   g_syscalls.obj
 0001:0004c830       _trap_Characteristic_Integer 2004d830 f   g_syscalls.obj
 0001:0004c860       _trap_Characteristic_String 2004d860 f   g_syscalls.obj
 0001:0004c890       _trap_Cvar_Register        2004d890 f   g_syscalls.obj
 0001:0004c8c0       _trap_Cvar_Set             2004d8c0 f   g_syscalls.obj
 0001:0004c8f0       _trap_Cvar_Update          2004d8f0 f   g_syscalls.obj
 0001:0004c910       _trap_Cvar_VariableIntegerValue 2004d910 f   g_syscalls.obj
 0001:0004c930       _trap_Cvar_VariableStringBuffer 2004d930 f   g_syscalls.obj
 0001:0004c960       _trap_DebugPolygonCreate   2004d960 f   g_syscalls.obj
 0001:0004c990       _trap_DebugPolygonDelete   2004d990 f   g_syscalls.obj
 0001:0004c9b0       _trap_DropClient           2004d9b0 f   g_syscalls.obj
 0001:0004c9e0       _trap_EA_Action            2004d9e0 f   g_syscalls.obj
 0001:0004ca10       _trap_EA_Attack            2004da10 f   g_syscalls.obj
 0001:0004ca40       _trap_EA_Command           2004da40 f   g_syscalls.obj
 0001:0004ca70       _trap_EA_Crouch            2004da70 f   g_syscalls.obj
 0001:0004caa0       _trap_EA_DelayedJump       2004daa0 f   g_syscalls.obj
 0001:0004cad0       _trap_EA_EndRegular        2004dad0 f   g_syscalls.obj
 0001:0004cb10       _trap_EA_Gesture           2004db10 f   g_syscalls.obj
 0001:0004cb40       _trap_EA_GetInput          2004db40 f   g_syscalls.obj
 0001:0004cb80       _trap_EA_Jump              2004db80 f   g_syscalls.obj
 0001:0004cbb0       _trap_EA_Move              2004dbb0 f   g_syscalls.obj
 0001:0004cbf0       _trap_EA_MoveBack          2004dbf0 f   g_syscalls.obj
 0001:0004cc20       _trap_EA_MoveDown          2004dc20 f   g_syscalls.obj
 0001:0004cc50       _trap_EA_MoveForward       2004dc50 f   g_syscalls.obj
 0001:0004cc80       _trap_EA_MoveLeft          2004dc80 f   g_syscalls.obj
 0001:0004ccb0       _trap_EA_MoveRight         2004dcb0 f   g_syscalls.obj
 0001:0004cce0       _trap_EA_MoveUp            2004dce0 f   g_syscalls.obj
 0001:0004cd10       _trap_EA_ResetInput        2004dd10 f   g_syscalls.obj
 0001:0004cd40       _trap_EA_Respawn           2004dd40 f   g_syscalls.obj
 0001:0004cd70       _trap_EA_Say               2004dd70 f   g_syscalls.obj
 0001:0004cda0       _trap_EA_SayTeam           2004dda0 f   g_syscalls.obj
 0001:0004cdd0       _trap_EA_SelectWeapon      2004ddd0 f   g_syscalls.obj
 0001:0004ce00       _trap_EA_Talk              2004de00 f   g_syscalls.obj
 0001:0004ce30       _trap_EA_Use               2004de30 f   g_syscalls.obj
 0001:0004ce60       _trap_EA_View              2004de60 f   g_syscalls.obj
 0001:0004ce90       _trap_EntitiesInBox        2004de90 f   g_syscalls.obj
 0001:0004cec0       _trap_EntityContact        2004dec0 f   g_syscalls.obj
 0001:0004cef0       _trap_EntityContactCapsule 2004def0 f   g_syscalls.obj
 0001:0004cf20       _trap_Error                2004df20 f   g_syscalls.obj
 0001:0004cf40       _trap_FS_FCloseFile        2004df40 f   g_syscalls.obj
 0001:0004cf60       _trap_FS_FOpenFile         2004df60 f   g_syscalls.obj
 0001:0004cf90       _trap_FS_GetFileList       2004df90 f   g_syscalls.obj
 0001:0004cfc0       _trap_FS_Read              2004dfc0 f   g_syscalls.obj
 0001:0004cff0       _trap_FS_Seek              2004dff0 f   g_syscalls.obj
 0001:0004d020       _trap_FS_Write             2004e020 f   g_syscalls.obj
 0001:0004d050       _trap_GeneticParentsAndChildSelection 2004e050 f   g_syscalls.obj
 0001:0004d090       _trap_GetConfigstring      2004e090 f   g_syscalls.obj
 0001:0004d0c0       _trap_GetEntityToken       2004e0c0 f   g_syscalls.obj
 0001:0004d0f0       _trap_GetServerinfo        2004e0f0 f   g_syscalls.obj
 0001:0004d120       _trap_GetUsercmd           2004e120 f   g_syscalls.obj
 0001:0004d150       _trap_GetUserinfo          2004e150 f   g_syscalls.obj
 0001:0004d180       _trap_InPVS                2004e180 f   g_syscalls.obj
 0001:0004d1b0       _trap_InPVSIgnorePortals   2004e1b0 f   g_syscalls.obj
 0001:0004d1e0       _trap_LinkEntity           2004e1e0 f   g_syscalls.obj
 0001:0004d200       _trap_LocateGameData       2004e200 f   g_syscalls.obj
 0001:0004d230       _trap_Milliseconds         2004e230 f   g_syscalls.obj
 0001:0004d250       _trap_PC_FreeSource        2004e250 f   g_syscalls.obj
 0001:0004d280       _trap_PC_LoadSource        2004e280 f   g_syscalls.obj
 0001:0004d2b0       _trap_PC_ReadToken         2004e2b0 f   g_syscalls.obj
 0001:0004d2e0       _trap_PC_SourceFileAndLine 2004e2e0 f   g_syscalls.obj
 0001:0004d310       _trap_PointContents        2004e310 f   g_syscalls.obj
 0001:0004d340       _trap_Printf               2004e340 f   g_syscalls.obj
 0001:0004d360       _trap_RealTime             2004e360 f   g_syscalls.obj
 0001:0004d380       _trap_SendConsoleCommand   2004e380 f   g_syscalls.obj
 0001:0004d3b0       _trap_SendServerCommand    2004e3b0 f   g_syscalls.obj
 0001:0004d3e0       _trap_SetBrushModel        2004e3e0 f   g_syscalls.obj
 0001:0004d410       _trap_SetConfigstring      2004e410 f   g_syscalls.obj
 0001:0004d440       _trap_SetUserinfo          2004e440 f   g_syscalls.obj
 0001:0004d470       _trap_SnapVector           2004e470 f   g_syscalls.obj
 0001:0004d490       _trap_StringContains       2004e490 f   g_syscalls.obj
 0001:0004d4c0       _trap_Trace                2004e4c0 f   g_syscalls.obj
 0001:0004d500       _trap_TraceCapsule         2004e500 f   g_syscalls.obj
 0001:0004d540       _trap_UnifyWhiteSpaces     2004e540 f   g_syscalls.obj
 0001:0004d570       _trap_UnlinkEntity         2004e570 f   g_syscalls.obj
 0001:0004d590       _SP_target_delay           2004e590 f   g_target.obj
 0001:0004d620       _SP_target_give            2004e620 f   g_target.obj
 0001:0004d640       _SP_target_kill            2004e640 f   g_target.obj
 0001:0004d660       _SP_target_laser           2004e660 f   g_target.obj
 0001:0004d690       _SP_target_location        2004e690 f   g_target.obj
 0001:0004d6e0       _SP_target_position        2004e6e0 f   g_target.obj
 0001:0004d710       _SP_target_print           2004e710 f   g_target.obj
 0001:0004d730       _SP_target_relay           2004e730 f   g_target.obj
 0001:0004d750       _SP_target_remove_powerups 2004e750 f   g_target.obj
 0001:0004d770       _SP_target_score           2004e770 f   g_target.obj
 0001:0004d7b0       _SP_target_speaker         2004e7b0 f   g_target.obj
 0001:0004d9e0       _SP_target_teleporter      2004e9e0 f   g_target.obj
 0001:0004da30       _Think_Target_Delay        2004ea30 f   g_target.obj
 0001:0004da60       _Use_Target_Delay          2004ea60 f   g_target.obj
 0001:0004db10       _Use_Target_Give           2004eb10 f   g_target.obj
 0001:0004dbd0       _Use_Target_Print          2004ebd0 f   g_target.obj
 0001:0004dcd0       _Use_Target_Score          2004ecd0 f   g_target.obj
 0001:0004dd00       _Use_Target_Speaker        2004ed00 f   g_target.obj
 0001:0004ddc0       _Use_target_remove_powerups 2004edc0 f   g_target.obj
 0001:0004de70       _target_kill_use           2004ee70 f   g_target.obj
 0001:0004dea0       _target_laser_off          2004eea0 f   g_target.obj
 0001:0004ded0       _target_laser_on           2004eed0 f   g_target.obj
 0001:0004df10       _target_laser_start        2004ef10 f   g_target.obj
 0001:0004e010       _target_laser_think        2004f010 f   g_target.obj
 0001:0004e480       _target_laser_use          2004f480 f   g_target.obj
 0001:0004e5c0       _target_relay_use          2004f5c0 f   g_target.obj
 0001:0004e690       _target_teleporter_use     2004f690 f   g_target.obj
 0001:0004e700       _AddTeamScore              2004f700 f   g_team.obj
 0001:0004e870       _CheckTeamStatus           2004f870 f   g_team.obj
 0001:0004e9e0       _OnSameTeam                2004f9e0 f   g_team.obj
 0001:0004ea50       _OtherTeam                 2004fa50 f   g_team.obj
 0001:0004ea80       _OtherTeamName             2004fa80 f   g_team.obj
 0001:0004eac0       _Pickup_Team               2004fac0 f   g_team.obj
 0001:0004eb80       _PrintMsg                  2004fb80 f   g_team.obj
 0001:0004ec60       _SP_team_CTF_blueplayer    2004fc60 f   g_team.obj
 0001:0004ec70       _SP_team_CTF_bluespawn     2004fc70 f   g_team.obj
 0001:0004ec80       _SP_team_CTF_redplayer     2004fc80 f   g_team.obj
 0001:0004ec90       _SP_team_CTF_redspawn      2004fc90 f   g_team.obj
 0001:0004eca0       _SelectCTFSpawnPoint       2004fca0 f   g_team.obj
 0001:0004edc0       _SelectRandomTeamSpawnPoint 2004fdc0 f   g_team.obj
 0001:0004ef00       _TeamColorString           2004ff00 f   g_team.obj
 0001:0004ef40       _TeamName                  2004ff40 f   g_team.obj
 0001:0004ef80       _Team_CaptureFlagSound     2004ff80 f   g_team.obj
 0001:0004eff0       _Team_CheckDroppedItem     2004fff0 f   g_team.obj
 0001:0004f060       _Team_CheckHurtCarrier     20050060 f   g_team.obj
 0001:0004f150       _Team_DroppedFlagThink     20050150 f   g_team.obj
 0001:0004f1d0       _Team_ForceGesture         200501d0 f   g_team.obj
 0001:0004f260       _Team_FragBonuses          20050260 f   g_team.obj
 0001:0004fe60       _Team_FreeEntity           20050e60 f   g_team.obj
 0001:0004fec0       _Team_GetLocation          20050ec0 f   g_team.obj
 0001:000500a0       _Team_GetLocationMsg       200510a0 f   g_team.obj
 0001:00050160       _Team_InitGame             20051160 f   g_team.obj
 0001:000501c0       _Team_ResetFlag            200511c0 f   g_team.obj
 0001:00050280       _Team_ResetFlags           20051280 f   g_team.obj
 0001:000502b0       _Team_ReturnFlag           200512b0 f   g_team.obj
 0001:00050310       _Team_ReturnFlagSound      20051310 f   g_team.obj
 0001:00050380       _Team_SetFlagStatus        20051380 f   g_team.obj
 0001:000504b0       _Team_TakeFlagSound        200514b0 f   g_team.obj
 0001:00050590       _Team_TouchEnemyFlag       20051590 f   g_team.obj
 0001:00050660       _Team_TouchOurFlag         20051660 f   g_team.obj
 0001:00050b60       _TeamplayInfoMessage       20051b60 f   g_team.obj
 0001:00050f50       _AimAtTarget               20051f50 f   g_trigger.obj
 0001:000512b0       _InitTrigger               200522b0 f   g_trigger.obj
 0001:00051320       _SP_func_timer             20052320 f   g_trigger.obj
 0001:00051410       _SP_target_push            20052410 f   g_trigger.obj
 0001:00051630       _SP_trigger_always         20052630 f   g_trigger.obj
 0001:00051660       _SP_trigger_hurt           20052660 f   g_trigger.obj
 0001:00051700       _SP_trigger_multiple       20052700 f   g_trigger.obj
 0001:000517d0       _SP_trigger_push           200527d0 f   g_trigger.obj
 0001:00051850       _SP_trigger_teleport       20052850 f   g_trigger.obj
 0001:000518e0       _Touch_Multi               200528e0 f   g_trigger.obj
 0001:00051910       _Use_Multi                 20052910 f   g_trigger.obj
 0001:00051930       _Use_target_push           20052930 f   g_trigger.obj
 0001:00051ac0       _func_timer_think          20052ac0 f   g_trigger.obj
 0001:00051b70       _func_timer_use            20052b70 f   g_trigger.obj
 0001:00051bc0       _hurt_touch                20052bc0 f   g_trigger.obj
 0001:00051ca0       _hurt_use                  20052ca0 f   g_trigger.obj
 0001:00051ce0       _multi_trigger             20052ce0 f   g_trigger.obj
 0001:00051e60       _multi_wait                20052e60 f   g_trigger.obj
 0001:00051e80       _trigger_always_think      20052e80 f   g_trigger.obj
 0001:00051eb0       _trigger_push_touch        20052eb0 f   g_trigger.obj
 0001:00051ef0       _trigger_teleporter_touch  20052ef0 f   g_trigger.obj
 0001:00051fa0       _AddRemap                  20052fa0 f   g_utils.obj
 0001:00052090       _BuildShaderStateConfig    20053090 f   g_utils.obj
 0001:00052280       _DebugLine                 20053280 f   g_utils.obj
 0001:000529c0       _G_AddEvent                200539c0 f   g_utils.obj
 0001:00052ab0       _G_AddPredictableEvent     20053ab0 f   g_utils.obj
 0001:00052af0       _G_EntitiesFree            20053af0 f   g_utils.obj
 0001:00052b60       _G_Find                    20053b60 f   g_utils.obj
 0001:00052bf0       _G_FindConfigstringIndex   20053bf0 f   g_utils.obj
 0001:00052ce0       _G_FreeEntity              20053ce0 f   g_utils.obj
 0001:00052d50       _G_InitGentity             20053d50 f   g_utils.obj
 0001:00052da0       _G_KillBox                 20053da0 f   g_utils.obj
 0001:00052fe0       _G_ModelIndex              20053fe0 f   g_utils.obj
 0001:00053010       _G_PickTarget              20054010 f   g_utils.obj
 0001:000530d0       _G_SetMovedir              200540d0 f   g_utils.obj
 0001:00053210       _G_SetOrigin               20054210 f   g_utils.obj
 0001:00053340       _G_Sound                   20054340 f   g_utils.obj
 0001:00053380       _G_SoundIndex              20054380 f   g_utils.obj
 0001:000533b0       _G_Spawn                   200543b0 f   g_utils.obj
 0001:00053530       _G_TeamCommand             20054530 f   g_utils.obj
 0001:000535b0       _G_TempEntity              200545b0 f   g_utils.obj
 0001:000536e0       _G_UseTargets              200546e0 f   g_utils.obj
 0001:00053890       _tv                        20054890 f   g_utils.obj
 0001:00053900       _vectoyaw                  20054900 f   g_utils.obj
 0001:00053a30       _vtos                      20054a30 f   g_utils.obj
 0001:00053ab0       _BFG_Fire                  20054ab0 f   g_weapon.obj
 0001:00053b20       _Bullet_Fire               20054b20 f   g_weapon.obj
 0001:00053fd0       _CalcMuzzlePoint           20054fd0 f   g_weapon.obj
 0001:00054190       _CalcMuzzlePointOrigin     20055190 f   g_weapon.obj
 0001:00054350       _CheckGauntletAttack       20055350 f   g_weapon.obj
 0001:000546d0       _FireWeapon                200556d0 f   g_weapon.obj
 0001:000548d0       _G_BounceProjectile        200558d0 f   g_weapon.obj
 0001:00054b60       _LogAccuracyHit            20055b60 f   g_weapon.obj
 0001:00054bf0       _ShotgunPattern            20055bf0 f   g_weapon.obj
 0001:00054f20       _ShotgunPellet             20055f20 f   g_weapon.obj
 0001:000550b0       _SnapVectorTowards         200560b0 f   g_weapon.obj
 0001:00055130       _Weapon_Gauntlet           20056130 f   g_weapon.obj
 0001:00055140       _Weapon_GrapplingHook_Fire 20056140 f   g_weapon.obj
 0001:000551a0       _Weapon_HookFree           200561a0 f   g_weapon.obj
 0001:00055200       _Weapon_HookThink          20056200 f   g_weapon.obj
 0001:00055480       _Weapon_LightningFire      20056480 f   g_weapon.obj
 0001:000556e0       _Weapon_Plasmagun_Fire     200566e0 f   g_weapon.obj
 0001:00055750       _Weapon_RocketLauncher_Fire 20056750 f   g_weapon.obj
 0001:000557c0       _weapon_grenadelauncher_fire 200567c0 f   g_weapon.obj
 0001:00055860       _weapon_railgun_fire       20056860 f   g_weapon.obj
 0001:00055dc0       _weapon_supershotgun_fire  20056dc0 f   g_weapon.obj
 0001:00055f20       _AddPointToBounds          20056f20 f   q_math.obj
 0001:000560a0       _AngleDelta                200570a0 f   q_math.obj
 0001:000560d0       _AngleMod                  200570d0 f   q_math.obj
 0001:00056110       _AngleNormalize180         20057110 f   q_math.obj
 0001:00056160       _AngleNormalize360         20057160 f   q_math.obj
 0001:000561a0       _AngleSubtract             200571a0 f   q_math.obj
 0001:00056210       _AngleVectors              20057210 f   q_math.obj
 0001:00056510       _AnglesSubtract            20057510 f   q_math.obj
 0001:000565f0       _AnglesToAxis              200575f0 f   q_math.obj
 0001:000566f0       _AxisClear                 200576f0 f   q_math.obj
 0001:00056820       _AxisCopy                  20057820 f   q_math.obj
 0001:000569b0       _BoxOnPlaneSide            200579b0 f   q_math.obj
 0001:00056bf0       _ByteToDir                 20057bf0 f   q_math.obj
 0001:00056cd0       _ClampChar                 20057cd0 f   q_math.obj
 0001:00056d00       _ClampShort                20057d00 f   q_math.obj
 0001:00056d40       _ClearBounds               20057d40 f   q_math.obj
 0001:00056de0       _ColorBytes3               20057de0 f   q_math.obj
 0001:00056e50       _ColorBytes4               20057e50 f   q_math.obj
 0001:00056ff0       _DirToByte                 20057ff0 f   q_math.obj
 0001:000570e0       _LerpAngle                 200580e0 f   q_math.obj
 0001:00057160       _MakeNormalVectors         20058160 f   q_math.obj
 0001:00057320       _MatrixMultiply            20058320 f   q_math.obj
 0001:00057940       _NormalizeColor            20058940 f   q_math.obj
 0001:00057a90       _PerpendicularVector       20058a90 f   q_math.obj
 0001:00057bb0       _PlaneFromPoints           20058bb0 f   q_math.obj
 0001:00057db0       _ProjectPointOnPlane       20058db0 f   q_math.obj
 0001:00058010       _Q_crandom                 20059010 f   q_math.obj
 0001:00058050       _Q_fabs                    20059050 f   q_math.obj
 0001:00058080       _Q_log2                    20059080 f   q_math.obj
 0001:000580b0       _Q_rand                    200590b0 f   q_math.obj
 0001:000580e0       _Q_random                  200590e0 f   q_math.obj
 0001:00058120       _Q_rsqrt                   20059120 f   q_math.obj
 0001:000581a0       _RadiusFromBounds          200591a0 f   q_math.obj
 0001:00058260       _RotateAroundDirection     20059260 f   q_math.obj
 0001:00058380       _RotatePointAroundVector   20059380 f   q_math.obj
 0001:000588f0       _SetPlaneSignbits          200598f0 f   q_math.obj
 0001:00058950       _Vector4Scale              20059950 f   q_math.obj
 0001:00058a90       _VectorNormalize           20059a90 f   q_math.obj
 0001:00058bc0       _VectorNormalize2          20059bc0 f   q_math.obj
 0001:00058d40       _VectorRotate              20059d40 f   q_math.obj
 0001:00058f00       __DotProduct               20059f00 f   q_math.obj
 0001:00058f80       __VectorAdd                20059f80 f   q_math.obj
 0001:00059020       __VectorCopy               2005a020 f   q_math.obj
 0001:00059090       __VectorMA                 2005a090 f   q_math.obj
 0001:00059140       __VectorScale              2005a140 f   q_math.obj
 0001:000591c0       __VectorSubtract           2005a1c0 f   q_math.obj
 0001:00059260       _vectoangles               2005a260 f   q_math.obj
 0001:000594d0       _COM_BeginParseSession     2005a4d0 f   q_shared.obj
 0001:00059510       _COM_Compress              2005a510 f   q_shared.obj
 0001:00059730       _COM_DefaultExtension      2005a730 f   q_shared.obj
 0001:000597d0       _COM_GetCurrentParseLine   2005a7d0 f   q_shared.obj
 0001:000597f0       _COM_MatchToken            2005a7f0 f   q_shared.obj
 0001:00059840       _COM_Parse                 2005a840 f   q_shared.obj
 0001:00059860       _COM_ParseError            2005a860 f   q_shared.obj
 0001:000598b0       _COM_ParseExt              2005a8b0 f   q_shared.obj
 0001:00059b50       _COM_ParseWarning          2005ab50 f   q_shared.obj
 0001:00059ba0       _COM_SkipPath              2005aba0 f   q_shared.obj
 0001:00059bf0       _COM_StripExtension        2005abf0 f   q_shared.obj
 0001:00059c40       _Com_Clamp                 2005ac40 f   q_shared.obj
 0001:00059c80       _Com_sprintf               2005ac80 f   q_shared.obj
 0001:00059d20       _FloatNoSwap               2005ad20 f   q_shared.obj
 0001:00059d40       _FloatSwap                 2005ad40 f   q_shared.obj
 0001:00059d70       _Info_NextPair             2005ad70 f   q_shared.obj
 0001:00059e60       _Info_RemoveKey            2005ae60 f   q_shared.obj
 0001:00059fe0       _Info_RemoveKey_Big        2005afe0 f   q_shared.obj
 0001:0005a170       _Info_SetValueForKey       2005b170 f   q_shared.obj
 0001:0005a300       _Info_SetValueForKey_Big   2005b300 f   q_shared.obj
 0001:0005a490       _Info_Validate             2005b490 f   q_shared.obj
 0001:0005a4e0       _Info_ValueForKey          2005b4e0 f   q_shared.obj
 0001:0005a680       _Long64NoSwap              2005b680 f   q_shared.obj
 0001:0005a6a0       _Long64Swap                2005b6a0 f   q_shared.obj
 0001:0005a6f0       _LongNoSwap                2005b6f0 f   q_shared.obj
 0001:0005a710       _LongSwap                  2005b710 f   q_shared.obj
 0001:0005a780       _Parse1DMatrix             2005b780 f   q_shared.obj
 0001:0005a800       _Parse2DMatrix             2005b800 f   q_shared.obj
 0001:0005a870       _Parse3DMatrix             2005b870 f   q_shared.obj
 0001:0005a8f0       _Q_CleanStr                2005b8f0 f   q_shared.obj
 0001:0005a980       _Q_PrintStrlen             2005b980 f   q_shared.obj
 0001:0005aa00       _Q_isalpha                 2005ba00 f   q_shared.obj
 0001:0005aa40       _Q_islower                 2005ba40 f   q_shared.obj
 0001:0005aa70       _Q_isprint                 2005ba70 f   q_shared.obj
 0001:0005aaa0       _Q_isupper                 2005baa0 f   q_shared.obj
 0001:0005aad0       _Q_strcat                  2005bad0 f   q_shared.obj
 0001:0005ab20       _Q_stricmp                 2005bb20 f   q_shared.obj
 0001:0005ab60       _Q_stricmpn                2005bb60 f   q_shared.obj
 0001:0005ac40       _Q_strlwr                  2005bc40 f   q_shared.obj
 0001:0005ac90       _Q_strncmp                 2005bc90 f   q_shared.obj
 0001:0005ad10       _Q_strncpyz                2005bd10 f   q_shared.obj
 0001:0005ad80       _Q_strrchr                 2005bd80 f   q_shared.obj
 0001:0005ade0       _Q_strupr                  2005bde0 f   q_shared.obj
 0001:0005ae30       _ShortNoSwap               2005be30 f   q_shared.obj
 0001:0005ae50       _ShortSwap                 2005be50 f   q_shared.obj
 0001:0005ae90       _SkipBracedSection         2005be90 f   q_shared.obj
 0001:0005af20       _SkipRestOfLine            2005bf20 f   q_shared.obj
 0001:0005afe0       _va                        2005bfe0 f   q_shared.obj
 0001:0005b040       ___raise_securityfailure   2005c040 f   LIBCMTD:gs_report.obj
 0001:0005b090       ___report_gsfailure        2005c090 f   LIBCMTD:gs_report.obj
 0001:0005b1a0       ___report_rangecheckfailure 2005c1a0 f   LIBCMTD:gs_report.obj
 0001:0005b1b0       ___report_securityfailure  2005c1b0 f   LIBCMTD:gs_report.obj
 0001:0005b290       ___report_securityfailureEx 2005c290 f   LIBCMTD:gs_report.obj
 0001:0005b3c0       _strcpy                    2005c3c0 f   LIBCMTD:strcat.obj
 0001:0005b3d0       _strcat                    2005c3d0 f   LIBCMTD:strcat.obj
 0001:0005b4c0       _strlen                    2005c4c0 f   LIBCMTD:strlen.obj
 0001:0005b550       _strncpy                   2005c550 f   LIBCMTD:strncpy.obj
 0001:0005b680       __atoi64                   2005c680 f   LIBCMTD:atox.obj
 0001:0005b6a0       __atoi64_l                 2005c6a0 f   LIBCMTD:atox.obj
 0001:0005b6c0       __atoi_l                   2005c6c0 f   LIBCMTD:atox.obj
 0001:0005b6e0       __atol_l                   2005c6e0 f   LIBCMTD:atox.obj
 0001:0005b700       __atoll_l                  2005c700 f   LIBCMTD:atox.obj
 0001:0005b720       _atoi                      2005c720 f   LIBCMTD:atox.obj
 0001:0005b740       _atol                      2005c740 f   LIBCMTD:atox.obj
 0001:0005b760       _atoll                     2005c760 f   LIBCMTD:atox.obj
 0001:0005b780       _rand                      2005c780 f   LIBCMTD:rand.obj
 0001:0005b7c0       _srand                     2005c7c0 f   LIBCMTD:rand.obj
 0001:0005b7d0       @__security_check_cookie@4 2005c7d0 f   LIBCMTD:secchk.obj
 0001:0005b7e0       __fpmath                   2005c7e0 f   LIBCMTD:fpinit.obj
 0001:0005b800       ___setfflag                2005c800 f   LIBCMTD:fpinit.obj
 0001:0005b820       __cfltcvt_init             2005c820 f   LIBCMTD:fpinit.obj
 0001:0005b8e0       __CIsqrt                   2005c8e0 f   LIBCMTD:sqrt.obj
 0001:0005b8f4       _sqrt                      2005c8f4     LIBCMTD:sqrt.obj
 0001:0005b9a0       ??0_LocaleUpdate@@QAE@PAUlocaleinfo_struct@@@Z 2005c9a0 f i LIBCMTD:atof.obj
 0001:0005ba80       ??1_LocaleUpdate@@QAE@XZ   2005ca80 f i LIBCMTD:atof.obj
 0001:0005bab0       ?GetLocaleT@_LocaleUpdate@@QAEPAUlocaleinfo_struct@@XZ 2005cab0 f i LIBCMTD:atof.obj
 0001:0005bac0       ___STRINGTOLD              2005cac0 f   LIBCMTD:atof.obj
 0001:0005bb10       ___strgtold12              2005cb10 f   LIBCMTD:atof.obj
 0001:0005bb60       __atof_l                   2005cb60 f   LIBCMTD:atof.obj
 0001:0005bcb0       _atof                      2005ccb0 f   LIBCMTD:atof.obj
 0001:0005bcd0       __sscanf_l                 2005ccd0 f   LIBCMTD:sscanf.obj
 0001:0005bd00       __sscanf_s_l               2005cd00 f   LIBCMTD:sscanf.obj
 0001:0005bd30       _sscanf                    2005cd30 f   LIBCMTD:sscanf.obj
 0001:0005bd60       _sscanf_s                  2005cd60 f   LIBCMTD:sscanf.obj
 0001:0005bf20       _vsscanf                   2005cf20 f   LIBCMTD:sscanf.obj
 0001:0005bf40       _vsscanf_s                 2005cf40 f   LIBCMTD:sscanf.obj
 0001:0005bf60       _memcpy                    2005cf60 f   LIBCMTD:memcpy.obj
 0001:0005c5b0       _memset                    2005d5b0 f   LIBCMTD:memset.obj
 0001:0005c640       _fabs                      2005d640 f   LIBCMTD:fabs.obj
 0001:0005c740       _strcmp                    2005d740 f   LIBCMTD:strcmp.obj
 0001:0005c7d0       _memmove                   2005d7d0 f   LIBCMTD:memmove.obj
 0001:0005ce20       _strstr                    2005de20 f   LIBCMTD:strstr.obj
 0001:0005d090       __toupper                  2005e090 f   LIBCMTD:toupper.obj
 0001:0005d0a0       __toupper_l                2005e0a0 f   LIBCMTD:toupper.obj
 0001:0005d2e0       _toupper                   2005e2e0 f   LIBCMTD:toupper.obj
 0001:0005d330       __ftol2_sse                2005e330 f   LIBCMTD:ftol2.obj
 0001:0005d339       __ftol2_pentium4           2005e339 f   LIBCMTD:ftol2.obj
 0001:0005d34c       __ftol2_sse_excpt          2005e34c f   LIBCMTD:ftol2.obj
 0001:0005d366       __ftol2                    2005e366 f   LIBCMTD:ftol2.obj
 0001:0005d3e0       __abs64                    2005e3e0 f   LIBCMTD:abs.obj
 0001:0005d420       _abs                       2005e420 f   LIBCMTD:abs.obj
 0001:0005d450       __vscprintf                2005e450 f   LIBCMTD:vsprintf.obj
 0001:0005d470       __vscprintf_helper         2005e470 f   LIBCMTD:vsprintf.obj
 0001:0005d560       __vscprintf_l              2005e560 f   LIBCMTD:vsprintf.obj
 0001:0005d580       __vscprintf_p              2005e580 f   LIBCMTD:vsprintf.obj
 0001:0005d5a0       __vscprintf_p_l            2005e5a0 f   LIBCMTD:vsprintf.obj
 0001:0005d5c0       __vsprintf_l               2005e5c0 f   LIBCMTD:vsprintf.obj
 0001:0005d780       _vsprintf                  2005e780 f   LIBCMTD:vsprintf.obj
 0001:0005d7a0       _strchr                    2005e7a0 f   LIBCMTD:strchr.obj
 0001:0005d80e       ___from_strstr_to_strchr   2005e80e     LIBCMTD:strchr.obj
 0001:0005d8d0       _cos                       2005e8d0 f   LIBCMTD:cos.obj
 0001:0005d910       __CIcos                    2005e910 f   LIBCMTD:cos.obj
 0001:0005d94b       __CIcos_default            2005e94b f   LIBCMTD:cos.obj
 0001:0005d95f       __cos_default              2005e95f     LIBCMTD:cos.obj
 0001:0005da00       _sin                       2005ea00 f   LIBCMTD:sin.obj
 0001:0005da40       __CIsin                    2005ea40 f   LIBCMTD:sin.obj
 0001:0005da7b       __CIsin_default            2005ea7b f   LIBCMTD:sin.obj
 0001:0005da8f       __sin_default              2005ea8f     LIBCMTD:sin.obj
 0001:0005db30       __alloca_probe             2005eb30 f   LIBCMTD:chkstk.obj
 0001:0005db30       __chkstk                   2005eb30 f   LIBCMTD:chkstk.obj
 0001:0005db60       __tolower                  2005eb60 f   LIBCMTD:tolower.obj
 0001:0005db70       __tolower_l                2005eb70 f   LIBCMTD:tolower.obj
 0001:0005ddb0       _tolower                   2005edb0 f   LIBCMTD:tolower.obj
 0001:0005de00       _ceil                      2005ee00 f   LIBCMTD:ceil_pentium4.obj
 0001:0005de40       __ceil_pentium4            2005ee40 f   LIBCMTD:ceil_pentium4.obj
 0001:0005df20       _qsort                     2005ef20 f   LIBCMTD:qsort.obj
 0001:0005e5a0       _atan2                     2005f5a0 f   LIBCMTD:87ctriga.obj
 0001:0005e5aa       __CIatan2                  2005f5aa f   LIBCMTD:87ctriga.obj
 0001:0005e5c0       __invoke_watson_if_error   2005f5c0 f i LIBCMTD:wassert.obj
 0001:0005e5f0       __wassert                  2005f5f0 f   LIBCMTD:wassert.obj
 0001:0005f230       __CRT_INIT@12              20060230 f   LIBCMTD:dllcrt0.obj
 0001:0005f480       __DllMainCRTStartup@12     20060480 f   LIBCMTD:dllcrt0.obj
 0001:0005f670       ___DllXcptFilter           20060670 f   LIBCMTD:dllcrt0.obj
 0001:0005f6a0       __CrtDefaultAllocHook      200606a0 f   LIBCMTD:dbghook.obj
 0001:0005f6b0       __crt_debugger_hook        200606b0 f   LIBCMTD:dbghook.obj
 0001:0005f710       ___crtCloseThreadpoolTimer 20060710 f   LIBCMTD:winapisupp.obj
 0001:0005f740       ___crtCloseThreadpoolWait  20060740 f   LIBCMTD:winapisupp.obj
 0001:0005f770       ___crtCreateEventExW       20060770 f   LIBCMTD:winapisupp.obj
 0001:0005f7d0       ___crtCreateSemaphoreExW   200607d0 f   LIBCMTD:winapisupp.obj
 0001:0005f830       ___crtCreateSymbolicLinkW  20060830 f   LIBCMTD:winapisupp.obj
 0001:0005f870       ___crtCreateThreadpoolTimer 20060870 f   LIBCMTD:winapisupp.obj
 0001:0005f8b0       ___crtCreateThreadpoolWait 200608b0 f   LIBCMTD:winapisupp.obj
 0001:0005f8f0       ___crtFlsAlloc             200608f0 f   LIBCMTD:winapisupp.obj
 0001:0005f920       ___crtFlsFree              20060920 f   LIBCMTD:winapisupp.obj
 0001:0005f960       ___crtFlsGetValue          20060960 f   LIBCMTD:winapisupp.obj
 0001:0005f9a0       ___crtFlsSetValue          200609a0 f   LIBCMTD:winapisupp.obj
 0001:0005f9e0       ___crtFlushProcessWriteBuffers 200609e0 f   LIBCMTD:winapisupp.obj
 0001:0005fa10       ___crtFreeLibraryWhenCallbackReturns 20060a10 f   LIBCMTD:winapisupp.obj
 0001:0005fa40       ___crtGetCurrentProcessorNumber 20060a40 f   LIBCMTD:winapisupp.obj
 0001:0005fa70       ___crtGetFileInformationByHandleEx 20060a70 f   LIBCMTD:winapisupp.obj
 0001:0005fab0       ___crtGetLogicalProcessorInformation 20060ab0 f   LIBCMTD:winapisupp.obj
 0001:0005faf0       ___crtGetShowWindowMode    20060af0 f   LIBCMTD:winapisupp.obj
 0001:0005fb20       ___crtGetTickCount64       20060b20 f   LIBCMTD:winapisupp.obj
 0001:0005fb50       ___crtInitializeCriticalSectionEx 20060b50 f   LIBCMTD:winapisupp.obj
 0001:0005fba0       ___crtIsPackagedApp        20060ba0 f   LIBCMTD:winapisupp.obj
 0001:0005fbe0       ___crtLoadWinApiPointers   20060be0 f   LIBCMTD:winapisupp.obj
 0001:00060080       ___crtSetFileInformationByHandle 20061080 f   LIBCMTD:winapisupp.obj
 0001:000600c0       ___crtSetThreadStackGuarantee 200610c0 f   LIBCMTD:winapisupp.obj
 0001:000600f0       ___crtSetThreadpoolTimer   200610f0 f   LIBCMTD:winapisupp.obj
 0001:00060130       ___crtSetThreadpoolWait    20061130 f   LIBCMTD:winapisupp.obj
 0001:00060160       ___crtSetUnhandledExceptionFilter 20061160 f   LIBCMTD:winapisupp.obj
 0001:00060170       ___crtSleep                20061170 f   LIBCMTD:winapisupp.obj
 0001:00060180       ___crtTerminateProcess     20061180 f   LIBCMTD:winapisupp.obj
 0001:000601a0       ___crtUnhandledException   200611a0 f   LIBCMTD:winapisupp.obj
 0001:000601c0       ___crtWaitForThreadpoolTimerCallbacks 200611c0 f   LIBCMTD:winapisupp.obj
 0001:00060720       __strtof_l                 20061720 f   LIBCMTD:strtoq.obj
 0001:00060750       __strtoi64                 20061750 f   LIBCMTD:strtoq.obj
 0001:000607a0       __strtoi64_l               200617a0 f   LIBCMTD:strtoq.obj
 0001:000607c0       __strtoimax_l              200617c0 f   LIBCMTD:strtoq.obj
 0001:000607e0       __strtold_l                200617e0 f   LIBCMTD:strtoq.obj
 0001:00060800       __strtoll_l                20061800 f   LIBCMTD:strtoq.obj
 0001:00060820       __strtoui64                20061820 f   LIBCMTD:strtoq.obj
 0001:00060870       __strtoui64_l              20061870 f   LIBCMTD:strtoq.obj
 0001:00060890       __strtoull_l               20061890 f   LIBCMTD:strtoq.obj
 0001:000608b0       __strtoumax_l              200618b0 f   LIBCMTD:strtoq.obj
 0001:000608d0       _strtof                    200618d0 f   LIBCMTD:strtoq.obj
 0001:00060900       _strtoimax                 20061900 f   LIBCMTD:strtoq.obj
 0001:00060920       _strtold                   20061920 f   LIBCMTD:strtoq.obj
 0001:00060940       _strtoll                   20061940 f   LIBCMTD:strtoq.obj
 0001:00060960       _strtoull                  20061960 f   LIBCMTD:strtoq.obj
 0001:00060980       _strtoumax                 20061980 f   LIBCMTD:strtoq.obj
 0001:00060ea0       __strtol_l                 20061ea0 f   LIBCMTD:strtol.obj
 0001:00060ec0       __strtoul_l                20061ec0 f   LIBCMTD:strtol.obj
 0001:00060ee0       _strtol                    20061ee0 f   LIBCMTD:strtol.obj
 0001:00060f30       _strtoul                   20061f30 f   LIBCMTD:strtol.obj
 0001:00060f80       ___get_flsindex            20061f80 f   LIBCMTD:tidtable.obj
 0001:00060f90       ___threadhandle            20061f90 f   LIBCMTD:tidtable.obj
 0001:00060fa0       ___threadid                20061fa0 f   LIBCMTD:tidtable.obj
 0001:00060fb0       __freefls@4                20061fb0 f   LIBCMTD:tidtable.obj
 0001:000611b0       __freeptd                  200621b0 f   LIBCMTD:tidtable.obj
 0001:000611f0       __getptd                   200621f0 f   LIBCMTD:tidtable.obj
 0001:00061220       __getptd_noexit            20062220 f   LIBCMTD:tidtable.obj
 0001:000612d0       __initptd                  200622d0 f   LIBCMTD:tidtable.obj
 0001:00061410       __mtinit                   20062410 f   LIBCMTD:tidtable.obj
 0001:000614c0       __mtterm                   200624c0 f   LIBCMTD:tidtable.obj
 0001:000614f0       ?strrchr@@YAPADPADH@Z      200624f0 f i LIBCMTD:cvt.obj
 0001:00061510       __cfltcvt                  20062510 f   LIBCMTD:cvt.obj
 0001:00061540       __cfltcvt_l                20062540 f   LIBCMTD:cvt.obj
 0001:00061600       __cftoa                    20062600 f   LIBCMTD:cvt.obj
 0001:00061630       __cftoa_l                  20062630 f   LIBCMTD:cvt.obj
 0001:00061ea0       __cftoe                    20062ea0 f   LIBCMTD:cvt.obj
 0001:000622e0       __cftoe_l                  200632e0 f   LIBCMTD:cvt.obj
 0001:00062510       __cftof                    20063510 f   LIBCMTD:cvt.obj
 0001:000627c0       __cftof_l                  200637c0 f   LIBCMTD:cvt.obj
 0001:000629c0       __cftog                    200639c0 f   LIBCMTD:cvt.obj
 0001:000629f0       __cftog_l                  200639f0 f   LIBCMTD:cvt.obj
 0001:00062c80       __cropzeros                20063c80 f   LIBCMTD:cvt.obj
 0001:00062ca0       __cropzeros_l              20063ca0 f   LIBCMTD:cvt.obj
 0001:00062dc0       __fassign                  20063dc0 f   LIBCMTD:cvt.obj
 0001:00062de0       __fassign_l                20063de0 f   LIBCMTD:cvt.obj
 0001:00062e30       __forcdecpt                20063e30 f   LIBCMTD:cvt.obj
 0001:00062e50       __forcdecpt_l              20063e50 f   LIBCMTD:cvt.obj
 0001:00062f20       __positive                 20063f20 f   LIBCMTD:cvt.obj
 0001:00062f80       __setdefaultprecision      20063f80 f   LIBCMTD:fp8.obj
 0001:00062fc0       __initp_misc_cfltcvt_tab   20063fc0 f   LIBCMTD:cmiscdat.obj
 0001:00063000       __trandisp1                20064000 f   LIBCMTD:87disp.obj
 0001:00063067       __trandisp2                20064067 f   LIBCMTD:87disp.obj
 0001:000630f3       __rttospopde               200640f3     LIBCMTD:87disp.obj
 0001:000630f8       __rttospop                 200640f8     LIBCMTD:87disp.obj
 0001:000630fa       __rtnospop                 200640fa     LIBCMTD:87disp.obj
 0001:000630fc       __rttosnpop                200640fc     LIBCMTD:87disp.obj
 0001:000630fd       __rtnospopde               200640fd     LIBCMTD:87disp.obj
 0001:00063104       __rtzeropop                20064104     LIBCMTD:87disp.obj
 0001:00063106       __rtzeronpop               20064106     LIBCMTD:87disp.obj
 0001:0006310b       __rtonepop                 2006410b     LIBCMTD:87disp.obj
 0001:0006310d       __rtonenpop                2006410d     LIBCMTD:87disp.obj
 0001:00063112       __tosnan1                  20064112     LIBCMTD:87disp.obj
 0001:0006313d       __nosnan2                  2006413d     LIBCMTD:87disp.obj
 0001:0006313f       __tosnan2                  2006413f     LIBCMTD:87disp.obj
 0001:00063167       __nan2                     20064167     LIBCMTD:87disp.obj
 0001:000631a6       __rtindfpop                200641a6     LIBCMTD:87disp.obj
 0001:000631a8       __rtindfnpop               200641a8     LIBCMTD:87disp.obj
 0001:000631b9       __rttosnpopde              200641b9     LIBCMTD:87disp.obj
 0001:000631c3       __rtchsifneg               200641c3     LIBCMTD:87disp.obj
 0001:000631d0       __startTwoArgErrorHandling 200641d0 f   LIBCMTD:genexcep.obj
 0001:000631e7       __startOneArgErrorHandling 200641e7 f   LIBCMTD:genexcep.obj
 0001:00063230       __twoToTOS                 20064230 f   LIBCMTD:common.obj
 0001:00063245       __load_CW                  20064245 f   LIBCMTD:common.obj
 0001:0006325c       __convertTOStoQNaN         2006425c f   LIBCMTD:common.obj
 0001:00063275       __fload_withFB             20064275 f   LIBCMTD:common.obj
 0001:000632b8       __checkTOS_withFB          200642b8 f   LIBCMTD:common.obj
 0001:000632ce       __fast_exit                200642ce f   LIBCMTD:common.obj
 0001:000632db       __math_exit                200642db f   LIBCMTD:common.obj
 0001:00063305       __check_overflow_exit      20064305 f   LIBCMTD:common.obj
 0001:00063319       __check_range_exit         20064319 f   LIBCMTD:common.obj
 0001:000633c0       ?_invalid_parameter@@YAXPBG00II@Z 200643c0 f   LIBCMTD:invarg.obj
 0001:000633f0       ?_invoke_watson@@YAXPBG00II@Z 200643f0 f   LIBCMTD:invarg.obj
 0001:00063410       __call_reportfault         20064410 f   LIBCMTD:invarg.obj
 0001:00063570       __get_invalid_parameter_handler 20064570 f   LIBCMTD:invarg.obj
 0001:000635a0       __initp_misc_invarg        200645a0 f   LIBCMTD:invarg.obj
 0001:000635b0       __invalid_parameter        200645b0 f   LIBCMTD:invarg.obj
 0001:00063610       __invoke_watson            20064610 f   LIBCMTD:invarg.obj
 0001:00063650       __set_invalid_parameter_handler 20064650 f   LIBCMTD:invarg.obj
 0001:00063690       ___doserrno                20064690 f   LIBCMTD:dosmap.obj
 0001:000636c0       __dosmaperr                200646c0 f   LIBCMTD:dosmap.obj
 0001:000636f0       __errno                    200646f0 f   LIBCMTD:dosmap.obj
 0001:00063720       __get_doserrno             20064720 f   LIBCMTD:dosmap.obj
 0001:000637b0       __get_errno                200647b0 f   LIBCMTD:dosmap.obj
 0001:00063840       __get_errno_from_oserr     20064840 f   LIBCMTD:dosmap.obj
 0001:000638c0       __set_doserrno             200648c0 f   LIBCMTD:dosmap.obj
 0001:000638f0       __set_errno                200648f0 f   LIBCMTD:dosmap.obj
 0001:00063920       __fltin2                   20064920 f   LIBCMTD:cfin.obj
 0001:00063a00       ___STRINGTOLD_L            20064a00 f   LIBCMTD:strgtold.obj
 0001:00063a70       ___addl                    20064a70 f i LIBCMTD:strgtold.obj
 0001:00063ab0       ___ld12mul                 20064ab0 f i LIBCMTD:strgtold.obj
 0001:00063ec0       ___multtenpow12            20064ec0 f i LIBCMTD:strgtold.obj
 0001:00063fa0       ___shl_12                  20064fa0 f i LIBCMTD:strgtold.obj
 0001:00064020       ___shr_12                  20065020 f i LIBCMTD:strgtold.obj
 0001:000640a0       ___strgtold12_l            200650a0 f   LIBCMTD:strgtold.obj
 0001:00064b90       ___addlocaleref            20065b90 f   LIBCMTD:localref.obj
 0001:00064cb0       ___freetlocinfo            20065cb0 f   LIBCMTD:localref.obj
 0001:00064fa0       ___removelocaleref         20065fa0 f   LIBCMTD:localref.obj
 0001:000650c0       ___updatetlocinfo          200660c0 f   LIBCMTD:localref.obj
 0001:00065190       __updatetlocinfoEx_nolock  20066190 f   LIBCMTD:localref.obj
 0001:00065210       ___initmbctable            20066210 f   LIBCMTD:mbctype.obj
 0001:00065830       ___updatetmbcinfo          20066830 f   LIBCMTD:mbctype.obj
 0001:00065950       __getmbcp                  20066950 f   LIBCMTD:mbctype.obj
 0001:000659c0       __setmbcp                  200669c0 f   LIBCMTD:mbctype.obj
 0001:00065c60       __setmbcp_nolock           20066c60 f   LIBCMTD:mbctype.obj
 0001:00065fe0       __chvalidator              20066fe0 f   LIBCMTD:isctype.obj
 0001:00066030       __chvalidator_l            20067030 f   LIBCMTD:isctype.obj
 0001:000660f0       __isctype                  200670f0 f   LIBCMTD:isctype.obj
 0001:00066130       __isctype_l                20067130 f   LIBCMTD:isctype.obj
 0001:00066280       ?_CrtDbgReportW@@YAHHPBGH00ZZ 20067280 f   LIBCMTD:dbgrptw.obj
 0001:000662d0       __CrtDbgReportW            200672d0 f   LIBCMTD:dbgrptw.obj
 0001:00066320       __CrtDbgReportWV           20067320 f i LIBCMTD:dbgrptw.obj
 0001:00066350       __CrtSetReportHookW2       20067350 f   LIBCMTD:dbgrptw.obj
 0001:000666a0       ___crtMessageWindowW       200676a0 f   LIBCMTD:dbgrptw.obj
 0001:00066b50       __invoke_watson_if_oneof   20067b50 f i LIBCMTD:dbgrptw.obj
 0001:00066b90       __INTRN_LOCALE_CONV        20067b90 f i LIBCMTD:input.obj
 0001:00066d60       __input_l                  20067d60 f   LIBCMTD:input.obj
 0001:00068c60       __input_s_l                20069c60 f   LIBCMTD:inputs.obj
 0001:0006ae40       ___isa_available_init      2006be40 f   LIBCMTD:cpu_disp.obj
 0001:0006b0f0       __VEC_memset               2006c0f0 f   LIBCMTD:p4_memset.obj
 0001:0006b1c0       __errcode                  2006c1c0 f   LIBCMTD:fpexcept.obj
 0001:0006b230       __except1                  2006c230 f   LIBCMTD:fpexcept.obj
 0001:0006b330       __except2                  2006c330 f   LIBCMTD:fpexcept.obj
 0001:0006b480       __handle_exc               2006c480 f   LIBCMTD:fpexcept.obj
 0001:0006b7a0       __handle_qnan1             2006c7a0 f   LIBCMTD:fpexcept.obj
 0001:0006b800       __handle_qnan2             2006c800 f   LIBCMTD:fpexcept.obj
 0001:0006b870       __raise_exc                2006c870 f   LIBCMTD:fpexcept.obj
 0001:0006b8a0       __raise_exc_ex             2006c8a0 f   LIBCMTD:fpexcept.obj
 0001:0006be20       __raise_excf               2006ce20 f   LIBCMTD:fpexcept.obj
 0001:0006be50       __set_errno_from_matherr   2006ce50 f   LIBCMTD:fpexcept.obj
 0001:0006be90       __umatherr                 2006ce90 f   LIBCMTD:fpexcept.obj
 0001:0006bf30       __add_exp                  2006cf30 f   LIBCMTD:util.obj
 0001:0006bf60       __decomp                   2006cf60 f   LIBCMTD:util.obj
 0001:0006c080       __get_exp                  2006d080 f   LIBCMTD:util.obj
 0001:0006c0b0       __set_bexp                 2006d0b0 f   LIBCMTD:util.obj
 0001:0006c0e0       __set_exp                  2006d0e0 f   LIBCMTD:util.obj
 0001:0006c120       __sptype                   2006d120 f   LIBCMTD:util.obj
 0001:0006c1a0       ___clrfp_sse2              2006d1a0 f   LIBCMTD:fpctrl.obj
 0001:0006c1e0       ___ctrlfp_sse2             2006d1e0 f   LIBCMTD:fpctrl.obj
 0001:0006c240       ___fclrf_sse2              2006d240 f   LIBCMTD:fpctrl.obj
 0001:0006c260       ___get_fpsr_sse2           2006d260 f   LIBCMTD:fpctrl.obj
 0001:0006c290       ___set_fpsr_sse2           2006d290 f   LIBCMTD:fpctrl.obj
 0001:0006c370       ___set_statfp_sse2         2006d370 f   LIBCMTD:fpctrl.obj
 0001:0006c3a0       ___statfp_sse2             2006d3a0 f   LIBCMTD:fpctrl.obj
 0001:0006c3d0       __clrfp                    2006d3d0 f   LIBCMTD:fpctrl.obj
 0001:0006c3f0       __ctrlfp                   2006d3f0 f   LIBCMTD:fpctrl.obj
 0001:0006c420       __set_statfp               2006d420 f   LIBCMTD:fpctrl.obj
 0001:0006c490       __statfp                   2006d490 f   LIBCMTD:fpctrl.obj
 0001:0006c4a0       ___iswcsym                 2006d4a0 f i LIBCMTD:_wctype.obj
 0001:0006c4e0       ___iswcsymf                2006d4e0 f i LIBCMTD:_wctype.obj
 0001:0006c520       __isleadbyte_l             2006d520 f i LIBCMTD:_wctype.obj
 0001:0006c570       __iswalnum_l               2006d570 f i LIBCMTD:_wctype.obj
 0001:0006c590       __iswalpha_l               2006d590 f i LIBCMTD:_wctype.obj
 0001:0006c5b0       __iswblank_l               2006d5b0 f i LIBCMTD:_wctype.obj
 0001:0006c5e0       __iswcntrl_l               2006d5e0 f i LIBCMTD:_wctype.obj
 0001:0006c600       __iswcsym_l                2006d600 f i LIBCMTD:_wctype.obj
 0001:0006c640       __iswcsymf_l               2006d640 f i LIBCMTD:_wctype.obj
 0001:0006c680       __iswdigit_l               2006d680 f i LIBCMTD:_wctype.obj
 0001:0006c6a0       __iswgraph_l               2006d6a0 f i LIBCMTD:_wctype.obj
 0001:0006c6c0       __iswlower_l               2006d6c0 f i LIBCMTD:_wctype.obj
 0001:0006c6e0       __iswprint_l               2006d6e0 f i LIBCMTD:_wctype.obj
 0001:0006c700       __iswpunct_l               2006d700 f i LIBCMTD:_wctype.obj
 0001:0006c720       __iswspace_l               2006d720 f i LIBCMTD:_wctype.obj
 0001:0006c740       __iswupper_l               2006d740 f i LIBCMTD:_wctype.obj
 0001:0006c760       __iswxdigit_l              2006d760 f i LIBCMTD:_wctype.obj
 0001:0006c780       _isleadbyte                2006d780 f i LIBCMTD:_wctype.obj
 0001:0006c7a0       _iswalnum                  2006d7a0 f i LIBCMTD:_wctype.obj
 0001:0006c7c0       _iswalpha                  2006d7c0 f i LIBCMTD:_wctype.obj
 0001:0006c7e0       _iswascii                  2006d7e0 f i LIBCMTD:_wctype.obj
 0001:0006c810       _iswblank                  2006d810 f i LIBCMTD:_wctype.obj
 0001:0006c840       _iswcntrl                  2006d840 f i LIBCMTD:_wctype.obj
 0001:0006c860       _iswdigit                  2006d860 f i LIBCMTD:_wctype.obj
 0001:0006c880       _iswgraph                  2006d880 f i LIBCMTD:_wctype.obj
 0001:0006c8a0       _iswlower                  2006d8a0 f i LIBCMTD:_wctype.obj
 0001:0006c8c0       _iswprint                  2006d8c0 f i LIBCMTD:_wctype.obj
 0001:0006c8e0       _iswpunct                  2006d8e0 f i LIBCMTD:_wctype.obj
 0001:0006c900       _iswspace                  2006d900 f i LIBCMTD:_wctype.obj
 0001:0006c920       _iswupper                  2006d920 f i LIBCMTD:_wctype.obj
 0001:0006c940       _iswxdigit                 2006d940 f i LIBCMTD:_wctype.obj
 0001:0006cc90       __MallocaIsSizeInRange     2006dc90 f i LIBCMTD:a_map.obj
 0001:0006ccc0       __MarkAllocaS              2006dcc0 f i LIBCMTD:a_map.obj
 0001:0006cce0       ___crtLCMapStringA         2006dce0 f   LIBCMTD:a_map.obj
 0001:0006cd40       __freea                    2006dd40 f i LIBCMTD:a_map.obj
 0001:0006cdb0       ___init_dummy              2006ddb0 f   LIBCMTD:wsetloca.obj
 0001:0006cdc0       __locterm                  2006ddc0 f   LIBCMTD:wsetloca.obj
 0001:0006ce50       ____setlc_active_func      2006de50 f   LIBCMTD:wsetloca.obj
 0001:0006ce60       ____unguarded_readlc_active_add_func 2006de60 f   LIBCMTD:wsetloca.obj
 0001:0006ce70       ___copy_locale_name        2006de70 f   LIBCMTD:wsetloca.obj
 0001:0006cf10       ___create_locale           2006df10 f   LIBCMTD:wsetloca.obj
 0001:0006cf30       ___free_locale             2006df30 f   LIBCMTD:wsetloca.obj
 0001:0006cf50       ___get_current_locale      2006df50 f   LIBCMTD:wsetloca.obj
 0001:0006cf60       ___lc_lctowcs              2006df60 f   LIBCMTD:wsetloca.obj
 0001:0006d010       ___lc_wcstolc              2006e010 f   LIBCMTD:wsetloca.obj
 0001:0006d230       __configthreadlocale       2006e230 f   LIBCMTD:wsetloca.obj
 0001:0006d390       __create_locale            2006e390 f   LIBCMTD:wsetloca.obj
 0001:0006d400       __expandlocale             2006e400 f   LIBCMTD:wsetloca.obj
 0001:0006d8f0       __free_locale              2006e8f0 f   LIBCMTD:wsetloca.obj
 0001:0006da20       __get_current_locale       2006ea20 f   LIBCMTD:wsetloca.obj
 0001:0006db40       __wcreate_locale           2006eb40 f   LIBCMTD:wsetloca.obj
 0001:0006dd30       __wcscats                  2006ed30 f   LIBCMTD:wsetloca.obj
 0001:0006ddb0       __wsetlocale               2006edb0 f   LIBCMTD:wsetloca.obj
 0001:0006ee40       __flsbuf                   2006fe40 f   LIBCMTD:_flsbuf.obj
 0001:0006f110       __output_l                 20070110 f   LIBCMTD:output.obj
 0001:000707c0       _get_int64_arg             200717c0 f i LIBCMTD:output.obj
 0001:000707e0       _get_int_arg               200717e0 f i LIBCMTD:output.obj
 0001:00070800       _get_short_arg             20071800 f i LIBCMTD:output.obj
 0001:000709c0       __output_p_l               200719c0 f   LIBCMTD:outputp.obj
 0001:000747c0       __validate_param_reuseA    200757c0 f   LIBCMTD:outputp.obj
 0001:00074ab0       _get_crtdouble_arg         20075ab0 f i LIBCMTD:outputp.obj
 0001:00074c70       __sse2_mathfcns_init       20075c70 f   LIBCMTD:mathfcns.obj
 0001:00074c90       __set_SSE2_enable          20075c90 f   LIBCMTD:mathfcns.obj
 0001:00074ce0       __CIcos_pentium4           20075ce0 f   LIBCMTD:cos_pentium4.obj
 0001:00074cf8       __cos_pentium4             20075cf8     LIBCMTD:cos_pentium4.obj
 0001:00074e90       __CIsin_pentium4           20075e90 f   LIBCMTD:sin_pentium4.obj
 0001:00074ea8       __sin_pentium4             20075ea8     LIBCMTD:sin_pentium4.obj
 0001:00075060       ___libm_error_support      20076060 f   LIBCMTD:libm_error.obj
 0001:00075c30       ___libm_setusermatherr     20076c30 f   LIBCMTD:libm_error.obj
 0001:00075c60       __ceil_default             20076c60 f   LIBCMTD:ceil.obj
 0001:00075dbc       __fFATN2                   20076dbc     LIBCMTD:87triga.obj
 0001:00075e0c       __rtpiby2                  20076e0c     LIBCMTD:87triga.obj
 0001:00075e50       __cintrindisp2             20076e50 f   LIBCMTD:87cdisp.obj
 0001:00075e8e       __cintrindisp1             20076e8e f   LIBCMTD:87cdisp.obj
 0001:00075ecb       __ctrandisp2               20076ecb f   LIBCMTD:87cdisp.obj
 0001:0007605a       __ctrandisp1               2007705a f   LIBCMTD:87cdisp.obj
 0001:0007608d       __fload                    2007708d f   LIBCMTD:87cdisp.obj
 0001:000760d0       _memcpy_s                  200770d0 f   LIBCMTD:memcpy_s.obj
 0001:000762a0       _wcscat_s                  200772a0 f   LIBCMTD:wcscat_s.obj
 0001:000766b0       _wcscpy_s                  200776b0 f   LIBCMTD:wcscpy_s.obj
 0001:000769c0       _wcslen                    200779c0 f   LIBCMTD:wcslen.obj
 0001:00076a00       _wcsncat_s                 20077a00 f   LIBCMTD:wcsncat_s.obj
 0001:00076ef0       ___copy_path_to_wide_string 20077ef0 f   LIBCMTD:crt0dat.obj
 0001:000770e0       ___copy_to_char            200780e0 f   LIBCMTD:crt0dat.obj
 0001:000772d0       ___crtCorExitProcess       200782d0 f   LIBCMTD:crt0dat.obj
 0001:00077310       ___crtExitProcess          20078310 f   LIBCMTD:crt0dat.obj
 0001:00077330       ___freeCrtMemory           20078330 f   LIBCMTD:crt0dat.obj
 0001:00077500       __amsg_exit                20078500 f   LIBCMTD:crt0dat.obj
 0001:00077520       __c_exit                   20078520 f   LIBCMTD:crt0dat.obj
 0001:00077540       __cexit                    20078540 f   LIBCMTD:crt0dat.obj
 0001:00077560       __cinit                    20078560 f   LIBCMTD:crt0dat.obj
 0001:00077600       __exit                     20078600 f   LIBCMTD:crt0dat.obj
 0001:00077620       __exit_app                 20078620 f   LIBCMTD:crt0dat.obj
 0001:00077640       __get_pgmptr               20078640 f   LIBCMTD:crt0dat.obj
 0001:00077760       __get_wpgmptr              20078760 f   LIBCMTD:crt0dat.obj
 0001:00077880       __init_pointers            20078880 f   LIBCMTD:crt0dat.obj
 0001:00077910       __initterm_e               20078910 f   LIBCMTD:crt0dat.obj
 0001:00077950       __lockexit                 20078950 f   LIBCMTD:crt0dat.obj
 0001:00077960       __unlockexit               20078960 f   LIBCMTD:crt0dat.obj
 0001:00077b60       _exit                      20078b60 f   LIBCMTD:crt0dat.obj
 0001:00077b80       __set_abort_behavior       20078b80 f   LIBCMTD:abort.obj
 0001:00077bb0       _abort                     20078bb0 f   LIBCMTD:abort.obj
 0001:00077c20       ___set_app_type            20078c20 f   LIBCMTD:errmode.obj
 0001:00077c30       __set_error_mode           20078c30 f   LIBCMTD:errmode.obj
 0001:00078130       __i64tow_s                 20079130 f   LIBCMTD:xtows.obj
 0001:00078180       __itow_s                   20079180 f   LIBCMTD:xtows.obj
 0001:000781e0       __ltow_s                   200791e0 f   LIBCMTD:xtows.obj
 0001:00078220       __ui64tow_s                20079220 f   LIBCMTD:xtows.obj
 0001:00078240       __ultow_s                  20079240 f   LIBCMTD:xtows.obj
 0001:00078660       ___initstdio               20079660 f   LIBCMTD:_file.obj
 0001:00078730       ___endstdio                20079730 f   LIBCMTD:_file.obj
 0001:00078770       ___iob_func                20079770 f   LIBCMTD:_file.obj
 0001:00078780       __lock_file                20079780 f   LIBCMTD:_file.obj
 0001:000787e0       __lock_file2               200797e0 f   LIBCMTD:_file.obj
 0001:00078820       __unlock_file              20079820 f   LIBCMTD:_file.obj
 0001:00078880       __unlock_file2             20079880 f   LIBCMTD:_file.obj
 0001:000788c0       __fflush_nolock            200798c0 f   LIBCMTD:fflush.obj
 0001:00078930       __flush                    20079930 f   LIBCMTD:fflush.obj
 0001:000789f0       __flushall                 200799f0 f   LIBCMTD:fflush.obj
 0001:00078a00       _fflush                    20079a00 f   LIBCMTD:fflush.obj
 0001:00078c40       _setvbuf                   20079c40 f   LIBCMTD:setvbuf.obj
 0001:00078f40       __fwprintf_l               20079f40 f   LIBCMTD:fwprintf.obj
 0001:00078f70       __fwprintf_p               20079f70 f   LIBCMTD:fwprintf.obj
 0001:00078fa0       __fwprintf_p_l             20079fa0 f   LIBCMTD:fwprintf.obj
 0001:00078fd0       __fwprintf_s_l             20079fd0 f   LIBCMTD:fwprintf.obj
 0001:00079000       _fwprintf                  2007a000 f   LIBCMTD:fwprintf.obj
 0001:000791b0       _fwprintf_s                2007a1b0 f   LIBCMTD:fwprintf.obj
 0001:000791e0       __vsnwprintf_s             2007a1e0 f   LIBCMTD:vswprnc.obj
 0001:00079210       __vsnwprintf_s_l           2007a210 f   LIBCMTD:vswprnc.obj
 0001:000795e0       __vswprintf_c              2007a5e0 f   LIBCMTD:vswprnc.obj
 0001:00079630       __vswprintf_c_l            2007a630 f   LIBCMTD:vswprnc.obj
 0001:00079680       __vswprintf_helper         2007a680 f   LIBCMTD:vswprnc.obj
 0001:000798f0       __vswprintf_p              2007a8f0 f   LIBCMTD:vswprnc.obj
 0001:00079940       __vswprintf_p_l            2007a940 f   LIBCMTD:vswprnc.obj
 0001:00079990       __vswprintf_s_l            2007a990 f   LIBCMTD:vswprnc.obj
 0001:00079c20       _vswprintf_s               2007ac20 f   LIBCMTD:vswprnc.obj
 0001:00079c40       ___fpecode                 2007ac40 f   LIBCMTD:winsig.obj
 0001:00079c50       ___get_sigabrt             2007ac50 f   LIBCMTD:winsig.obj
 0001:00079c70       ___pxcptinfoptrs           2007ac70 f   LIBCMTD:winsig.obj
 0001:00079c80       __initp_misc_winsig        2007ac80 f   LIBCMTD:winsig.obj
 0001:00079db0       _raise                     2007adb0 f   LIBCMTD:winsig.obj
 0001:0007a140       _signal                    2007b140 f   LIBCMTD:winsig.obj
 0001:0007a4f0       ___crtMessageBoxW          2007b4f0 f   LIBCMTD:crtmboxw.obj
 0001:0007a800       ___crtMessageBoxWaitThreadW@4 2007b800 f   LIBCMTD:crtmboxw.obj
 0001:0007a840       __FF_MSGBANNER             2007b840 f   LIBCMTD:crt0msg.obj
 0001:0007a890       __GET_RTERRMSG             2007b890 f   LIBCMTD:crt0msg.obj
 0001:0007a8d0       __NMSG_WRITE               2007b8d0 f   LIBCMTD:crt0msg.obj
 0001:0007ac90       __XcptFilter               2007bc90 f   LIBCMTD:winxfltr.obj
 0001:0007ae90       ___CppXcptFilter           2007be90 f   LIBCMTD:winxfltr.obj
 0001:0007af20       __get_heap_handle          2007bf20 f   LIBCMTD:heapinit.obj
 0001:0007af60       __heap_init                2007bf60 f   LIBCMTD:heapinit.obj
 0001:0007af90       __heap_term                2007bf90 f   LIBCMTD:heapinit.obj
 0001:0007afa0       __ioinit                   2007bfa0 f   LIBCMTD:ioinit.obj
 0001:0007b480       __ioterm                   2007c480 f   LIBCMTD:ioinit.obj
 0001:0007b520       __set_pgmptr               2007c520 f i LIBCMTD:stdargv.obj
 0001:0007b530       __setargv                  2007c530 f   LIBCMTD:stdargv.obj
 0001:0007ba00       __setenvp                  2007ca00 f   LIBCMTD:stdenvp.obj
 0001:0007c030       __CrtCheckMemory           2007d030 f   LIBCMTD:dbgheap.obj
 0001:0007c490       __CrtDoForAllClientObjects 2007d490 f   LIBCMTD:dbgheap.obj
 0001:0007c5c0       __CrtDumpMemoryLeaks       2007d5c0 f   LIBCMTD:dbgheap.obj
 0001:0007c660       __CrtGetAllocHook          2007d660 f   LIBCMTD:dbgheap.obj
 0001:0007c670       __CrtGetCheckCount         2007d670 f   LIBCMTD:dbgheap.obj
 0001:0007c680       __CrtGetDumpClient         2007d680 f   LIBCMTD:dbgheap.obj
 0001:0007c690       __CrtIsMemoryBlock         2007d690 f   LIBCMTD:dbgheap.obj
 0001:0007c800       __CrtIsValidHeapPointer    2007d800 f   LIBCMTD:dbgheap.obj
 0001:0007c840       __CrtIsValidPointer        2007d840 f   LIBCMTD:dbgheap.obj
 0001:0007c870       __CrtMemCheckpoint         2007d870 f   LIBCMTD:dbgheap.obj
 0001:0007caa0       __CrtMemDifference         2007daa0 f   LIBCMTD:dbgheap.obj
 0001:0007cd00       __CrtMemDumpAllObjectsSince 2007dd00 f   LIBCMTD:dbgheap.obj
 0001:0007cd40       __CrtMemDumpStatistics     2007dd40 f   LIBCMTD:dbgheap.obj
 0001:0007ce60       __CrtReportBlockType       2007de60 f   LIBCMTD:dbgheap.obj
 0001:0007ce90       __CrtSetAllocHook          2007de90 f   LIBCMTD:dbgheap.obj
 0001:0007ceb0       __CrtSetBreakAlloc         2007deb0 f   LIBCMTD:dbgheap.obj
 0001:0007ced0       __CrtSetCheckCount         2007ded0 f   LIBCMTD:dbgheap.obj
 0001:0007cef0       __CrtSetDbgBlockType       2007def0 f   LIBCMTD:dbgheap.obj
 0001:0007cff0       __CrtSetDbgFlag            2007dff0 f   LIBCMTD:dbgheap.obj
 0001:0007d140       __CrtSetDebugFillThreshold 2007e140 f   LIBCMTD:dbgheap.obj
 0001:0007d160       __CrtSetDumpClient         2007e160 f   LIBCMTD:dbgheap.obj
 0001:0007d180       __aligned_free             2007e180 f   LIBCMTD:dbgheap.obj
 0001:0007d1a0       __aligned_free_dbg         2007e1a0 f   LIBCMTD:dbgheap.obj
 0001:0007d250       __aligned_malloc           2007e250 f   LIBCMTD:dbgheap.obj
 0001:0007d270       __aligned_malloc_dbg       2007e270 f   LIBCMTD:dbgheap.obj
 0001:0007d290       __aligned_msize            2007e290 f   LIBCMTD:dbgheap.obj
 0001:0007d2b0       __aligned_msize_dbg        2007e2b0 f   LIBCMTD:dbgheap.obj
 0001:0007d3d0       __aligned_offset_malloc    2007e3d0 f   LIBCMTD:dbgheap.obj
 0001:0007d3f0       __aligned_offset_malloc_dbg 2007e3f0 f   LIBCMTD:dbgheap.obj
 0001:0007d5d0       __aligned_offset_realloc   2007e5d0 f   LIBCMTD:dbgheap.obj
 0001:0007d600       __aligned_offset_realloc_dbg 2007e600 f   LIBCMTD:dbgheap.obj
 0001:0007d910       __aligned_offset_recalloc  2007e910 f   LIBCMTD:dbgheap.obj
 0001:0007d940       __aligned_offset_recalloc_dbg 2007e940 f   LIBCMTD:dbgheap.obj
 0001:0007da00       __aligned_realloc          2007ea00 f   LIBCMTD:dbgheap.obj
 0001:0007da20       __aligned_realloc_dbg      2007ea20 f   LIBCMTD:dbgheap.obj
 0001:0007da50       __aligned_recalloc         2007ea50 f   LIBCMTD:dbgheap.obj
 0001:0007da80       __aligned_recalloc_dbg     2007ea80 f   LIBCMTD:dbgheap.obj
 0001:0007dab0       __calloc_dbg               2007eab0 f   LIBCMTD:dbgheap.obj
 0001:0007db10       __calloc_dbg_impl          2007eb10 f   LIBCMTD:dbgheap.obj
 0001:0007db90       __expand                   2007eb90 f   LIBCMTD:dbgheap.obj
 0001:0007dbc0       __expand_dbg               2007ebc0 f   LIBCMTD:dbgheap.obj
 0001:0007dcf0       __free_dbg                 2007ecf0 f   LIBCMTD:dbgheap.obj
 0001:0007dd70       __free_dbg_nolock          2007ed70 f   LIBCMTD:dbgheap.obj
 0001:0007e270       __free_nolock              2007f270 f   LIBCMTD:dbgheap.obj
 0001:0007e290       __heap_alloc               2007f290 f   LIBCMTD:dbgheap.obj
 0001:0007e2b0       __heap_alloc_dbg           2007f2b0 f   LIBCMTD:dbgheap.obj
 0001:0007e6d0       __malloc_dbg               2007f6d0 f   LIBCMTD:dbgheap.obj
 0001:0007e700       __msize                    2007f700 f   LIBCMTD:dbgheap.obj
 0001:0007e720       __msize_dbg                2007f720 f   LIBCMTD:dbgheap.obj
 0001:0007e930       __nh_malloc                2007f930 f   LIBCMTD:dbgheap.obj
 0001:0007e950       __nh_malloc_dbg            2007f950 f   LIBCMTD:dbgheap.obj
 0001:0007ebe0       __realloc_dbg              2007fbe0 f   LIBCMTD:dbgheap.obj
 0001:0007ec80       __recalloc                 2007fc80 f   LIBCMTD:dbgheap.obj
 0001:0007ecb0       __recalloc_dbg             2007fcb0 f   LIBCMTD:dbgheap.obj
 0001:0007f370       ___security_init_cookie    20080370 f   LIBCMTD:gs_support.obj
 0001:0007f450       _DllMain@12                20080450 f   LIBCMTD:dllmain.obj
 0001:0007f460       ___crtGetEnvironmentStringsA 20080460 f   LIBCMTD:a_env.obj
 0001:0007f560       __RTC_Initialize           20080560 f   LIBCMTD:initsect.obj
 0001:0007f590       __RTC_Terminate            20080590 f   LIBCMTD:initsect.obj
 0001:0007f620       __except_handler4          20080620 f   LIBCMTD:chandler4.obj
 0001:0007f7e0       __strtod_l                 200807e0 f   LIBCMTD:strtod.obj
 0001:0007f9f0       _strtod                    200809f0 f   LIBCMTD:strtod.obj
 0001:0007fa10       ___crt_atoflt_l            20080a10 f   LIBCMTD:atodbl.obj
 0001:0007fb20       __atodbl                   20080b20 f   LIBCMTD:atodbl.obj
 0001:0007fb40       __atodbl_l                 20080b40 f   LIBCMTD:atodbl.obj
 0001:0007fc40       __atoflt                   20080c40 f   LIBCMTD:atodbl.obj
 0001:0007fc60       __atoflt_l                 20080c60 f   LIBCMTD:atodbl.obj
 0001:0007fc80       __atoldbl                  20080c80 f   LIBCMTD:atodbl.obj
 0001:0007fca0       __atoldbl_l                20080ca0 f   LIBCMTD:atodbl.obj
 0001:0007fea0       ?_CallCatchBlock2@@YAPAXPAUEHRegistrationNode@@PBU_s_FuncInfo@@PAXHK@Z 20080ea0 f   LIBCMTD:_trnsctrl_.obj
 0001:0007ff10       ?_CallMemberFunction0@@YGXPAX0@Z 20080f10 f   LIBCMTD:_trnsctrl_.obj
 0001:0007ff20       ?_CallMemberFunction1@@YGXPAX00@Z 20080f20 f   LIBCMTD:_trnsctrl_.obj
 0001:0007ff30       ?_CallMemberFunction2@@YGXPAX00H@Z 20080f30 f   LIBCMTD:_trnsctrl_.obj
 0001:0007ff40       ?_CallSETranslator@@YAHPAUEHExceptionRecord@@PAUEHRegistrationNode@@PAX2PBU_s_FuncInfo@@H1@Z 20080f40 f   LIBCMTD:_trnsctrl_.obj
 0001:00080030       ?_GetRangeOfTrysToCheck@@YAPBU_s_TryBlockMapEntry@@PBU_s_FuncInfo@@HHPAI1@Z 20081030 f   LIBCMTD:_trnsctrl_.obj
 0001:000800c0       ?_JumpToContinuation@@YGXPAXPAUEHRegistrationNode@@@Z 200810c0 f   LIBCMTD:_trnsctrl_.obj
 0001:00080100       ?_UnwindNestedFrames@@YGXPAUEHRegistrationNode@@PAUEHExceptionRecord@@@Z 20081100 f   LIBCMTD:_trnsctrl_.obj
 0001:00080160       __CreateFrameInfo          20081160 f   LIBCMTD:_trnsctrl_.obj
 0001:00080190       __FindAndUnlinkFrame       20081190 f   LIBCMTD:_trnsctrl_.obj
 0001:000801f0       __IsExceptionObjectToBeDestroyed 200811f0 f   LIBCMTD:_trnsctrl_.obj
 0001:00080220       ___CxxFrameHandler         20081220 f   LIBCMTD:_trnsctrl_.obj
 0001:00080260       ___CxxFrameHandler2        20081260 f   LIBCMTD:_trnsctrl_.obj
 0001:000802a0       ___CxxFrameHandler3        200812a0 f   LIBCMTD:_trnsctrl_.obj
 0001:000802e0       ___CxxLongjmpUnwind@4      200812e0 f   LIBCMTD:_trnsctrl_.obj
 0001:00080310       __allmul                   20081310 f   LIBCMTD:llmul.obj
 0001:00080350       __aulldiv                  20081350 f   LIBCMTD:ulldiv.obj
 0001:000803c0       __aullrem                  200813c0 f   LIBCMTD:ullrem.obj
 0001:00080440       __lock                     20081440 f   LIBCMTD:mlock.obj
 0001:00080480       __lockerr_exit             20081480 f   LIBCMTD:mlock.obj
 0001:000804b0       __mtdeletelocks            200814b0 f   LIBCMTD:mlock.obj
 0001:00080570       __mtinitlocknum            20081570 f   LIBCMTD:mlock.obj
 0001:00080690       __mtinitlocks              20081690 f   LIBCMTD:mlock.obj
 0001:00080710       __unlock                   20081710 f   LIBCMTD:mlock.obj
 0001:00080730       ___isascii                 20081730 f i LIBCMTD:_ctype.obj
 0001:00080760       ___iscsym                  20081760 f i LIBCMTD:_ctype.obj
 0001:000807a0       ___iscsymf                 200817a0 f i LIBCMTD:_ctype.obj
 0001:000807e0       ___toascii                 200817e0 f i LIBCMTD:_ctype.obj
 0001:000807f0       __isalnum_l                200817f0 f i LIBCMTD:_ctype.obj
 0001:00080870       __isalpha_l                20081870 f i LIBCMTD:_ctype.obj
 0001:000808f0       __isblank_l                200818f0 f i LIBCMTD:_ctype.obj
 0001:00080980       __iscntrl_l                20081980 f i LIBCMTD:_ctype.obj
 0001:00080a00       __iscsym_l                 20081a00 f i LIBCMTD:_ctype.obj
 0001:00080a40       __iscsymf_l                20081a40 f i LIBCMTD:_ctype.obj
 0001:00080a80       __isdigit_l                20081a80 f i LIBCMTD:_ctype.obj
 0001:00080b00       __isgraph_l                20081b00 f i LIBCMTD:_ctype.obj
 0001:00080b80       __islower_l                20081b80 f i LIBCMTD:_ctype.obj
 0001:00080c00       __isprint_l                20081c00 f i LIBCMTD:_ctype.obj
 0001:00080c80       __ispunct_l                20081c80 f i LIBCMTD:_ctype.obj
 0001:00080d00       __isspace_l                20081d00 f i LIBCMTD:_ctype.obj
 0001:00080d80       __isupper_l                20081d80 f i LIBCMTD:_ctype.obj
 0001:00080e00       __isxdigit_l               20081e00 f i LIBCMTD:_ctype.obj
 0001:00080e80       _isalnum                   20081e80 f i LIBCMTD:_ctype.obj
 0001:00080ec0       _isalpha                   20081ec0 f i LIBCMTD:_ctype.obj
 0001:00080f00       _isblank                   20081f00 f i LIBCMTD:_ctype.obj
 0001:00080f50       _iscntrl                   20081f50 f i LIBCMTD:_ctype.obj
 0001:00080f80       _isdigit                   20081f80 f i LIBCMTD:_ctype.obj
 0001:00080fb0       _isgraph                   20081fb0 f i LIBCMTD:_ctype.obj
 0001:00080ff0       _islower                   20081ff0 f i LIBCMTD:_ctype.obj
 0001:00081020       _isprint                   20082020 f i LIBCMTD:_ctype.obj
 0001:00081060       _ispunct                   20082060 f i LIBCMTD:_ctype.obj
 0001:00081090       _isspace                   20082090 f i LIBCMTD:_ctype.obj
 0001:000810c0       _isupper                   200820c0 f i LIBCMTD:_ctype.obj
 0001:000810f0       _isxdigit                  200820f0 f i LIBCMTD:_ctype.obj
 0001:00081130       _strcpy_s                  20082130 f   LIBCMTD:strcpy_s.obj
 0001:00081430       _strrchr                   20082430 f   LIBCMTD:strrchr.obj
 0001:00081570       __fptostr                  20082570 f   LIBCMTD:_fptostr.obj
 0001:00081890       ___dtold                   20082890 f   LIBCMTD:cfout.obj
 0001:000819f0       __fltout2                  200829f0 f   LIBCMTD:cfout.obj
 0001:00081aa0       __alldiv                   20082aa0 f   LIBCMTD:lldiv.obj
 0001:00081b50       __allrem                   20082b50 f   LIBCMTD:llrem.obj
 0001:00081c10       __allshl                   20082c10 f   LIBCMTD:llshl.obj
 0001:00081c30       __aullshr                  20082c30 f   LIBCMTD:ullshr.obj
 0001:00081c50       __get_output_format        20082c50 f   LIBCMTD:outputformat.obj
 0001:00081c60       __set_output_format        20082c60 f   LIBCMTD:outputformat.obj
 0001:00081d00       __controlfp_s              20082d00 f   LIBCMTD:contrlfp.obj
 0001:00081df0       __fptrap                   20082df0 f   LIBCMTD:crt0fp.obj
 0001:00081e00       __87except                 20082e00 f   LIBCMTD:87except.obj
 0001:00082000       __CopyMan                  20083000 f i LIBCMTD:intrncvt.obj
 0001:00082050       __FillZeroMan              20083050 f i LIBCMTD:intrncvt.obj
 0001:00082080       __IncMan                   20083080 f i LIBCMTD:intrncvt.obj
 0001:00082130       __IsZeroMan                20083130 f i LIBCMTD:intrncvt.obj
 0001:00082170       __RoundMan                 20083170 f i LIBCMTD:intrncvt.obj
 0001:00082250       __ShrMan                   20083250 f i LIBCMTD:intrncvt.obj
 0001:00082340       __ZeroTail                 20083340 f i LIBCMTD:intrncvt.obj
 0001:000823d0       __ld12cvt                  200833d0 f i LIBCMTD:intrncvt.obj
 0001:00082690       __ld12tod                  20083690 f   LIBCMTD:intrncvt.obj
 0001:000826b0       __ld12tof                  200836b0 f   LIBCMTD:intrncvt.obj
 0001:000826d0       __ld12told                 200836d0 f   LIBCMTD:intrncvt.obj
 0001:000827d0       ___add_12                  200837d0 f i LIBCMTD:mantold.obj
 0001:00082880       ___mtold12                 20083880 f   LIBCMTD:mantold.obj
 0001:000829d0       ___free_lconv_mon          200839d0 f   LIBCMTD:initmon.obj
 0001:00082b80       ___init_monetary           20083b80 f   LIBCMTD:initmon.obj
 0001:00083190       ___free_lconv_num          20084190 f   LIBCMTD:initnum.obj
 0001:00083240       ___init_numeric            20084240 f   LIBCMTD:initnum.obj
 0001:00083610       ___free_lc_time            20084610 f   LIBCMTD:inittime.obj
 0001:00083f40       ___init_time               20084f40 f   LIBCMTD:inittime.obj
 0001:00084f40       _localeconv                20085f40 f   LIBCMTD:lconv.obj
 0001:000850d0       ___crtGetStringTypeA       200860d0 f   LIBCMTD:a_str.obj
 0001:00085120       ___swprintf_l              20086120 f   LIBCMTD:swprintf.obj
 0001:00085150       __scwprintf                20086150 f   LIBCMTD:swprintf.obj
 0001:00085170       __scwprintf_l              20086170 f   LIBCMTD:swprintf.obj
 0001:000851a0       __scwprintf_p              200861a0 f   LIBCMTD:swprintf.obj
 0001:000851c0       __scwprintf_p_l            200861c0 f   LIBCMTD:swprintf.obj
 0001:000851f0       __snwprintf_s              200861f0 f   LIBCMTD:swprintf.obj
 0001:00085220       __snwprintf_s_l            20086220 f   LIBCMTD:swprintf.obj
 0001:00085250       __swprintf                 20086250 f   LIBCMTD:swprintf.obj
 0001:00085470       __swprintf_p               20086470 f   LIBCMTD:swprintf.obj
 0001:000854a0       __swprintf_p_l             200864a0 f   LIBCMTD:swprintf.obj
 0001:000854d0       __swprintf_s_l             200864d0 f   LIBCMTD:swprintf.obj
 0001:00085500       _swprintf_s                20086500 f   LIBCMTD:swprintf.obj
 0001:00085530       __CrtDbgBreak              20086530 f   LIBCMTD:dbgrptt.obj
 0001:00085540       __CrtGetReportHook         20086540 f   LIBCMTD:dbgrptt.obj
 0001:00085550       __CrtSetReportFile         20086550 f   LIBCMTD:dbgrptt.obj
 0001:00085650       __CrtSetReportHook         20086650 f   LIBCMTD:dbgrptt.obj
 0001:00085670       __CrtSetReportMode         20086670 f   LIBCMTD:dbgrptt.obj
 0001:000857b0       __VCrtDbgReportA           200867b0 f   LIBCMTD:dbgrptt.obj
 0001:00086020       __VCrtDbgReportW           20087020 f   LIBCMTD:dbgrptt.obj
 0001:000869a0       ___pctype_func             200879a0 f   LIBCMTD:ctype.obj
 0001:000869f0       ___pwctype_func            200879f0 f   LIBCMTD:ctype.obj
 0001:00086a00       __filbuf                   20087a00 f   LIBCMTD:_filbuf.obj
 0001:00086c70       __fileno                   20087c70 f   LIBCMTD:fileno.obj
 0001:00086d00       __ungetc_nolock            20087d00 f   LIBCMTD:ungetc.obj
 0001:00086f30       _ungetc                    20087f30 f   LIBCMTD:ungetc.obj
 0001:00087040       __mbtowc_l                 20088040 f   LIBCMTD:mbtowc.obj
 0001:00087280       _mbtowc                    20088280 f   LIBCMTD:mbtowc.obj
 0001:000872a0       __matherr                  200882a0 f   LIBCMTD:matherr.obj
 0001:000872b0       __iswctype_l               200882b0 f   LIBCMTD:iswctype.obj
 0001:000872d0       _is_wctype                 200882d0 f   LIBCMTD:iswctype.obj
 0001:000872f0       _iswctype                  200882f0 f   LIBCMTD:iswctype.obj
 0001:00087350       _free                      20088350 f   LIBCMTD:dbgfree.obj
 0001:00087370       _malloc                    20088370 f   LIBCMTD:dbgmalloc.obj
 0001:000873a0       _GetTableIndexFromLcid     200883a0 f   LIBCMTD:winapinls.obj
 0001:00087410       _GetTableIndexFromLocaleName 20088410 f   LIBCMTD:winapinls.obj
 0001:000874a0       ___crtCompareStringEx      200884a0 f   LIBCMTD:winapinls.obj
 0001:00087510       ___crtDownlevelLCIDToLocaleName 20088510 f   LIBCMTD:winapinls.obj
 0001:000875e0       ___crtDownlevelLocaleNameToLCID 200885e0 f   LIBCMTD:winapinls.obj
 0001:00087640       ___crtEnumSystemLocalesEx  20088640 f   LIBCMTD:winapinls.obj
 0001:000876b0       ___crtGetDateFormatEx      200886b0 f   LIBCMTD:winapinls.obj
 0001:00087720       ___crtGetLocaleInfoEx      20088720 f   LIBCMTD:winapinls.obj
 0001:00087780       ___crtGetTimeFormatEx      20088780 f   LIBCMTD:winapinls.obj
 0001:000877f0       ___crtGetUserDefaultLocaleName 200887f0 f   LIBCMTD:winapinls.obj
 0001:00087840       ___crtIsValidLocaleName    20088840 f   LIBCMTD:winapinls.obj
 0001:00087880       ___crtLCMapStringEx        20088880 f   LIBCMTD:winapinls.obj
 0001:000878f0       ___wcsnicmp_ascii          200888f0 f   LIBCMTD:winapinls.obj
 0001:000879c0       ___init_collate            200889c0 f   LIBCMTD:initcoll.obj
 0001:000879d0       ____lc_codepage_func       200889d0 f   LIBCMTD:initctyp.obj
 0001:00087a20       ____lc_collate_cp_func     20088a20 f   LIBCMTD:initctyp.obj
 0001:00087a70       ____lc_locale_name_func    20088a70 f   LIBCMTD:initctyp.obj
 0001:00087ac0       ____mb_cur_max_func        20088ac0 f   LIBCMTD:initctyp.obj
 0001:00087b10       ____mb_cur_max_l_func      20088b10 f   LIBCMTD:initctyp.obj
 0001:00087b40       ___init_ctype              20088b40 f   LIBCMTD:initctyp.obj
 0001:00088330       _memcmp                    20089330 f   LIBCMTD:memcmp.obj
 0001:00088c00       _wcscmp                    20089c00 f   LIBCMTD:wcscmp.obj
 0001:00088c60       _wcscspn                   20089c60 f   LIBCMTD:wcscspn.obj
 0001:00088cd0       _wcsnlen                   20089cd0 f   LIBCMTD:wcslen_s.obj
 0001:00088d10       _wcsncmp                   20089d10 f   LIBCMTD:wcsncmp.obj
 0001:00088d70       _wcsncpy_s                 20089d70 f   LIBCMTD:wcsncpy_s.obj
 0001:000891a0       _wcspbrk                   2008a1a0 f   LIBCMTD:wcspbrk.obj
 0001:00089d30       ___get_qualified_locale    2008ad30 f   LIBCMTD:getqloc.obj
 0001:0008ad00       ___get_qualified_locale_downlevel 2008bd00 f   LIBCMTD:getqloc_downlevel.obj
 0001:0008afd0       __isatty                   2008bfd0 f   LIBCMTD:isatty.obj
 0001:0008b090       __write                    2008c090 f   LIBCMTD:write.obj
 0001:0008b2e0       __write_nolock             2008c2e0 f   LIBCMTD:write.obj
 0001:0008c090       __lseeki64                 2008d090 f   LIBCMTD:lseeki64.obj
 0001:0008c300       __lseeki64_nolock          2008d300 f   LIBCMTD:lseeki64.obj
 0001:0008c3d0       __getbuf                   2008d3d0 f   LIBCMTD:_getbuf.obj
 0001:0008c4a0       __get_printf_count_output  2008d4a0 f   LIBCMTD:printf.obj
 0001:0008c4d0       __printf_l                 2008d4d0 f   LIBCMTD:printf.obj
 0001:0008c500       __printf_p                 2008d500 f   LIBCMTD:printf.obj
 0001:0008c520       __printf_p_l               2008d520 f   LIBCMTD:printf.obj
 0001:0008c550       __printf_s_l               2008d550 f   LIBCMTD:printf.obj
 0001:0008c580       __set_printf_count_output  2008d580 f   LIBCMTD:printf.obj
 0001:0008c5e0       _printf                    2008d5e0 f   LIBCMTD:printf.obj
 0001:0008c760       _printf_s                  2008d760 f   LIBCMTD:printf.obj
 0001:0008c780       __wctomb_l                 2008d780 f   LIBCMTD:wctomb.obj
 0001:0008c800       __wctomb_s_l               2008d800 f   LIBCMTD:wctomb.obj
 0001:0008cb50       _wctomb                    2008db50 f   LIBCMTD:wctomb.obj
 0001:0008cba0       _wctomb_s                  2008dba0 f   LIBCMTD:wctomb.obj
 0001:0008cbc0       __output_s_l               2008dbc0 f   LIBCMTD:outputs.obj
 0001:0008e570       __frnd                     2008f570 f   LIBCMTD:frnd.obj
 0001:0008e590       __FindPESection            2008f590 f   LIBCMTD:pesect.obj
 0001:0008e610       __IsNonwritableInCurrentImage 2008f610 f   LIBCMTD:pesect.obj
 0001:0008e740       __ValidateImageBase        2008f740 f   LIBCMTD:pesect.obj
 0001:0008e7a0       ___onexitinit              2008f7a0 f   LIBCMTD:onexit.obj
 0001:0008e800       __onexit                   2008f800 f   LIBCMTD:onexit.obj
 0001:0008e9c0       _atexit                    2008f9c0 f   LIBCMTD:onexit.obj
 0001:0008e9f0       ?_inconsistency@@YAXXZ     2008f9f0 f   LIBCMTD:hooks.obj
 0001:0008ea80       ?terminate@@YAXXZ          2008fa80 f   LIBCMTD:hooks.obj
 0001:0008eb00       ?unexpected@@YAXXZ         2008fb00 f   LIBCMTD:hooks.obj
 0001:0008eb30       __initp_eh_hooks           2008fb30 f   LIBCMTD:hooks.obj
 0001:0008eb50       ?_query_new_handler@@YAP6AHI@ZXZ 2008fb50 f   LIBCMTD:handler.obj
 0001:0008eb70       ?_set_new_handler@@YAP6AHI@ZH@Z 2008fb70 f   LIBCMTD:handler.obj
 0001:0008ebb0       ?_set_new_handler@@YAP6AHI@ZP6AHI@Z@Z 2008fbb0 f   LIBCMTD:handler.obj
 0001:0008ebf0       __callnewh                 2008fbf0 f   LIBCMTD:handler.obj
 0001:0008ec30       __initp_heap_handler       2008fc30 f   LIBCMTD:handler.obj
 0001:0008ec40       ___getlocaleinfo           2008fc40 f   LIBCMTD:inithelp.obj
 0001:0008ef40       __initp_misc_purevirt      2008ff40 f   LIBCMTD:inithelp.obj
 0001:0008ef50       __initp_misc_rand_s        2008ff50 f   LIBCMTD:rand_s.obj
 0001:0008ef60       _rand_s                    2008ff60 f   LIBCMTD:rand_s.obj
 0001:0008f1c0       __ftbuf                    200901c0 f   LIBCMTD:_sftbuf.obj
 0001:0008f250       __stbuf                    20090250 f   LIBCMTD:_sftbuf.obj
 0001:0008f3c0       __fcloseall                200903c0 f   LIBCMTD:closeall.obj
 0001:0008f4f0       __commit                   200904f0 f   LIBCMTD:commit.obj
 0001:0008f730       __freebuf                  20090730 f   LIBCMTD:_freebuf.obj
 0001:0008f7c0       __vfwprintf_l              200907c0 f   LIBCMTD:vfwprint.obj
 0001:0008f7f0       __vfwprintf_p              200907f0 f   LIBCMTD:vfwprint.obj
 0001:0008f810       __vfwprintf_p_l            20090810 f   LIBCMTD:vfwprint.obj
 0001:0008f840       __vfwprintf_s_l            20090840 f   LIBCMTD:vfwprint.obj
 0001:0008f870       _vfwprintf                 20090870 f   LIBCMTD:vfwprint.obj
 0001:0008f890       _vfwprintf_helper          20090890 f   LIBCMTD:vfwprint.obj
 0001:0008fa40       _vfwprintf_s               20090a40 f   LIBCMTD:vfwprint.obj
 0001:0008fa60       __woutput_l                20090a60 f   LIBCMTD:woutput.obj
 0001:00091050       __woutput_s_l              20092050 f   LIBCMTD:woutputs.obj
 0001:000927a0       __validate_param_reuseW    200937a0 f   LIBCMTD:woutputp.obj
 0001:00092a80       __woutput_p_l              20093a80 f   LIBCMTD:woutputp.obj
 0001:00096580       __local_unwind4            20097580 f   LIBCMTD:exsup4.obj
 0001:00096656       __seh_longjmp_unwind4@4    20097656 f   LIBCMTD:exsup4.obj
 0001:00096672       @_EH4_CallFilterFunc@8     20097672 f   LIBCMTD:exsup4.obj
 0001:00096689       @_EH4_TransferToHandler@8  20097689 f   LIBCMTD:exsup4.obj
 0001:000966a2       @_EH4_GlobalUnwind2@8      200976a2 f   LIBCMTD:exsup4.obj
 0001:000966bb       @_EH4_LocalUnwind@16       200976bb f   LIBCMTD:exsup4.obj
 0001:000967a0       __ismbbalnum               200977a0 f   LIBCMTD:ismbbyte.obj
 0001:000967c0       __ismbbalnum_l             200977c0 f   LIBCMTD:ismbbyte.obj
 0001:000967e0       __ismbbalpha               200977e0 f   LIBCMTD:ismbbyte.obj
 0001:00096800       __ismbbalpha_l             20097800 f   LIBCMTD:ismbbyte.obj
 0001:00096820       __ismbbblank               20097820 f   LIBCMTD:ismbbyte.obj
 0001:00096850       __ismbbblank_l             20097850 f   LIBCMTD:ismbbyte.obj
 0001:00096890       __ismbbgraph               20097890 f   LIBCMTD:ismbbyte.obj
 0001:000968b0       __ismbbgraph_l             200978b0 f   LIBCMTD:ismbbyte.obj
 0001:000968d0       __ismbbkalnum              200978d0 f   LIBCMTD:ismbbyte.obj
 0001:000968f0       __ismbbkalnum_l            200978f0 f   LIBCMTD:ismbbyte.obj
 0001:00096910       __ismbbkana                20097910 f   LIBCMTD:ismbbyte.obj
 0001:00096930       __ismbbkana_l              20097930 f   LIBCMTD:ismbbyte.obj
 0001:000969a0       __ismbbkprint              200979a0 f   LIBCMTD:ismbbyte.obj
 0001:000969c0       __ismbbkprint_l            200979c0 f   LIBCMTD:ismbbyte.obj
 0001:000969e0       __ismbbkpunct              200979e0 f   LIBCMTD:ismbbyte.obj
 0001:00096a00       __ismbbkpunct_l            20097a00 f   LIBCMTD:ismbbyte.obj
 0001:00096a20       __ismbblead                20097a20 f   LIBCMTD:ismbbyte.obj
 0001:00096a40       __ismbblead_l              20097a40 f   LIBCMTD:ismbbyte.obj
 0001:00096a60       __ismbbprint               20097a60 f   LIBCMTD:ismbbyte.obj
 0001:00096a80       __ismbbprint_l             20097a80 f   LIBCMTD:ismbbyte.obj
 0001:00096aa0       __ismbbpunct               20097aa0 f   LIBCMTD:ismbbyte.obj
 0001:00096ac0       __ismbbpunct_l             20097ac0 f   LIBCMTD:ismbbyte.obj
 0001:00096ae0       __ismbbtrail               20097ae0 f   LIBCMTD:ismbbyte.obj
 0001:00096b00       __ismbbtrail_l             20097b00 f   LIBCMTD:ismbbyte.obj
 0001:00096b20       __free_base                20097b20 f   LIBCMTD:free.obj
 0001:00096b70       __realloc_base             20097b70 f   LIBCMTD:realloc.obj
 0001:00096c70       __expand_base              20097c70 f   LIBCMTD:expand.obj
 0001:00096de0       __CrtDbgReport             20097de0 f   LIBCMTD:dbgrpt.obj
 0001:00096e30       __CrtDbgReportV            20097e30 f i LIBCMTD:dbgrpt.obj
 0001:00096e60       __CrtSetReportHook2        20097e60 f   LIBCMTD:dbgrpt.obj
 0001:000971b0       ___crtMessageWindowA       200981b0 f   LIBCMTD:dbgrpt.obj
 0001:00097660       __heapchk                  20098660 f   LIBCMTD:heapchk.obj
 0001:00097690       __heapset                  20098690 f   LIBCMTD:heapchk.obj
 0001:000976a0       __scprintf                 200986a0 f   LIBCMTD:sprintf.obj
 0001:000976c0       __scprintf_l               200986c0 f   LIBCMTD:sprintf.obj
 0001:000976f0       __scprintf_p               200986f0 f   LIBCMTD:sprintf.obj
 0001:00097710       __scprintf_p_l             20098710 f   LIBCMTD:sprintf.obj
 0001:00097740       __snprintf_s               20098740 f   LIBCMTD:sprintf.obj
 0001:00097770       __snprintf_s_l             20098770 f   LIBCMTD:sprintf.obj
 0001:000977a0       __sprintf_l                200987a0 f   LIBCMTD:sprintf.obj
 0001:000977d0       __sprintf_p                200987d0 f   LIBCMTD:sprintf.obj
 0001:00097800       __sprintf_p_l              20098800 f   LIBCMTD:sprintf.obj
 0001:00097830       __sprintf_s_l              20098830 f   LIBCMTD:sprintf.obj
 0001:00097860       _sprintf                   20098860 f   LIBCMTD:sprintf.obj
 0001:00097a20       _sprintf_s                 20098a20 f   LIBCMTD:sprintf.obj
 0001:00097a50       __heap_alloc_base          20098a50 f i LIBCMTD:malloc.obj
 0001:00097ab0       __malloc_base              20098ab0 f   LIBCMTD:malloc.obj
 0001:00097b40       __CallSettingFrame@12      20098b40 f   LIBCMTD:lowhelpr.obj
 0001:00097b67       __NLG_Return               20098b67     LIBCMTD:lowhelpr.obj
 0001:00097b90       ___DestructExceptionObject 20098b90 f   LIBCMTD:frame.obj
 0001:00097cb0       ??0bad_exception@std@@QAE@ABV01@@Z 20098cb0 f i LIBCMTD:frame.obj
 0001:00097ce0       ??0bad_exception@std@@QAE@PBD@Z 20098ce0 f i LIBCMTD:frame.obj
 0001:00097d10       ??1bad_exception@std@@UAE@XZ 20098d10 f i LIBCMTD:frame.obj
 0001:00097d30       ??_Ebad_exception@std@@UAEPAXI@Z 20098d30 f i LIBCMTD:frame.obj
 0001:00097d30       ??_Gbad_exception@std@@UAEPAXI@Z 20098d30 f i LIBCMTD:frame.obj
 0001:00098920       ?__uncaught_exception@@YA_NXZ 20099920 f   LIBCMTD:frame.obj
 0001:00098950       ?_is_exception_typeof@@YAHABVtype_info@@PAU_EXCEPTION_POINTERS@@@Z 20099950 f   LIBCMTD:frame.obj
 0001:00098a30       __SetWinRTOutOfMemoryExceptionCallback 20099a30 f   LIBCMTD:frame.obj
 0001:00098a40       ___AdjustPointer           20099a40 f   LIBCMTD:frame.obj
 0001:00098a90       ___BuildCatchObject        20099a90 f   LIBCMTD:frame.obj
 0001:00098ba0       ___BuildCatchObjectHelper  20099ba0 f   LIBCMTD:frame.obj
 0001:00098ea0       ___CxxDetectRethrow        20099ea0 f   LIBCMTD:frame.obj
 0001:00098f20       ___CxxExceptionFilter      20099f20 f   LIBCMTD:frame.obj
 0001:00099120       ___CxxQueryExceptionSize   2009a120 f   LIBCMTD:frame.obj
 0001:00099130       ___CxxRegisterExceptionObject 2009a130 f   LIBCMTD:frame.obj
 0001:00099270       ___CxxUnregisterExceptionObject 2009a270 f   LIBCMTD:frame.obj
 0001:000993f0       ___FrameUnwindFilter       2009a3f0 f   LIBCMTD:frame.obj
 0001:00099470       ___FrameUnwindToState      2009a470 f   LIBCMTD:frame.obj
 0001:000995f0       ___GetPlatformExceptionInfo 2009a5f0 f   LIBCMTD:frame.obj
 0001:000996b0       ___InternalCxxFrameHandler 2009a6b0 f   LIBCMTD:frame.obj
 0001:00099820       ___TypeMatch               2009a820 f   LIBCMTD:frame.obj
 0001:00099900       _$I10_OUTPUT               2009a900 f   LIBCMTD:x10fout.obj
 0001:0009a110       ___control87_2             2009b110 f   LIBCMTD:ieee87.obj
 0001:0009a5b0       __clearfp                  2009b5b0 f   LIBCMTD:ieee87.obj
 0001:0009a5f0       __control87                2009b5f0 f i LIBCMTD:ieee87.obj
 0001:0009a6a0       __controlfp                2009b6a0 f   LIBCMTD:ieee87.obj
 0001:0009a6c0       __fpreset                  2009b6c0 f   LIBCMTD:ieee87.obj
 0001:0009a880       __set_controlfp            2009b880 f   LIBCMTD:ieee87.obj
 0001:0009a910       __statusfp                 2009b910 f   LIBCMTD:ieee87.obj
 0001:0009a950       __statusfp2                2009b950 f   LIBCMTD:ieee87.obj
 0001:0009a990       ___vswprintf_l             2009b990 f   LIBCMTD:vswprint.obj
 0001:0009a9b0       __vscwprintf               2009b9b0 f   LIBCMTD:vswprint.obj
 0001:0009a9d0       __vscwprintf_helper        2009b9d0 f   LIBCMTD:vswprint.obj
 0001:0009aac0       __vscwprintf_l             2009bac0 f   LIBCMTD:vswprint.obj
 0001:0009aae0       __vscwprintf_p             2009bae0 f   LIBCMTD:vswprint.obj
 0001:0009ab00       __vscwprintf_p_l           2009bb00 f   LIBCMTD:vswprint.obj
 0001:0009ab20       __vswprintf                2009bb20 f   LIBCMTD:vswprint.obj
 0001:0009ab40       __vswprintf_l              2009bb40 f   LIBCMTD:vswprint.obj
 0001:0009ad60       _strcat_s                  2009bd60 f   LIBCMTD:strcat_s.obj
 0001:0009b590       __i64toa_s                 2009c590 f   LIBCMTD:xtoas.obj
 0001:0009b5e0       __itoa_s                   2009c5e0 f   LIBCMTD:xtoas.obj
 0001:0009b640       __ltoa_s                   2009c640 f   LIBCMTD:xtoas.obj
 0001:0009b680       __ui64toa_s                2009c680 f   LIBCMTD:xtoas.obj
 0001:0009b6a0       __ultoa_s                  2009c6a0 f   LIBCMTD:xtoas.obj
 0001:0009baa0       __mbstowcs_l               2009caa0 f   LIBCMTD:mbstowcs.obj
 0001:0009bac0       __mbstowcs_l_helper        2009cac0 f   LIBCMTD:mbstowcs.obj
 0001:0009be50       __mbstowcs_s_l             2009ce50 f   LIBCMTD:mbstowcs.obj
 0001:0009c210       _mbstowcs                  2009d210 f   LIBCMTD:mbstowcs.obj
 0001:0009c260       _mbstowcs_s                2009d260 f   LIBCMTD:mbstowcs.obj
 0001:0009c2f0       __wcstombs_l               2009d2f0 f   LIBCMTD:wcstombs.obj
 0001:0009c310       __wcstombs_l_helper        2009d310 f   LIBCMTD:wcstombs.obj
 0001:0009c820       __wcstombs_s_l             2009d820 f   LIBCMTD:wcstombs.obj
 0001:0009cb80       _wcstombs                  2009db80 f   LIBCMTD:wcstombs.obj
 0001:0009cba0       _wcstombs_s                2009dba0 f   LIBCMTD:wcstombs.obj
 0001:0009cbd0       __vsnprintf_c              2009dbd0 f   LIBCMTD:vsnprnc.obj
 0001:0009cc20       __vsnprintf_c_l            2009dc20 f   LIBCMTD:vsnprnc.obj
 0001:0009cc70       __vsnprintf_helper         2009dc70 f   LIBCMTD:vsnprnc.obj
 0001:0009ce70       __vsnprintf_s              2009de70 f   LIBCMTD:vsnprnc.obj
 0001:0009ceb0       __vsnprintf_s_l            2009deb0 f   LIBCMTD:vsnprnc.obj
 0001:0009d270       __vsprintf_p               2009e270 f   LIBCMTD:vsnprnc.obj
 0001:0009d2c0       __vsprintf_p_l             2009e2c0 f   LIBCMTD:vsnprnc.obj
 0001:0009d310       __vsprintf_s_l             2009e310 f   LIBCMTD:vsnprnc.obj
 0001:0009d5a0       _vsprintf_s                2009e5a0 f   LIBCMTD:vsnprnc.obj
 0001:0009d5c0       __read                     2009e5c0 f   LIBCMTD:read.obj
 0001:0009d890       __read_nolock              2009e890 f   LIBCMTD:read.obj
 0001:0009ead0       __wtoi                     2009fad0 f   LIBCMTD:wtox.obj
 0001:0009eaf0       __wtoi64                   2009faf0 f   LIBCMTD:wtox.obj
 0001:0009eb10       __wtoi64_l                 2009fb10 f   LIBCMTD:wtox.obj
 0001:0009eb30       __wtoi_l                   2009fb30 f   LIBCMTD:wtox.obj
 0001:0009eb50       __wtol                     2009fb50 f   LIBCMTD:wtox.obj
 0001:0009eb70       __wtol_l                   2009fb70 f   LIBCMTD:wtox.obj
 0001:0009eb90       __wtoll                    2009fb90 f   LIBCMTD:wtox.obj
 0001:0009ebb0       __wtoll_l                  2009fbb0 f   LIBCMTD:wtox.obj
 0001:0009ebd0       _wcschr                    2009fbd0 f   LIBCMTD:wcschr.obj
 0001:0009ed50       __wcsicmp                  2009fd50 f   LIBCMTD:wcsicmp.obj
 0001:0009ef20       __wcsicmp_l                2009ff20 f   LIBCMTD:wcsicmp.obj
 0001:0009f190       __wcsnicmp                 200a0190 f   LIBCMTD:wcsnicmp.obj
 0001:0009f380       __wcsnicmp_l               200a0380 f   LIBCMTD:wcsnicmp.obj
 0001:0009f5e0       ___lock_fhandle            200a05e0 f   LIBCMTD:osfinfo.obj
 0001:0009f6d0       __alloc_osfhnd             200a06d0 f   LIBCMTD:osfinfo.obj
 0001:0009f970       __free_osfhnd              200a0970 f   LIBCMTD:osfinfo.obj
 0001:0009fa60       __get_osfhandle            200a0a60 f   LIBCMTD:osfinfo.obj
 0001:0009fbe0       __open_osfhandle           200a0be0 f   LIBCMTD:osfinfo.obj
 0001:0009fe10       __set_osfhnd               200a0e10 f   LIBCMTD:osfinfo.obj
 0001:0009fee0       __unlock_fhandle           200a0ee0 f   LIBCMTD:osfinfo.obj
 0001:0009ff10       __putwch                   200a0f10 f   LIBCMTD:putwch.obj
 0001:0009ffa0       __putwch_nolock            200a0fa0 f   LIBCMTD:putwch.obj
 0001:0009fff0       __vprintf_l                200a0ff0 f   LIBCMTD:vprintf.obj
 0001:000a0010       __vprintf_p                200a1010 f   LIBCMTD:vprintf.obj
 0001:000a0030       __vprintf_p_l              200a1030 f   LIBCMTD:vprintf.obj
 0001:000a0050       __vprintf_s_l              200a1050 f   LIBCMTD:vprintf.obj
 0001:000a0070       _vprintf                   200a1070 f   LIBCMTD:vprintf.obj
 0001:000a0090       _vprintf_helper            200a1090 f   LIBCMTD:vprintf.obj
 0001:000a01d0       _vprintf_s                 200a11d0 f   LIBCMTD:vprintf.obj
 0001:000a01f0       _strncpy_s                 200a11f0 f   LIBCMTD:strncpy_s.obj
 0001:000a0740       ___crtGetLocaleInfoA       200a1740 f   LIBCMTD:a_loc.obj
 0001:000a0790       __fclose_nolock            200a1790 f   LIBCMTD:fclose.obj
 0001:000a08a0       _fclose                    200a18a0 f   LIBCMTD:fclose.obj
 0001:000a09c0       __fputwc_nolock            200a19c0 f   LIBCMTD:fputwc.obj
 0001:000a0cb0       _fputwc                    200a1cb0 f   LIBCMTD:fputwc.obj
 0001:000a0dc0       _putwc                     200a1dc0 f   LIBCMTD:fputwc.obj
 0001:000a11a0       __wcstol_l                 200a21a0 f   LIBCMTD:wcstol.obj
 0001:000a11c0       __wcstoul_l                200a21c0 f   LIBCMTD:wcstol.obj
 0001:000a11e0       _wcstol                    200a21e0 f   LIBCMTD:wcstol.obj
 0001:000a1200       _wcstoul                   200a2200 f   LIBCMTD:wcstol.obj
 0001:000a1220       __global_unwind2           200a2220 f   LIBCMTD:exsup.obj
 0001:000a1285       __local_unwind2            200a2285 f   LIBCMTD:exsup.obj
 0001:000a1309       __abnormal_termination     200a2309 f   LIBCMTD:exsup.obj
 0001:000a132c       __NLG_Notify1              200a232c f   LIBCMTD:exsup.obj
 0001:000a1335       __NLG_Notify               200a2335 f   LIBCMTD:exsup.obj
 0001:000a134c       __NLG_Dispatch             200a234c     LIBCMTD:exsup.obj
 0001:000a134c       __NLG_Dispatch2            200a234c     LIBCMTD:exsup.obj
 0001:000a1354       __NLG_Call                 200a2354 f   LIBCMTD:exsup.obj
 0001:000a1356       __NLG_Return2              200a2356     LIBCMTD:exsup.obj
 0001:000a1360       ??3@YAXPAX@Z               200a2360 f   LIBCMTD:dbgdel.obj
 0001:000a1450       ?_ValidateExecute@@YAHP6GHXZ@Z 200a2450 f   LIBCMTD:validate.obj
 0001:000a1470       ?_ValidateRead@@YAHPBXI@Z  200a2470 f   LIBCMTD:validate.obj
 0001:000a1490       ?_ValidateWrite@@YAHPAXI@Z 200a2490 f   LIBCMTD:validate.obj
 0001:000a14b0       ??0type_info@@AAE@ABV0@@Z  200a24b0 f   LIBCMTD:typinfo.obj
 0001:000a14d0       ??1type_info@@UAE@XZ       200a24d0 f   LIBCMTD:typinfo.obj
 0001:000a14f0       ??4type_info@@AAEAAV0@ABV0@@Z 200a24f0 f   LIBCMTD:typinfo.obj
 0001:000a1500       ??8type_info@@QBE_NABV0@@Z 200a2500 f   LIBCMTD:typinfo.obj
 0001:000a1540       ??9type_info@@QBE_NABV0@@Z 200a2540 f   LIBCMTD:typinfo.obj
 0001:000a1580       ??_Gtype_info@@UAEPAXI@Z   200a2580 f i LIBCMTD:typinfo.obj
 0001:000a1580       ??_Etype_info@@UAEPAXI@Z   200a2580 f i LIBCMTD:typinfo.obj
 0001:000a15b0       ?_name_internal_method@type_info@@QBEPBDPAU__type_info_node@@@Z 200a25b0 f   LIBCMTD:typinfo.obj
 0001:000a15d0       ?_type_info_dtor_internal_method@type_info@@QAEXXZ 200a25d0 f   LIBCMTD:typinfo.obj
 0001:000a15f0       ?before@type_info@@QBE_NABV1@@Z 200a25f0 f   LIBCMTD:typinfo.obj
 0001:000a1630       ?name@type_info@@QBEPBDPAU__type_info_node@@@Z 200a2630 f   LIBCMTD:typinfo.obj
 0001:000a1650       ?raw_name@type_info@@QBEPBDXZ 200a2650 f   LIBCMTD:typinfo.obj
 0001:000a1670       ??0__non_rtti_object@std@@QAE@ABV01@@Z 200a2670 f   LIBCMTD:stdexcpt.obj
 0001:000a16a0       ??0__non_rtti_object@std@@QAE@PBD@Z 200a26a0 f   LIBCMTD:stdexcpt.obj
 0001:000a16d0       ??0bad_cast@std@@QAE@ABV01@@Z 200a26d0 f   LIBCMTD:stdexcpt.obj
 0001:000a1700       ??0bad_cast@std@@QAE@PBD@Z 200a2700 f   LIBCMTD:stdexcpt.obj
 0001:000a1730       ??0bad_typeid@std@@QAE@ABV01@@Z 200a2730 f   LIBCMTD:stdexcpt.obj
 0001:000a1760       ??0bad_typeid@std@@QAE@PBD@Z 200a2760 f   LIBCMTD:stdexcpt.obj
 0001:000a1790       ??0exception@std@@QAE@ABQBD@Z 200a2790 f   LIBCMTD:stdexcpt.obj
 0001:000a17d0       ??0exception@std@@QAE@ABQBDH@Z 200a27d0 f   LIBCMTD:stdexcpt.obj
 0001:000a1800       ??0exception@std@@QAE@ABV01@@Z 200a2800 f   LIBCMTD:stdexcpt.obj
 0001:000a1840       ??0exception@std@@QAE@XZ   200a2840 f   LIBCMTD:stdexcpt.obj
 0001:000a1870       ??1__non_rtti_object@std@@UAE@XZ 200a2870 f   LIBCMTD:stdexcpt.obj
 0001:000a1890       ??1bad_cast@std@@UAE@XZ    200a2890 f   LIBCMTD:stdexcpt.obj
 0001:000a18b0       ??1bad_typeid@std@@UAE@XZ  200a28b0 f   LIBCMTD:stdexcpt.obj
 0001:000a18d0       ??1exception@std@@UAE@XZ   200a28d0 f   LIBCMTD:stdexcpt.obj
 0001:000a18f0       ??4exception@std@@QAEAAV01@ABV01@@Z 200a28f0 f   LIBCMTD:stdexcpt.obj
 0001:000a1940       ??_E__non_rtti_object@std@@UAEPAXI@Z 200a2940 f i LIBCMTD:stdexcpt.obj
 0001:000a1940       ??_G__non_rtti_object@std@@UAEPAXI@Z 200a2940 f i LIBCMTD:stdexcpt.obj
 0001:000a1970       ??_Gbad_cast@std@@UAEPAXI@Z 200a2970 f i LIBCMTD:stdexcpt.obj
 0001:000a1970       ??_Ebad_cast@std@@UAEPAXI@Z 200a2970 f i LIBCMTD:stdexcpt.obj
 0001:000a19a0       ??_Ebad_typeid@std@@UAEPAXI@Z 200a29a0 f i LIBCMTD:stdexcpt.obj
 0001:000a19a0       ??_Gbad_typeid@std@@UAEPAXI@Z 200a29a0 f i LIBCMTD:stdexcpt.obj
 0001:000a19d0       ??_Eexception@std@@UAEPAXI@Z 200a29d0 f i LIBCMTD:stdexcpt.obj
 0001:000a19d0       ??_Gexception@std@@UAEPAXI@Z 200a29d0 f i LIBCMTD:stdexcpt.obj
 0001:000a1a00       ?_Copy_str@exception@std@@AAEXPBD@Z 200a2a00 f   LIBCMTD:stdexcpt.obj
 0001:000a1a60       ?_Tidy@exception@std@@AAEXXZ 200a2a60 f   LIBCMTD:stdexcpt.obj
 0001:000a1aa0       ?what@exception@std@@UBEPBDXZ 200a2aa0 f   LIBCMTD:stdexcpt.obj
 0001:000a1ad0       __CxxThrowException@8      200a2ad0 f   LIBCMTD:throw.obj
 0001:000a20c0       __wcstof_l                 200a30c0 f   LIBCMTD:wcstoq.obj
 0001:000a21d0       __wcstoi64                 200a31d0 f   LIBCMTD:wcstoq.obj
 0001:000a2220       __wcstoi64_l               200a3220 f   LIBCMTD:wcstoq.obj
 0001:000a2240       __wcstoimax_l              200a3240 f   LIBCMTD:wcstoq.obj
 0001:000a2260       __wcstold_l                200a3260 f   LIBCMTD:wcstoq.obj
 0001:000a2280       __wcstoll_l                200a3280 f   LIBCMTD:wcstoq.obj
 0001:000a22a0       __wcstoui64                200a32a0 f   LIBCMTD:wcstoq.obj
 0001:000a22f0       __wcstoui64_l              200a32f0 f   LIBCMTD:wcstoq.obj
 0001:000a2310       __wcstoull_l               200a3310 f   LIBCMTD:wcstoq.obj
 0001:000a2330       __wcstoumax_l              200a3330 f   LIBCMTD:wcstoq.obj
 0001:000a2350       _wcstof                    200a3350 f   LIBCMTD:wcstoq.obj
 0001:000a2370       _wcstoimax                 200a3370 f   LIBCMTD:wcstoq.obj
 0001:000a2390       _wcstold                   200a3390 f   LIBCMTD:wcstoq.obj
 0001:000a23b0       _wcstoll                   200a33b0 f   LIBCMTD:wcstoq.obj
 0001:000a23d0       _wcstoull                  200a33d0 f   LIBCMTD:wcstoq.obj
 0001:000a23f0       _wcstoumax                 200a33f0 f   LIBCMTD:wcstoq.obj
 0001:000a2410       __towlower_l               200a3410 f   LIBCMTD:towlower.obj
 0001:000a2560       _towlower                  200a3560 f   LIBCMTD:towlower.obj
 0001:000a2580       ___termconout              200a3580 f   LIBCMTD:initcon.obj
 0001:000a25b0       ___initconout              200a35b0 f   LIBCMTD:initcon.obj
 0001:000a25e0       __close                    200a35e0 f   LIBCMTD:close.obj
 0001:000a2820       __close_nolock             200a3820 f   LIBCMTD:close.obj
 0001:000a2900       __flswbuf                  200a3900 f   LIBCMTD:_flswbuf.obj
 0001:000a2bf0       __wchartodigit             200a3bf0 f   LIBCMTD:wchtodig.obj
 0001:000a2f10       ?_Name_base@type_info@@CAPBDPBV1@PAU__type_info_node@@@Z 200a3f10 f   LIBCMTD:typname.obj
 0001:000a30c0       ?_Name_base_internal@type_info@@CAPBDPBV1@PAU__type_info_node@@@Z 200a40c0 f   LIBCMTD:typname.obj
 0001:000a3280       ?_Type_info_dtor@type_info@@CAXPAV1@@Z 200a4280 f   LIBCMTD:typname.obj
 0001:000a3390       ?_Type_info_dtor_internal@type_info@@CAXPAV1@@Z 200a4390 f   LIBCMTD:typname.obj
 0001:000a34a0       ___clean_type_info_names_internal 200a44a0 f   LIBCMTD:typname.obj
 0001:000a3550       ___unDNameHelper           200a4550 f   LIBCMTD:typname.obj
 0001:000a3590       __wcstod_l                 200a4590 f   LIBCMTD:wcstod.obj
 0001:000a3750       _wcstod                    200a4750 f   LIBCMTD:wcstod.obj
 0001:000a3770       ___crtLCMapStringW         200a4770 f   LIBCMTD:w_map.obj
 0001:000a37b0       ??0Block@_HeapManager@@QAE@XZ 200a47b0 f i LIBCMTD:undname.obj
 0001:000a37d0       ??0DName@@QAE@AAPBDD@Z     200a47d0 f   LIBCMTD:undname.obj
 0001:000a3a90       ??0DName@@QAE@ABV0@@Z      200a4a90 f i LIBCMTD:undname.obj
 0001:000a3ab0       ??0DName@@QAE@D@Z          200a4ab0 f   LIBCMTD:undname.obj
 0001:000a3b90       ??0DName@@QAE@PAV0@@Z      200a4b90 f   LIBCMTD:undname.obj
 0001:000a3cd0       ??0DName@@QAE@PBD@Z        200a4cd0 f   LIBCMTD:undname.obj
 0001:000a3dc0       ??0DName@@QAE@W4DNameStatus@@@Z 200a4dc0 f   LIBCMTD:undname.obj
 0001:000a3ee0       ??0DName@@QAE@XZ           200a4ee0 f i LIBCMTD:undname.obj
 0001:000a3fa0       ??0DName@@QAE@_J@Z         200a4fa0 f   LIBCMTD:undname.obj
 0001:000a4120       ??0DName@@QAE@_K@Z         200a5120 f   LIBCMTD:undname.obj
 0001:000a4260       ??0DNameNode@@IAE@XZ       200a5260 f   LIBCMTD:undname.obj
 0001:000a4280       ??0DNameStatusNode@@AAE@W4DNameStatus@@@Z 200a5280 f   LIBCMTD:undname.obj
 0001:000a42d0       ??0Replicator@@QAE@XZ      200a52d0 f i LIBCMTD:undname.obj
 0001:000a42f0       ??0UnDecorator@@QAE@PADPBDHP6APADJ@ZK@Z 200a52f0 f i LIBCMTD:undname.obj
 0001:000a4390       ??0charNode@@QAE@D@Z       200a5390 f   LIBCMTD:undname.obj
 0001:000a43c0       ??0pDNameNode@@QAE@PAVDName@@@Z 200a53c0 f   LIBCMTD:undname.obj
 0001:000a4420       ??0pairNode@@QAE@PAVDNameNode@@0@Z 200a5420 f   LIBCMTD:undname.obj
 0001:000a4460       ??0pcharNode@@QAE@PBDH@Z   200a5460 f   LIBCMTD:undname.obj
 0001:000a4500       ??2@YAPAXIAAV_HeapManager@@H@Z 200a5500 f i LIBCMTD:undname.obj
 0001:000a4520       ??4DName@@QAEAAV0@ABV0@@Z  200a5520 f   LIBCMTD:undname.obj
 0001:000a4540       ??4DName@@QAEAAV0@D@Z      200a5540 f i LIBCMTD:undname.obj
 0001:000a4620       ??4DName@@QAEAAV0@PAV0@@Z  200a5620 f   LIBCMTD:undname.obj
 0001:000a4750       ??4DName@@QAEAAV0@PBD@Z    200a5750 f   LIBCMTD:undname.obj
 0001:000a4830       ??4DName@@QAEAAV0@W4DNameStatus@@@Z 200a5830 f   LIBCMTD:undname.obj
 0001:000a4930       ??AReplicator@@QBE?AVDName@@H@Z 200a5930 f   LIBCMTD:undname.obj
 0001:000a49a0       ??BUnDecorator@@QAEPADXZ   200a59a0 f i LIBCMTD:undname.obj
 0001:000a4c50       ??H@YA?AVDName@@DABV0@@Z   200a5c50 f i LIBCMTD:undname.obj
 0001:000a4c80       ??H@YA?AVDName@@PBDABV0@@Z 200a5c80 f i LIBCMTD:undname.obj
 0001:000a4cb0       ??H@YA?AVDName@@W4DNameStatus@@ABV0@@Z 200a5cb0 f i LIBCMTD:undname.obj
 0001:000a4ce0       ??HDName@@QBE?AV0@ABV0@@Z  200a5ce0 f   LIBCMTD:undname.obj
 0001:000a4d20       ??HDName@@QBE?AV0@D@Z      200a5d20 f   LIBCMTD:undname.obj
 0001:000a4d60       ??HDName@@QBE?AV0@PAV0@@Z  200a5d60 f   LIBCMTD:undname.obj
 0001:000a4da0       ??HDName@@QBE?AV0@PBD@Z    200a5da0 f   LIBCMTD:undname.obj
 0001:000a4de0       ??HDName@@QBE?AV0@W4DNameStatus@@@Z 200a5de0 f   LIBCMTD:undname.obj
 0001:000a4e20       ??YDName@@QAEAAV0@ABV0@@Z  200a5e20 f   LIBCMTD:undname.obj
 0001:000a4e90       ??YDName@@QAEAAV0@D@Z      200a5e90 f   LIBCMTD:undname.obj
 0001:000a4f10       ??YDName@@QAEAAV0@PAV0@@Z  200a5f10 f   LIBCMTD:undname.obj
 0001:000a4fc0       ??YDName@@QAEAAV0@PBD@Z    200a5fc0 f   LIBCMTD:undname.obj
 0001:000a5060       ??YDName@@QAEAAV0@W4DNameStatus@@@Z 200a6060 f   LIBCMTD:undname.obj
 0001:000a50c0       ??YReplicator@@QAEAAV0@ABVDName@@@Z 200a60c0 f   LIBCMTD:undname.obj
 0001:000a5150       ??_5DName@@QAEAAV0@ABV0@@Z 200a6150 f   LIBCMTD:undname.obj
 0001:000a51b0       ?Constructor@_HeapManager@@QAEXP6APAXI@ZP6AXPAX@Z@Z 200a61b0 f i LIBCMTD:undname.obj
 0001:000a51f0       ?Destructor@_HeapManager@@QAEXXZ 200a61f0 f i LIBCMTD:undname.obj
 0001:000a5240       ?UScore@UnDecorator@@SAPBDW4Tokens@@@Z 200a6240 f   LIBCMTD:undname.obj
 0001:000a5270       ?append@DName@@AAEXPAVDNameNode@@@Z 200a6270 f   LIBCMTD:undname.obj
 0001:000a5300       ?composeDeclaration@UnDecorator@@CA?AVDName@@ABV2@@Z 200a6300 f i LIBCMTD:undname.obj
 0001:000a6f80       ?dbGetString@DName@@QBEPADXZ 200a7f80 f   LIBCMTD:undname.obj
 0001:000a6fa0       ?doAccessSpecifiers@UnDecorator@@SAHXZ 200a7fa0 f i LIBCMTD:undname.obj
 0001:000a6fd0       ?doAllocationLanguage@UnDecorator@@SAHXZ 200a7fd0 f i LIBCMTD:undname.obj
 0001:000a7000       ?doAllocationModel@UnDecorator@@SAHXZ 200a8000 f i LIBCMTD:undname.obj
 0001:000a7030       ?doEcsu@UnDecorator@@SAHXZ 200a8030 f i LIBCMTD:undname.obj
 0001:000a7060       ?doEllipsis@UnDecorator@@SAHXZ 200a8060 f i LIBCMTD:undname.obj
 0001:000a7090       ?doFunctionReturns@UnDecorator@@SAHXZ 200a8090 f i LIBCMTD:undname.obj
 0001:000a70c0       ?doMSKeywords@UnDecorator@@SAHXZ 200a80c0 f i LIBCMTD:undname.obj
 0001:000a70f0       ?doMemberTypes@UnDecorator@@SAHXZ 200a80f0 f i LIBCMTD:undname.obj
 0001:000a7120       ?doNameOnly@UnDecorator@@SAHXZ 200a8120 f i LIBCMTD:undname.obj
 0001:000a7130       ?doNoIdentCharCheck@UnDecorator@@SAHXZ 200a8130 f i LIBCMTD:undname.obj
 0001:000a7140       ?doPchar@DName@@AAEXPBDH@Z 200a8140 f   LIBCMTD:undname.obj
 0001:000a7280       ?doPtr64@UnDecorator@@SAHXZ 200a8280 f i LIBCMTD:undname.obj
 0001:000a72b0       ?doRestrictionSpec@UnDecorator@@SAHXZ 200a82b0 f i LIBCMTD:undname.obj
 0001:000a72e0       ?doThisTypes@UnDecorator@@SAHXZ 200a82e0 f i LIBCMTD:undname.obj
 0001:000a7310       ?doThrowTypes@UnDecorator@@SAHXZ 200a8310 f i LIBCMTD:undname.obj
 0001:000a7340       ?doTypeOnly@UnDecorator@@SAHXZ 200a8340 f i LIBCMTD:undname.obj
 0001:000a7350       ?doUnderScore@UnDecorator@@SAHXZ 200a8350 f i LIBCMTD:undname.obj
 0001:000a7380       ?getArgumentList@UnDecorator@@CA?AVDName@@XZ 200a8380 f   LIBCMTD:undname.obj
 0001:000a74d0       ?getArgumentTypes@UnDecorator@@CA?AVDName@@XZ 200a84d0 f   LIBCMTD:undname.obj
 0001:000a7630       ?getArrayType@UnDecorator@@CA?AVDName@@ABV2@@Z 200a8630 f i LIBCMTD:undname.obj
 0001:000a7870       ?getBasedType@UnDecorator@@CA?AVDName@@XZ 200a8870 f   LIBCMTD:undname.obj
 0001:000a7930       ?getBasicDataType@UnDecorator@@CA?AVDName@@ABV2@@Z 200a8930 f   LIBCMTD:undname.obj
 0001:000a7ef0       ?getCallIndex@UnDecorator@@CA?AVDName@@XZ 200a8ef0 f i LIBCMTD:undname.obj
 0001:000a7f10       ?getCallingConvention@UnDecorator@@CA?AVDName@@XZ 200a8f10 f   LIBCMTD:undname.obj
 0001:000a80a0       ?getDataIndirectType@UnDecorator@@CA?AVDName@@ABV2@PBD0H@Z 200a90a0 f   LIBCMTD:undname.obj
 0001:000a87c0       ?getDataIndirectType@UnDecorator@@CA?AVDName@@XZ 200a97c0 f i LIBCMTD:undname.obj
 0001:000a8800       ?getDataType@UnDecorator@@CA?AVDName@@PAV2@@Z 200a9800 f   LIBCMTD:undname.obj
 0001:000a8920       ?getDecoratedName@UnDecorator@@CA?AVDName@@XZ 200a9920 f   LIBCMTD:undname.obj
 0001:000a8c40       ?getDimension@UnDecorator@@CA?AVDName@@_N@Z 200a9c40 f   LIBCMTD:undname.obj
 0001:000a8ef0       ?getDispatchTarget@UnDecorator@@CA?AVDName@@XZ 200a9ef0 f   LIBCMTD:undname.obj
 0001:000a8f90       ?getDisplacement@UnDecorator@@CA?AVDName@@XZ 200a9f90 f i LIBCMTD:undname.obj
 0001:000a8fb0       ?getECSUDataType@UnDecorator@@CA?AVDName@@XZ 200a9fb0 f   LIBCMTD:undname.obj
 0001:000a9180       ?getECSUName@UnDecorator@@CA?AVDName@@XZ 200aa180 f i LIBCMTD:undname.obj
 0001:000a91a0       ?getEnumType@UnDecorator@@CA?AVDName@@XZ 200aa1a0 f i LIBCMTD:undname.obj
 0001:000a92f0       ?getExtendedDataIndirectType@UnDecorator@@CA?AVDName@@AAPBDAA_NH@Z 200aa2f0 f   LIBCMTD:undname.obj
 0001:000a9540       ?getExternalDataType@UnDecorator@@CA?AVDName@@ABV2@@Z 200aa540 f i LIBCMTD:undname.obj
 0001:000a95d0       ?getFunctionIndirectType@UnDecorator@@CA?AVDName@@ABV2@@Z 200aa5d0 f   LIBCMTD:undname.obj
 0001:000a9a40       ?getGuardNumber@UnDecorator@@CA?AVDName@@XZ 200aaa40 f i LIBCMTD:undname.obj
 0001:000a9a60       ?getLastChar@DName@@QBEDXZ 200aaa60 f i LIBCMTD:undname.obj
 0001:000a9a90       ?getLastChar@DNameStatusNode@@UBEDXZ 200aaa90 f i LIBCMTD:undname.obj
 0001:000a9ac0       ?getLastChar@charNode@@UBEDXZ 200aaac0 f i LIBCMTD:undname.obj
 0001:000a9ae0       ?getLastChar@pDNameNode@@UBEDXZ 200aaae0 f i LIBCMTD:undname.obj
 0001:000a9b10       ?getLastChar@pairNode@@UBEDXZ 200aab10 f i LIBCMTD:undname.obj
 0001:000a9b60       ?getLastChar@pcharNode@@UBEDXZ 200aab60 f i LIBCMTD:undname.obj
 0001:000a9ba0       ?getLexicalFrame@UnDecorator@@CA?AVDName@@XZ 200aaba0 f i LIBCMTD:undname.obj
 0001:000a9be0       ?getMemory@_HeapManager@@QAEPAXIH@Z 200aabe0 f   LIBCMTD:undname.obj
 0001:000a9cf0       ?getNumberOfDimensions@UnDecorator@@CAHXZ 200aacf0 f   LIBCMTD:undname.obj
 0001:000a9df0       ?getOperatorName@UnDecorator@@CA?AVDName@@_NPA_N@Z 200aadf0 f i LIBCMTD:undname.obj
 0001:000aa780       ?getPointerType@UnDecorator@@CA?AVDName@@ABV2@0@Z 200ab780 f i LIBCMTD:undname.obj
 0001:000aa7b0       ?getPointerTypeArray@UnDecorator@@CA?AVDName@@ABV2@0@Z 200ab7b0 f i LIBCMTD:undname.obj
 0001:000aa7e0       ?getPrimaryDataType@UnDecorator@@CA?AVDName@@ABV2@@Z 200ab7e0 f   LIBCMTD:undname.obj
 0001:000aab80       ?getPtrRefDataType@UnDecorator@@CA?AVDName@@ABV2@H@Z 200abb80 f i LIBCMTD:undname.obj
 0001:000aacc0       ?getPtrRefType@UnDecorator@@CA?AVDName@@ABV2@0PBD@Z 200abcc0 f   LIBCMTD:undname.obj
 0001:000aae30       ?getReferenceType@UnDecorator@@CA?AVDName@@ABV2@0PBD@Z 200abe30 f i LIBCMTD:undname.obj
 0001:000aae50       ?getRestrictionSpec@UnDecorator@@CA?AVDName@@XZ 200abe50 f   LIBCMTD:undname.obj
 0001:000aafa0       ?getReturnType@UnDecorator@@CA?AVDName@@PAV2@@Z 200abfa0 f   LIBCMTD:undname.obj
 0001:000aaff0       ?getScope@UnDecorator@@CA?AVDName@@XZ 200abff0 f   LIBCMTD:undname.obj
 0001:000ab4e0       ?getScopedName@UnDecorator@@CA?AVDName@@XZ 200ac4e0 f   LIBCMTD:undname.obj
 0001:000ab600       ?getSignedDimension@UnDecorator@@CA?AVDName@@XZ 200ac600 f   LIBCMTD:undname.obj
 0001:000ab680       ?getStorageConvention@UnDecorator@@CA?AVDName@@XZ 200ac680 f i LIBCMTD:undname.obj
 0001:000ab6a0       ?getString@DName@@QBEPADPAD0@Z 200ac6a0 f i LIBCMTD:undname.obj
 0001:000ab6e0       ?getString@DName@@QBEPADPADH@Z 200ac6e0 f i LIBCMTD:undname.obj
 0001:000ab770       ?getString@DNameStatusNode@@UBEPADPAD0@Z 200ac770 f i LIBCMTD:undname.obj
 0001:000ab7b0       ?getString@charNode@@UBEPADPAD0@Z 200ac7b0 f i LIBCMTD:undname.obj
 0001:000ab7e0       ?getString@pDNameNode@@UBEPADPAD0@Z 200ac7e0 f i LIBCMTD:undname.obj
 0001:000ab820       ?getString@pairNode@@UBEPADPAD0@Z 200ac820 f i LIBCMTD:undname.obj
 0001:000ab880       ?getString@pcharNode@@UBEPADPAD0@Z 200ac880 f i LIBCMTD:undname.obj
 0001:000ab8b0       ?getStringEncoding@UnDecorator@@CA?AVDName@@PADH@Z 200ac8b0 f   LIBCMTD:undname.obj
 0001:000ab9c0       ?getStringHelper@@YAPADPAD00H@Z 200ac9c0 f i LIBCMTD:undname.obj
 0001:000aba00       ?getSymbolName@UnDecorator@@CA?AVDName@@XZ 200aca00 f i LIBCMTD:undname.obj
 0001:000aba90       ?getTemplateArgumentList@UnDecorator@@CA?AVDName@@XZ 200aca90 f   LIBCMTD:undname.obj
 0001:000abdb0       ?getTemplateConstant@UnDecorator@@CA?AVDName@@XZ 200acdb0 f   LIBCMTD:undname.obj
 0001:000ac2a0       ?getTemplateName@UnDecorator@@CA?AVDName@@_N@Z 200ad2a0 f   LIBCMTD:undname.obj
 0001:000ac470       ?getThisType@UnDecorator@@CA?AVDName@@XZ 200ad470 f i LIBCMTD:undname.obj
 0001:000ac4b0       ?getThrowTypes@UnDecorator@@CA?AVDName@@XZ 200ad4b0 f   LIBCMTD:undname.obj
 0001:000ac560       ?getTypeEncoding@UnDecorator@@CAHXZ 200ad560 f i LIBCMTD:undname.obj
 0001:000acfa0       ?getVCallThunkType@UnDecorator@@CA?AVDName@@XZ 200adfa0 f i LIBCMTD:undname.obj
 0001:000ad000       ?getVbTableType@UnDecorator@@CA?AVDName@@ABV2@@Z 200ae000 f i LIBCMTD:undname.obj
 0001:000ad020       ?getVdispMapType@UnDecorator@@CA?AVDName@@ABV2@@Z 200ae020 f i LIBCMTD:undname.obj
 0001:000ad090       ?getVfTableType@UnDecorator@@CA?AVDName@@ABV2@@Z 200ae090 f i LIBCMTD:undname.obj
 0001:000ad250       ?getZName@UnDecorator@@CA?AVDName@@_N0@Z 200ae250 f   LIBCMTD:undname.obj
 0001:000ad500       ?haveTemplateParameters@UnDecorator@@SAHXZ 200ae500 f i LIBCMTD:undname.obj
 0001:000ad510       ?isArray@DName@@QBEHXZ     200ae510 f i LIBCMTD:undname.obj
 0001:000ad530       ?isComArray@DName@@QBEHXZ  200ae530 f i LIBCMTD:undname.obj
 0001:000ad550       ?isEmpty@DName@@QBEHXZ     200ae550 f i LIBCMTD:undname.obj
 0001:000ad580       ?isFull@Replicator@@QBEHXZ 200ae580 f i LIBCMTD:undname.obj
 0001:000ad5b0       ?isNoTE@DName@@QBEHXZ      200ae5b0 f i LIBCMTD:undname.obj
 0001:000ad5d0       ?isPinPtr@DName@@QBEHXZ    200ae5d0 f i LIBCMTD:undname.obj
 0001:000ad5f0       ?isPtrRef@DName@@QBEHXZ    200ae5f0 f i LIBCMTD:undname.obj
 0001:000ad610       ?isUDC@DName@@QBEHXZ       200ae610 f i LIBCMTD:undname.obj
 0001:000ad650       ?isUDTThunk@DName@@QBEHXZ  200ae650 f i LIBCMTD:undname.obj
 0001:000ad690       ?isVCallThunk@DName@@QBEHXZ 200ae690 f i LIBCMTD:undname.obj
 0001:000ad6b0       ?isValid@DName@@QBEHXZ     200ae6b0 f i LIBCMTD:undname.obj
 0001:000ad6f0       ?length@DName@@QBEHXZ      200ae6f0 f i LIBCMTD:undname.obj
 0001:000ad720       ?length@DNameStatusNode@@UBEHXZ 200ae720 f i LIBCMTD:undname.obj
 0001:000ad740       ?length@charNode@@UBEHXZ   200ae740 f i LIBCMTD:undname.obj
 0001:000ad750       ?length@pDNameNode@@UBEHXZ 200ae750 f i LIBCMTD:undname.obj
 0001:000ad780       ?length@pairNode@@UBEHXZ   200ae780 f i LIBCMTD:undname.obj
 0001:000ad7d0       ?length@pcharNode@@UBEHXZ  200ae7d0 f i LIBCMTD:undname.obj
 0001:000ad7f0       ?make@DNameStatusNode@@SAPAV1@W4DNameStatus@@@Z 200ae7f0 f i LIBCMTD:undname.obj
 0001:000ad8a0       ?setIsArray@DName@@QAEXXZ  200ae8a0 f i LIBCMTD:undname.obj
 0001:000ad8c0       ?setIsComArray@DName@@QAEXXZ 200ae8c0 f i LIBCMTD:undname.obj
 0001:000ad8e0       ?setIsNoTE@DName@@QAEXXZ   200ae8e0 f i LIBCMTD:undname.obj
 0001:000ad900       ?setIsPinPtr@DName@@QAEXXZ 200ae900 f i LIBCMTD:undname.obj
 0001:000ad920       ?setIsUDC@DName@@QAEXXZ    200ae920 f i LIBCMTD:undname.obj
 0001:000ad950       ?setIsVCallThunk@DName@@QAEXXZ 200ae950 f i LIBCMTD:undname.obj
 0001:000ad970       ?setPtrRef@DName@@QAEAAV1@XZ 200ae970 f i LIBCMTD:undname.obj
 0001:000ad990       ?status@DName@@QBE?AW4DNameStatus@@XZ 200ae990 f i LIBCMTD:undname.obj
 0001:000ada90       ___unDName                 200aea90 f   LIBCMTD:undname.obj
 0001:000adb70       ___unDNameEx               200aeb70 f   LIBCMTD:undname.obj
 0001:000adc50       __wfltin2                  200aec50 f   LIBCMTD:wcfin.obj
 0001:000add30       __get_purecall_handler     200aed30 f   LIBCMTD:purevirt.obj
 0001:000add50       __purecall                 200aed50 f   LIBCMTD:purevirt.obj
 0001:000add90       __set_purecall_handler     200aed90 f   LIBCMTD:purevirt.obj
 0001:000addc0       ___WSTRINGTOLD_L           200aedc0 f   LIBCMTD:wstrgtold.obj
 0001:000ade30       ___wstrgtold12_l           200aee30 f   LIBCMTD:wstrgtold.obj
 0001:000ae928       _IsDebuggerPresent@0       200af928 f   kernel32:KERNEL32.dll
 0001:000ae92e       _IsProcessorFeaturePresent@4 200af92e f   kernel32:KERNEL32.dll
 0001:000ae934       _GetStdHandle@4            200af934 f   kernel32:KERNEL32.dll
 0001:000ae93a       _GetFileType@4             200af93a f   kernel32:KERNEL32.dll
 0001:000ae940       _GetModuleFileNameW@12     200af940 f   kernel32:KERNEL32.dll
 0001:000ae946       _GetModuleHandleExW@12     200af946 f   kernel32:KERNEL32.dll
 0001:000ae94c       _WriteConsoleW@20          200af94c f   kernel32:KERNEL32.dll
 0001:000ae952       _GetCommandLineA@0         200af952 f   kernel32:KERNEL32.dll
 0001:000ae958       _GetCurrentThreadId@0      200af958 f   kernel32:KERNEL32.dll
 0001:000ae95e       _UnhandledExceptionFilter@4 200af95e f   kernel32:KERNEL32.dll
 0001:000ae964       _SetUnhandledExceptionFilter@4 200af964 f   kernel32:KERNEL32.dll
 0001:000ae96a       _SetLastError@4            200af96a f   kernel32:KERNEL32.dll
 0001:000ae970       _InitializeCriticalSectionAndSpinCount@8 200af970 f   kernel32:KERNEL32.dll
 0001:000ae976       _CreateEventW@16           200af976 f   kernel32:KERNEL32.dll
 0001:000ae97c       _Sleep@4                   200af97c f   kernel32:KERNEL32.dll
 0001:000ae982       _GetCurrentProcess@0       200af982 f   kernel32:KERNEL32.dll
 0001:000ae988       _TerminateProcess@8        200af988 f   kernel32:KERNEL32.dll
 0001:000ae98e       _TlsAlloc@0                200af98e f   kernel32:KERNEL32.dll
 0001:000ae994       _TlsGetValue@4             200af994 f   kernel32:KERNEL32.dll
 0001:000ae99a       _TlsSetValue@8             200af99a f   kernel32:KERNEL32.dll
 0001:000ae9a0       _TlsFree@4                 200af9a0 f   kernel32:KERNEL32.dll
 0001:000ae9a6       _GetStartupInfoW@4         200af9a6 f   kernel32:KERNEL32.dll
 0001:000ae9ac       _GetTickCount@0            200af9ac f   kernel32:KERNEL32.dll
 0001:000ae9b2       _GetModuleHandleW@4        200af9b2 f   kernel32:KERNEL32.dll
 0001:000ae9b8       _GetProcAddress@8          200af9b8 f   kernel32:KERNEL32.dll
 0001:000ae9be       _CreateSemaphoreW@16       200af9be f   kernel32:KERNEL32.dll
 0001:000ae9c4       _GetLastError@0            200af9c4 f   kernel32:KERNEL32.dll
 0001:000ae9ca       _GetCurrentThread@0        200af9ca f   kernel32:KERNEL32.dll
 0001:000ae9d0       _EncodePointer@4           200af9d0 f   kernel32:KERNEL32.dll
 0001:000ae9d6       _DecodePointer@4           200af9d6 f   kernel32:KERNEL32.dll
 0001:000ae9dc       _IsValidCodePage@4         200af9dc f   kernel32:KERNEL32.dll
 0001:000ae9e2       _GetACP@0                  200af9e2 f   kernel32:KERNEL32.dll
 0001:000ae9e8       _GetOEMCP@0                200af9e8 f   kernel32:KERNEL32.dll
 0001:000ae9ee       _GetCPInfo@8               200af9ee f   kernel32:KERNEL32.dll
 0001:000ae9f4       _RaiseException@16         200af9f4 f   kernel32:KERNEL32.dll
 0001:000ae9fa       _MultiByteToWideChar@24    200af9fa f   kernel32:KERNEL32.dll
 0001:000aea00       _WideCharToMultiByte@32    200afa00 f   kernel32:KERNEL32.dll
 0001:000aea06       _ExitProcess@4             200afa06 f   kernel32:KERNEL32.dll
 0001:000aea0c       _AreFileApisANSI@0         200afa0c f   kernel32:KERNEL32.dll
 0001:000aea12       _EnterCriticalSection@4    200afa12 f   kernel32:KERNEL32.dll
 0001:000aea18       _LeaveCriticalSection@4    200afa18 f   kernel32:KERNEL32.dll
 0001:000aea1e       _SetConsoleCtrlHandler@8   200afa1e f   kernel32:KERNEL32.dll
 0001:000aea24       _OutputDebugStringW@4      200afa24 f   kernel32:KERNEL32.dll
 0001:000aea2a       _WaitForSingleObjectEx@12  200afa2a f   kernel32:KERNEL32.dll
 0001:000aea30       _CreateThread@24           200afa30 f   kernel32:KERNEL32.dll
 0001:000aea36       _LoadLibraryExW@12         200afa36 f   kernel32:KERNEL32.dll
 0001:000aea3c       _WriteFile@20              200afa3c f   kernel32:KERNEL32.dll
 0001:000aea42       _GetProcessHeap@0          200afa42 f   kernel32:KERNEL32.dll
 0001:000aea48       _DeleteCriticalSection@4   200afa48 f   kernel32:KERNEL32.dll
 0001:000aea4e       _GetModuleFileNameA@12     200afa4e f   kernel32:KERNEL32.dll
 0001:000aea54       _HeapValidate@12           200afa54 f   kernel32:KERNEL32.dll
 0001:000aea5a       _GetSystemInfo@4           200afa5a f   kernel32:KERNEL32.dll
 0001:000aea60       _QueryPerformanceCounter@4 200afa60 f   kernel32:KERNEL32.dll
 0001:000aea66       _GetCurrentProcessId@0     200afa66 f   kernel32:KERNEL32.dll
 0001:000aea6c       _GetSystemTimeAsFileTime@4 200afa6c f   kernel32:KERNEL32.dll
 0001:000aea72       _GetEnvironmentStringsW@0  200afa72 f   kernel32:KERNEL32.dll
 0001:000aea78       _FreeEnvironmentStringsW@4 200afa78 f   kernel32:KERNEL32.dll
 0001:000aea7e       _RtlUnwind@16              200afa7e f   kernel32:KERNEL32.dll
 0001:000aea84       _FatalAppExitA@8           200afa84 f   kernel32:KERNEL32.dll
 0001:000aea8a       _GetStringTypeW@16         200afa8a f   kernel32:KERNEL32.dll
 0001:000aea90       _OutputDebugStringA@4      200afa90 f   kernel32:KERNEL32.dll
 0001:000aea96       _GetDateFormatW@24         200afa96 f   kernel32:KERNEL32.dll
 0001:000aea9c       _GetTimeFormatW@24         200afa9c f   kernel32:KERNEL32.dll
 0001:000aeaa2       _CompareStringW@24         200afaa2 f   kernel32:KERNEL32.dll
 0001:000aeaa8       _LCMapStringW@24           200afaa8 f   kernel32:KERNEL32.dll
 0001:000aeaae       _GetLocaleInfoW@16         200afaae f   kernel32:KERNEL32.dll
 0001:000aeab4       _IsValidLocale@8           200afab4 f   kernel32:KERNEL32.dll
 0001:000aeaba       _GetUserDefaultLCID@0      200afaba f   kernel32:KERNEL32.dll
 0001:000aeac0       _EnumSystemLocalesW@8      200afac0 f   kernel32:KERNEL32.dll
 0001:000aeac6       _GetConsoleCP@0            200afac6 f   kernel32:KERNEL32.dll
 0001:000aeacc       _GetConsoleMode@8          200afacc f   kernel32:KERNEL32.dll
 0001:000aead2       _SetFilePointerEx@20       200afad2 f   kernel32:KERNEL32.dll
 0001:000aead8       _FreeLibrary@4             200afad8 f   kernel32:KERNEL32.dll
 0001:000aeade       _FlushFileBuffers@4        200afade f   kernel32:KERNEL32.dll
 0001:000aeae4       _HeapFree@12               200afae4 f   kernel32:KERNEL32.dll
 0001:000aeaea       _HeapReAlloc@16            200afaea f   kernel32:KERNEL32.dll
 0001:000aeaf0       _HeapSize@12               200afaf0 f   kernel32:KERNEL32.dll
 0001:000aeaf6       _HeapQueryInformation@20   200afaf6 f   kernel32:KERNEL32.dll
 0001:000aeafc       _HeapAlloc@12              200afafc f   kernel32:KERNEL32.dll
 0001:000aeb02       _ReadFile@20               200afb02 f   kernel32:KERNEL32.dll
 0001:000aeb08       _ReadConsoleW@20           200afb08 f   kernel32:KERNEL32.dll
 0001:000aeb0e       _SetStdHandle@8            200afb0e f   kernel32:KERNEL32.dll
 0001:000aeb14       _CreateFileW@28            200afb14 f   kernel32:KERNEL32.dll
 0001:000aeb1a       _CloseHandle@4             200afb1a f   kernel32:KERNEL32.dll
 0002:00000000       __imp__IsDebuggerPresent@0 200b0000     kernel32:KERNEL32.dll
 0002:00000004       __imp__IsProcessorFeaturePresent@4 200b0004     kernel32:KERNEL32.dll
 0002:00000008       __imp__GetStdHandle@4      200b0008     kernel32:KERNEL32.dll
 0002:0000000c       __imp__GetFileType@4       200b000c     kernel32:KERNEL32.dll
 0002:00000010       __imp__GetModuleFileNameW@12 200b0010     kernel32:KERNEL32.dll
 0002:00000014       __imp__GetModuleHandleExW@12 200b0014     kernel32:KERNEL32.dll
 0002:00000018       __imp__WriteConsoleW@20    200b0018     kernel32:KERNEL32.dll
 0002:0000001c       __imp__GetCommandLineA@0   200b001c     kernel32:KERNEL32.dll
 0002:00000020       __imp__GetCurrentThreadId@0 200b0020     kernel32:KERNEL32.dll
 0002:00000024       __imp__UnhandledExceptionFilter@4 200b0024     kernel32:KERNEL32.dll
 0002:00000028       __imp__SetUnhandledExceptionFilter@4 200b0028     kernel32:KERNEL32.dll
 0002:0000002c       __imp__SetLastError@4      200b002c     kernel32:KERNEL32.dll
 0002:00000030       __imp__InitializeCriticalSectionAndSpinCount@8 200b0030     kernel32:KERNEL32.dll
 0002:00000034       __imp__CreateEventW@16     200b0034     kernel32:KERNEL32.dll
 0002:00000038       __imp__Sleep@4             200b0038     kernel32:KERNEL32.dll
 0002:0000003c       __imp__GetCurrentProcess@0 200b003c     kernel32:KERNEL32.dll
 0002:00000040       __imp__TerminateProcess@8  200b0040     kernel32:KERNEL32.dll
 0002:00000044       __imp__TlsAlloc@0          200b0044     kernel32:KERNEL32.dll
 0002:00000048       __imp__TlsGetValue@4       200b0048     kernel32:KERNEL32.dll
 0002:0000004c       __imp__TlsSetValue@8       200b004c     kernel32:KERNEL32.dll
 0002:00000050       __imp__TlsFree@4           200b0050     kernel32:KERNEL32.dll
 0002:00000054       __imp__GetStartupInfoW@4   200b0054     kernel32:KERNEL32.dll
 0002:00000058       __imp__GetTickCount@0      200b0058     kernel32:KERNEL32.dll
 0002:0000005c       __imp__GetModuleHandleW@4  200b005c     kernel32:KERNEL32.dll
 0002:00000060       __imp__GetProcAddress@8    200b0060     kernel32:KERNEL32.dll
 0002:00000064       __imp__CreateSemaphoreW@16 200b0064     kernel32:KERNEL32.dll
 0002:00000068       __imp__GetLastError@0      200b0068     kernel32:KERNEL32.dll
 0002:0000006c       __imp__GetCurrentThread@0  200b006c     kernel32:KERNEL32.dll
 0002:00000070       __imp__EncodePointer@4     200b0070     kernel32:KERNEL32.dll
 0002:00000074       __imp__DecodePointer@4     200b0074     kernel32:KERNEL32.dll
 0002:00000078       __imp__IsValidCodePage@4   200b0078     kernel32:KERNEL32.dll
 0002:0000007c       __imp__GetACP@0            200b007c     kernel32:KERNEL32.dll
 0002:00000080       __imp__GetOEMCP@0          200b0080     kernel32:KERNEL32.dll
 0002:00000084       __imp__GetCPInfo@8         200b0084     kernel32:KERNEL32.dll
 0002:00000088       __imp__RaiseException@16   200b0088     kernel32:KERNEL32.dll
 0002:0000008c       __imp__MultiByteToWideChar@24 200b008c     kernel32:KERNEL32.dll
 0002:00000090       __imp__WideCharToMultiByte@32 200b0090     kernel32:KERNEL32.dll
 0002:00000094       __imp__ExitProcess@4       200b0094     kernel32:KERNEL32.dll
 0002:00000098       __imp__AreFileApisANSI@0   200b0098     kernel32:KERNEL32.dll
 0002:0000009c       __imp__EnterCriticalSection@4 200b009c     kernel32:KERNEL32.dll
 0002:000000a0       __imp__LeaveCriticalSection@4 200b00a0     kernel32:KERNEL32.dll
 0002:000000a4       __imp__SetConsoleCtrlHandler@8 200b00a4     kernel32:KERNEL32.dll
 0002:000000a8       __imp__OutputDebugStringW@4 200b00a8     kernel32:KERNEL32.dll
 0002:000000ac       __imp__WaitForSingleObjectEx@12 200b00ac     kernel32:KERNEL32.dll
 0002:000000b0       __imp__CreateThread@24     200b00b0     kernel32:KERNEL32.dll
 0002:000000b4       __imp__LoadLibraryExW@12   200b00b4     kernel32:KERNEL32.dll
 0002:000000b8       __imp__WriteFile@20        200b00b8     kernel32:KERNEL32.dll
 0002:000000bc       __imp__GetProcessHeap@0    200b00bc     kernel32:KERNEL32.dll
 0002:000000c0       __imp__DeleteCriticalSection@4 200b00c0     kernel32:KERNEL32.dll
 0002:000000c4       __imp__GetModuleFileNameA@12 200b00c4     kernel32:KERNEL32.dll
 0002:000000c8       __imp__HeapValidate@12     200b00c8     kernel32:KERNEL32.dll
 0002:000000cc       __imp__GetSystemInfo@4     200b00cc     kernel32:KERNEL32.dll
 0002:000000d0       __imp__QueryPerformanceCounter@4 200b00d0     kernel32:KERNEL32.dll
 0002:000000d4       __imp__GetCurrentProcessId@0 200b00d4     kernel32:KERNEL32.dll
 0002:000000d8       __imp__GetSystemTimeAsFileTime@4 200b00d8     kernel32:KERNEL32.dll
 0002:000000dc       __imp__GetEnvironmentStringsW@0 200b00dc     kernel32:KERNEL32.dll
 0002:000000e0       __imp__FreeEnvironmentStringsW@4 200b00e0     kernel32:KERNEL32.dll
 0002:000000e4       __imp__RtlUnwind@16        200b00e4     kernel32:KERNEL32.dll
 0002:000000e8       __imp__FatalAppExitA@8     200b00e8     kernel32:KERNEL32.dll
 0002:000000ec       __imp__GetStringTypeW@16   200b00ec     kernel32:KERNEL32.dll
 0002:000000f0       __imp__OutputDebugStringA@4 200b00f0     kernel32:KERNEL32.dll
 0002:000000f4       __imp__GetDateFormatW@24   200b00f4     kernel32:KERNEL32.dll
 0002:000000f8       __imp__GetTimeFormatW@24   200b00f8     kernel32:KERNEL32.dll
 0002:000000fc       __imp__CompareStringW@24   200b00fc     kernel32:KERNEL32.dll
 0002:00000100       __imp__LCMapStringW@24     200b0100     kernel32:KERNEL32.dll
 0002:00000104       __imp__GetLocaleInfoW@16   200b0104     kernel32:KERNEL32.dll
 0002:00000108       __imp__IsValidLocale@8     200b0108     kernel32:KERNEL32.dll
 0002:0000010c       __imp__GetUserDefaultLCID@0 200b010c     kernel32:KERNEL32.dll
 0002:00000110       __imp__EnumSystemLocalesW@8 200b0110     kernel32:KERNEL32.dll
 0002:00000114       __imp__GetConsoleCP@0      200b0114     kernel32:KERNEL32.dll
 0002:00000118       __imp__GetConsoleMode@8    200b0118     kernel32:KERNEL32.dll
 0002:0000011c       __imp__SetFilePointerEx@20 200b011c     kernel32:KERNEL32.dll
 0002:00000120       __imp__FreeLibrary@4       200b0120     kernel32:KERNEL32.dll
 0002:00000124       __imp__FlushFileBuffers@4  200b0124     kernel32:KERNEL32.dll
 0002:00000128       __imp__HeapFree@12         200b0128     kernel32:KERNEL32.dll
 0002:0000012c       __imp__HeapReAlloc@16      200b012c     kernel32:KERNEL32.dll
 0002:00000130       __imp__HeapSize@12         200b0130     kernel32:KERNEL32.dll
 0002:00000134       __imp__HeapQueryInformation@20 200b0134     kernel32:KERNEL32.dll
 0002:00000138       __imp__HeapAlloc@12        200b0138     kernel32:KERNEL32.dll
 0002:0000013c       __imp__ReadFile@20         200b013c     kernel32:KERNEL32.dll
 0002:00000140       __imp__ReadConsoleW@20     200b0140     kernel32:KERNEL32.dll
 0002:00000144       __imp__SetStdHandle@8      200b0144     kernel32:KERNEL32.dll
 0002:00000148       __imp__CreateFileW@28      200b0148     kernel32:KERNEL32.dll
 0002:0000014c       __imp__CloseHandle@4       200b014c     kernel32:KERNEL32.dll
 0002:00000150       \177KERNEL32_NULL_THUNK_DATA 200b0150     kernel32:KERNEL32.dll
 0002:00000154       ___xc_a                    200b0154     LIBCMTD:crt0init.obj
 0002:00000158       ___xc_z                    200b0158     LIBCMTD:crt0init.obj
 0002:0000015c       ___xi_a                    200b015c     LIBCMTD:crt0init.obj
 0002:00000174       ___xi_z                    200b0174     LIBCMTD:crt0init.obj
 0002:00000178       ___xp_a                    200b0178     LIBCMTD:crt0init.obj
 0002:00000188       ___xp_z                    200b0188     LIBCMTD:crt0init.obj
 0002:0000018c       ___xt_a                    200b018c     LIBCMTD:crt0init.obj
 0002:00000190       ___xt_z                    200b0190     LIBCMTD:crt0init.obj
 0002:000001d8       ??_C@_0O@OCOCOONB@sv_maxclients?$AA@ 200b01d8     ai_chat.obj
 0002:000001e8       ??_C@_01EFFIKLCJ@n?$AA@    200b01e8     ai_chat.obj
 0002:000001ec       ??_C@_01PFHFFBPC@t?$AA@    200b01ec     ai_chat.obj
 0002:000001f0       ??_C@_07KMNEBLH@mapname?$AA@ 200b01f0     ai_chat.obj
 0002:000001f8       ??_C@_07DGIAOJJ@Shotgun?$AA@ 200b01f8     ai_chat.obj
 0002:00000200       ??_C@_08ELAHAPJB@Gauntlet?$AA@ 200b0200     ai_chat.obj
 0002:0000020c       ??_C@_0L@KDNGMPND@Machinegun?$AA@ 200b020c     ai_chat.obj
 0002:00000218       ??_C@_0BB@GIEOMMBO@Grenade?5Launcher?$AA@ 200b0218     ai_chat.obj
 0002:0000022c       ??_C@_0BA@DJIGCIDL@Rocket?5Launcher?$AA@ 200b022c     ai_chat.obj
 0002:0000023c       ??_C@_09MBHKGILD@Plasmagun?$AA@ 200b023c     ai_chat.obj
 0002:00000248       ??_C@_07NMJDHEIK@Railgun?$AA@ 200b0248     ai_chat.obj
 0002:00000250       ??_C@_0O@HOCKKNKE@Lightning?5Gun?$AA@ 200b0250     ai_chat.obj
 0002:00000260       ??_C@_06PNKEMFGD@BFG10K?$AA@ 200b0260     ai_chat.obj
 0002:00000268       ??_C@_07MKHABLGK@Grapple?$AA@ 200b0268     ai_chat.obj
 0002:00000270       ??_C@_0BB@FPHHFAJG@?$FLunknown?5weapon?$FN?$AA@ 200b0270     ai_chat.obj
 0002:00000284       ??_C@_0O@IGAOFANI@?$FLinvalid?5var?$FN?$AA@ 200b0284     ai_chat.obj
 0002:00000294       ??_C@_0L@PKHLIBCF@game_enter?$AA@ 200b0294     ai_chat.obj
 0002:000002a0       ??_C@_09PIOCENHO@game_exit?$AA@ 200b02a0     ai_chat.obj
 0002:000002ac       ??_C@_06IMDBNOMM@vtaunt?$AA@ 200b02ac     ai_chat.obj
 0002:000002b4       ??_C@_0M@CJNDJGDH@level_start?$AA@ 200b02b4     ai_chat.obj
 0002:000002c0       ??_C@_0BC@GKFLFIDK@level_end_victory?$AA@ 200b02c0     ai_chat.obj
 0002:000002d4       ??_C@_0P@LPKGAAGE@level_end_lose?$AA@ 200b02d4     ai_chat.obj
 0002:000002e4       ??_C@_09PILOJEEK@level_end?$AA@ 200b02e4     ai_chat.obj
 0002:000002f0       ??_C@_07PANFCHNN@?$FLworld?$FN?$AA@ 200b02f0     ai_chat.obj
 0002:000002f8       ??_C@_0P@LLJEDFBD@death_teammate?$AA@ 200b02f8     ai_chat.obj
 0002:00000308       ??_C@_0M@BCPGKKBA@death_drown?$AA@ 200b0308     ai_chat.obj
 0002:00000314       ??_C@_0M@ENLBBGB@death_slime?$AA@ 200b0314     ai_chat.obj
 0002:00000320       ??_C@_0L@JGPKJCJO@death_lava?$AA@ 200b0320     ai_chat.obj
 0002:0000032c       ??_C@_0P@FHLBDKHM@death_cratered?$AA@ 200b032c     ai_chat.obj
 0002:0000033c       ??_C@_0O@EGKCFKBF@death_suicide?$AA@ 200b033c     ai_chat.obj
 0002:0000034c       ??_C@_0P@CLLHBMMH@death_telefrag?$AA@ 200b034c     ai_chat.obj
 0002:0000035c       ??_C@_0P@GODBEIFH@death_gauntlet?$AA@ 200b035c     ai_chat.obj
 0002:0000036c       ??_C@_0L@OLPOCBHN@death_rail?$AA@ 200b036c     ai_chat.obj
 0002:00000378       ??_C@_09HPMGADCC@death_bfg?$AA@ 200b0378     ai_chat.obj
 0002:00000384       ??_C@_0N@EPKIJPHK@death_insult?$AA@ 200b0384     ai_chat.obj
 0002:00000394       ??_C@_0N@INLGGPBP@death_praise?$AA@ 200b0394     ai_chat.obj
 0002:000003a4       ??_C@_0O@FOOLABNO@kill_teammate?$AA@ 200b03a4     ai_chat.obj
 0002:000003b4       ??_C@_0O@ILEOHMJK@kill_gauntlet?$AA@ 200b03b4     ai_chat.obj
 0002:000003c4       ??_C@_09HNPOIBHL@kill_rail?$AA@ 200b03c4     ai_chat.obj
 0002:000003d0       ??_C@_0O@MOMICIAK@kill_telefrag?$AA@ 200b03d0     ai_chat.obj
 0002:000003e0       ??_C@_0M@MPCEANBE@kill_insult?$AA@ 200b03e0     ai_chat.obj
 0002:000003ec       ??_C@_0M@NDKPNHB@kill_praise?$AA@ 200b03ec     ai_chat.obj
 0002:000003f8       ??_C@_00CNPNBAHC@?$AA@     200b03f8     ai_chat.obj
 0002:000003fc       ??_C@_0O@CCLFCPCH@enemy_suicide?$AA@ 200b03fc     ai_chat.obj
 0002:0000040c       ??_C@_0M@GJHANCBL@hit_talking?$AA@ 200b040c     ai_chat.obj
 0002:00000418       ??_C@_0M@NEMKKKCP@hit_nodeath?$AA@ 200b0418     ai_chat.obj
 0002:00000424       ??_C@_0L@HALGAHGK@hit_nokill?$AA@ 200b0424     ai_chat.obj
 0002:00000430       ??_C@_0M@DCDJELGA@random_misc?$AA@ 200b0430     ai_chat.obj
 0002:0000043c       ??_C@_0O@BCFFFDNI@random_insult?$AA@ 200b043c     ai_chat.obj
 0002:0000044c       __real@00000000            200b044c     ai_chat.obj
 0002:00000450       __real@3f800000            200b0450     ai_chat.obj
 0002:00000458       __real@3fb999999999999a    200b0458     ai_chat.obj
 0002:00000460       __real@3fd0000000000000    200b0460     ai_chat.obj
 0002:00000468       __real@3fe0000000000000    200b0468     ai_chat.obj
 0002:00000470       __real@40000000            200b0470     ai_chat.obj
 0002:00000478       __real@4021cccccccccccd    200b0478     ai_chat.obj
 0002:00000480       __real@41200000            200b0480     ai_chat.obj
 0002:00000484       __real@41c00000            200b0484     ai_chat.obj
 0002:00000488       __real@41c80000            200b0488     ai_chat.obj
 0002:0000048c       __real@42000000            200b048c     ai_chat.obj
 0002:00000490       __real@43b40000            200b0490     ai_chat.obj
 0002:00000494       __real@46fffe00            200b0494     ai_chat.obj
 0002:00000498       ??_C@_0CP@DNGNKLJC@?$CFs?3?5I?8m?5gonna?5help?5a?5team?5mate?5f@ 200b0498     ai_cmd.obj
 0002:000004c8       ??_C@_0DE@GKHGGPOB@?$CFs?3?5I?8m?5gonna?5accompany?5a?5team?5m@ 200b04c8     ai_cmd.obj
 0002:000004fc       ??_C@_0CL@EMAFNDIM@?$CFs?3?5I?8m?5gonna?5get?5the?5flag?5for?5?$CF@ 200b04fc     ai_cmd.obj
 0002:00000528       ??_C@_0CP@EDGAPFMF@?$CFs?3?5I?8m?5gonna?5rush?5to?5the?5base?5f@ 200b0528     ai_cmd.obj
 0002:00000558       ??_C@_0DF@COPPFAKG@?$CFs?3?5I?8m?5gonna?5try?5to?5return?5the?5@ 200b0558     ai_cmd.obj
 0002:00000590       ??_C@_0DA@LGFLAKNG@?$CFs?3?5I?8m?5gonna?5defend?5a?5key?5area?5@ 200b0590     ai_cmd.obj
 0002:000005c0       ??_C@_0CK@DNEMKHBG@?$CFs?3?5I?8m?5gonna?5get?5an?5item?5for?5?$CF1@ 200b05c0     ai_cmd.obj
 0002:000005ec       ??_C@_0CL@DDPGIFJG@?$CFs?3?5I?8m?5gonna?5kill?5someone?5for?5?$CF@ 200b05ec     ai_cmd.obj
 0002:00000618       ??_C@_0CD@EMLIGCBD@?$CFs?3?5I?8m?5gonna?5camp?5for?5?$CF1?40f?5sec@ 200b0618     ai_cmd.obj
 0002:0000063c       ??_C@_0CF@DLPLJMNN@?$CFs?3?5I?8m?5gonna?5patrol?5for?5?$CF1?40f?5s@ 200b063c     ai_cmd.obj
 0002:00000664       ??_C@_0CD@LMLPDLJC@?$CFs?3?5I?8m?5gonna?5roam?5for?5?$CF1?40f?5sec@ 200b0664     ai_cmd.obj
 0002:00000688       ??_C@_0BN@OHELPGJE@?$CFs?3?5I?8ve?5got?5a?5regular?5goal?6?$AA@ 200b0688     ai_cmd.obj
 0002:000006a8       ??_C@_0BB@PGBIDPPC@what?5do?5you?5say?$DP?$AA@ 200b06a8     ai_cmd.obj
 0002:000006bc       ??_C@_0CC@BCALNIDF@I?5need?5more?5key?5points?5to?5patrol@ 200b06bc     ai_cmd.obj
 0002:000006e0       ??_C@_03PMGGPEJJ@?$CFd?6?$AA@ 200b06e0     ai_cmd.obj
 0002:000006e4       ??_C@_05NBAJGCGG@whois?$AA@ 200b06e4     ai_cmd.obj
 0002:000006ec       ??_C@_07BANGEKHA@whereis?$AA@ 200b06ec     ai_cmd.obj
 0002:000006f4       ??_C@_0M@HCHCFBDA@whereareyou?$AA@ 200b06f4     ai_cmd.obj
 0002:00000700       ??_C@_0L@CCGDOBMA@keepinmind?$AA@ 200b0700     ai_cmd.obj
 0002:0000070c       ??_C@_03ICICOMAL@yes?$AA@  200b070c     ai_cmd.obj
 0002:00000710       ??_C@_0L@OAEJIBOJ@joinedteam?$AA@ 200b0710     ai_cmd.obj
 0002:0000071c       ??_C@_08NKJDPEPF@leftteam?$AA@ 200b071c     ai_cmd.obj
 0002:00000728       ??_C@_06NHKPLCFO@inteam?$AA@ 200b0728     ai_cmd.obj
 0002:00000730       ??_C@_06NJFEFPHF@noteam?$AA@ 200b0730     ai_cmd.obj
 0002:00000738       ??_C@_08OEKJENGB@?$CFf?5?$CFf?5?$CFf?$AA@ 200b0738     ai_cmd.obj
 0002:00000744       ??_C@_0BD@GKCAPLMB@checkpoint_invalid?$AA@ 200b0744     ai_cmd.obj
 0002:00000758       ??_C@_0BC@PAJMIFOG@?$CF1?40f?5?$CF1?40f?5?$CF1?40f?$AA@ 200b0758     ai_cmd.obj
 0002:0000076c       ??_C@_0BD@PGFNLHLB@checkpoint_confirm?$AA@ 200b076c     ai_cmd.obj
 0002:00000780       ??_C@_09FLIJNDLN@dismissed?$AA@ 200b0780     ai_cmd.obj
 0002:0000078c       ??_C@_04BJJEOANI@kill?$AA@ 200b078c     ai_cmd.obj
 0002:00000794       ??_C@_05CPCHEFAA@taunt?$AA@ 200b0794     ai_cmd.obj
 0002:0000079c       ??_C@_0BF@EGOEAANC@I?8m?5the?5team?5leader?6?$AA@ 200b079c     ai_cmd.obj
 0002:000007b4       ??_C@_07OIGCHEPH@helping?$AA@ 200b07b4     ai_cmd.obj
 0002:000007bc       ??_C@_0N@FBKCFEPP@accompanying?$AA@ 200b07bc     ai_cmd.obj
 0002:000007cc       ??_C@_09GNBACBHC@defending?$AA@ 200b07cc     ai_cmd.obj
 0002:000007d8       ??_C@_0M@EEGCLMEK@gettingitem?$AA@ 200b07d8     ai_cmd.obj
 0002:000007e4       ??_C@_07EFNGDOD@killing?$AA@ 200b07e4     ai_cmd.obj
 0002:000007ec       ??_C@_07IKBLJPBH@camping?$AA@ 200b07ec     ai_cmd.obj
 0002:000007f4       ??_C@_0L@GHJELNDI@patrolling?$AA@ 200b07f4     ai_cmd.obj
 0002:00000800       ??_C@_0O@KMOOAPPA@capturingflag?$AA@ 200b0800     ai_cmd.obj
 0002:00000810       ??_C@_0M@BGGCILAH@rushingbase?$AA@ 200b0810     ai_cmd.obj
 0002:0000081c       ??_C@_0O@PNEKPGNP@returningflag?$AA@ 200b081c     ai_cmd.obj
 0002:0000082c       ??_C@_07IFIHEGLH@roaming?$AA@ 200b082c     ai_cmd.obj
 0002:00000834       ??_C@_0M@KOJLOALK@Quad?5Damage?$AA@ 200b0834     ai_cmd.obj
 0002:00000840       ??_C@_0N@CBPBLBHG@Regeneration?$AA@ 200b0840     ai_cmd.obj
 0002:00000850       ??_C@_0M@ONKEJEFE@Battle?5Suit?$AA@ 200b0850     ai_cmd.obj
 0002:0000085c       ??_C@_05HOIAGEJD@Speed?$AA@ 200b085c     ai_cmd.obj
 0002:00000864       ??_C@_0N@LCCEENAK@Invisibility?$AA@ 200b0864     ai_cmd.obj
 0002:00000874       ??_C@_06FDKFDAP@Flight?$AA@ 200b0874     ai_cmd.obj
 0002:0000087c       ??_C@_05JOOFIMIN@Armor?$AA@ 200b087c     ai_cmd.obj
 0002:00000884       ??_C@_0M@ICCAHGAD@Heavy?5Armor?$AA@ 200b0884     ai_cmd.obj
 0002:00000890       ??_C@_08GAOGPIJL@Red?5Flag?$AA@ 200b0890     ai_cmd.obj
 0002:0000089c       ??_C@_09MDBFHCAB@Blue?5Flag?$AA@ 200b089c     ai_cmd.obj
 0002:000008a8       ??_C@_03FAAAOPJM@red?$AA@  200b08a8     ai_cmd.obj
 0002:000008ac       ??_C@_0N@LHJHAMNN@teamlocation?$AA@ 200b08ac     ai_cmd.obj
 0002:000008bc       ??_C@_04OBGPFBCN@blue?$AA@ 200b08bc     ai_cmd.obj
 0002:000008c4       ??_C@_08CBBFJFMD@location?$AA@ 200b08c4     ai_cmd.obj
 0002:000008d0       ??_C@_0DL@ENJHCNMJ@the?5part?5of?5my?5brain?5to?5create?5f@ 200b08d0     ai_cmd.obj
 0002:0000090c       ??_C@_0BE@NHGFGLLF@unknown?5match?5type?6?$AA@ 200b090c     ai_cmd.obj
 0002:00000920       __real@3fd999999999999a    200b0920     ai_cmd.obj
 0002:00000928       __real@3ff0000000000000    200b0928     ai_cmd.obj
 0002:00000930       __real@402381d7dbf487fd    200b0930     ai_cmd.obj
 0002:00000938       __real@4040000000000000    200b0938     ai_cmd.obj
 0002:00000940       __real@404e000000000000    200b0940     ai_cmd.obj
 0002:00000948       __real@41000000            200b0948     ai_cmd.obj
 0002:0000094c       __real@42400000            200b094c     ai_cmd.obj
 0002:00000950       __real@42700000            200b0950     ai_cmd.obj
 0002:00000954       __real@42c80000            200b0954     ai_cmd.obj
 0002:00000958       __real@42e00000            200b0958     ai_cmd.obj
 0002:0000095c       __real@42f00000            200b095c     ai_cmd.obj
 0002:00000960       __real@43340000            200b0960     ai_cmd.obj
 0002:00000964       __real@43fa0000            200b0964     ai_cmd.obj
 0002:00000968       __real@44160000            200b0968     ai_cmd.obj
 0002:0000096c       __real@44e10000            200b096c     ai_cmd.obj
 0002:00000970       __real@497423f0            200b0970     ai_cmd.obj
 0002:00000974       __real@4cbebc20            200b0974     ai_cmd.obj
 0002:00000978       __real@c1000000            200b0978     ai_cmd.obj
 0002:00000980       __xmm@80000000800000008000000080000000 200b0980     ai_cmd.obj
 0002:00000990       ??_C@_0CM@FBOPNIPA@?$CFs?5at?5?$CF1?41f?5switched?5more?5than?5?$CF@ 200b0990     ai_dmnet.obj
 0002:000009bc       ??_C@_0CE@EJLGIIOB@?$CFs?5at?5?$CF2?41f?5entered?5?$CFs?3?5?$CFs?5from?5@ 200b09bc     ai_dmnet.obj
 0002:000009e0       ??_C@_0CD@NJJLHGEF@?$CFs?3?5no?5valid?5ltg?5?$CIprobably?5stuck@ 200b09e0     ai_dmnet.obj
 0002:00000a04       ??_C@_0L@JEGDCFOO@help_start?$AA@ 200b0a04     ai_dmnet.obj
 0002:00000a10       ??_C@_0BA@JEJAJCPN@accompany_start?$AA@ 200b0a10     ai_dmnet.obj
 0002:00000a20       ??_C@_0P@JLGJIDCE@accompany_stop?$AA@ 200b0a20     ai_dmnet.obj
 0002:00000a30       ??_C@_0BB@FONGAGIJ@accompany_arrive?$AA@ 200b0a30     ai_dmnet.obj
 0002:00000a44       ??_C@_0BM@KDEEGPGK@BotLongTermGoal?3?5go?5for?5air?$AA@ 200b0a44     ai_dmnet.obj
 0002:00000a60       ??_C@_0BF@DCOBNKPB@accompany_cannotfind?$AA@ 200b0a60     ai_dmnet.obj
 0002:00000a78       ??_C@_0N@KFKEFAB@defend_start?$AA@ 200b0a78     ai_dmnet.obj
 0002:00000a88       ??_C@_09DPKMICOA@ondefense?$AA@ 200b0a88     ai_dmnet.obj
 0002:00000a94       ??_C@_0M@DFCLNMCD@defend_stop?$AA@ 200b0a94     ai_dmnet.obj
 0002:00000aa0       ??_C@_0L@DMKJIHAF@kill_start?$AA@ 200b0aa0     ai_dmnet.obj
 0002:00000aac       ??_C@_09KGAMDJKG@kill_done?$AA@ 200b0aac     ai_dmnet.obj
 0002:00000ab8       ??_C@_0O@LBCALMFN@getitem_start?$AA@ 200b0ab8     ai_dmnet.obj
 0002:00000ac8       ??_C@_0BB@GOIMPKGP@getitem_notthere?$AA@ 200b0ac8     ai_dmnet.obj
 0002:00000adc       ??_C@_0O@EJODLBHP@getitem_gotit?$AA@ 200b0adc     ai_dmnet.obj
 0002:00000aec       ??_C@_0L@KJNCBGJD@camp_start?$AA@ 200b0aec     ai_dmnet.obj
 0002:00000af8       ??_C@_09BHIDKEB@camp_stop?$AA@ 200b0af8     ai_dmnet.obj
 0002:00000b04       ??_C@_0M@PEOBAIFC@camp_arrive?$AA@ 200b0b04     ai_dmnet.obj
 0002:00000b10       ??_C@_0L@IJFFADDJ@inposition?$AA@ 200b0b10     ai_dmnet.obj
 0002:00000b1c       ??_C@_04MKEOLIJC@?5to?5?$AA@ 200b0b1c     ai_dmnet.obj
 0002:00000b24       ??_C@_0N@IKJEFKFP@patrol_start?$AA@ 200b0b24     ai_dmnet.obj
 0002:00000b34       ??_C@_0M@JOFDEJLG@patrol_stop?$AA@ 200b0b34     ai_dmnet.obj
 0002:00000b40       ??_C@_0BC@BPHAAOLA@captureflag_start?$AA@ 200b0b40     ai_dmnet.obj
 0002:00000b54       ??_C@_09DPAAIBFE@ongetflag?$AA@ 200b0b54     ai_dmnet.obj
 0002:00000b60       ??_C@_0BB@BFOOKAAN@returnflag_start?$AA@ 200b0b60     ai_dmnet.obj
 0002:00000b74       ??_C@_0N@INDGBJCC@onreturnflag?$AA@ 200b0b74     ai_dmnet.obj
 0002:00000b84       ??_C@_09GJKBJNFC@lead_stop?$AA@ 200b0b84     ai_dmnet.obj
 0002:00000b90       ??_C@_08LJGLPHPA@followme?$AA@ 200b0b90     ai_dmnet.obj
 0002:00000b9c       ??_C@_0N@IHDBPIFK@intermission?$AA@ 200b0b9c     ai_dmnet.obj
 0002:00000bac       ??_C@_0BD@FAEFJCHC@intermission?3?5chat?$AA@ 200b0bac     ai_dmnet.obj
 0002:00000bc0       ??_C@_08BDAIAION@observer?$AA@ 200b0bc0     ai_dmnet.obj
 0002:00000bcc       ??_C@_0BI@BGMGILOO@observer?3?5left?5observer?$AA@ 200b0bcc     ai_dmnet.obj
 0002:00000be4       ??_C@_05PJLLPND@stand?$AA@ 200b0be4     ai_dmnet.obj
 0002:00000bec       ??_C@_0BD@EFNKCGD@stand?3?5found?5enemy?$AA@ 200b0bec     ai_dmnet.obj
 0002:00000c00       ??_C@_0BA@EJJPLHJN@stand?3?5time?5out?$AA@ 200b0c00     ai_dmnet.obj
 0002:00000c10       ??_C@_07PABIOCAD@respawn?$AA@ 200b0c10     ai_dmnet.obj
 0002:00000c18       ??_C@_0BD@MNFAOLC@respawn?3?5respawned?$AA@ 200b0c18     ai_dmnet.obj
 0002:00000c2c       ??_C@_0BA@OLIPHEKA@activate?5entity?$AA@ 200b0c2c     ai_dmnet.obj
 0002:00000c3c       ??_C@_0BI@CFBHMKPG@active?5entity?3?5observer?$AA@ 200b0c3c     ai_dmnet.obj
 0002:00000c54       ??_C@_0BO@DDGLLAGC@activate?5entity?3?5intermission?$AA@ 200b0c54     ai_dmnet.obj
 0002:00000c74       ??_C@_0BK@EGCINOOI@activate?5entity?3?5bot?5dead?$AA@ 200b0c74     ai_dmnet.obj
 0002:00000c90       ??_C@_0BJ@EEHKLOIJ@activate?5entity?3?5no?5goal?$AA@ 200b0c90     ai_dmnet.obj
 0002:00000cac       ??_C@_0CB@NJIIFLCC@hit?5shootable?5button?5or?5trigger?6@ 200b0cac     ai_dmnet.obj
 0002:00000cd0       ??_C@_0BK@GBGNKJEG@activate?5entity?3?5time?5out?$AA@ 200b0cd0     ai_dmnet.obj
 0002:00000cec       ??_C@_0BL@FHEEABKA@touched?5button?5or?5trigger?6?$AA@ 200b0cec     ai_dmnet.obj
 0002:00000d08       ??_C@_0BL@KOANFMEA@activate?5entity?3?5activated?$AA@ 200b0d08     ai_dmnet.obj
 0002:00000d24       ??_C@_0BN@CHDNEHF@activate?5entity?3?5found?5enemy?$AA@ 200b0d24     ai_dmnet.obj
 0002:00000d44       ??_C@_08IFECKGCD@seek?5NBG?$AA@ 200b0d44     ai_dmnet.obj
 0002:00000d50       ??_C@_07ONOEGCJB@no?5goal?$AA@ 200b0d50     ai_dmnet.obj
 0002:00000d58       ??_C@_0BD@GLAPFIFB@seek?5nbg?3?5observer?$AA@ 200b0d58     ai_dmnet.obj
 0002:00000d6c       ??_C@_0BG@FJPIPBDN@seek?5nbg?3?5intermision?$AA@ 200b0d6c     ai_dmnet.obj
 0002:00000d84       ??_C@_0BD@CNOKIINO@seek?5nbg?3?5bot?5dead?$AA@ 200b0d84     ai_dmnet.obj
 0002:00000d98       ??_C@_0BD@KKPPPHA@seek?5nbg?3?5time?5out?$AA@ 200b0d98     ai_dmnet.obj
 0002:00000dac       ??_C@_0BG@LLBOBEHC@seek?5nbg?3?5found?5enemy?$AA@ 200b0dac     ai_dmnet.obj
 0002:00000dc4       ??_C@_08DHOALBGK@seek?5LTG?$AA@ 200b0dc4     ai_dmnet.obj
 0002:00000dd0       ??_C@_0BD@JOIDOFPL@seek?5ltg?3?5observer?$AA@ 200b0dd0     ai_dmnet.obj
 0002:00000de4       ??_C@_0BH@BIAHANPH@seek?5ltg?3?5intermission?$AA@ 200b0de4     ai_dmnet.obj
 0002:00000dfc       ??_C@_0BD@NIGGDFHE@seek?5ltg?3?5bot?5dead?$AA@ 200b0dfc     ai_dmnet.obj
 0002:00000e10       ??_C@_0BG@FMPBNGLO@seek?5ltg?3?5random?5chat?$AA@ 200b0e10     ai_dmnet.obj
 0002:00000e28       ??_C@_0BG@NKJENDMP@seek?5ltg?3?5found?5enemy?$AA@ 200b0e28     ai_dmnet.obj
 0002:00000e40       ??_C@_0O@OMHBKBBP@ltg?5seek?3?5nbg?$AA@ 200b0e40     ai_dmnet.obj
 0002:00000e50       ??_C@_0N@JAICAHME@battle?5fight?$AA@ 200b0e50     ai_dmnet.obj
 0002:00000e60       ??_C@_0BH@GEIFMEHN@battle?5fight?3?5observer?$AA@ 200b0e60     ai_dmnet.obj
 0002:00000e78       ??_C@_0BL@OCIIHEED@battle?5fight?3?5intermission?$AA@ 200b0e78     ai_dmnet.obj
 0002:00000e94       ??_C@_0BH@CCGABEPC@battle?5fight?3?5bot?5dead?$AA@ 200b0e94     ai_dmnet.obj
 0002:00000eac       ??_C@_0BI@BEOBCCFJ@found?5new?5better?5enemy?6?$AA@ 200b0eac     ai_dmnet.obj
 0002:00000ec4       ??_C@_0BH@PAJNDMEE@battle?5fight?3?5no?5enemy?$AA@ 200b0ec4     ai_dmnet.obj
 0002:00000edc       ??_C@_0BJ@JCMOALOB@battle?5fight?3?5enemy?5dead?$AA@ 200b0edc     ai_dmnet.obj
 0002:00000ef8       ??_C@_0BI@PALDJFNB@battle?5fight?3?5invisible?$AA@ 200b0ef8     ai_dmnet.obj
 0002:00000f10       ??_C@_0CE@HNIMDJBG@battle?5fight?3?5chat?5health?5decrea@ 200b0f10     ai_dmnet.obj
 0002:00000f34       ??_C@_0BP@NBCPEGCG@battle?5fight?3?5chat?5hit?5someone?$AA@ 200b0f34     ai_dmnet.obj
 0002:00000f54       ??_C@_0CB@IGGJLKOL@battle?5fight?3?5enemy?5out?5of?5sight@ 200b0f54     ai_dmnet.obj
 0002:00000f78       ??_C@_0BP@KNHNJPON@battle?5fight?3?5wants?5to?5retreat?$AA@ 200b0f78     ai_dmnet.obj
 0002:00000f98       ??_C@_0N@JLOOIPJK@battle?5chase?$AA@ 200b0f98     ai_dmnet.obj
 0002:00000fa8       ??_C@_0BH@JLJGDBNP@battle?5chase?3?5observer?$AA@ 200b0fa8     ai_dmnet.obj
 0002:00000fc0       ??_C@_0BL@PKAILKOJ@battle?5chase?3?5intermission?$AA@ 200b0fc0     ai_dmnet.obj
 0002:00000fdc       ??_C@_0BH@NNHDOBFA@battle?5chase?3?5bot?5dead?$AA@ 200b0fdc     ai_dmnet.obj
 0002:00000ff4       ??_C@_0BH@PIOMJOG@battle?5chase?3?5no?5enemy?$AA@ 200b0ff4     ai_dmnet.obj
 0002:0000100c       ??_C@_0BL@BJLICKPC@battle?5chase?3?5better?5enemy?$AA@ 200b100c     ai_dmnet.obj
 0002:00001028       ??_C@_0BM@JANANJEH@battle?5chase?3?5no?5enemy?5area?$AA@ 200b1028     ai_dmnet.obj
 0002:00001044       ??_C@_0BH@PKDGJGPO@battle?5chase?3?5time?5out?$AA@ 200b1044     ai_dmnet.obj
 0002:0000105c       ??_C@_0BC@MBHDFOHG@battle?5chase?3?5nbg?$AA@ 200b105c     ai_dmnet.obj
 0002:00001070       ??_C@_0BP@DMHFNNNL@battle?5chase?3?5wants?5to?5retreat?$AA@ 200b1070     ai_dmnet.obj
 0002:00001090       ??_C@_0P@ELFCJAMH@battle?5retreat?$AA@ 200b1090     ai_dmnet.obj
 0002:000010a0       ??_C@_0BJ@IOJPHBCK@battle?5retreat?3?5observer?$AA@ 200b10a0     ai_dmnet.obj
 0002:000010bc       ??_C@_0BN@IHDFIOBO@battle?5retreat?3?5intermission?$AA@ 200b10bc     ai_dmnet.obj
 0002:000010dc       ??_C@_0BJ@MIHKKBKF@battle?5retreat?3?5bot?5dead?$AA@ 200b10dc     ai_dmnet.obj
 0002:000010f8       ??_C@_0BJ@BKIHIJBD@battle?5retreat?3?5no?5enemy?$AA@ 200b10f8     ai_dmnet.obj
 0002:00001114       ??_C@_0BL@NMDPGNGL@battle?5retreat?3?5enemy?5dead?$AA@ 200b1114     ai_dmnet.obj
 0002:00001130       ??_C@_0BP@PDKIMDBN@battle?5retreat?3?5wants?5to?5chase?$AA@ 200b1130     ai_dmnet.obj
 0002:00001150       ??_C@_0BL@KBIAJDEJ@battle?5retreat?3?5lost?5enemy?$AA@ 200b1150     ai_dmnet.obj
 0002:0000116c       ??_C@_0BO@JHDCIIFI@battle?5retreat?3?5another?5enemy?$AA@ 200b116c     ai_dmnet.obj
 0002:0000118c       ??_C@_0BL@IFDBGGDM@battle?5retreat?3?5no?5way?5out?$AA@ 200b118c     ai_dmnet.obj
 0002:000011a8       ??_C@_0BE@EEPGNAKO@battle?5retreat?3?5nbg?$AA@ 200b11a8     ai_dmnet.obj
 0002:000011bc       ??_C@_0L@EFLDDLAJ@battle?5NBG?$AA@ 200b11bc     ai_dmnet.obj
 0002:000011c8       ??_C@_0BF@PHHGOFHO@battle?5nbg?3?5observer?$AA@ 200b11c8     ai_dmnet.obj
 0002:000011e0       ??_C@_0BJ@JPCFIHPK@battle?5nbg?3?5intermission?$AA@ 200b11e0     ai_dmnet.obj
 0002:000011fc       ??_C@_0BF@LBJDDFPB@battle?5nbg?3?5bot?5dead?$AA@ 200b11fc     ai_dmnet.obj
 0002:00001214       ??_C@_0BF@GDGOBNEH@battle?5nbg?3?5no?5enemy?$AA@ 200b1214     ai_dmnet.obj
 0002:0000122c       ??_C@_0BH@PFIKNLIP@battle?5nbg?3?5enemy?5dead?$AA@ 200b122c     ai_dmnet.obj
 0002:00001244       ??_C@_0BF@JGNGECFP@battle?5nbg?3?5time?5out?$AA@ 200b1244     ai_dmnet.obj
 0002:00001260       __real@3f847ae147ae147b    200b1260     ai_dmnet.obj
 0002:00001268       __real@3fa999999999999a    200b1268     ai_dmnet.obj
 0002:00001270       __real@3fc999999999999a    200b1270     ai_dmnet.obj
 0002:00001278       __real@3fd3333333333333    200b1278     ai_dmnet.obj
 0002:00001280       __real@3fe6666666666666    200b1280     ai_dmnet.obj
 0002:00001288       __real@3fe999999999999a    200b1288     ai_dmnet.obj
 0002:00001290       __real@40400000            200b1290     ai_dmnet.obj
 0002:00001294       __real@40800000            200b1294     ai_dmnet.obj
 0002:00001298       __real@40a00000            200b1298     ai_dmnet.obj
 0002:0000129c       __real@40c00000            200b129c     ai_dmnet.obj
 0002:000012a0       __real@41700000            200b12a0     ai_dmnet.obj
 0002:000012a4       __real@41a00000            200b12a4     ai_dmnet.obj
 0002:000012a8       __real@42480000            200b12a8     ai_dmnet.obj
 0002:000012ac       __real@43160000            200b12ac     ai_dmnet.obj
 0002:000012b0       __real@43960000            200b12b0     ai_dmnet.obj
 0002:000012b4       __real@43af0000            200b12b4     ai_dmnet.obj
 0002:000012b8       __real@43c80000            200b12b8     ai_dmnet.obj
 0002:000012bc       __real@447a0000            200b12bc     ai_dmnet.obj
 0002:000012c0       __real@45610000            200b12c0     ai_dmnet.obj
 0002:000012c4       __real@45992000            200b12c4     ai_dmnet.obj
 0002:000012c8       __real@461c4000            200b12c8     ai_dmnet.obj
 0002:000012cc       __real@48742400            200b12cc     ai_dmnet.obj
 0002:000012d0       __real@bf800000            200b12d0     ai_dmnet.obj
 0002:000012d4       __real@c0000000            200b12d4     ai_dmnet.obj
 0002:000012d8       __real@c1700000            200b12d8     ai_dmnet.obj
 0002:000012dc       ??_C@_02KAJCLHKP@no?$AA@   200b12dc     ai_dmq3.obj
 0002:000012e0       ??_C@_02DPKJAMEF@?$CFd?$AA@ 200b12e0     ai_dmq3.obj
 0002:000012e4       ??_C@_08OKGPDOIO@teamtask?$AA@ 200b12e4     ai_dmq3.obj
 0002:000012f0       ??_C@_09BJNHNGHD@ihaveflag?$AA@ 200b12f0     ai_dmq3.obj
 0002:000012fc       ??_C@_08EAEOGCCG@onfollow?$AA@ 200b12fc     ai_dmq3.obj
 0002:00001308       ??_C@_0CB@FEANAAEF@ClientName?3?5client?5out?5of?5range?6@ 200b1308     ai_dmq3.obj
 0002:0000132c       ??_C@_0BG@EPIHOAD@?$FLclient?5out?5of?5range?$FN?$AA@ 200b132c     ai_dmq3.obj
 0002:00001344       ??_C@_0CB@PGPLLECA@ClientSkin?3?5client?5out?5of?5range?6@ 200b1344     ai_dmq3.obj
 0002:00001368       ??_C@_05NCCFOPHA@model?$AA@ 200b1368     ai_dmq3.obj
 0002:00001370       ??_C@_01CLKCMJKC@?5?$AA@   200b1370     ai_dmq3.obj
 0002:00001374       ??_C@_01OHGJGJJP@?$FL?$AA@ 200b1374     ai_dmq3.obj
 0002:00001378       ??_C@_01LBDDMOBJ@?$FN?$AA@ 200b1378     ai_dmq3.obj
 0002:0000137c       ??_C@_0CF@BEIOCA@BotCreateWayPoint?3?5Out?5of?5waypoi@ 200b137c     ai_dmq3.obj
 0002:000013a4       ??_C@_0L@IMOIIFCE@q3tourney6?$AA@ 200b13a4     ai_dmq3.obj
 0002:000013b0       ??_C@_0N@IFIOEJJO@mpq3tourney6?$AA@ 200b13b0     ai_dmq3.obj
 0002:000013c0       ??_C@_03MHHCOBAB@lip?$AA@  200b13c0     ai_dmq3.obj
 0002:000013c4       ??_C@_05FECBCJJD@angle?$AA@ 200b13c4     ai_dmq3.obj
 0002:000013cc       ??_C@_06KJINILIP@health?$AA@ 200b13cc     ai_dmq3.obj
 0002:000013d4       ??_C@_03COCDEFBB@?$CK?$CFd?$AA@ 200b13d4     ai_dmq3.obj
 0002:000013d8       ??_C@_0DD@KCKJBPAH@BotGetActivateGoal?3?5no?5entity?5fo@ 200b13d8     ai_dmq3.obj
 0002:0000140c       ??_C@_09CNJINBGN@classname?$AA@ 200b140c     ai_dmq3.obj
 0002:00001418       ??_C@_0DL@MEHLMGEE@BotGetActivateGoal?3?5entity?5with?5@ 200b1418     ai_dmq3.obj
 0002:00001454       ??_C@_09KJCKJKEG@func_door?$AA@ 200b1454     ai_dmq3.obj
 0002:00001460       ??_C@_0L@HLIKNEFC@spawnflags?$AA@ 200b1460     ai_dmq3.obj
 0002:0000146c       ??_C@_06NHCMNMEH@origin?$AA@ 200b146c     ai_dmq3.obj
 0002:00001474       ??_C@_0M@PNMKBMEP@func_button?$AA@ 200b1474     ai_dmq3.obj
 0002:00001480       ??_C@_0L@FEPNPAJD@targetname?$AA@ 200b1480     ai_dmq3.obj
 0002:0000148c       ??_C@_0DO@HIKLPKA@BotGetActivateGoal?3?5entity?5with?5@ 200b148c     ai_dmq3.obj
 0002:000014cc       ??_C@_06JJLAMBGK@target?$AA@ 200b14cc     ai_dmq3.obj
 0002:000014d4       ??_C@_0DA@LAOMJDKC@BotGetActivateGoal?3?5no?5entity?5wi@ 200b14d4     ai_dmq3.obj
 0002:00001504       ??_C@_0DO@JNGNHOKO@BotGetActivateGoal?3?5entity?5with?5@ 200b1504     ai_dmq3.obj
 0002:00001544       ??_C@_0BB@LKHFHPEP@trigger_multiple?$AA@ 200b1544     ai_dmq3.obj
 0002:00001558       ??_C@_0L@LNOJFPAO@func_timer?$AA@ 200b1558     ai_dmq3.obj
 0002:00001564       ??_C@_0N@JGBHMGAI@target_relay?$AA@ 200b1564     ai_dmq3.obj
 0002:00001574       ??_C@_0N@EDJICHIO@target_delay?$AA@ 200b1574     ai_dmq3.obj
 0002:00001584       ??_C@_0BF@GIIMEEEB@BotGoForActivateGoal?$AA@ 200b1584     ai_dmq3.obj
 0002:0000159c       ??_C@_0DP@PANKMLEN@?$CFs?3?5I?5have?5to?5shoot?5at?5a?5?$CFs?5from@ 200b159c     ai_dmq3.obj
 0002:000015dc       ??_C@_0DN@EJIKMLHL@?$CFs?3?5I?5have?5to?5activate?5a?5?$CFs?5at?5?$CF@ 200b15dc     ai_dmq3.obj
 0002:0000161c       ??_C@_01HIHLOKLC@1?$AA@    200b161c     ai_dmq3.obj
 0002:00001620       ??_C@_0O@BBHMLBKC@bot_testrchat?$AA@ 200b1620     ai_dmq3.obj
 0002:00001630       ??_C@_0BK@ICOBFDNE@?9?9?9?9?9?9?9?9?9?9?9?9?9?9?9?9?9?9?9?9?9?9?9?9?6?$AA@ 200b1630     ai_dmq3.obj
 0002:0000164c       ??_C@_0BK@IPGPBJPO@?$CK?$CK?$CK?$CK?5no?5valid?5reply?5?$CK?$CK?$CK?$CK?6?$AA@ 200b164c     ai_dmq3.obj
 0002:00001668       ??_C@_0CE@HJEADBFH@BotCheckConsoleMessages?3?5reply?5c@ 200b1668     ai_dmq3.obj
 0002:0000168c       ??_C@_0CO@MPBFDNLO@EV_GLOBAL_SOUND?3?5eventParm?5?$CI?$CFd?$CJ?5@ 200b168c     ai_dmq3.obj
 0002:000016bc       ??_C@_0BP@NBLBCCPC@sound?1items?1poweruprespawn?4wav?$AA@ 200b16bc     ai_dmq3.obj
 0002:000016dc       ??_C@_0CP@JEHKHMIG@EV_GENERAL_SOUND?3?5eventParm?5?$CI?$CFd?$CJ@ 200b16dc     ai_dmq3.obj
 0002:0000170c       ??_C@_0O@LBBMLEKM@?$CKfalling1?4wav?$AA@ 200b170c     ai_dmq3.obj
 0002:0000171c       ??_C@_03OMLNFKE@sex?$AA@   200b171c     ai_dmq3.obj
 0002:00001720       ??_C@_07FDOFLCLN@team?5?$CFs?$AA@ 200b1720     ai_dmq3.obj
 0002:00001728       ??_C@_0BM@EKLHMNBH@BotDeathmatchAI?3?5no?5ai?5node?$AA@ 200b1728     ai_dmq3.obj
 0002:00001744       ??_C@_0CB@MGIHMDHM@BotDeathmatchAI?3?5chat?5enter?5game@ 200b1744     ai_dmq3.obj
 0002:00001768       ??_C@_0L@GFINLBEC@g_gametype?$AA@ 200b1768     ai_dmq3.obj
 0002:00001774       ??_C@_0P@OLNMGHML@bot_rocketjump?$AA@ 200b1774     ai_dmq3.obj
 0002:00001784       ??_C@_01GBGANLPD@0?$AA@    200b1784     ai_dmq3.obj
 0002:00001788       ??_C@_0M@HIPNFLBG@bot_grapple?$AA@ 200b1788     ai_dmq3.obj
 0002:00001794       ??_C@_0N@JOELMLFL@bot_fastchat?$AA@ 200b1794     ai_dmq3.obj
 0002:000017a4       ??_C@_0L@JNAIAIAH@bot_nochat?$AA@ 200b17a4     ai_dmq3.obj
 0002:000017b0       ??_C@_0O@ILENLOKO@bot_challenge?$AA@ 200b17b0     ai_dmq3.obj
 0002:000017c0       ??_C@_0BF@JHNEDFAH@bot_predictobstacles?$AA@ 200b17c0     ai_dmq3.obj
 0002:000017d8       ??_C@_01FDFGLJHB@2?$AA@    200b17d8     ai_dmq3.obj
 0002:000017dc       ??_C@_09OGEBNCBM@g_spSkill?$AA@ 200b17dc     ai_dmq3.obj
 0002:000017e8       ??_C@_0BG@HPNDPJMP@CTF?5without?5Red?5Flag?6?$AA@ 200b17e8     ai_dmq3.obj
 0002:00001800       ??_C@_0BH@KKMLANHJ@CTF?5without?5Blue?5Flag?6?$AA@ 200b1800     ai_dmq3.obj
 0002:00001818       __real@38d1b717            200b1818     ai_dmq3.obj
 0002:0000181c       __real@3dcccccd            200b181c     ai_dmq3.obj
 0002:00001820       __real@3e4ccccd            200b1820     ai_dmq3.obj
 0002:00001824       __real@3ecccccd            200b1824     ai_dmq3.obj
 0002:00001828       __real@3f000000            200b1828     ai_dmq3.obj
 0002:0000182c       __real@3f333333            200b182c     ai_dmq3.obj
 0002:00001830       __real@3f50624dd2f1a9fc    200b1830     ai_dmq3.obj
 0002:00001838       __real@3f666666            200b1838     ai_dmq3.obj
 0002:00001840       __real@3fe3333333333333    200b1840     ai_dmq3.obj
 0002:00001848       __real@3fe8000000000000    200b1848     ai_dmq3.obj
 0002:00001850       __real@3feccccccccccccd    200b1850     ai_dmq3.obj
 0002:00001858       __real@3fedeb851eb851ec    200b1858     ai_dmq3.obj
 0002:00001860       __real@3fee666666666666    200b1860     ai_dmq3.obj
 0002:00001868       __real@3fefae147ae147ae    200b1868     ai_dmq3.obj
 0002:00001870       __real@3ff8000000000000    200b1870     ai_dmq3.obj
 0002:00001878       __real@4000000000000000    200b1878     ai_dmq3.obj
 0002:00001880       __real@4014000000000000    200b1880     ai_dmq3.obj
 0002:00001888       __real@4020000000000000    200b1888     ai_dmq3.obj
 0002:00001890       __real@4024000000000000    200b1890     ai_dmq3.obj
 0002:00001898       __real@4034000000000000    200b1898     ai_dmq3.obj
 0002:000018a0       __real@4049000000000000    200b18a0     ai_dmq3.obj
 0002:000018a8       __real@4058000000000000    200b18a8     ai_dmq3.obj
 0002:000018b0       __real@4066800000000000    200b18b0     ai_dmq3.obj
 0002:000018b8       __real@4076800000000000    200b18b8     ai_dmq3.obj
 0002:000018c0       __real@408c200000000000    200b18c0     ai_dmq3.obj
 0002:000018c8       __real@408f400000000000    200b18c8     ai_dmq3.obj
 0002:000018d0       __real@40af400000000000    200b18d0     ai_dmq3.obj
 0002:000018d8       __real@41800000            200b18d8     ai_dmq3.obj
 0002:000018dc       __real@41900000            200b18dc     ai_dmq3.obj
 0002:000018e0       __real@41b80000            200b18e0     ai_dmq3.obj
 0002:000018e4       __real@42200000            200b18e4     ai_dmq3.obj
 0002:000018e8       __real@42800000            200b18e8     ai_dmq3.obj
 0002:000018ec       __real@428c0000            200b18ec     ai_dmq3.obj
 0002:000018f0       __real@42a00000            200b18f0     ai_dmq3.obj
 0002:000018f4       __real@42aa0000            200b18f4     ai_dmq3.obj
 0002:000018f8       __real@42b40000            200b18f8     ai_dmq3.obj
 0002:000018fc       __real@42be0000            200b18fc     ai_dmq3.obj
 0002:00001900       __real@43000000            200b1900     ai_dmq3.obj
 0002:00001904       __real@430c0000            200b1904     ai_dmq3.obj
 0002:00001908       __real@43200000            200b1908     ai_dmq3.obj
 0002:0000190c       __real@43480000            200b190c     ai_dmq3.obj
 0002:00001910       __real@434c0000            200b1910     ai_dmq3.obj
 0002:00001914       __real@43980000            200b1914     ai_dmq3.obj
 0002:00001918       __real@43b00000            200b1918     ai_dmq3.obj
 0002:0000191c       __real@43ea0000            200b191c     ai_dmq3.obj
 0002:00001920       __real@44000000            200b1920     ai_dmq3.obj
 0002:00001924       __real@44280000            200b1924     ai_dmq3.obj
 0002:00001928       __real@442a0000            200b1928     ai_dmq3.obj
 0002:0000192c       __real@442f0000            200b192c     ai_dmq3.obj
 0002:00001930       __real@44480000            200b1930     ai_dmq3.obj
 0002:00001934       __real@44660000            200b1934     ai_dmq3.obj
 0002:00001938       __real@44710000            200b1938     ai_dmq3.obj
 0002:0000193c       __real@4479c000            200b193c     ai_dmq3.obj
 0002:00001940       __real@44800000            200b1940     ai_dmq3.obj
 0002:00001944       __real@45100000            200b1944     ai_dmq3.obj
 0002:00001948       __real@45c80000            200b1948     ai_dmq3.obj
 0002:0000194c       __real@45e3d000            200b194c     ai_dmq3.obj
 0002:00001950       __real@461c3c00            200b1950     ai_dmq3.obj
 0002:00001954       __real@47c34f80            200b1954     ai_dmq3.obj
 0002:00001958       __real@49202e40            200b1958     ai_dmq3.obj
 0002:00001960       __real@c066800000000000    200b1960     ai_dmq3.obj
 0002:00001968       __real@c0800000            200b1968     ai_dmq3.obj
 0002:0000196c       __real@c1400000            200b196c     ai_dmq3.obj
 0002:00001970       __real@c1800000            200b1970     ai_dmq3.obj
 0002:00001974       __real@c1c00000            200b1974     ai_dmq3.obj
 0002:00001978       ??_C@_02DKCKIIND@?$CFs?$AA@ 200b1978     ai_main.obj
 0002:0000197c       ??_C@_0O@LHCIHOMB@?$FO3Warning?3?5?$CFs?$AA@ 200b197c     ai_main.obj
 0002:0000198c       ??_C@_0M@LKBEKEOF@?$FO1Error?3?5?$CFs?$AA@ 200b198c     ai_main.obj
 0002:00001998       ??_C@_0M@GLOCHAGD@?$FO1Fatal?3?5?$CFs?$AA@ 200b1998     ai_main.obj
 0002:000019a4       ??_C@_0L@CNJLHKJM@?$FO1Exit?3?5?$CFs?$AA@ 200b19a4     ai_main.obj
 0002:000019b0       ??_C@_0BE@HKMNOMAG@unknown?5print?5type?6?$AA@ 200b19b0     ai_main.obj
 0002:000019c4       ??_C@_0M@DHMCHLIE@?$ANemtpy?5area?$AA@ 200b19c4     ai_main.obj
 0002:000019d0       ??_C@_0O@IFLBEIIP@?$AN?$FO1SOLID?5area?$AA@ 200b19d0     ai_main.obj
 0002:000019e0       ??_C@_0CI@JOJDDOJC@?$AN?$FO1Solid?$CB?5?5?5?5?5?5?5?5?5?5?5?5?5?5?5?5?5?5?5?5?5?5?5@ 200b19e0     ai_main.obj
 0002:00001a08       ??_C@_0BM@BOKNIJ@?$ANarea?5?$CFd?0?5cluster?5?$CFd?5?5?5?5?5?5?5?$AA@ 200b1a08     ai_main.obj
 0002:00001a24       ??_C@_01OCOKONAJ@L?$AA@    200b1a24     ai_main.obj
 0002:00001a28       ??_C@_02KNHHEEKP@?5?5?$AA@ 200b1a28     ai_main.obj
 0002:00001a2c       ??_C@_04BHPKDDFM@?$FO1F?5?$AA@ 200b1a2c     ai_main.obj
 0002:00001a34       ??_C@_04CACEMDGO@?$FO4F?5?$AA@ 200b1a34     ai_main.obj
 0002:00001a3c       ??_C@_0BH@IGMMEADN@?$CF?920s?$CFs?$CFs?3?5helping?5?$CFs?6?$AA@ 200b1a3c     ai_main.obj
 0002:00001a54       ??_C@_0BM@MFHGPNOH@?$CF?920s?$CFs?$CFs?3?5accompanying?5?$CFs?6?$AA@ 200b1a54     ai_main.obj
 0002:00001a70       ??_C@_0BJ@BMDBIMEB@?$CF?920s?$CFs?$CFs?3?5defending?5?$CFs?6?$AA@ 200b1a70     ai_main.obj
 0002:00001a8c       ??_C@_0BM@GCIOAMOM@?$CF?920s?$CFs?$CFs?3?5getting?5item?5?$CFs?6?$AA@ 200b1a8c     ai_main.obj
 0002:00001aa8       ??_C@_0BH@LBLMLBGP@?$CF?920s?$CFs?$CFs?3?5killing?5?$CFs?6?$AA@ 200b1aa8     ai_main.obj
 0002:00001ac0       ??_C@_0BE@FMIPBBCI@?$CF?920s?$CFs?$CFs?3?5camping?6?$AA@ 200b1ac0     ai_main.obj
 0002:00001ad4       ??_C@_0BH@BPGAEHOC@?$CF?920s?$CFs?$CFs?3?5patrolling?6?$AA@ 200b1ad4     ai_main.obj
 0002:00001aec       ??_C@_0BL@IGONECCL@?$CF?920s?$CFs?$CFs?3?5capturing?5flag?6?$AA@ 200b1aec     ai_main.obj
 0002:00001b08       ??_C@_0BJ@NMLGGIKN@?$CF?920s?$CFs?$CFs?3?5rushing?5base?6?$AA@ 200b1b08     ai_main.obj
 0002:00001b24       ??_C@_0BL@FAJAGBFK@?$CF?920s?$CFs?$CFs?3?5returning?5flag?6?$AA@ 200b1b24     ai_main.obj
 0002:00001b40       ??_C@_0CF@NOKKHNPF@?$CF?920s?$CFs?$CFs?3?5attacking?5the?5enemy?5b@ 200b1b40     ai_main.obj
 0002:00001b68       ??_C@_0BH@KKFFINLC@?$CF?920s?$CFs?$CFs?3?5harvesting?6?$AA@ 200b1b68     ai_main.obj
 0002:00001b80       ??_C@_0BE@IKFGCOBJ@?$CF?920s?$CFs?$CFs?3?5roaming?6?$AA@ 200b1b80     ai_main.obj
 0002:00001b94       ??_C@_06LNDKJPFB@?$FO1RED?6?$AA@ 200b1b94     ai_main.obj
 0002:00001b9c       ??_C@_07CJKDAGDN@?$FO4BLUE?6?$AA@ 200b1b9c     ai_main.obj
 0002:00001ba4       ??_C@_02OBCNPDDN@F?5?$AA@  200b1ba4     ai_main.obj
 0002:00001ba8       ??_C@_0L@MCMCNIDL@helping?5?$CFs?$AA@ 200b1ba8     ai_main.obj
 0002:00001bb4       ??_C@_0BA@MCDBGPCI@accompanying?5?$CFs?$AA@ 200b1bb4     ai_main.obj
 0002:00001bc4       ??_C@_0N@FMPLLINE@defending?5?$CFs?$AA@ 200b1bc4     ai_main.obj
 0002:00001bd4       ??_C@_0BA@FNOGAFMM@getting?5item?5?$CFs?$AA@ 200b1bd4     ai_main.obj
 0002:00001be4       ??_C@_0L@GKAIHKNA@killing?5?$CFs?$AA@ 200b1be4     ai_main.obj
 0002:00001bf0       ??_C@_0P@PCPLLEMM@capturing?5flag?$AA@ 200b1bf0     ai_main.obj
 0002:00001c00       ??_C@_0N@GBHDPJKL@rushing?5base?$AA@ 200b1c00     ai_main.obj
 0002:00001c10       ??_C@_0P@FJHLCNGM@returning?5flag?$AA@ 200b1c10     ai_main.obj
 0002:00001c20       ??_C@_0BJ@PEPADENJ@attacking?5the?5enemy?5base?$AA@ 200b1c20     ai_main.obj
 0002:00001c3c       ??_C@_0L@ICJBNMIF@harvesting?$AA@ 200b1c3c     ai_main.obj
 0002:00001c48       ??_C@_0L@IPEIBHBA@roaming?5?$CFs?$AA@ 200b1c48     ai_main.obj
 0002:00001c54       ??_C@_0P@LMJINGO@l?2?$CFs?2c?2?$CFs?2a?2?$CFs?$AA@ 200b1c54     ai_main.obj
 0002:00001c64       ??_C@_0BE@IDNEOHBL@bot_interbreedwrite?$AA@ 200b1c64     ai_main.obj
 0002:00001c78       ??_C@_0BF@BBFOCAKO@bot_reloadcharacters?$AA@ 200b1c78     ai_main.obj
 0002:00001c90       ??_C@_0BK@CCAPHDJA@addbot?5?$CFs?54?5free?5?$CFi?5?$CFs?$CFd?6?$AA@ 200b1c90     ai_main.obj
 0002:00001cac       ??_C@_0BD@MIDHDJEH@bot_interbreedchar?$AA@ 200b1cac     ai_main.obj
 0002:00001cc0       ??_C@_0BP@MGBLPCKB@BotAI?3?5client?5?$CFd?5is?5not?5setup?6?$AA@ 200b1cc0     ai_main.obj
 0002:00001ce0       ??_C@_03DGFNDEPM@cp?5?$AA@ 200b1ce0     ai_main.obj
 0002:00001ce4       ??_C@_02EODNHJKB@cs?$AA@   200b1ce4     ai_main.obj
 0002:00001ce8       ??_C@_05IJDJACGD@print?$AA@ 200b1ce8     ai_main.obj
 0002:00001cf0       ??_C@_04BLJLMHHG@chat?$AA@ 200b1cf0     ai_main.obj
 0002:00001cf8       ??_C@_05PMMINOBP@tchat?$AA@ 200b1cf8     ai_main.obj
 0002:00001d00       ??_C@_06KBCJDMLG@scores?$AA@ 200b1d00     ai_main.obj
 0002:00001d08       ??_C@_0BA@GNMFKLDC@clientLevelShot?$AA@ 200b1d08     ai_main.obj
 0002:00001d18       ??_C@_0DD@CAOHNHKP@?$CFi?5?$CFi?5?$CFi?5?$CFi?5?$CFi?5?$CFi?5?$CFi?5?$CFi?5?$CFf?5?$CFf?5?$CFf@ 200b1d18     ai_main.obj
 0002:00001d4c       ??_C@_0N@BLBFMIAO@botsession?$CFi?$AA@ 200b1d4c     ai_main.obj
 0002:00001d5c       ??_C@_0CL@MOACODCL@BotAISetupClient?3?5client?5?$CFd?5alre@ 200b1d5c     ai_main.obj
 0002:00001d88       ??_C@_0BF@PINCHNMN@AAS?5not?5initialized?6?$AA@ 200b1d88     ai_main.obj
 0002:00001da0       ??_C@_0CA@KCEBJEJI@couldn?8t?5load?5skill?5?$CFf?5from?5?$CFs?6?$AA@ 200b1da0     ai_main.obj
 0002:00001dc0       ??_C@_0O@HIGNEDPK@bot_testichat?$AA@ 200b1dc0     ai_main.obj
 0002:00001dd0       ??_C@_0L@JEKILDFB@memorydump?$AA@ 200b1dd0     ai_main.obj
 0002:00001ddc       ??_C@_0P@CMKPBNJI@bot_memorydump?$AA@ 200b1ddc     ai_main.obj
 0002:00001dec       ??_C@_0BB@GMCJAANP@saveroutingcache?$AA@ 200b1dec     ai_main.obj
 0002:00001e00       ??_C@_0BF@MDEDPJEF@bot_saveroutingcache?$AA@ 200b1e00     ai_main.obj
 0002:00001e18       ??_C@_03HPLEMDKK@200?$AA@  200b1e18     ai_main.obj
 0002:00001e1c       ??_C@_0O@NKIABNEG@bot_thinktime?$AA@ 200b1e1c     ai_main.obj
 0002:00001e2c       ??_C@_01KJLJFBPL@8?$AA@    200b1e2c     ai_main.obj
 0002:00001e30       ??_C@_0L@JKCONGEA@maxclients?$AA@ 200b1e30     ai_main.obj
 0002:00001e3c       ??_C@_0M@KCCINJFC@maxentities?$AA@ 200b1e3c     ai_main.obj
 0002:00001e48       ??_C@_0P@HEEKJLPJ@sv_mapChecksum?$AA@ 200b1e48     ai_main.obj
 0002:00001e58       ??_C@_0N@PMPJOGOE@max_aaslinks?$AA@ 200b1e58     ai_main.obj
 0002:00001e68       ??_C@_0P@HIDOFLAM@max_levelitems?$AA@ 200b1e68     ai_main.obj
 0002:00001e78       ??_C@_0O@IHEJFHJE@bot_developer?$AA@ 200b1e78     ai_main.obj
 0002:00001e88       ??_C@_03MGHMBJCF@log?$AA@  200b1e88     ai_main.obj
 0002:00001e8c       ??_C@_06GCPOGFCC@nochat?$AA@ 200b1e8c     ai_main.obj
 0002:00001e94       ??_C@_0BG@HILKKLKJ@bot_visualizejumppads?$AA@ 200b1e94     ai_main.obj
 0002:00001eac       ??_C@_0BE@HANIKEON@bot_forceclustering?$AA@ 200b1eac     ai_main.obj
 0002:00001ec0       ??_C@_0BA@BADKHCEE@forceclustering?$AA@ 200b1ec0     ai_main.obj
 0002:00001ed0       ??_C@_0BG@GJKIOMNG@bot_forcereachability?$AA@ 200b1ed0     ai_main.obj
 0002:00001ee8       ??_C@_0BC@HJNNPMHF@forcereachability?$AA@ 200b1ee8     ai_main.obj
 0002:00001efc       ??_C@_0P@HFCEKFCE@bot_forcewrite?$AA@ 200b1efc     ai_main.obj
 0002:00001f0c       ??_C@_0L@MNCDALON@forcewrite?$AA@ 200b1f0c     ai_main.obj
 0002:00001f18       ??_C@_0BA@CHMPBPHA@bot_aasoptimize?$AA@ 200b1f18     ai_main.obj
 0002:00001f28       ??_C@_0M@MFMPGCMK@aasoptimize?$AA@ 200b1f28     ai_main.obj
 0002:00001f34       ??_C@_0M@DGDBFJN@fs_basepath?$AA@ 200b1f34     ai_main.obj
 0002:00001f40       ??_C@_07BHPNMMNM@basedir?$AA@ 200b1f40     ai_main.obj
 0002:00001f48       ??_C@_07FMAMAFJE@fs_game?$AA@ 200b1f48     ai_main.obj
 0002:00001f50       ??_C@_07GGMBKBFD@gamedir?$AA@ 200b1f50     ai_main.obj
 0002:00001f58       ??_C@_09CIALLHHK@fs_cdpath?$AA@ 200b1f58     ai_main.obj
 0002:00001f64       ??_C@_05ECKEHJKK@cddir?$AA@ 200b1f64     ai_main.obj
 0002:00001f6c       ??_C@_03GNABGMEE@100?$AA@  200b1f6c     ai_main.obj
 0002:00001f70       ??_C@_09KJGEBPM@bot_pause?$AA@ 200b1f70     ai_main.obj
 0002:00001f7c       ??_C@_0L@DIBKBFBJ@bot_report?$AA@ 200b1f7c     ai_main.obj
 0002:00001f88       ??_C@_0O@NEGDFLLI@bot_testsolid?$AA@ 200b1f88     ai_main.obj
 0002:00001f98       ??_C@_0BB@LICKAML@bot_testclusters?$AA@ 200b1f98     ai_main.obj
 0002:00001fac       ??_C@_02PKFBJPLJ@10?$AA@   200b1fac     ai_main.obj
 0002:00001fb0       ??_C@_0BD@GLHGHIJE@bot_interbreedbots?$AA@ 200b1fb0     ai_main.obj
 0002:00001fc4       ??_C@_02PIBHCBOA@20?$AA@   200b1fc4     ai_main.obj
 0002:00001fc8       ??_C@_0BE@BBMLIECL@bot_interbreedcycle?$AA@ 200b1fc8     ai_main.obj
 0002:00001fdc       __real@3c23d70a            200b1fdc     ai_main.obj
 0002:00001fe0       __real@3d4ccccd            200b1fe0     ai_main.obj
 0002:00001fe8       __real@3f76800000000000    200b1fe8     ai_main.obj
 0002:00001ff0       __real@3fdccccccccccccd    200b1ff0     ai_main.obj
 0002:00001ff8       __real@42fe0000            200b1ff8     ai_main.obj
 0002:00001ffc       __real@43700000            200b1ffc     ai_main.obj
 0002:00002000       __real@47800000            200b2000     ai_main.obj
 0002:00002004       __real@c3340000            200b2004     ai_main.obj
 0002:00002008       ??_C@_0M@CFKBBDNA@?$BJ?$CI?$CFs?$BJ?$CJ?$BJ?3?5?$CFs?$AA@ 200b2008     ai_team.obj
 0002:00002014       ??_C@_0M@KCHJGFOM@cmd_getflag?$AA@ 200b2014     ai_team.obj
 0002:00002020       ??_C@_07NOFDDIA@getflag?$AA@ 200b2020     ai_team.obj
 0002:00002028       ??_C@_0BA@MJCDCBAL@cmd_accompanyme?$AA@ 200b2028     ai_team.obj
 0002:00002038       ??_C@_0O@FNPCOJLM@cmd_accompany?$AA@ 200b2038     ai_team.obj
 0002:00002048       ??_C@_0BC@HILCMIJJ@followflagcarrier?$AA@ 200b2048     ai_team.obj
 0002:0000205c       ??_C@_0L@BCFFODB@returnflag?$AA@ 200b205c     ai_team.obj
 0002:00002068       ??_C@_0P@MGOFKCGO@cmd_defendbase?$AA@ 200b2068     ai_team.obj
 0002:00002078       ??_C@_06BMABBLML@defend?$AA@ 200b2078     ai_team.obj
 0002:00002080       ??_C@_0BA@JCHIJEGJ@whoisteamleader?$AA@ 200b2080     ai_team.obj
 0002:00002090       ??_C@_0O@EHLIMCMK@iamteamleader?$AA@ 200b2090     ai_team.obj
 0002:000020a0       ??_C@_0M@GEDMEPM@startleader?$AA@ 200b20a0     ai_team.obj
 0002:000020ac       ??_C@_07GBMLDGPP@offense?$AA@ 200b20ac     ai_vcmd.obj
 0002:000020b4       ??_C@_0L@LIAONOLJ@defendflag?$AA@ 200b20b4     ai_vcmd.obj
 0002:000020c0       ??_C@_06KPEKKPL@patrol?$AA@ 200b20c0     ai_vcmd.obj
 0002:000020c8       ??_C@_04LOFLEJM@camp?$AA@  200b20c8     ai_vcmd.obj
 0002:000020d0       ??_C@_0L@HELMBEII@stopleader?$AA@ 200b20d0     ai_vcmd.obj
 0002:000020dc       ??_C@_0M@JLDAEMIJ@whoisleader?$AA@ 200b20dc     ai_vcmd.obj
 0002:000020e8       ??_C@_0O@NOMCBHGI@wantondefense?$AA@ 200b20e8     ai_vcmd.obj
 0002:000020f8       ??_C@_0O@LCEABBKD@wantonoffense?$AA@ 200b20f8     ai_vcmd.obj
 0002:00002108       ??_C@_08DHCKJNNH@onpatrol?$AA@ 200b2108     ai_vcmd.obj
 0002:00002114       ??_C@_0BF@MEMGGPGH@weapon_grapplinghook?$AA@ 200b2114     bg_misc.obj
 0002:0000212c       ??_C@_0CE@LFAGANA@models?1weapons2?1grapple?1grapple?4@ 200b212c     bg_misc.obj
 0002:00002150       ??_C@_0BE@DPKNJNBE@icons?1iconw_grapple?$AA@ 200b2150     bg_misc.obj
 0002:00002164       ??_C@_0P@CFJPDDC@Grappling?5Hook?$AA@ 200b2164     bg_misc.obj
 0002:00002174       ??_C@_0M@NLICANGB@ammo_shells?$AA@ 200b2174     bg_misc.obj
 0002:00002180       ??_C@_0BH@DPAADLFH@sound?1misc?1am_pkup?4wav?$AA@ 200b2180     bg_misc.obj
 0002:00002198       ??_C@_0CD@MBAGJHDE@models?1powerups?1ammo?1shotgunam?4m@ 200b2198     bg_misc.obj
 0002:000021bc       ??_C@_0BE@NMAFHJEI@icons?1icona_shotgun?$AA@ 200b21bc     bg_misc.obj
 0002:000021d0       ??_C@_06PBPEPGGL@Shells?$AA@ 200b21d0     bg_misc.obj
 0002:000021d8       ??_C@_0N@NHCMDNIK@ammo_bullets?$AA@ 200b21d8     bg_misc.obj
 0002:000021e8       ??_C@_0CG@OLENEOKN@models?1powerups?1ammo?1machineguna@ 200b21e8     bg_misc.obj
 0002:00002210       ??_C@_0BH@HMOAGCNP@icons?1icona_machinegun?$AA@ 200b2210     bg_misc.obj
 0002:00002228       ??_C@_07DHNDKCGP@Bullets?$AA@ 200b2228     bg_misc.obj
 0002:00002230       ??_C@_0O@CMJIOKCF@ammo_grenades?$AA@ 200b2230     bg_misc.obj
 0002:00002240       ??_C@_0CD@HNOBKKLC@models?1powerups?1ammo?1grenadeam?4m@ 200b2240     bg_misc.obj
 0002:00002264       ??_C@_0BE@LHOKGGAM@icons?1icona_grenade?$AA@ 200b2264     bg_misc.obj
 0002:00002278       ??_C@_08PMBIADEN@Grenades?$AA@ 200b2278     bg_misc.obj
 0002:00002284       ??_C@_0L@LLNMBAJC@ammo_cells?$AA@ 200b2284     bg_misc.obj
 0002:00002290       ??_C@_0CC@FGLALJGN@models?1powerups?1ammo?1plasmaam?4md@ 200b2290     bg_misc.obj
 0002:000022b4       ??_C@_0BD@NCNJEHKB@icons?1icona_plasma?$AA@ 200b22b4     bg_misc.obj
 0002:000022c8       ??_C@_05KCAMIOGJ@Cells?$AA@ 200b22c8     bg_misc.obj
 0002:000022d0       ??_C@_0P@NBJHKAMD@ammo_lightning?$AA@ 200b22d0     bg_misc.obj
 0002:000022e0       ??_C@_0CF@HDAADIIL@models?1powerups?1ammo?1lightningam@ 200b22e0     bg_misc.obj
 0002:00002308       ??_C@_0BG@MEGMAGOM@icons?1icona_lightning?$AA@ 200b2308     bg_misc.obj
 0002:00002320       ??_C@_09JCCOMJEA@Lightning?$AA@ 200b2320     bg_misc.obj
 0002:0000232c       ??_C@_0N@CLEPKBOE@ammo_rockets?$AA@ 200b232c     bg_misc.obj
 0002:0000233c       ??_C@_0CC@KCOEDLFM@models?1powerups?1ammo?1rocketam?4md@ 200b233c     bg_misc.obj
 0002:00002360       ??_C@_0BD@BFBJLPJK@icons?1icona_rocket?$AA@ 200b2360     bg_misc.obj
 0002:00002374       ??_C@_07MLLADOAB@Rockets?$AA@ 200b2374     bg_misc.obj
 0002:0000237c       ??_C@_0L@JEFOIHIM@ammo_slugs?$AA@ 200b237c     bg_misc.obj
 0002:00002388       ??_C@_0CD@CAJEPMME@models?1powerups?1ammo?1railgunam?4m@ 200b2388     bg_misc.obj
 0002:000023ac       ??_C@_0BE@DPOADFL@icons?1icona_railgun?$AA@ 200b23ac     bg_misc.obj
 0002:000023c0       ??_C@_05INIOBJHH@Slugs?$AA@ 200b23c0     bg_misc.obj
 0002:000023c8       ??_C@_08EHEJHGBG@ammo_bfg?$AA@ 200b23c8     bg_misc.obj
 0002:000023d4       ??_C@_0BP@BOBKFIKJ@models?1powerups?1ammo?1bfgam?4md3?$AA@ 200b23d4     bg_misc.obj
 0002:000023f4       ??_C@_0BA@NIKNDLKG@icons?1icona_bfg?$AA@ 200b23f4     bg_misc.obj
 0002:00002404       ??_C@_08LIBOGPIN@Bfg?5Ammo?$AA@ 200b2404     bg_misc.obj
 0002:00002410       ??_C@_0BE@GNEKBMLB@holdable_teleporter?$AA@ 200b2410     bg_misc.obj
 0002:00002424       ??_C@_0BJ@PNIOAJDI@sound?1items?1holdable?4wav?$AA@ 200b2424     bg_misc.obj
 0002:00002440       ??_C@_0CI@FHEOFFOB@models?1powerups?1holdable?1telepor@ 200b2440     bg_misc.obj
 0002:00002468       ??_C@_0BB@HCFICFKF@icons?1teleporter?$AA@ 200b2468     bg_misc.obj
 0002:0000247c       ??_C@_0BE@PCKJDFFA@Personal?5Teleporter?$AA@ 200b247c     bg_misc.obj
 0002:00002490       ??_C@_0BA@PDDMBOCP@holdable_medkit?$AA@ 200b2490     bg_misc.obj
 0002:000024a0       ??_C@_0CE@NKMJILL@models?1powerups?1holdable?1medkit?4@ 200b24a0     bg_misc.obj
 0002:000024c4       ??_C@_0CL@LOBKLABC@models?1powerups?1holdable?1medkit_@ 200b24c4     bg_misc.obj
 0002:000024f0       ??_C@_0N@PNMDFAPK@icons?1medkit?$AA@ 200b24f0     bg_misc.obj
 0002:00002500       ??_C@_06JDLGEHAD@Medkit?$AA@ 200b2500     bg_misc.obj
 0002:00002508       ??_C@_0BL@GLIFPGGG@sound?1items?1use_medkit?4wav?$AA@ 200b2508     bg_misc.obj
 0002:00002524       ??_C@_09MDKNIFFH@item_quad?$AA@ 200b2524     bg_misc.obj
 0002:00002530       ??_C@_0BL@GLEJLOCA@sound?1items?1quaddamage?4wav?$AA@ 200b2530     bg_misc.obj
 0002:0000254c       ??_C@_0CB@HIFGFDGN@models?1powerups?1instant?1quad?4md3@ 200b254c     bg_misc.obj
 0002:00002570       ??_C@_0CG@JNMBMLHJ@models?1powerups?1instant?1quad_rin@ 200b2570     bg_misc.obj
 0002:00002598       ??_C@_0L@DICHEOBB@icons?1quad?$AA@ 200b2598     bg_misc.obj
 0002:000025a4       ??_C@_0DA@PPPPKFJI@sound?1items?1damage2?4wav?5sound?1it@ 200b25a4     bg_misc.obj
 0002:000025d4       ??_C@_0M@HBCGNAN@item_enviro?$AA@ 200b25d4     bg_misc.obj
 0002:000025e0       ??_C@_0BI@DEKBIKDD@sound?1items?1protect?4wav?$AA@ 200b25e0     bg_misc.obj
 0002:000025f8       ??_C@_0CD@JLGNIGLA@models?1powerups?1instant?1enviro?4m@ 200b25f8     bg_misc.obj
 0002:0000261c       ??_C@_0CI@KAEDJDGE@models?1powerups?1instant?1enviro_r@ 200b261c     bg_misc.obj
 0002:00002644       ??_C@_0BB@MGICBJOH@icons?1envirosuit?$AA@ 200b2644     bg_misc.obj
 0002:00002658       ??_C@_0DA@OCPACKGN@sound?1items?1airout?4wav?5sound?1ite@ 200b2658     bg_misc.obj
 0002:00002688       ??_C@_0L@LKMJKIEF@item_haste?$AA@ 200b2688     bg_misc.obj
 0002:00002694       ??_C@_0BG@IJMEPCOI@sound?1items?1haste?4wav?$AA@ 200b2694     bg_misc.obj
 0002:000026ac       ??_C@_0CC@NKPAJCMI@models?1powerups?1instant?1haste?4md@ 200b26ac     bg_misc.obj
 0002:000026d0       ??_C@_0CH@KKDDKNEF@models?1powerups?1instant?1haste_ri@ 200b26d0     bg_misc.obj
 0002:000026f8       ??_C@_0M@CFINMGCL@icons?1haste?$AA@ 200b26f8     bg_misc.obj
 0002:00002704       ??_C@_0L@MMHNJJPH@item_invis?$AA@ 200b2704     bg_misc.obj
 0002:00002710       ??_C@_0BN@OJBEBLGB@sound?1items?1invisibility?4wav?$AA@ 200b2710     bg_misc.obj
 0002:00002730       ??_C@_0CC@HBONCEML@models?1powerups?1instant?1invis?4md@ 200b2730     bg_misc.obj
 0002:00002754       ??_C@_0CH@IMIHJDNC@models?1powerups?1instant?1invis_ri@ 200b2754     bg_misc.obj
 0002:0000277c       ??_C@_0M@FDDJPHJJ@icons?1invis?$AA@ 200b277c     bg_misc.obj
 0002:00002788       ??_C@_0L@MMGPPPDM@item_regen?$AA@ 200b2788     bg_misc.obj
 0002:00002794       ??_C@_0BN@OBGKHNFF@sound?1items?1regeneration?4wav?$AA@ 200b2794     bg_misc.obj
 0002:000027b4       ??_C@_0CC@OEAPIKIN@models?1powerups?1instant?1regen?4md@ 200b27b4     bg_misc.obj
 0002:000027d8       ??_C@_0CH@FANACKJM@models?1powerups?1instant?1regen_ri@ 200b27d8     bg_misc.obj
 0002:00002800       ??_C@_0M@FDCLJBFC@icons?1regen?$AA@ 200b2800     bg_misc.obj
 0002:0000280c       ??_C@_0BG@LHDLOKKN@sound?1items?1regen?4wav?$AA@ 200b280c     bg_misc.obj
 0002:00002824       ??_C@_0M@MBNKEMMH@item_flight?$AA@ 200b2824     bg_misc.obj
 0002:00002830       ??_C@_0BH@COLFHEAE@sound?1items?1flight?4wav?$AA@ 200b2830     bg_misc.obj
 0002:00002848       ??_C@_0CD@MKDGJOMG@models?1powerups?1instant?1flight?4m@ 200b2848     bg_misc.obj
 0002:0000286c       ??_C@_0CI@IADFFEDP@models?1powerups?1instant?1flight_r@ 200b286c     bg_misc.obj
 0002:00002894       ??_C@_0N@GLEPEEPG@icons?1flight?$AA@ 200b2894     bg_misc.obj
 0002:000028a4       ??_C@_0BB@JNMMCIHG@team_CTF_redflag?$AA@ 200b28a4     bg_misc.obj
 0002:000028b8       ??_C@_0BI@PEHEOJEO@models?1flags?1r_flag?4md3?$AA@ 200b28b8     bg_misc.obj
 0002:000028d0       ??_C@_0BB@EMIEBEOP@icons?1iconf_red1?$AA@ 200b28d0     bg_misc.obj
 0002:000028e4       ??_C@_0BC@NLKCOFAB@team_CTF_blueflag?$AA@ 200b28e4     bg_misc.obj
 0002:000028f8       ??_C@_0BI@FKICCNIF@models?1flags?1b_flag?4md3?$AA@ 200b28f8     bg_misc.obj
 0002:00002910       ??_C@_0BB@EMIIAFKA@icons?1iconf_blu1?$AA@ 200b2910     bg_misc.obj
 0002:00002924       ??_C@_07JFMDDPHJ@EV_NONE?$AA@ 200b2924     bg_misc.obj
 0002:0000292c       ??_C@_0M@HLKBOJPO@EV_FOOTSTEP?$AA@ 200b292c     bg_misc.obj
 0002:00002938       ??_C@_0BC@DIJMAMMI@EV_FOOTSTEP_METAL?$AA@ 200b2938     bg_misc.obj
 0002:0000294c       ??_C@_0O@HLJHKIDH@EV_FOOTSPLASH?$AA@ 200b294c     bg_misc.obj
 0002:0000295c       ??_C@_0M@NPJBGELA@EV_FOOTWADE?$AA@ 200b295c     bg_misc.obj
 0002:00002968       ??_C@_07FFIIIPLH@EV_SWIM?$AA@ 200b2968     bg_misc.obj
 0002:00002970       ??_C@_09OLFOHJNB@EV_STEP_4?$AA@ 200b2970     bg_misc.obj
 0002:0000297c       ??_C@_09EHOLDGNN@EV_STEP_8?$AA@ 200b297c     bg_misc.obj
 0002:00002988       ??_C@_0L@BKIECKKB@EV_STEP_12?$AA@ 200b2988     bg_misc.obj
 0002:00002994       ??_C@_0L@HOOIOPKF@EV_STEP_16?$AA@ 200b2994     bg_misc.obj
 0002:000029a0       ??_C@_0O@EAFDHAJM@EV_FALL_SHORT?$AA@ 200b29a0     bg_misc.obj
 0002:000029b0       ??_C@_0P@MGFLMCKC@EV_FALL_MEDIUM?$AA@ 200b29b0     bg_misc.obj
 0002:000029c0       ??_C@_0M@LKJJNJOM@EV_FALL_FAR?$AA@ 200b29c0     bg_misc.obj
 0002:000029cc       ??_C@_0M@BPNFGBOJ@EV_JUMP_PAD?$AA@ 200b29cc     bg_misc.obj
 0002:000029d8       ??_C@_07GKBEHGAP@EV_JUMP?$AA@ 200b29d8     bg_misc.obj
 0002:000029e0       ??_C@_0P@GCDBKPMP@EV_WATER_TOUCH?$AA@ 200b29e0     bg_misc.obj
 0002:000029f0       ??_C@_0P@LHDMOIIG@EV_WATER_LEAVE?$AA@ 200b29f0     bg_misc.obj
 0002:00002a00       ??_C@_0P@MIAIODEJ@EV_WATER_UNDER?$AA@ 200b2a00     bg_misc.obj
 0002:00002a10       ??_C@_0P@NIPCJOBG@EV_WATER_CLEAR?$AA@ 200b2a10     bg_misc.obj
 0002:00002a20       ??_C@_0P@BGIOEPCB@EV_ITEM_PICKUP?$AA@ 200b2a20     bg_misc.obj
 0002:00002a30       ??_C@_0BG@KFILGAMN@EV_GLOBAL_ITEM_PICKUP?$AA@ 200b2a30     bg_misc.obj
 0002:00002a48       ??_C@_09NMIICG@EV_NOAMMO?$AA@ 200b2a48     bg_misc.obj
 0002:00002a54       ??_C@_0BB@ENKPHJLP@EV_CHANGE_WEAPON?$AA@ 200b2a54     bg_misc.obj
 0002:00002a68       ??_C@_0P@PFJPAFGH@EV_FIRE_WEAPON?$AA@ 200b2a68     bg_misc.obj
 0002:00002a78       ??_C@_0N@CGCBJKGD@EV_USE_ITEM0?$AA@ 200b2a78     bg_misc.obj
 0002:00002a88       ??_C@_0N@DPDKKLCC@EV_USE_ITEM1?$AA@ 200b2a88     bg_misc.obj
 0002:00002a98       ??_C@_0N@BEBHPIOB@EV_USE_ITEM2?$AA@ 200b2a98     bg_misc.obj
 0002:00002aa8       ??_C@_0N@NAMMJKA@EV_USE_ITEM3?$AA@ 200b2aa8     bg_misc.obj
 0002:00002ab8       ??_C@_0N@ECENFPGH@EV_USE_ITEM4?$AA@ 200b2ab8     bg_misc.obj
 0002:00002ac8       ??_C@_0N@FLFGGOCG@EV_USE_ITEM5?$AA@ 200b2ac8     bg_misc.obj
 0002:00002ad8       ??_C@_0N@HAHLDNOF@EV_USE_ITEM6?$AA@ 200b2ad8     bg_misc.obj
 0002:00002ae8       ??_C@_0N@GJGAAMKE@EV_USE_ITEM7?$AA@ 200b2ae8     bg_misc.obj
 0002:00002af8       ??_C@_0N@OOPIBAGL@EV_USE_ITEM8?$AA@ 200b2af8     bg_misc.obj
 0002:00002b08       ??_C@_0N@PHODCBCK@EV_USE_ITEM9?$AA@ 200b2b08     bg_misc.obj
 0002:00002b18       ??_C@_0O@KBJENLM@EV_USE_ITEM10?$AA@ 200b2b18     bg_misc.obj
 0002:00002b28       ??_C@_0O@BDACHMPN@EV_USE_ITEM11?$AA@ 200b2b28     bg_misc.obj
 0002:00002b38       ??_C@_0O@DICPCPDO@EV_USE_ITEM12?$AA@ 200b2b38     bg_misc.obj
 0002:00002b48       ??_C@_0O@CBDEBOHP@EV_USE_ITEM13?$AA@ 200b2b48     bg_misc.obj
 0002:00002b58       ??_C@_0O@GOHFIILI@EV_USE_ITEM14?$AA@ 200b2b58     bg_misc.obj
 0002:00002b68       ??_C@_0O@HHGOLJPJ@EV_USE_ITEM15?$AA@ 200b2b68     bg_misc.obj
 0002:00002b78       ??_C@_0BA@GJNCODNG@EV_ITEM_RESPAWN?$AA@ 200b2b78     bg_misc.obj
 0002:00002b88       ??_C@_0M@ECGFPIMP@EV_ITEM_POP?$AA@ 200b2b88     bg_misc.obj
 0002:00002b94       ??_C@_0BG@HBBJKNDP@EV_PLAYER_TELEPORT_IN?$AA@ 200b2b94     bg_misc.obj
 0002:00002bac       ??_C@_0BH@FNNILPIN@EV_PLAYER_TELEPORT_OUT?$AA@ 200b2bac     bg_misc.obj
 0002:00002bc4       ??_C@_0BC@ECIIAFLJ@EV_GRENADE_BOUNCE?$AA@ 200b2bc4     bg_misc.obj
 0002:00002bd8       ??_C@_0BB@LJGGMAII@EV_GENERAL_SOUND?$AA@ 200b2bd8     bg_misc.obj
 0002:00002bec       ??_C@_0BA@JAMKLOPJ@EV_GLOBAL_SOUND?$AA@ 200b2bec     bg_misc.obj
 0002:00002bfc       ??_C@_0BF@DDOIKLHD@EV_GLOBAL_TEAM_SOUND?$AA@ 200b2bfc     bg_misc.obj
 0002:00002c14       ??_C@_0BE@KBABEJMP@EV_BULLET_HIT_FLESH?$AA@ 200b2c14     bg_misc.obj
 0002:00002c28       ??_C@_0BD@MFLMCLPN@EV_BULLET_HIT_WALL?$AA@ 200b2c28     bg_misc.obj
 0002:00002c3c       ??_C@_0P@JFMFNBMO@EV_MISSILE_HIT?$AA@ 200b2c3c     bg_misc.obj
 0002:00002c4c       ??_C@_0BA@CAHALNAE@EV_MISSILE_MISS?$AA@ 200b2c4c     bg_misc.obj
 0002:00002c5c       ??_C@_0BG@LPAHEABB@EV_MISSILE_MISS_METAL?$AA@ 200b2c5c     bg_misc.obj
 0002:00002c74       ??_C@_0N@HMLLJFGF@EV_RAILTRAIL?$AA@ 200b2c74     bg_misc.obj
 0002:00002c84       ??_C@_0L@LHBIHDML@EV_SHOTGUN?$AA@ 200b2c84     bg_misc.obj
 0002:00002c90       ??_C@_09ICDIPKFJ@EV_BULLET?$AA@ 200b2c90     bg_misc.obj
 0002:00002c9c       ??_C@_07EMHHKOOH@EV_PAIN?$AA@ 200b2c9c     bg_misc.obj
 0002:00002ca4       ??_C@_09JPFBHKII@EV_DEATH1?$AA@ 200b2ca4     bg_misc.obj
 0002:00002cb0       ??_C@_09LEHMCJEL@EV_DEATH2?$AA@ 200b2cb0     bg_misc.obj
 0002:00002cbc       ??_C@_09KNGHBIAK@EV_DEATH3?$AA@ 200b2cbc     bg_misc.obj
 0002:00002cc8       ??_C@_0M@PPLCDPP@EV_OBITUARY?$AA@ 200b2cc8     bg_misc.obj
 0002:00002cd4       ??_C@_0BA@HLHGHIIE@EV_POWERUP_QUAD?$AA@ 200b2cd4     bg_misc.obj
 0002:00002ce4       ??_C@_0BG@CHAMNADK@EV_POWERUP_BATTLESUIT?$AA@ 200b2ce4     bg_misc.obj
 0002:00002cfc       ??_C@_0BB@EGIJIDAN@EV_POWERUP_REGEN?$AA@ 200b2cfc     bg_misc.obj
 0002:00002d10       ??_C@_0O@JLGFLKBE@EV_GIB_PLAYER?$AA@ 200b2d10     bg_misc.obj
 0002:00002d20       ??_C@_0N@GAJBP@EV_SCOREPLUM?$AA@ 200b2d20     bg_misc.obj
 0002:00002d30       ??_C@_0BI@KNJAKDGK@EV_PROXIMITY_MINE_STICK?$AA@ 200b2d30     bg_misc.obj
 0002:00002d48       ??_C@_0BK@PIFCIJEJ@EV_PROXIMITY_MINE_TRIGGER?$AA@ 200b2d48     bg_misc.obj
 0002:00002d64       ??_C@_0M@KACLGFEA@EV_KAMIKAZE?$AA@ 200b2d64     bg_misc.obj
 0002:00002d70       ??_C@_0BC@LMKNBBLF@EV_OBELISKEXPLODE?$AA@ 200b2d70     bg_misc.obj
 0002:00002d84       ??_C@_0BA@NHKGBGBA@EV_INVUL_IMPACT?$AA@ 200b2d84     bg_misc.obj
 0002:00002d94       ??_C@_09GLJGDJEJ@EV_JUICED?$AA@ 200b2d94     bg_misc.obj
 0002:00002da0       ??_C@_0BB@HHACOGHI@EV_LIGHTNINGBOLT?$AA@ 200b2da0     bg_misc.obj
 0002:00002db4       ??_C@_0O@PBPAKHP@EV_DEBUG_LINE?$AA@ 200b2db4     bg_misc.obj
 0002:00002dc4       ??_C@_0BE@OHJHDFJH@EV_STOPLOOPINGSOUND?$AA@ 200b2dc4     bg_misc.obj
 0002:00002dd8       ??_C@_08GBKLDCBE@EV_TAUNT?$AA@ 200b2dd8     bg_misc.obj
 0002:00002de4       ??_C@_0BB@DDGIAABK@item_armor_shard?$AA@ 200b2de4     bg_misc.obj
 0002:00002df8       ??_C@_0BI@DECNCEGL@sound?1misc?1ar1_pkup?4wav?$AA@ 200b2df8     bg_misc.obj
 0002:00002e10       ??_C@_0CA@NOFOCCIK@models?1powerups?1armor?1shard?4md3?$AA@ 200b2e10     bg_misc.obj
 0002:00002e30       ??_C@_0CH@NEKDLKN@models?1powerups?1armor?1shard_sphe@ 200b2e30     bg_misc.obj
 0002:00002e58       ??_C@_0BC@LPFHDODA@icons?1iconr_shard?$AA@ 200b2e58     bg_misc.obj
 0002:00002e6c       ??_C@_0M@PJIPIDNH@Armor?5Shard?$AA@ 200b2e6c     bg_misc.obj
 0002:00002e78       ??_C@_0BC@FPPLPJIL@item_armor_combat?$AA@ 200b2e78     bg_misc.obj
 0002:00002e8c       ??_C@_0BI@KNMPECGK@sound?1misc?1ar2_pkup?4wav?$AA@ 200b2e8c     bg_misc.obj
 0002:00002ea4       ??_C@_0CE@PHKMKHKB@models?1powerups?1armor?1armor_yel?4@ 200b2ea4     bg_misc.obj
 0002:00002ec8       ??_C@_0BD@BKPFMPMP@icons?1iconr_yellow?$AA@ 200b2ec8     bg_misc.obj
 0002:00002edc       ??_C@_0BA@EKKMHIH@item_armor_body?$AA@ 200b2edc     bg_misc.obj
 0002:00002eec       ??_C@_0CE@EGJFDJJK@models?1powerups?1armor?1armor_red?4@ 200b2eec     bg_misc.obj
 0002:00002f10       ??_C@_0BA@CEJNPBJG@icons?1iconr_red?$AA@ 200b2f10     bg_misc.obj
 0002:00002f20       ??_C@_0BC@DOHAFEBI@item_health_small?$AA@ 200b2f20     bg_misc.obj
 0002:00002f34       ??_C@_0BJ@BIFHONLM@sound?1items?1s_health?4wav?$AA@ 200b2f34     bg_misc.obj
 0002:00002f50       ??_C@_0CH@JKNLMIJB@models?1powerups?1health?1small_cro@ 200b2f50     bg_misc.obj
 0002:00002f78       ??_C@_0CI@MPAPPIIE@models?1powerups?1health?1small_sph@ 200b2f78     bg_misc.obj
 0002:00002fa0       ??_C@_0BC@IMNPBGFF@icons?1iconh_green?$AA@ 200b2fa0     bg_misc.obj
 0002:00002fb4       ??_C@_08IAIFJOAI@5?5Health?$AA@ 200b2fb4     bg_misc.obj
 0002:00002fc0       ??_C@_0M@KCNAKNNL@item_health?$AA@ 200b2fc0     bg_misc.obj
 0002:00002fcc       ??_C@_0BJ@OLHMCLBI@sound?1items?1n_health?4wav?$AA@ 200b2fcc     bg_misc.obj
 0002:00002fe8       ??_C@_0CI@NAEMLIB@models?1powerups?1health?1medium_cr@ 200b2fe8     bg_misc.obj
 0002:00003010       ??_C@_0CJ@NCCPDHOD@models?1powerups?1health?1medium_sp@ 200b3010     bg_misc.obj
 0002:0000303c       ??_C@_0BD@CDBLAHCA@icons?1iconh_yellow?$AA@ 200b303c     bg_misc.obj
 0002:00003050       ??_C@_09OJAALANF@25?5Health?$AA@ 200b3050     bg_misc.obj
 0002:0000305c       ??_C@_0BC@JGDLKFIO@item_health_large?$AA@ 200b305c     bg_misc.obj
 0002:00003070       ??_C@_0BJ@ILCAJOFD@sound?1items?1l_health?4wav?$AA@ 200b3070     bg_misc.obj
 0002:0000308c       ??_C@_0CH@NHFAKEFE@models?1powerups?1health?1large_cro@ 200b308c     bg_misc.obj
 0002:000030b4       ??_C@_0CI@CEEMEFNH@models?1powerups?1health?1large_sph@ 200b30b4     bg_misc.obj
 0002:000030dc       ??_C@_0BA@IGNANAGL@icons?1iconh_red?$AA@ 200b30dc     bg_misc.obj
 0002:000030ec       ??_C@_09EBELOOOD@50?5Health?$AA@ 200b30ec     bg_misc.obj
 0002:000030f8       ??_C@_0BB@PBGAONGH@item_health_mega?$AA@ 200b30f8     bg_misc.obj
 0002:0000310c       ??_C@_0BJ@FGLGEHNG@sound?1items?1m_health?4wav?$AA@ 200b310c     bg_misc.obj
 0002:00003128       ??_C@_0CG@PDJMMGME@models?1powerups?1health?1mega_cros@ 200b3128     bg_misc.obj
 0002:00003150       ??_C@_0CH@NEGHBKPB@models?1powerups?1health?1mega_sphe@ 200b3150     bg_misc.obj
 0002:00003178       ??_C@_0BB@EGPGIMOM@icons?1iconh_mega?$AA@ 200b3178     bg_misc.obj
 0002:0000318c       ??_C@_0M@IOJDMPNO@Mega?5Health?$AA@ 200b318c     bg_misc.obj
 0002:00003198       ??_C@_0BA@CLDPODJE@weapon_gauntlet?$AA@ 200b3198     bg_misc.obj
 0002:000031a8       ??_C@_0BG@BBKFHONL@sound?1misc?1w_pkup?4wav?$AA@ 200b31a8     bg_misc.obj
 0002:000031c0       ??_C@_0CG@PFPPJBAC@models?1weapons2?1gauntlet?1gauntle@ 200b31c0     bg_misc.obj
 0002:000031e8       ??_C@_0BF@PMEPIOCM@icons?1iconw_gauntlet?$AA@ 200b31e8     bg_misc.obj
 0002:00003200       ??_C@_0P@ILAKNOAG@weapon_shotgun?$AA@ 200b3200     bg_misc.obj
 0002:00003210       ??_C@_0CE@CJGCHKCN@models?1weapons2?1shotgun?1shotgun?4@ 200b3210     bg_misc.obj
 0002:00003234       ??_C@_0BE@PGLFIIOH@icons?1iconw_shotgun?$AA@ 200b3234     bg_misc.obj
 0002:00003248       ??_C@_0BC@HHBNPFPN@weapon_machinegun?$AA@ 200b3248     bg_misc.obj
 0002:0000325c       ??_C@_0CK@BBPFNIFO@models?1weapons2?1machinegun?1machi@ 200b325c     bg_misc.obj
 0002:00003288       ??_C@_0BH@GIACBLNI@icons?1iconw_machinegun?$AA@ 200b3288     bg_misc.obj
 0002:000032a0       ??_C@_0BH@DGCCJPLM@weapon_grenadelauncher?$AA@ 200b32a0     bg_misc.obj
 0002:000032b8       ??_C@_0CG@INCGOMDL@models?1weapons2?1grenadel?1grenade@ 200b32b8     bg_misc.obj
 0002:000032e0       ??_C@_0BE@JNFKJHKD@icons?1iconw_grenade?$AA@ 200b32e0     bg_misc.obj
 0002:000032f8       ??_C@_0EG@LFEMOCGK@sound?1weapons?1grenade?1hgrenb1a?4w@ 200b32f8     bg_misc.obj
 0002:00003340       ??_C@_0BG@HJKONAJE@weapon_rocketlauncher?$AA@ 200b3340     bg_misc.obj
 0002:00003358       ??_C@_0CE@GGGFLKKE@models?1weapons2?1rocketl?1rocketl?4@ 200b3358     bg_misc.obj
 0002:0000337c       ??_C@_0BD@MKMDIEGB@icons?1iconw_rocket?$AA@ 200b337c     bg_misc.obj
 0002:00003390       ??_C@_0BB@OCCEAFCD@weapon_lightning?$AA@ 200b3390     bg_misc.obj
 0002:000033a4       ??_C@_0CI@MNAFJDPO@models?1weapons2?1lightning?1lightn@ 200b33a4     bg_misc.obj
 0002:000033cc       ??_C@_0BG@CHEJEOPA@icons?1iconw_lightning?$AA@ 200b33cc     bg_misc.obj
 0002:000033e4       ??_C@_0P@FEPBKEBF@weapon_railgun?$AA@ 200b33e4     bg_misc.obj
 0002:000033f4       ??_C@_0CE@JHJFFEBE@models?1weapons2?1railgun?1railgun?4@ 200b33f4     bg_misc.obj
 0002:00003418       ??_C@_0BE@CJEOPCPE@icons?1iconw_railgun?$AA@ 200b3418     bg_misc.obj
 0002:0000342c       ??_C@_0BB@LBHAKENA@weapon_plasmagun?$AA@ 200b342c     bg_misc.obj
 0002:00003440       ??_C@_0CC@EHGHEDND@models?1weapons2?1plasma?1plasma?4md@ 200b3440     bg_misc.obj
 0002:00003464       ??_C@_0BD@NADHMFK@icons?1iconw_plasma?$AA@ 200b3464     bg_misc.obj
 0002:00003478       ??_C@_0L@JFFCGJF@Plasma?5Gun?$AA@ 200b3478     bg_misc.obj
 0002:00003484       ??_C@_0L@JBGNLNGG@weapon_bfg?$AA@ 200b3484     bg_misc.obj
 0002:00003490       ??_C@_0BM@HHDGGOHP@models?1weapons2?1bfg?1bfg?4md3?$AA@ 200b3490     bg_misc.obj
 0002:000034ac       ??_C@_0BA@NCCNKCA@icons?1iconw_bfg?$AA@ 200b34ac     bg_misc.obj
 0002:000034bc       ??_C@_0BH@MFGKJDLM@HoldableItem?5not?5found?$AA@ 200b34bc     bg_misc.obj
 0002:000034d4       ??_C@_0CB@DEACFJO@Couldn?8t?5find?5item?5for?5weapon?5?$CFi@ 200b34d4     bg_misc.obj
 0002:000034f8       ??_C@_0CI@MFONMA@BG_CanItemBeGrabbed?3?5index?5out?5o@ 200b34f8     bg_misc.obj
 0002:00003520       ??_C@_0BM@NECGLAIF@BG_CanItemBeGrabbed?3?5IT_BAD?$AA@ 200b3520     bg_misc.obj
 0002:0000353c       ??_C@_0CG@HNLFCMEK@BG_CanItemBeGrabbed?3?5unknown?5enu@ 200b353c     bg_misc.obj
 0002:00003564       ??_C@_0CK@DNBGNAED@BG_EvaluateTrajectory?3?5unknown?5t@ 200b3564     bg_misc.obj
 0002:00003590       ??_C@_0CP@MCFPOIMF@BG_EvaluateTrajectoryDelta?3?5unkn@ 200b3590     bg_misc.obj
 0002:000035c0       ??_C@_0L@MNPDPHLD@showevents?$AA@ 200b35c0     bg_misc.obj
 0002:000035cc       ??_C@_0DA@KOPJLGJF@Cgame?5event?5svt?5?$CF5d?5?9?$DO?5?$CF5d?3?5num?5@ 200b35cc     bg_misc.obj
 0002:00003600       __real@0000000000000000    200b3600     bg_misc.obj
 0002:00003608       __real@40490fdb            200b3608     bg_misc.obj
 0002:00003610       __real@4079000000000000    200b3610     bg_misc.obj
 0002:00003618       __real@42100000            200b3618     bg_misc.obj
 0002:0000361c       __real@42300000            200b361c     bg_misc.obj
 0002:00003620       __real@42340000            200b3620     bg_misc.obj
 0002:00003624       __real@c2100000            200b3624     bg_misc.obj
 0002:00003628       __real@c2480000            200b3628     bg_misc.obj
 0002:0000362c       ??_C@_0N@KJCNHCBK@?$CFi?3allsolid?6?$AA@ 200b362c     bg_pmove.obj
 0002:0000363c       ??_C@_08EOGJDHPF@?$CFi?3lift?6?$AA@ 200b363c     bg_pmove.obj
 0002:00003648       ??_C@_0M@CKJFDFGH@?$CFi?3kickoff?6?$AA@ 200b3648     bg_pmove.obj
 0002:00003654       ??_C@_09OPMLNNOA@?$CFi?3steep?6?$AA@ 200b3654     bg_pmove.obj
 0002:00003660       ??_C@_08KACHPCJN@?$CFi?3Land?6?$AA@ 200b3660     bg_pmove.obj
 0002:0000366c       __real@3e99999a            200b366c     bg_pmove.obj
 0002:00003670       __real@3f1a36e2eb1c432d    200b3670     bg_pmove.obj
 0002:00003678       __real@3f8020c5            200b3678     bg_pmove.obj
 0002:00003680       __real@3ff4cccccccccccd    200b3680     bg_pmove.obj
 0002:00003688       __real@4008000000000000    200b3688     bg_pmove.obj
 0002:00003690       __real@405fc00000000000    200b3690     bg_pmove.obj
 0002:00003698       __real@40e00000            200b3698     bg_pmove.obj
 0002:0000369c       __real@41f00000            200b369c     bg_pmove.obj
 0002:000036a0       __real@42280000            200b36a0     bg_pmove.obj
 0002:000036a4       __real@43870000            200b36a4     bg_pmove.obj
 0002:000036a8       __real@c2280000            200b36a8     bg_pmove.obj
 0002:000036ac       __real@c2700000            200b36ac     bg_pmove.obj
 0002:000036b0       __real@c3480000            200b36b0     bg_pmove.obj
 0002:000036b4       ??_C@_0BE@FLPNHHPN@?$CFi?3bend?5can?8t?5step?6?$AA@ 200b36b4     bg_slidemove.obj
 0002:000036c8       ??_C@_0M@CDHDENEF@?$CFi?3stepped?6?$AA@ 200b36c8     bg_slidemove.obj
 0002:000036d4       __real@41300000            200b36d4     bg_slidemove.obj
 0002:000036d8       ??_C@_0L@FMIBJCKG@?$CKdrown?4wav?$AA@ 200b36d8     g_active.obj
 0002:000036e4       ??_C@_0BH@KONMCHEF@sound?1player?1gurp1?4wav?$AA@ 200b36e4     g_active.obj
 0002:000036fc       ??_C@_0BH@CIEIFFOL@sound?1player?1gurp2?4wav?$AA@ 200b36fc     g_active.obj
 0002:00003714       ??_C@_0BK@CMFHJBAI@Dropped?5due?5to?5inactivity?$AA@ 200b3714     g_active.obj
 0002:00003730       ??_C@_0CJ@OOBJBOCC@cp?5?$CCTen?5seconds?5until?5inactivity@ 200b3730     g_active.obj
 0002:0000375c       ??_C@_0L@JLBEBBAD@pmove_msec?$AA@ 200b375c     g_active.obj
 0002:00003768       ??_C@_02NCPIBIBE@33?$AA@   200b3768     g_active.obj
 0002:00003770       __real@3ff199999999999a    200b3770     g_active.obj
 0002:00003778       __real@4070000000000000    200b3778     g_active.obj
 0002:00003780       __real@437f0000            200b3780     g_active.obj
 0002:00003784       ??_C@_0BL@HAGGIKPH@postgame?5?$CFi?5?$CFi?50?50?50?50?50?50?$AA@ 200b3784     g_arenas.obj
 0002:000037a0       ??_C@_0CB@CLLCPLDB@postgame?5?$CFi?5?$CFi?5?$CFi?5?$CFi?5?$CFi?5?$CFi?5?$CFi?5?$CFi@ 200b37a0     g_arenas.obj
 0002:000037c4       ??_C@_09HCJPKLNL@?5?$CFi?5?$CFi?5?$CFi?$AA@ 200b37c4     g_arenas.obj
 0002:000037d0       ??_C@_0BL@MJMDOODN@?$FO1ERROR?3?5out?5of?5gentities?6?$AA@ 200b37d0     g_arenas.obj
 0002:000037ec       ??_C@_0N@CBICAJMD@g_podiumDist?$AA@ 200b37ec     g_arenas.obj
 0002:000037fc       ??_C@_0N@NHMKEGEN@g_podiumDrop?$AA@ 200b37fc     g_arenas.obj
 0002:0000380c       ??_C@_06NPKMJLHA@podium?$AA@ 200b380c     g_arenas.obj
 0002:00003814       ??_C@_0CF@MDONDONI@models?1mapobjects?1podium?1podium4@ 200b3814     g_arenas.obj
 0002:0000383c       ??_C@_01HCONENDN@?$HL?$AA@ 200b383c     g_bot.obj
 0002:00003840       ??_C@_0BI@BMEIBPEH@Missing?5?$HL?5in?5info?5file?6?$AA@ 200b3840     g_bot.obj
 0002:00003858       ??_C@_0BE@IKMJLADL@Max?5infos?5exceeded?6?$AA@ 200b3858     g_bot.obj
 0002:0000386c       ??_C@_0BN@HAJDHEGK@Unexpected?5end?5of?5info?5file?6?$AA@ 200b386c     g_bot.obj
 0002:0000388c       ??_C@_01CELHOKLL@?$HN?$AA@ 200b388c     g_bot.obj
 0002:00003890       ??_C@_06CBHGEMFM@?$DMNULL?$DO?$AA@ 200b3890     g_bot.obj
 0002:00003898       ??_C@_05BJJDEFHJ@?2num?2?$AA@ 200b3898     g_bot.obj
 0002:000038a0       ??_C@_0BG@BJEIGKLP@?$FO1file?5not?5found?3?5?$CFs?6?$AA@ 200b38a0     g_bot.obj
 0002:000038b8       ??_C@_0CO@OKDDPLPD@?$FO1file?5too?5large?3?5?$CFs?5is?5?$CFi?0?5max?5@ 200b38b8     g_bot.obj
 0002:000038e8       ??_C@_0N@BFDKEKMB@g_arenasFile?$AA@ 200b38e8     g_bot.obj
 0002:000038f8       ??_C@_0BD@KEINBKFE@scripts?1arenas?4txt?$AA@ 200b38f8     g_bot.obj
 0002:0000390c       ??_C@_06IPPMLGON@?4arena?$AA@ 200b390c     g_bot.obj
 0002:00003914       ??_C@_07OMEBBDEO@scripts?$AA@ 200b3914     g_bot.obj
 0002:0000391c       ??_C@_08IDJEBFOJ@scripts?1?$AA@ 200b391c     g_bot.obj
 0002:00003928       ??_C@_0BC@MIFKOHOA@?$CFi?5arenas?5parsed?6?$AA@ 200b3928     g_bot.obj
 0002:0000393c       ??_C@_02IKAHHCAI@?$CFi?$AA@ 200b393c     g_bot.obj
 0002:00003940       ??_C@_03IHCLBPIC@num?$AA@  200b3940     g_bot.obj
 0002:00003944       ??_C@_03HBNNNHNM@map?$AA@  200b3944     g_bot.obj
 0002:00003948       ??_C@_07DLHCIBDH@default?$AA@ 200b3948     g_bot.obj
 0002:00003950       ??_C@_0CD@DFNICLKJ@play?5sound?1player?1announce?1?$CFs?4wa@ 200b3950     g_bot.obj
 0002:00003974       ??_C@_04MEMAJGDJ@name?$AA@ 200b3974     g_bot.obj
 0002:0000397c       ??_C@_0BE@HKGNLKGC@addbot?5?$CFs?5?$CFf?5?$CFs?5?$CFi?6?$AA@ 200b397c     g_bot.obj
 0002:00003990       ??_C@_08CKHMKINC@kick?5?$CFs?6?$AA@ 200b3990     g_bot.obj
 0002:0000399c       ??_C@_0BJ@JBHOCGJI@?$FO3Unable?5to?5delay?5spawn?6?$AA@ 200b399c     g_bot.obj
 0002:000039b8       ??_C@_0O@HKBPPLKD@characterfile?$AA@ 200b39b8     g_bot.obj
 0002:000039c8       ??_C@_05ODMCMJAJ@skill?$AA@ 200b39c8     g_bot.obj
 0002:000039d0       ??_C@_04KADBPNCB@team?$AA@ 200b39d0     g_bot.obj
 0002:000039d8       ??_C@_0BI@KOJDMFEB@BotAISetupClient?5failed?$AA@ 200b39d8     g_bot.obj
 0002:000039f0       ??_C@_0BP@NGBNIFAK@?$FO1Error?3?5Bot?5?8?$CFs?8?5not?5defined?6?$AA@ 200b39f0     g_bot.obj
 0002:00003a10       ??_C@_07PNOKIGNH@funname?$AA@ 200b3a10     g_bot.obj
 0002:00003a18       ??_C@_05GFEIOEMO@25000?$AA@ 200b3a18     g_bot.obj
 0002:00003a20       ??_C@_04HCCHHEEF@rate?$AA@ 200b3a20     g_bot.obj
 0002:00003a28       ??_C@_05DGPADKBM@snaps?$AA@ 200b3a28     g_bot.obj
 0002:00003a30       ??_C@_05NBLIHODN@?$CF1?42f?$AA@ 200b3a30     g_bot.obj
 0002:00003a38       ??_C@_02PNFIDHGF@50?$AA@   200b3a38     g_bot.obj
 0002:00003a3c       ??_C@_08HBHLIHAM@handicap?$AA@ 200b3a3c     g_bot.obj
 0002:00003a48       ??_C@_02PONMODAL@70?$AA@   200b3a48     g_bot.obj
 0002:00003a4c       ??_C@_02PEECMOAB@90?$AA@   200b3a4c     g_bot.obj
 0002:00003a50       ??_C@_0O@CLCMCGPB@visor?1default?$AA@ 200b3a50     g_bot.obj
 0002:00003a60       ??_C@_0L@KEDOKIKJ@team_model?$AA@ 200b3a60     g_bot.obj
 0002:00003a6c       ??_C@_09DHBBGOBJ@headmodel?$AA@ 200b3a6c     g_bot.obj
 0002:00003a78       ??_C@_0P@JMIBMNM@team_headmodel?$AA@ 200b3a78     g_bot.obj
 0002:00003a88       ??_C@_06LFOIHHME@gender?$AA@ 200b3a88     g_bot.obj
 0002:00003a90       ??_C@_04ICKCIGNO@male?$AA@ 200b3a90     g_bot.obj
 0002:00003a98       ??_C@_06IPMAANOD@color1?$AA@ 200b3a98     g_bot.obj
 0002:00003aa0       ??_C@_01FAMBOPH@4?$AA@     200b3aa0     g_bot.obj
 0002:00003aa4       ??_C@_06KEONFOCA@color2?$AA@ 200b3aa4     g_bot.obj
 0002:00003aac       ??_C@_01BMBHCPLG@5?$AA@    200b3aac     g_bot.obj
 0002:00003ab0       ??_C@_06GJLCKOIA@aifile?$AA@ 200b3ab0     g_bot.obj
 0002:00003ab8       ??_C@_0CG@GFPKDAFH@?$FO1Error?3?5bot?5has?5no?5aifile?5speci@ 200b3ab8     g_bot.obj
 0002:00003ae0       ??_C@_0DE@MKFCEMGM@?$FO1Unable?5to?5add?5bot?4?5?5All?5player@ 200b3ae0     g_bot.obj
 0002:00003b18       ??_C@_0FB@BKCBGING@?$FO1Start?5server?5with?5more?5?8open?8?5@ 200b3b18     g_bot.obj
 0002:00003b6c       ??_C@_05CEDINIPN@?$CF5?42f?$AA@ 200b3b6c     g_bot.obj
 0002:00003b74       ??_C@_0L@BKCPIMBP@bot_enable?$AA@ 200b3b74     g_bot.obj
 0002:00003b80       ??_C@_0ED@LBGLLNI@Usage?3?5Addbot?5?$DMbotname?$DO?5?$FLskill?51@ 200b3b80     g_bot.obj
 0002:00003bc4       ??_C@_0L@FBHMLJNH@cl_running?$AA@ 200b3bc4     g_bot.obj
 0002:00003bd0       ??_C@_0N@GEFCGCPK@loaddefered?6?$AA@ 200b3bd0     g_bot.obj
 0002:00003be0       ??_C@_0EB@OHFELCCO@?$FO1name?5?5?5?5?5?5?5?5?5?5?5?5?5model?5?5?5?5?5?5?5?5@ 200b3be0     g_bot.obj
 0002:00003c24       ??_C@_0O@PCBPGDGA@UnnamedPlayer?$AA@ 200b3c24     g_bot.obj
 0002:00003c34       ??_C@_0BB@OCLCLNLB@bots?1default_c?4c?$AA@ 200b3c34     g_bot.obj
 0002:00003c48       ??_C@_0BJ@GPLOPMDF@?$CF?916s?5?$CF?916s?5?$CF?920s?5?$CF?920s?6?$AA@ 200b3c48     g_bot.obj
 0002:00003c64       ??_C@_0BG@FOPKNLEB@addbot?5?$CFs?5?$CFf?5free?5?$CFi?6?$AA@ 200b3c64     g_bot.obj
 0002:00003c7c       ??_C@_0L@IDJNDIMJ@g_botsFile?$AA@ 200b3c7c     g_bot.obj
 0002:00003c88       ??_C@_0BB@LMBKKAOC@scripts?1bots?4txt?$AA@ 200b3c88     g_bot.obj
 0002:00003c9c       ??_C@_04NONLJGOA@?4bot?$AA@ 200b3c9c     g_bot.obj
 0002:00003ca4       ??_C@_0BA@KCNHFFOD@?$CFi?5bots?5parsed?6?$AA@ 200b3ca4     g_bot.obj
 0002:00003cb4       ??_C@_0BK@DFMGEDHJ@?$FO1Invalid?5bot?5number?3?5?$CFi?6?$AA@ 200b3cb4     g_bot.obj
 0002:00003cd0       ??_C@_0P@IGNPDGBD@bot_minplayers?$AA@ 200b3cd0     g_bot.obj
 0002:00003ce0       ??_C@_09GCIEGDDN@fraglimit?$AA@ 200b3ce0     g_bot.obj
 0002:00003cec       ??_C@_09KPHKOKCC@timelimit?$AA@ 200b3cec     g_bot.obj
 0002:00003cf8       ??_C@_07BELCMIIP@special?$AA@ 200b3cf8     g_bot.obj
 0002:00003d00       ??_C@_08FACPJMEJ@training?$AA@ 200b3d00     g_bot.obj
 0002:00003d0c       ??_C@_04OOIACBCD@bots?$AA@ 200b3d0c     g_bot.obj
 0002:00003d14       ??_C@_06JHOFIDHH@nobots?$AA@ 200b3d14     g_client.obj
 0002:00003d1c       ??_C@_08MDEJHCAF@nohumans?$AA@ 200b3d1c     g_client.obj
 0002:00003d28       ??_C@_0BH@IGAFCIL@info_player_deathmatch?$AA@ 200b3d28     g_client.obj
 0002:00003d40       ??_C@_0BM@DGHFFJBI@Couldn?8t?5find?5a?5spawn?5point?$AA@ 200b3d40     g_client.obj
 0002:00003d5c       ??_C@_07ILHJIGAO@bodyque?$AA@ 200b3d5c     g_client.obj
 0002:00003d64       ??_C@_0O@JBDOHEEF@?2name?2badinfo?$AA@ 200b3d64     g_client.obj
 0002:00003d74       ??_C@_02GIIHKPLE@ip?$AA@   200b3d74     g_client.obj
 0002:00003d78       ??_C@_09IPAEKDAI@localhost?$AA@ 200b3d78     g_client.obj
 0002:00003d84       ??_C@_0BA@PKAEEJJB@cg_predictItems?$AA@ 200b3d84     g_client.obj
 0002:00003d94       ??_C@_0L@PGGJLCHO@scoreboard?$AA@ 200b3d94     g_client.obj
 0002:00003da0       ??_C@_0BM@IJFFLPEN@print?5?$CC?$CFs?$FO7?5renamed?5to?5?$CFs?6?$CC?$AA@ 200b3da0     g_client.obj
 0002:00003dbc       ??_C@_01KDCPPGHE@r?$AA@    200b3dbc     g_client.obj
 0002:00003dc0       ??_C@_01OJONOECF@b?$AA@    200b3dc0     g_client.obj
 0002:00003dc4       ??_C@_0M@IKKMOBIP@teamoverlay?$AA@ 200b3dc4     g_client.obj
 0002:00003dd0       ??_C@_09LPNHELAH@g_redteam?$AA@ 200b3dd0     g_client.obj
 0002:00003ddc       ??_C@_0L@CPNMJIBN@g_blueteam?$AA@ 200b3ddc     g_client.obj
 0002:00003de8       ??_C@_0EO@IELCCCFM@n?2?$CFs?2t?2?$CFi?2model?2?$CFs?2hmodel?2?$CFs?2c1?2@ 200b3de8     g_client.obj
 0002:00003e38       ??_C@_0GA@GJMCBBDN@n?2?$CFs?2t?2?$CFi?2model?2?$CFs?2hmodel?2?$CFs?2g_r@ 200b3e38     g_client.obj
 0002:00003e98       ??_C@_0BO@IFHBFKHP@ClientUserinfoChanged?3?5?$CFi?5?$CFs?6?$AA@ 200b3e98     g_client.obj
 0002:00003eb8       ??_C@_0CB@BAJJGAM@You?5are?5banned?5from?5this?5server?4@ 200b3eb8     g_client.obj
 0002:00003edc       ??_C@_08NLHBPEGP@password?$AA@ 200b3edc     g_client.obj
 0002:00003ee8       ??_C@_04CGFJFPFD@none?$AA@ 200b3ee8     g_client.obj
 0002:00003ef0       ??_C@_0BB@GKDCDICO@Invalid?5password?$AA@ 200b3ef0     g_client.obj
 0002:00003f04       ??_C@_0BB@KINAMDJK@BotConnectfailed?$AA@ 200b3f04     g_client.obj
 0002:00003f18       ??_C@_0BD@LEMBFDEN@ClientConnect?3?5?$CFi?6?$AA@ 200b3f18     g_client.obj
 0002:00003f2c       ??_C@_0BI@LLOHFCPM@print?5?$CC?$CFs?$FO7?5connected?6?$CC?$AA@ 200b3f2c     g_client.obj
 0002:00003f44       ??_C@_0BP@PGPGIDAG@print?5?$CC?$CFs?$FO7?5entered?5the?5game?6?$CC?$AA@ 200b3f44     g_client.obj
 0002:00003f64       ??_C@_0BB@JCCEPCGJ@ClientBegin?3?5?$CFi?6?$AA@ 200b3f64     g_client.obj
 0002:00003f78       ??_C@_06BALNJMNP@player?$AA@ 200b3f78     g_client.obj
 0002:00003f80       ??_C@_0BG@PJMKPFGA@ClientDisconnect?3?5?$CFi?6?$AA@ 200b3f80     g_client.obj
 0002:00003f98       ??_C@_0N@GGGDBMDO@disconnected?$AA@ 200b3f98     g_client.obj
 0002:00003fa8       __real@41100000            200b3fa8     g_client.obj
 0002:00003fac       ??_C@_0BD@BEPMJBOM@hold?5your?5position?$AA@ 200b3fac     g_cmds.obj
 0002:00003fc0       ??_C@_0BD@BGOJJIFC@hold?5this?5position?$AA@ 200b3fc0     g_cmds.obj
 0002:00003fd4       ??_C@_09NKPGKNPA@come?5here?$AA@ 200b3fd4     g_cmds.obj
 0002:00003fe0       ??_C@_08NJPHEENP@cover?5me?$AA@ 200b3fe0     g_cmds.obj
 0002:00003fec       ??_C@_0P@BDHIOPIB@guard?5location?$AA@ 200b3fec     g_cmds.obj
 0002:00003ffc       ??_C@_0BD@JFEBCONJ@search?5and?5destroy?$AA@ 200b3ffc     g_cmds.obj
 0002:00004010       ??_C@_06MHOMHIDM@report?$AA@ 200b4010     g_cmds.obj
 0002:00004018       ??_C@_0N@PCEMCJC@Free?5For?5All?$AA@ 200b4018     g_cmds.obj
 0002:00004028       ??_C@_0L@FENDKKGN@Tournament?$AA@ 200b4028     g_cmds.obj
 0002:00004034       ??_C@_0O@NNAOEDOE@Single?5Player?$AA@ 200b4034     g_cmds.obj
 0002:00004044       ??_C@_0BA@KHHNIIJE@Team?5Deathmatch?$AA@ 200b4044     g_cmds.obj
 0002:00004054       ??_C@_0BB@OOIHNFAG@Capture?5the?5Flag?$AA@ 200b4054     g_cmds.obj
 0002:00004068       ??_C@_0N@FCMBHKKN@One?5Flag?5CTF?$AA@ 200b4068     g_cmds.obj
 0002:00004078       ??_C@_08JKIFACLF@Overload?$AA@ 200b4078     g_cmds.obj
 0002:00004084       ??_C@_09OKMOBHEE@Harvester?$AA@ 200b4084     g_cmds.obj
 0002:00004090       ??_C@_0CL@EAFNPFGA@?5?$CFi?5?$CFi?5?$CFi?5?$CFi?5?$CFi?5?$CFi?5?$CFi?5?$CFi?5?$CFi?5?$CFi?5?$CF@ 200b4090     g_cmds.obj
 0002:000040bc       ??_C@_0BC@BADCIGBJ@scores?5?$CFi?5?$CFi?5?$CFi?$CFs?$AA@ 200b40bc     g_cmds.obj
 0002:000040d0       ??_C@_0DA@DLJNDFCJ@print?5?$CCCheats?5are?5not?5enabled?5on@ 200b40d0     g_cmds.obj
 0002:00004100       ??_C@_0DA@KHFNLLBI@print?5?$CCYou?5must?5be?5alive?5to?5use?5@ 200b4100     g_cmds.obj
 0002:00004130       ??_C@_0BN@FGLBNIJH@print?5?$CCBad?5client?5slot?3?5?$CFi?6?$CC?$AA@ 200b4130     g_cmds.obj
 0002:00004150       ??_C@_0CB@IOMDOEKP@print?5?$CCClient?5?$CFi?5is?5not?5active?6?$CC@ 200b4150     g_cmds.obj
 0002:00004174       ??_C@_0CG@OFMIDLCG@print?5?$CCUser?5?$CFs?5is?5not?5on?5the?5ser@ 200b4174     g_cmds.obj
 0002:0000419c       ??_C@_03NFKEKGGK@all?$AA@  200b419c     g_cmds.obj
 0002:000041a0       ??_C@_07PKKCMMCH@weapons?$AA@ 200b41a0     g_cmds.obj
 0002:000041a8       ??_C@_04PGKJFGNK@ammo?$AA@ 200b41a8     g_cmds.obj
 0002:000041b0       ??_C@_05JJEJIJLL@armor?$AA@ 200b41b0     g_cmds.obj
 0002:000041b8       ??_C@_09MBDMPFOO@excellent?$AA@ 200b41b8     g_cmds.obj
 0002:000041c4       ??_C@_0L@GBLMIJON@impressive?$AA@ 200b41c4     g_cmds.obj
 0002:000041d0       ??_C@_0O@DCIHIELO@gauntletaward?$AA@ 200b41d0     g_cmds.obj
 0002:000041e0       ??_C@_06CHFMFANC@assist?$AA@ 200b41e0     g_cmds.obj
 0002:000041e8       ??_C@_0N@POKEKLLJ@godmode?5OFF?6?$AA@ 200b41e8     g_cmds.obj
 0002:000041f8       ??_C@_0M@MCLKHHDH@godmode?5ON?6?$AA@ 200b41f8     g_cmds.obj
 0002:00004204       ??_C@_0L@GPCEIOHM@print?5?$CC?$CFs?$CC?$AA@ 200b4204     g_cmds.obj
 0002:00004210       ??_C@_0O@FBINJHBB@notarget?5OFF?6?$AA@ 200b4210     g_cmds.obj
 0002:00004220       ??_C@_0N@OBJNJDJO@notarget?5ON?6?$AA@ 200b4220     g_cmds.obj
 0002:00004230       ??_C@_0M@MIKGJGLH@noclip?5OFF?6?$AA@ 200b4230     g_cmds.obj
 0002:0000423c       ??_C@_0L@MDMNIPJN@noclip?5ON?6?$AA@ 200b423c     g_cmds.obj
 0002:00004248       ??_C@_0CP@EMMMGMNN@print?5?$CCMust?5be?5in?5g_gametype?50?5f@ 200b4248     g_cmds.obj
 0002:00004278       ??_C@_0CA@FCJONFGI@cp?5?$CC?$CFs?$FO7?5joined?5the?5red?5team?4?6?$CC?$AA@ 200b4278     g_cmds.obj
 0002:00004298       ??_C@_0CB@MALDLCDE@cp?5?$CC?$CFs?$FO7?5joined?5the?5blue?5team?4?6?$CC@ 200b4298     g_cmds.obj
 0002:000042bc       ??_C@_0CC@CKOABLEC@cp?5?$CC?$CFs?$FO7?5joined?5the?5spectators?4?6@ 200b42bc     g_cmds.obj
 0002:000042e0       ??_C@_0BO@HCBBHHLG@cp?5?$CC?$CFs?$FO7?5joined?5the?5battle?4?6?$CC?$AA@ 200b42e0     g_cmds.obj
 0002:00004300       ??_C@_05DBKDOICH@score?$AA@ 200b4300     g_cmds.obj
 0002:00004308       ??_C@_07CGPFHOPJ@follow1?$AA@ 200b4308     g_cmds.obj
 0002:00004310       ??_C@_07NNICNDK@follow2?$AA@ 200b4310     g_cmds.obj
 0002:00004318       ??_C@_09FNMDCDOI@spectator?$AA@ 200b4318     g_cmds.obj
 0002:00004324       ??_C@_01LKDEMHDF@s?$AA@    200b4324     g_cmds.obj
 0002:00004328       ??_C@_0CF@OMMGDNAE@cp?5?$CCRed?5team?5has?5too?5many?5player@ 200b4328     g_cmds.obj
 0002:00004350       ??_C@_0CG@BNBAGBGM@cp?5?$CCBlue?5team?5has?5too?5many?5playe@ 200b4350     g_cmds.obj
 0002:00004378       ??_C@_0BD@PGCCOEMO@print?5?$CCBlue?5team?6?$CC?$AA@ 200b4378     g_cmds.obj
 0002:0000438c       ??_C@_0BC@HGAENHGG@print?5?$CCRed?5team?6?$CC?$AA@ 200b438c     g_cmds.obj
 0002:000043a0       ??_C@_0BD@COAKLBJE@print?5?$CCFree?5team?6?$CC?$AA@ 200b43a0     g_cmds.obj
 0002:000043b4       ??_C@_0BI@PDLENAMN@print?5?$CCSpectator?5team?6?$CC?$AA@ 200b43b4     g_cmds.obj
 0002:000043cc       ??_C@_0DM@NEIAOCHE@print?5?$CCMay?5not?5switch?5teams?5more@ 200b43cc     g_cmds.obj
 0002:00004408       ??_C@_0BO@KJIMFOBJ@Cmd_FollowCycle_f?3?5bad?5dir?5?$CFi?$AA@ 200b4408     g_cmds.obj
 0002:00004428       ??_C@_0O@CCPEDGNK@?$CFs?5?$CC?$CFs?$CFc?$CFc?$CFs?$CC?$AA@ 200b4428     g_cmds.obj
 0002:00004438       ??_C@_0N@PIPLJLA@say?3?5?$CFs?3?5?$CFs?6?$AA@ 200b4438     g_cmds.obj
 0002:00004448       ??_C@_09GPHNFPKO@?$CFs?$CFc?$CFc?$BJ?3?5?$AA@ 200b4448     g_cmds.obj
 0002:00004454       ??_C@_0BB@OADDLILN@sayteam?3?5?$CFs?3?5?$CFs?6?$AA@ 200b4454     g_cmds.obj
 0002:00004468       ??_C@_0BD@LHDLGCNL@?$BJ?$CI?$CFs?$CFc?$CFc?$BJ?$CJ?5?$CI?$CFs?$CJ?$BJ?3?5?$AA@ 200b4468     g_cmds.obj
 0002:0000447c       ??_C@_0O@FGLMEIPO@?$BJ?$CI?$CFs?$CFc?$CFc?$BJ?$CJ?$BJ?3?5?$AA@ 200b447c     g_cmds.obj
 0002:0000448c       ??_C@_0BD@GLHHAOBD@?$BJ?$FL?$CFs?$CFc?$CFc?$BJ?$FN?5?$CI?$CFs?$CJ?$BJ?3?5?$AA@ 200b448c     g_cmds.obj
 0002:000044a0       ??_C@_0O@FNNABOLL@?$BJ?$FL?$CFs?$CFc?$CFc?$BJ?$FN?$BJ?3?5?$AA@ 200b44a0     g_cmds.obj
 0002:000044b0       ??_C@_05JMJKDBEJ@?$CFs?$CFs?6?$AA@ 200b44b0     g_cmds.obj
 0002:000044b8       ??_C@_0BE@DNAOGBCN@tell?3?5?$CFs?5to?5?$CFs?3?5?$CFs?6?$AA@ 200b44b8     g_cmds.obj
 0002:000044cc       ??_C@_06FPNOEFND@vtchat?$AA@ 200b44cc     g_cmds.obj
 0002:000044d4       ??_C@_05BLGJOHFB@vtell?$AA@ 200b44d4     g_cmds.obj
 0002:000044dc       ??_C@_05LBAAHPBE@vchat?$AA@ 200b44dc     g_cmds.obj
 0002:000044e4       ??_C@_0P@GLNDPPNN@?$CFs?5?$CFd?5?$CFd?5?$CFd?5?$CFs?$AA@ 200b44e4     g_cmds.obj
 0002:000044f4       ??_C@_0O@PGEGBHPB@voice?3?5?$CFs?5?$CFs?6?$AA@ 200b44f4     g_cmds.obj
 0002:00004504       ??_C@_0BF@KNCPEACI@vtell?3?5?$CFs?5to?5?$CFs?3?5?$CFs?6?$AA@ 200b4504     g_cmds.obj
 0002:0000451c       ??_C@_06GEFAPDPP@praise?$AA@ 200b451c     g_cmds.obj
 0002:00004524       ??_C@_0M@MIDAEIOB@print?5?$CC?$CFs?6?$CC?$AA@ 200b4524     g_cmds.obj
 0002:00004530       ??_C@_0CC@MKEOLBNH@print?5?$CCVoting?5not?5allowed?5here?4?6@ 200b4530     g_cmds.obj
 0002:00004554       ??_C@_0CI@IOOGHLKJ@print?5?$CCA?5vote?5is?5already?5in?5prog@ 200b4554     g_cmds.obj
 0002:0000457c       ??_C@_0DG@PHEGLJKA@print?5?$CCYou?5have?5called?5the?5maxim@ 200b457c     g_cmds.obj
 0002:000045b4       ??_C@_0DC@KBNBHNDJ@print?5?$CCNot?5allowed?5to?5call?5a?5vot@ 200b45b4     g_cmds.obj
 0002:000045e8       ??_C@_0BO@PMPHENKD@print?5?$CCInvalid?5vote?5string?4?6?$CC?$AA@ 200b45e8     g_cmds.obj
 0002:00004608       ??_C@_0M@NBIMEKNE@map_restart?$AA@ 200b4608     g_cmds.obj
 0002:00004614       ??_C@_07MCHHMPMB@nextmap?$AA@ 200b4614     g_cmds.obj
 0002:0000461c       ??_C@_04FNIJDBCC@kick?$AA@ 200b461c     g_cmds.obj
 0002:00004624       ??_C@_0L@NBDAICFL@clientkick?$AA@ 200b4624     g_cmds.obj
 0002:00004630       ??_C@_0L@LPENDGCI@g_doWarmup?$AA@ 200b4630     g_cmds.obj
 0002:00004640       ??_C@_0KJ@BAKDCPAJ@print?5?$CCVote?5commands?5are?3?5map_re@ 200b4640     g_cmds.obj
 0002:000046ec       ??_C@_03OFAPEBGM@?$CFs?6?$AA@ 200b46ec     g_cmds.obj
 0002:000046f0       ??_C@_0BL@HOKFFIC@print?5?$CCInvalid?5gametype?4?6?$CC?$AA@ 200b46f0     g_cmds.obj
 0002:0000470c       ??_C@_05DIALNFFA@?$CFs?5?$CFd?$AA@ 200b470c     g_cmds.obj
 0002:00004714       ??_C@_05DNIIFBMG@?$CFs?5?$CFs?$AA@ 200b4714     g_cmds.obj
 0002:0000471c       ??_C@_0BI@EHIPCLJD@?$CFs?5?$CFs?$DL?5set?5nextmap?5?$CC?$CFs?$CC?$AA@ 200b471c     g_cmds.obj
 0002:00004734       ??_C@_0BK@IOHPLFMM@print?5?$CCnextmap?5not?5set?4?6?$CC?$AA@ 200b4734     g_cmds.obj
 0002:00004750       ??_C@_0N@NPFCFAAA@vstr?5nextmap?$AA@ 200b4750     g_cmds.obj
 0002:00004760       ??_C@_07CMIPDAGF@?$CFs?5?$CC?$CFs?$CC?$AA@ 200b4760     g_cmds.obj
 0002:00004768       ??_C@_0BL@LDCKNKB@print?5?$CC?$CFs?5called?5a?5vote?4?6?$CC?$AA@ 200b4768     g_cmds.obj
 0002:00004784       ??_C@_0BO@JJMMHDFC@print?5?$CCNo?5vote?5in?5progress?4?6?$CC?$AA@ 200b4784     g_cmds.obj
 0002:000047a4       ??_C@_0BM@JAOFDBMB@print?5?$CCVote?5already?5cast?4?6?$CC?$AA@ 200b47a4     g_cmds.obj
 0002:000047c0       ??_C@_0CL@KIACKMGK@print?5?$CCNot?5allowed?5to?5vote?5as?5sp@ 200b47c0     g_cmds.obj
 0002:000047ec       ??_C@_0BE@KBOHCPHM@print?5?$CCVote?5cast?4?6?$CC?$AA@ 200b47ec     g_cmds.obj
 0002:00004800       ??_C@_0CN@INNKCADJ@print?5?$CCA?5team?5vote?5is?5already?5in@ 200b4800     g_cmds.obj
 0002:00004830       ??_C@_0DL@IFNKHCNG@print?5?$CCYou?5have?5called?5the?5maxim@ 200b4830     g_cmds.obj
 0002:0000486c       ??_C@_06DFLPLEOP@leader?$AA@ 200b486c     g_cmds.obj
 0002:00004874       ??_C@_0DA@BDICJJF@print?5?$CC?$CFs?5is?5not?5a?5valid?5player?5@ 200b4874     g_cmds.obj
 0002:000048a4       ??_C@_0DC@JMKMFJGE@print?5?$CCTeam?5vote?5commands?5are?3?5l@ 200b48a4     g_cmds.obj
 0002:000048d8       ??_C@_0CA@ENAIANHJ@print?5?$CC?$CFs?5called?5a?5team?5vote?4?6?$CC?$AA@ 200b48d8     g_cmds.obj
 0002:000048f8       ??_C@_0CD@BLODMPFK@print?5?$CCNo?5team?5vote?5in?5progress?4@ 200b48f8     g_cmds.obj
 0002:0000491c       ??_C@_0CB@LGGMNIHI@print?5?$CCTeam?5vote?5already?5cast?4?6?$CC@ 200b491c     g_cmds.obj
 0002:00004940       ??_C@_0BJ@DCKHGAB@print?5?$CCTeam?5vote?5cast?4?6?$CC?$AA@ 200b4940     g_cmds.obj
 0002:0000495c       ??_C@_0CF@GJFHLKOA@print?5?$CCusage?3?5setviewpos?5x?5y?5z?5y@ 200b495c     g_cmds.obj
 0002:00004984       ??_C@_03BANJEMDJ@say?$AA@  200b4984     g_cmds.obj
 0002:00004988       ??_C@_08NBFNGOHN@say_team?$AA@ 200b4988     g_cmds.obj
 0002:00004994       ??_C@_04LBPCFPDD@tell?$AA@ 200b4994     g_cmds.obj
 0002:0000499c       ??_C@_04IBCNHBFH@vsay?$AA@ 200b499c     g_cmds.obj
 0002:000049a4       ??_C@_09CPIJOHHK@vsay_team?$AA@ 200b49a4     g_cmds.obj
 0002:000049b0       ??_C@_05EGEGDMMG@vosay?$AA@ 200b49b0     g_cmds.obj
 0002:000049b8       ??_C@_0L@GKKIAMHC@vosay_team?$AA@ 200b49b8     g_cmds.obj
 0002:000049c4       ??_C@_06JMKGCPMO@votell?$AA@ 200b49c4     g_cmds.obj
 0002:000049cc       ??_C@_04BMBHJADG@give?$AA@ 200b49cc     g_cmds.obj
 0002:000049d4       ??_C@_03DKFAMNOH@god?$AA@  200b49d4     g_cmds.obj
 0002:000049d8       ??_C@_08HPLPOCJL@notarget?$AA@ 200b49d8     g_cmds.obj
 0002:000049e4       ??_C@_06IHODGGMJ@noclip?$AA@ 200b49e4     g_cmds.obj
 0002:000049ec       ??_C@_09EFOFPGPE@levelshot?$AA@ 200b49ec     g_cmds.obj
 0002:000049f8       ??_C@_06HNJAFFAK@follow?$AA@ 200b49f8     g_cmds.obj
 0002:00004a00       ??_C@_0L@GBHEMAKD@follownext?$AA@ 200b4a00     g_cmds.obj
 0002:00004a0c       ??_C@_0L@FFKCNEMH@followprev?$AA@ 200b4a0c     g_cmds.obj
 0002:00004a18       ??_C@_05LCFPHLEE@where?$AA@ 200b4a18     g_cmds.obj
 0002:00004a20       ??_C@_08NNMLCPB@callvote?$AA@ 200b4a20     g_cmds.obj
 0002:00004a2c       ??_C@_04GHHIKFLG@vote?$AA@ 200b4a2c     g_cmds.obj
 0002:00004a34       ??_C@_0N@JDBKAFAM@callteamvote?$AA@ 200b4a34     g_cmds.obj
 0002:00004a44       ??_C@_08OLLMCBNG@teamvote?$AA@ 200b4a44     g_cmds.obj
 0002:00004a50       ??_C@_02DPGMDCM@gc?$AA@    200b4a50     g_cmds.obj
 0002:00004a54       ??_C@_0L@CCEFBCKP@setviewpos?$AA@ 200b4a54     g_cmds.obj
 0002:00004a60       ??_C@_05BLKJBNOD@stats?$AA@ 200b4a60     g_cmds.obj
 0002:00004a68       ??_C@_0BI@FJNBDMBJ@print?5?$CCunknown?5cmd?5?$CFs?6?$CC?$AA@ 200b4a68     g_cmds.obj
 0002:00004a80       ??_C@_0M@BKDMLGAO@MOD_UNKNOWN?$AA@ 200b4a80     g_combat.obj
 0002:00004a8c       ??_C@_0M@MIHCLLAH@MOD_SHOTGUN?$AA@ 200b4a8c     g_combat.obj
 0002:00004a98       ??_C@_0N@MJPPIPMF@MOD_GAUNTLET?$AA@ 200b4a98     g_combat.obj
 0002:00004aa8       ??_C@_0P@DNHADEBJ@MOD_MACHINEGUN?$AA@ 200b4aa8     g_combat.obj
 0002:00004ab8       ??_C@_0M@KDJNKEED@MOD_GRENADE?$AA@ 200b4ab8     g_combat.obj
 0002:00004ac4       ??_C@_0BD@PLGCKMBF@MOD_GRENADE_SPLASH?$AA@ 200b4ac4     g_combat.obj
 0002:00004ad8       ??_C@_0L@FIOJJPEO@MOD_ROCKET?$AA@ 200b4ad8     g_combat.obj
 0002:00004ae4       ??_C@_0BC@KJDNONBC@MOD_ROCKET_SPLASH?$AA@ 200b4ae4     g_combat.obj
 0002:00004af8       ??_C@_0L@JPCJGHHF@MOD_PLASMA?$AA@ 200b4af8     g_combat.obj
 0002:00004b04       ??_C@_0BC@PIBHLJKK@MOD_PLASMA_SPLASH?$AA@ 200b4b04     g_combat.obj
 0002:00004b18       ??_C@_0M@BHIJMBBE@MOD_RAILGUN?$AA@ 200b4b18     g_combat.obj
 0002:00004b24       ??_C@_0O@GLCOIAIP@MOD_LIGHTNING?$AA@ 200b4b24     g_combat.obj
 0002:00004b34       ??_C@_07EOLOFKFM@MOD_BFG?$AA@ 200b4b34     g_combat.obj
 0002:00004b3c       ??_C@_0P@OHBIPEGK@MOD_BFG_SPLASH?$AA@ 200b4b3c     g_combat.obj
 0002:00004b4c       ??_C@_09MAPLCDLI@MOD_WATER?$AA@ 200b4b4c     g_combat.obj
 0002:00004b58       ??_C@_09KBJPPHD@MOD_SLIME?$AA@ 200b4b58     g_combat.obj
 0002:00004b64       ??_C@_08LEPCJCFO@MOD_LAVA?$AA@ 200b4b64     g_combat.obj
 0002:00004b70       ??_C@_09GPMGMMBL@MOD_CRUSH?$AA@ 200b4b70     g_combat.obj
 0002:00004b7c       ??_C@_0N@IMHJNLFF@MOD_TELEFRAG?$AA@ 200b4b7c     g_combat.obj
 0002:00004b8c       ??_C@_0M@JONLOPJN@MOD_FALLING?$AA@ 200b4b8c     g_combat.obj
 0002:00004b98       ??_C@_0M@NECNIJDJ@MOD_SUICIDE?$AA@ 200b4b98     g_combat.obj
 0002:00004ba4       ??_C@_0BB@HMLMKPCA@MOD_TARGET_LASER?$AA@ 200b4ba4     g_combat.obj
 0002:00004bb8       ??_C@_0BB@JHNHPELL@MOD_TRIGGER_HURT?$AA@ 200b4bb8     g_combat.obj
 0002:00004bcc       ??_C@_0M@BGKKOPE@MOD_GRAPPLE?$AA@ 200b4bcc     g_combat.obj
 0002:00004bd8       ??_C@_0P@LIDDFKFD@kamikaze?5timer?$AA@ 200b4bd8     g_combat.obj
 0002:00004be8       ??_C@_0BA@GIMOGCGC@team_redobelisk?$AA@ 200b4be8     g_combat.obj
 0002:00004bf8       ??_C@_0BB@JDBGHPJP@team_blueobelisk?$AA@ 200b4bf8     g_combat.obj
 0002:00004c0c       ??_C@_0N@HGAIBNNB@?$DMnon?9client?$DO?$AA@ 200b4c0c     g_combat.obj
 0002:00004c1c       ??_C@_07GECLLGBL@?$DMworld?$DO?$AA@ 200b4c1c     g_combat.obj
 0002:00004c24       ??_C@_0P@BDPEDPJP@?$DMbad?5obituary?$DO?$AA@ 200b4c24     g_combat.obj
 0002:00004c34       ??_C@_0CE@HGPMHBOH@Kill?3?5?$CFi?5?$CFi?5?$CFi?3?5?$CFs?5killed?5?$CFs?5by?5@ 200b4c34     g_combat.obj
 0002:00004c58       ??_C@_0CM@LEIIGBFN@?$CFi?3?5client?3?$CFi?5health?3?$CFi?5damage?3?$CF@ 200b4c58     g_combat.obj
 0002:00004c88       __real@3fe51eb851eb851f    200b4c88     g_combat.obj
 0002:00004c90       __real@402e000000000000    200b4c90     g_combat.obj
 0002:00004c98       ??_C@_0BM@BNLFEEPK@RespawnItem?3?5bad?5teammaster?$AA@ 200b4c98     g_items.obj
 0002:00004cb4       ??_C@_0CA@FLGMIHAB@sound?1items?1kamikazerespawn?4wav?$AA@ 200b4cb4     g_items.obj
 0002:00004cd4       ??_C@_0N@OCCHADDH@Item?3?5?$CFi?5?$CFs?6?$AA@ 200b4cd4     g_items.obj
 0002:00004ce4       ??_C@_0CJ@EMOANFCC@FinishSpawningItem?3?5?$CFs?5startsoli@ 200b4ce4     g_items.obj
 0002:00004d10       ??_C@_0CG@DNHJENHJ@?$FO3WARNING?3?5No?5team_CTF_redflag?5i@ 200b4d10     g_items.obj
 0002:00004d38       ??_C@_0CH@HHMBIMLK@?$FO3WARNING?3?5No?5team_CTF_blueflag?5@ 200b4d38     g_items.obj
 0002:00004d60       ??_C@_0BD@LOGEPNHD@RegisterItem?3?5NULL?$AA@ 200b4d60     g_items.obj
 0002:00004d74       ??_C@_0BF@PHBDLOMN@?$CFi?5items?5registered?6?$AA@ 200b4d74     g_items.obj
 0002:00004d8c       ??_C@_0L@BHNPAADM@disable_?$CFs?$AA@ 200b4d8c     g_items.obj
 0002:00004d98       ??_C@_06NLFCANPD@random?$AA@ 200b4d98     g_items.obj
 0002:00004da0       ??_C@_04PNOAOIAG@wait?$AA@ 200b4da0     g_items.obj
 0002:00004da8       ??_C@_0O@MNEGCFDN@noglobalsound?$AA@ 200b4da8     g_items.obj
 0002:00004db8       __real@4046800000000000    200b4db8     g_items.obj
 0002:00004dc0       __real@4069000000000000    200b4dc0     g_items.obj
 0002:00004dc8       __real@43400000            200b4dc8     g_items.obj
 0002:00004dcc       __real@45800000            200b4dcc     g_items.obj
 0002:00004dd0       ??_C@_09NFOPKLIK@sv_cheats?$AA@ 200b4dd0     g_main.obj
 0002:00004ddc       ??_C@_08HCPAIKAO@gamename?$AA@ 200b4ddc     g_main.obj
 0002:00004de8       ??_C@_06KOMAFLML@baseq3?$AA@ 200b4de8     g_main.obj
 0002:00004df0       ??_C@_08CLLHAKFA@gamedate?$AA@ 200b4df0     g_main.obj
 0002:00004dfc       ??_C@_0M@MDIBOGHM@Apr?521?52015?$AA@ 200b4dfc     g_main.obj
 0002:00004e08       ??_C@_0M@GHMJJAD@g_restarted?$AA@ 200b4e08     g_main.obj
 0002:00004e14       ??_C@_0L@DFBEGALI@sv_mapname?$AA@ 200b4e14     g_main.obj
 0002:00004e20       ??_C@_0BB@JCLDAPBF@g_maxGameClients?$AA@ 200b4e20     g_main.obj
 0002:00004e34       ??_C@_07GMGCLCAP@dmflags?$AA@ 200b4e34     g_main.obj
 0002:00004e3c       ??_C@_0N@FCAHJCDA@capturelimit?$AA@ 200b4e3c     g_main.obj
 0002:00004e4c       ??_C@_0BF@LICFCALK@g_synchronousClients?$AA@ 200b4e4c     g_main.obj
 0002:00004e64       ??_C@_0P@IEOFAMLI@g_friendlyFire?$AA@ 200b4e64     g_main.obj
 0002:00004e74       ??_C@_0P@PONBNCIE@g_teamAutoJoin?$AA@ 200b4e74     g_main.obj
 0002:00004e84       ??_C@_0BD@CLGJCDLA@g_teamForceBalance?$AA@ 200b4e84     g_main.obj
 0002:00004e98       ??_C@_08HAMOJLDA@g_warmup?$AA@ 200b4e98     g_main.obj
 0002:00004ea4       ??_C@_05PJEIAAGC@g_log?$AA@ 200b4ea4     g_main.obj
 0002:00004eac       ??_C@_09BNLGBMID@games?4log?$AA@ 200b4eac     g_main.obj
 0002:00004eb8       ??_C@_09IPDDEHO@g_logSync?$AA@ 200b4eb8     g_main.obj
 0002:00004ec4       ??_C@_0L@GHAPAPFD@g_password?$AA@ 200b4ec4     g_main.obj
 0002:00004ed0       ??_C@_08NKMDLNHL@g_banIPs?$AA@ 200b4ed0     g_main.obj
 0002:00004edc       ??_C@_0M@NIKBMNDP@g_filterBan?$AA@ 200b4edc     g_main.obj
 0002:00004ee8       ??_C@_0L@MLCEEGBP@g_needpass?$AA@ 200b4ee8     g_main.obj
 0002:00004ef4       ??_C@_09BJOAODLF@dedicated?$AA@ 200b4ef4     g_main.obj
 0002:00004f00       ??_C@_07KCHPCPJD@g_speed?$AA@ 200b4f00     g_main.obj
 0002:00004f08       ??_C@_03MEIMHAKB@320?$AA@  200b4f08     g_main.obj
 0002:00004f0c       ??_C@_09HNGNBNKN@g_gravity?$AA@ 200b4f0c     g_main.obj
 0002:00004f18       ??_C@_03BAAJCDMO@800?$AA@  200b4f18     g_main.obj
 0002:00004f1c       ??_C@_0M@PDFGFIOM@g_knockback?$AA@ 200b4f1c     g_main.obj
 0002:00004f28       ??_C@_04KOJKLCBG@1000?$AA@ 200b4f28     g_main.obj
 0002:00004f30       ??_C@_0N@LCBCFAFA@g_quadfactor?$AA@ 200b4f30     g_main.obj
 0002:00004f40       ??_C@_01EKENIIDA@3?$AA@    200b4f40     g_main.obj
 0002:00004f44       ??_C@_0BA@CMOCDPF@g_weaponrespawn?$AA@ 200b4f44     g_main.obj
 0002:00004f54       ??_C@_0BE@CNNPIPEC@g_weaponTeamRespawn?$AA@ 200b4f54     g_main.obj
 0002:00004f68       ??_C@_02PJNFELNH@30?$AA@   200b4f68     g_main.obj
 0002:00004f6c       ??_C@_0P@JEPDGNEP@g_forcerespawn?$AA@ 200b4f6c     g_main.obj
 0002:00004f7c       ??_C@_0N@JGEKALLI@g_inactivity?$AA@ 200b4f7c     g_main.obj
 0002:00004f8c       ??_C@_0M@EPOBGCBB@g_debugMove?$AA@ 200b4f8c     g_main.obj
 0002:00004f98       ??_C@_0O@JCLHDLKF@g_debugDamage?$AA@ 200b4f98     g_main.obj
 0002:00004fa8       ??_C@_0N@CGHOHBHC@g_debugAlloc?$AA@ 200b4fa8     g_main.obj
 0002:00004fb8       ??_C@_06IBNENCEO@g_motd?$AA@ 200b4fb8     g_main.obj
 0002:00004fc0       ??_C@_09DKNLLEN@com_blood?$AA@ 200b4fc0     g_main.obj
 0002:00004fcc       ??_C@_02PFIAKEDG@80?$AA@   200b4fcc     g_main.obj
 0002:00004fd0       ??_C@_0M@MECNLONK@g_allowVote?$AA@ 200b4fd0     g_main.obj
 0002:00004fdc       ??_C@_0N@JIFICDHI@g_listEntity?$AA@ 200b4fdc     g_main.obj
 0002:00004fec       ??_C@_0BA@EKPBHCCJ@g_smoothClients?$AA@ 200b4fec     g_main.obj
 0002:00004ffc       ??_C@_0M@HOGKGHBI@pmove_fixed?$AA@ 200b4ffc     g_main.obj
 0002:00005008       ??_C@_0L@NIHHPBKG@g_rankings?$AA@ 200b5008     g_main.obj
 0002:00005014       ??_C@_0BL@EIPAHDOP@?$CFi?5teams?5with?5?$CFi?5entities?6?$AA@ 200b5014     g_main.obj
 0002:00005030       ??_C@_0DA@HFHMPEPI@g_gametype?5?$CFi?5is?5out?5of?5range?0?5d@ 200b5030     g_main.obj
 0002:00005060       ??_C@_0CC@FFJICNKE@print?5?$CCServer?3?5?$CFs?5changed?5to?5?$CFs?6@ 200b5060     g_main.obj
 0002:00005084       ??_C@_0CF@FDKFKNJ@?9?9?9?9?9?9?9?5Game?5Initialization?5?9?9?9?9@ 200b5084     g_main.obj
 0002:000050ac       ??_C@_0O@MKINOKNK@gamename?3?5?$CFs?6?$AA@ 200b50ac     g_main.obj
 0002:000050bc       ??_C@_0O@LOFLFABD@gamedate?3?5?$CFs?6?$AA@ 200b50bc     g_main.obj
 0002:000050cc       ??_C@_0BF@CCJLMEBG@sound?1player?1fry?4wav?$AA@ 200b50cc     g_main.obj
 0002:000050e4       ??_C@_0CE@PLBPIHPI@WARNING?3?5Couldn?8t?5open?5logfile?3?5@ 200b50e4     g_main.obj
 0002:00005108       ??_C@_0DO@BDNDJIG@?9?9?9?9?9?9?9?9?9?9?9?9?9?9?9?9?9?9?9?9?9?9?9?9?9?9?9?9?9?9?9?9@ 200b5108     g_main.obj
 0002:00005148       ??_C@_0O@DEDEBKNJ@InitGame?3?5?$CFs?6?$AA@ 200b5148     g_main.obj
 0002:00005158       ??_C@_0BG@MOMCCAKP@Not?5logging?5to?5disk?4?6?$AA@ 200b5158     g_main.obj
 0002:00005170       ??_C@_0CF@MLCIJBNO@?9?9?9?9?9?9?9?9?9?9?9?9?9?9?9?9?9?9?9?9?9?9?9?9?9?9?9?9?9?9?9?9@ 200b5170     g_main.obj
 0002:00005198       ??_C@_0BA@MOHNLIKA@com_buildScript?$AA@ 200b5198     g_main.obj
 0002:000051a8       ??_C@_0BI@EOKPGBAF@?$DN?$DN?$DN?$DN?5ShutdownGame?5?$DN?$DN?$DN?$DN?6?$AA@ 200b51a8     g_main.obj
 0002:000051c0       ??_C@_0P@OFNEJLIL@ShutdownGame?3?6?$AA@ 200b51c0     g_main.obj
 0002:000051d0       ??_C@_01INIBCBCB@f?$AA@    200b51d0     g_main.obj
 0002:000051d4       ??_C@_0BJ@LMMLDPE@info_player_intermission?$AA@ 200b51d4     g_main.obj
 0002:000051f0       ??_C@_0P@BKKOFHJN@map_restart?50?6?$AA@ 200b51f0     g_main.obj
 0002:00005200       ??_C@_0O@PKDALKNK@vstr?5nextmap?6?$AA@ 200b5200     g_main.obj
 0002:00005210       ??_C@_09OHCHOIDO@?$CF3i?3?$CFi?$CFi?5?$AA@ 200b5210     g_main.obj
 0002:0000521c       ??_C@_09KHIKBPEI@Exit?3?5?$CFs?6?$AA@ 200b521c     g_main.obj
 0002:00005228       ??_C@_0BB@HEGEAGAN@red?3?$CFi?5?5blue?3?$CFi?6?$AA@ 200b5228     g_main.obj
 0002:0000523c       ??_C@_0CE@CGGOAMCD@score?3?5?$CFi?5?5ping?3?5?$CFi?5?5client?3?5?$CFi?5@ 200b523c     g_main.obj
 0002:00005260       ??_C@_0BI@GKJLDCNN@print?5?$CCTimelimit?5hit?4?6?$CC?$AA@ 200b5260     g_main.obj
 0002:00005278       ??_C@_0P@EKMAOGJF@Timelimit?5hit?4?$AA@ 200b5278     g_main.obj
 0002:00005288       ??_C@_0CA@KPFPAKGG@print?5?$CCRed?5hit?5the?5fraglimit?4?6?$CC?$AA@ 200b5288     g_main.obj
 0002:000052a8       ??_C@_0P@PJCPOIKO@Fraglimit?5hit?4?$AA@ 200b52a8     g_main.obj
 0002:000052b8       ??_C@_0CB@OIEPEJAM@print?5?$CCBlue?5hit?5the?5fraglimit?4?6?$CC@ 200b52b8     g_main.obj
 0002:000052dc       ??_C@_0CB@FMCEIKLA@print?5?$CC?$CFs?$FO7?5hit?5the?5fraglimit?4?6?$CC@ 200b52dc     g_main.obj
 0002:00005300       ??_C@_0CD@JENHKKNP@print?5?$CCRed?5hit?5the?5capturelimit?4@ 200b5300     g_main.obj
 0002:00005324       ??_C@_0BC@NGNDEIFJ@Capturelimit?5hit?4?$AA@ 200b5324     g_main.obj
 0002:00005338       ??_C@_0CE@BHHEOIMM@print?5?$CCBlue?5hit?5the?5capturelimit@ 200b5338     g_main.obj
 0002:0000535c       ??_C@_08FFAHPNKC@Warmup?3?6?$AA@ 200b535c     g_main.obj
 0002:00005368       ??_C@_0BG@NEFGNBIH@print?5?$CCVote?5failed?4?6?$CC?$AA@ 200b5368     g_main.obj
 0002:00005380       ??_C@_0BG@ICALOBOM@print?5?$CCVote?5passed?4?6?$CC?$AA@ 200b5380     g_main.obj
 0002:00005398       ??_C@_0BN@PMDPLBOA@print?5?$CC?$CFs?5is?5not?5connected?6?$CC?$AA@ 200b5398     g_main.obj
 0002:000053b8       ??_C@_0CH@IFAGPGDJ@print?5?$CC?$CFs?5is?5not?5on?5the?5team?5any@ 200b53b8     g_main.obj
 0002:000053e0       ??_C@_0CD@EKLBBMMK@print?5?$CC?$CFs?5is?5the?5new?5team?5leader@ 200b53e0     g_main.obj
 0002:00005404       ??_C@_0BL@FMHAJNKB@print?5?$CCTeam?5vote?5failed?4?6?$CC?$AA@ 200b5404     g_main.obj
 0002:00005420       ??_C@_0BL@KCNKNMK@print?5?$CCTeam?5vote?5passed?4?6?$CC?$AA@ 200b5420     g_main.obj
 0002:0000543c       ??_C@_0BA@JGLONBEK@NULL?5ent?9?$DOthink?$AA@ 200b543c     g_main.obj
 0002:0000544c       ??_C@_08JBKNBCEM@?$CF4i?3?5?$CFs?6?$AA@ 200b544c     g_main.obj
 0002:00005458       ??_C@_0BP@CMDJHEKJ@G_Alloc?5of?5?$CFi?5bytes?5?$CI?$CFi?5left?$CJ?6?$AA@ 200b5458     g_mem.obj
 0002:00005478       ??_C@_0CL@HPAAECKJ@G_Alloc?3?5failed?5on?5allocation?5of@ 200b5478     g_mem.obj
 0002:000054a4       ??_C@_0DC@GFNDCLPP@Game?5memory?5status?3?5?$CFi?5out?5of?5?$CFi@ 200b54a4     g_mem.obj
 0002:000054d8       ??_C@_0CO@BGNILIGB@Couldn?8t?5find?5target?5for?5misc_pa@ 200b54d8     g_misc.obj
 0002:00005508       ??_C@_04FBAPEKPH@roll?$AA@ 200b5508     g_misc.obj
 0002:00005510       ??_C@_04DGFIONEK@hook?$AA@ 200b5510     g_missile.obj
 0002:00005518       ??_C@_06BAPMGMJB@plasma?$AA@ 200b5518     g_missile.obj
 0002:00005520       ??_C@_07JBPBHDIL@grenade?$AA@ 200b5520     g_missile.obj
 0002:00005528       ??_C@_03CJHCFFJJ@bfg?$AA@  200b5528     g_missile.obj
 0002:0000552c       ??_C@_06NHDMJEKK@rocket?$AA@ 200b552c     g_missile.obj
 0002:00005538       __real@3fe4cccccccccccd    200b5538     g_missile.obj
 0002:00005540       __real@44610000            200b5540     g_missile.obj
 0002:00005544       __real@44fa0000            200b5544     g_missile.obj
 0002:00005548       ??_C@_0CC@FGLHJPEN@pushed_p?5?$DO?5?$CGpushed?$FLMAX_GENTITIES@ 200b5548     g_mover.obj
 0002:0000556c       ??_C@_0CE@HFNOCNBN@Reached_BinaryMover?3?5bad?5moverSt@ 200b556c     g_mover.obj
 0002:00005590       ??_C@_05GPLCCBII@noise?$AA@ 200b5590     g_mover.obj
 0002:00005598       ??_C@_05OEPGNJB@light?$AA@ 200b5598     g_mover.obj
 0002:000055a0       ??_C@_05PGFNHLMG@1?51?51?$AA@ 200b55a0     g_mover.obj
 0002:000055a8       ??_C@_05PEENBMOG@color?$AA@ 200b55a8     g_mover.obj
 0002:000055b0       ??_C@_0N@FKJMDFJC@door_trigger?$AA@ 200b55b0     g_mover.obj
 0002:000055c0       ??_C@_0CA@KGLPIIML@sound?1movers?1doors?1dr1_strt?4wav?$AA@ 200b55c0     g_mover.obj
 0002:000055e0       ??_C@_0BP@MPMCKOBA@sound?1movers?1doors?1dr1_end?4wav?$AA@ 200b55e0     g_mover.obj
 0002:00005600       ??_C@_03EMOFKE@dmg?$AA@    200b5600     g_mover.obj
 0002:00005604       ??_C@_0N@GNEHAGP@plat_trigger?$AA@ 200b5604     g_mover.obj
 0002:00005614       ??_C@_0CA@DPCFJLJP@sound?1movers?1plats?1pt1_strt?4wav?$AA@ 200b5614     g_mover.obj
 0002:00005634       ??_C@_0BP@FMIAEABD@sound?1movers?1plats?1pt1_end?4wav?$AA@ 200b5634     g_mover.obj
 0002:00005654       ??_C@_05HJCMGBKF@speed?$AA@ 200b5654     g_mover.obj
 0002:0000565c       ??_C@_06LNLHEAAG@height?$AA@ 200b565c     g_mover.obj
 0002:00005664       ??_C@_0CA@HPFJMDOC@sound?1movers?1switches?1butn2?4wav?$AA@ 200b5664     g_mover.obj
 0002:00005684       ??_C@_0CJ@BMOHOFCP@func_train?5at?5?$CFs?5with?5an?5unfound@ 200b5684     g_mover.obj
 0002:000056b0       ??_C@_0CF@EGOCJBJB@Train?5corner?5at?5?$CFs?5without?5a?5tar@ 200b56b0     g_mover.obj
 0002:000056d8       ??_C@_0DB@KEBMPPOD@Train?5corner?5at?5?$CFs?5without?5a?5tar@ 200b56d8     g_mover.obj
 0002:0000570c       ??_C@_0M@ONCHNMHP@path_corner?$AA@ 200b570c     g_mover.obj
 0002:00005718       ??_C@_0CG@DHHNMBFP@path_corner?5with?5no?5targetname?5a@ 200b5718     g_mover.obj
 0002:00005740       ??_C@_0CD@BNKPEMCB@func_train?5without?5a?5target?5at?5?$CF@ 200b5740     g_mover.obj
 0002:00005764       ??_C@_02MLODCJFF@32?$AA@   200b5764     g_mover.obj
 0002:00005768       ??_C@_05CBPKLGJM@phase?$AA@ 200b5768     g_mover.obj
 0002:00005770       __real@3fc0000000000000    200b5770     g_mover.obj
 0002:00005778       __real@3fc45f3060000000    200b5778     g_mover.obj
 0002:00005780       __real@42040000            200b5780     g_mover.obj
 0002:00005784       ??_C@_0BF@GKKABID@?$CFi?5?$CFi?5?$CFi?5?$CFi?5?$CFi?5?$CFi?5?$CFi?$AA@ 200b5784     g_session.obj
 0002:0000579c       ??_C@_09INHJFLOH@session?$CFi?$AA@ 200b579c     g_session.obj
 0002:000057a8       ??_C@_07KMJDECGK@session?$AA@ 200b57a8     g_session.obj
 0002:000057b0       ??_C@_0CK@FAAHDCAM@Gametype?5changed?0?5clearing?5sessi@ 200b57b0     g_session.obj
 0002:000057dc       ??_C@_06LNKHAAKC@model2?$AA@ 200b57dc     g_spawn.obj
 0002:000057e4       ??_C@_07ONPBMBOP@message?$AA@ 200b57e4     g_spawn.obj
 0002:000057ec       ??_C@_05IOMEMJEC@count?$AA@ 200b57ec     g_spawn.obj
 0002:000057f4       ??_C@_06GNEAMJOC@angles?$AA@ 200b57f4     g_spawn.obj
 0002:000057fc       ??_C@_0BB@FKLCNMKK@targetShaderName?$AA@ 200b57fc     g_spawn.obj
 0002:00005810       ??_C@_0BE@OHABMMFD@targetShaderNewName?$AA@ 200b5810     g_spawn.obj
 0002:00005824       ??_C@_0BC@IHPKIKNE@info_player_start?$AA@ 200b5824     g_spawn.obj
 0002:00005838       ??_C@_09MBOCECHK@info_null?$AA@ 200b5838     g_spawn.obj
 0002:00005844       ??_C@_0N@FHKCBFMD@info_notnull?$AA@ 200b5844     g_spawn.obj
 0002:00005854       ??_C@_09BLMHBGJ@info_camp?$AA@ 200b5854     g_spawn.obj
 0002:00005860       ??_C@_09HCDLIOGG@func_plat?$AA@ 200b5860     g_spawn.obj
 0002:0000586c       ??_C@_0M@OOBMECJN@func_static?$AA@ 200b586c     g_spawn.obj
 0002:00005878       ??_C@_0O@JDFCILJF@func_rotating?$AA@ 200b5878     g_spawn.obj
 0002:00005888       ??_C@_0N@BAMIHEIF@func_bobbing?$AA@ 200b5888     g_spawn.obj
 0002:00005898       ??_C@_0O@FPCFJAHB@func_pendulum?$AA@ 200b5898     g_spawn.obj
 0002:000058a8       ??_C@_0L@PGCOCBM@func_train?$AA@ 200b58a8     g_spawn.obj
 0002:000058b4       ??_C@_0L@KLICIANB@func_group?$AA@ 200b58b4     g_spawn.obj
 0002:000058c0       ??_C@_0P@KDHOHKJL@trigger_always?$AA@ 200b58c0     g_spawn.obj
 0002:000058d0       ??_C@_0N@CCJDLJOF@trigger_push?$AA@ 200b58d0     g_spawn.obj
 0002:000058e0       ??_C@_0BB@COMMHECA@trigger_teleport?$AA@ 200b58e0     g_spawn.obj
 0002:000058f4       ??_C@_0N@JFLGFCMM@trigger_hurt?$AA@ 200b58f4     g_spawn.obj
 0002:00005904       ??_C@_0M@KALMALDK@target_give?$AA@ 200b5904     g_spawn.obj
 0002:00005910       ??_C@_0BH@FJADHEOA@target_remove_powerups?$AA@ 200b5910     g_spawn.obj
 0002:00005928       ??_C@_0P@MNJIBEAO@target_speaker?$AA@ 200b5928     g_spawn.obj
 0002:00005938       ??_C@_0N@IADDOFND@target_print?$AA@ 200b5938     g_spawn.obj
 0002:00005948       ??_C@_0N@LGMMDFPN@target_laser?$AA@ 200b5948     g_spawn.obj
 0002:00005958       ??_C@_0N@DIKJAPJH@target_score?$AA@ 200b5958     g_spawn.obj
 0002:00005968       ??_C@_0BC@GJLLMIEM@target_teleporter?$AA@ 200b5968     g_spawn.obj
 0002:0000597c       ??_C@_0M@KFDPHLNE@target_kill?$AA@ 200b597c     g_spawn.obj
 0002:00005988       ??_C@_0BA@NENIEICJ@target_position?$AA@ 200b5988     g_spawn.obj
 0002:00005998       ??_C@_0BA@BFKBOHOP@target_location?$AA@ 200b5998     g_spawn.obj
 0002:000059a8       ??_C@_0M@NLNGBECJ@target_push?$AA@ 200b59a8     g_spawn.obj
 0002:000059b4       ??_C@_0BF@OMPOACGH@misc_teleporter_dest?$AA@ 200b59b4     g_spawn.obj
 0002:000059cc       ??_C@_0L@PMAFMKKM@misc_model?$AA@ 200b59cc     g_spawn.obj
 0002:000059d8       ??_C@_0BE@FCJPPDGO@misc_portal_surface?$AA@ 200b59d8     g_spawn.obj
 0002:000059ec       ??_C@_0BD@OJADMBDB@misc_portal_camera?$AA@ 200b59ec     g_spawn.obj
 0002:00005a00       ??_C@_0P@GNAFHBJH@shooter_rocket?$AA@ 200b5a00     g_spawn.obj
 0002:00005a10       ??_C@_0BA@MJCDAGHP@shooter_grenade?$AA@ 200b5a10     g_spawn.obj
 0002:00005a20       ??_C@_0P@KKMFIJKM@shooter_plasma?$AA@ 200b5a20     g_spawn.obj
 0002:00005a30       ??_C@_0BD@KLANHAKB@team_CTF_redplayer?$AA@ 200b5a30     g_spawn.obj
 0002:00005a44       ??_C@_0BE@COKGGHPD@team_CTF_blueplayer?$AA@ 200b5a44     g_spawn.obj
 0002:00005a58       ??_C@_0BC@KIKIBEND@team_CTF_redspawn?$AA@ 200b5a58     g_spawn.obj
 0002:00005a6c       ??_C@_0BD@GGIPJOIB@team_CTF_bluespawn?$AA@ 200b5a6c     g_spawn.obj
 0002:00005a80       ??_C@_0N@PAECNMEH@item_botroam?$AA@ 200b5a80     g_spawn.obj
 0002:00005a90       ??_C@_03PAEKGFEI@ffa?$AA@  200b5a90     g_spawn.obj
 0002:00005a94       ??_C@_0L@NCEPCFLK@tournament?$AA@ 200b5a94     g_spawn.obj
 0002:00005aa0       ??_C@_06EJFMBPJF@single?$AA@ 200b5aa0     g_spawn.obj
 0002:00005aa8       ??_C@_03JHHHHEKD@ctf?$AA@  200b5aa8     g_spawn.obj
 0002:00005aac       ??_C@_07BEINKNPB@oneflag?$AA@ 200b5aac     g_spawn.obj
 0002:00005ab4       ??_C@_07BNFEBHAE@obelisk?$AA@ 200b5ab4     g_spawn.obj
 0002:00005abc       ??_C@_09KFJDBEJE@harvester?$AA@ 200b5abc     g_spawn.obj
 0002:00005ac8       ??_C@_0P@IPNNKHAH@teamtournament?$AA@ 200b5ac8     g_spawn.obj
 0002:00005ad8       ??_C@_0BN@EMEGOFNC@G_CallSpawn?3?5NULL?5classname?6?$AA@ 200b5ad8     g_spawn.obj
 0002:00005af8       ??_C@_0CC@JNJOINHG@?$CFs?5doesn?8t?5have?5a?5spawn?5function@ 200b5af8     g_spawn.obj
 0002:00005b1c       ??_C@_09FDFEENEB@notsingle?$AA@ 200b5b1c     g_spawn.obj
 0002:00005b28       ??_C@_07CLBNBEAH@notteam?$AA@ 200b5b28     g_spawn.obj
 0002:00005b30       ??_C@_07DDCDJNBH@notfree?$AA@ 200b5b30     g_spawn.obj
 0002:00005b38       ??_C@_06MFKCCKGP@notq3a?$AA@ 200b5b38     g_spawn.obj
 0002:00005b40       ??_C@_08NJPDEKHO@gametype?$AA@ 200b5b40     g_spawn.obj
 0002:00005b4c       ??_C@_0CE@JHGDANIP@G_AddSpawnVarToken?3?5MAX_SPAWN_CH@ 200b5b4c     g_spawn.obj
 0002:00005b70       ??_C@_0CM@CKLLJIGA@G_ParseSpawnVars?3?5found?5?$CFs?5when?5@ 200b5b70     g_spawn.obj
 0002:00005b9c       ??_C@_0CM@DONEEOIH@G_ParseSpawnVars?3?5EOF?5without?5cl@ 200b5b9c     g_spawn.obj
 0002:00005bc8       ??_C@_0CN@NMMGIHBC@G_ParseSpawnVars?3?5closing?5brace?5@ 200b5bc8     g_spawn.obj
 0002:00005bf8       ??_C@_0CB@JFPBODJK@G_ParseSpawnVars?3?5MAX_SPAWN_VARS@ 200b5bf8     g_spawn.obj
 0002:00005c1c       ??_C@_0L@BIFLFHPF@worldspawn?$AA@ 200b5c1c     g_spawn.obj
 0002:00005c28       ??_C@_0DD@EBBCPGHA@SP_worldspawn?3?5The?5first?5entity?5@ 200b5c28     g_spawn.obj
 0002:00005c5c       ??_C@_08CCHPPKDI@baseq3?91?$AA@ 200b5c5c     g_spawn.obj
 0002:00005c68       ??_C@_05LLDJOKNO@music?$AA@ 200b5c68     g_spawn.obj
 0002:00005c70       ??_C@_07GFBFDLBM@gravity?$AA@ 200b5c70     g_spawn.obj
 0002:00005c78       ??_C@_0L@FLFKAOCP@enableDust?$AA@ 200b5c78     g_spawn.obj
 0002:00005c84       ??_C@_0N@CMGOADK@g_enableDust?$AA@ 200b5c84     g_spawn.obj
 0002:00005c94       ??_C@_0N@PNMKKPBO@enableBreath?$AA@ 200b5c94     g_spawn.obj
 0002:00005ca4       ??_C@_0P@INMNNPOJ@g_enableBreath?$AA@ 200b5ca4     g_spawn.obj
 0002:00005cb4       ??_C@_0BL@HLOLFMOK@SpawnEntities?3?5no?5entities?$AA@ 200b5cb4     g_spawn.obj
 0002:00005cd0       ??_C@_0BI@DIECJMKD@Bad?5filter?5address?3?5?$CFs?6?$AA@ 200b5cd0     g_svcmds.obj
 0002:00005ce8       ??_C@_01NBENCBCI@?$CK?$AA@ 200b5ce8     g_svcmds.obj
 0002:00005cec       ??_C@_01LFCBOECM@?4?$AA@   200b5cec     g_svcmds.obj
 0002:00005cf0       ??_C@_0CO@DILFDDOI@g_banIPs?5overflowed?5at?5MAX_CVAR_@ 200b5cf0     g_svcmds.obj
 0002:00005d20       ??_C@_0BI@LMFPAHLD@IP?5filter?5list?5is?5full?6?$AA@ 200b5d20     g_svcmds.obj
 0002:00005d38       ??_C@_0BJ@LEBLJMPE@Usage?3?5?5addip?5?$DMip?9mask?$DO?6?$AA@ 200b5d38     g_svcmds.obj
 0002:00005d54       ??_C@_0BP@OJMGJOKB@Usage?3?5?5sv?5removeip?5?$DMip?9mask?$DO?6?$AA@ 200b5d54     g_svcmds.obj
 0002:00005d74       ??_C@_09HBKBHJKE@Removed?4?6?$AA@ 200b5d74     g_svcmds.obj
 0002:00005d80       ??_C@_0BB@DFCHPNBP@Didn?8t?5find?5?$CFs?4?6?$AA@ 200b5d80     g_svcmds.obj
 0002:00005d94       ??_C@_04LAMNNBAP@?$CF3i?3?$AA@ 200b5d94     g_svcmds.obj
 0002:00005d9c       ??_C@_0BF@GBIOGILC@ET_GENERAL?5?5?5?5?5?5?5?5?5?5?$AA@ 200b5d9c     g_svcmds.obj
 0002:00005db4       ??_C@_0BF@GHCCJGLD@ET_PLAYER?5?5?5?5?5?5?5?5?5?5?5?$AA@ 200b5db4     g_svcmds.obj
 0002:00005dcc       ??_C@_0BF@IIDKJKIF@ET_ITEM?5?5?5?5?5?5?5?5?5?5?5?5?5?$AA@ 200b5dcc     g_svcmds.obj
 0002:00005de4       ??_C@_0BF@JMOJKPHI@ET_MISSILE?5?5?5?5?5?5?5?5?5?5?$AA@ 200b5de4     g_svcmds.obj
 0002:00005dfc       ??_C@_0BF@CKCOPBOH@ET_MOVER?5?5?5?5?5?5?5?5?5?5?5?5?$AA@ 200b5dfc     g_svcmds.obj
 0002:00005e14       ??_C@_0BF@DBCLPHFC@ET_BEAM?5?5?5?5?5?5?5?5?5?5?5?5?5?$AA@ 200b5e14     g_svcmds.obj
 0002:00005e2c       ??_C@_0BF@FABEBACG@ET_PORTAL?5?5?5?5?5?5?5?5?5?5?5?$AA@ 200b5e2c     g_svcmds.obj
 0002:00005e44       ??_C@_0BF@JKKJEPNL@ET_SPEAKER?5?5?5?5?5?5?5?5?5?5?$AA@ 200b5e44     g_svcmds.obj
 0002:00005e5c       ??_C@_0BF@JCJGMGAM@ET_PUSH_TRIGGER?5?5?5?5?5?$AA@ 200b5e5c     g_svcmds.obj
 0002:00005e74       ??_C@_0BF@KNGJOHIC@ET_TELEPORT_TRIGGER?5?$AA@ 200b5e74     g_svcmds.obj
 0002:00005e8c       ??_C@_0BF@FONFEMNK@ET_INVISIBLE?5?5?5?5?5?5?5?5?$AA@ 200b5e8c     g_svcmds.obj
 0002:00005ea4       ??_C@_0BF@JEKJFFDI@ET_GRAPPLE?5?5?5?5?5?5?5?5?5?5?$AA@ 200b5ea4     g_svcmds.obj
 0002:00005ebc       ??_C@_0BF@HIBFLMFA@?$CF3i?5?5?5?5?5?5?5?5?5?5?5?5?5?5?5?5?5?$AA@ 200b5ebc     g_svcmds.obj
 0002:00005ed4       ??_C@_01EEMJAFIK@?6?$AA@   200b5ed4     g_svcmds.obj
 0002:00005ed8       ??_C@_0BF@BEBENGBA@Bad?5client?5slot?3?5?$CFi?6?$AA@ 200b5ed8     g_svcmds.obj
 0002:00005ef0       ??_C@_0BM@KMBENOOM@Client?5?$CFi?5is?5not?5connected?6?$AA@ 200b5ef0     g_svcmds.obj
 0002:00005f0c       ??_C@_0BO@DPIFHGAP@User?5?$CFs?5is?5not?5on?5the?5server?6?$AA@ 200b5f0c     g_svcmds.obj
 0002:00005f2c       ??_C@_0L@CLDMIJOM@entitylist?$AA@ 200b5f2c     g_svcmds.obj
 0002:00005f38       ??_C@_09NGKIAGHE@forceteam?$AA@ 200b5f38     g_svcmds.obj
 0002:00005f44       ??_C@_0M@OOGGMGEK@game_memory?$AA@ 200b5f44     g_svcmds.obj
 0002:00005f50       ??_C@_06CJHCPEHG@addbot?$AA@ 200b5f50     g_svcmds.obj
 0002:00005f58       ??_C@_07OCFGLMLF@botlist?$AA@ 200b5f58     g_svcmds.obj
 0002:00005f60       ??_C@_0N@EKGBLHCI@abort_podium?$AA@ 200b5f60     g_svcmds.obj
 0002:00005f70       ??_C@_05DNFKLKCD@addip?$AA@ 200b5f70     g_svcmds.obj
 0002:00005f78       ??_C@_08FODIKFHA@removeip?$AA@ 200b5f78     g_svcmds.obj
 0002:00005f84       ??_C@_06DDGIHMAP@listip?$AA@ 200b5f84     g_svcmds.obj
 0002:00005f8c       ??_C@_09DNOCIDID@g_banIPs?6?$AA@ 200b5f8c     g_svcmds.obj
 0002:00005f98       ??_C@_0BD@OKBENEII@print?5?$CCserver?3?5?$CFs?$CC?$AA@ 200b5f98     g_svcmds.obj
 0002:00005fac       ??_C@_05EKJCMADO@delay?$AA@ 200b5fac     g_target.obj
 0002:00005fb4       ??_C@_07PCJFOBJC@cp?5?$CC?$CFs?$CC?$AA@ 200b5fb4     g_target.obj
 0002:00005fbc       ??_C@_07FGPCJFED@NOSOUND?$AA@ 200b5fbc     g_target.obj
 0002:00005fc4       ??_C@_0CJ@MCNLAIAG@target_speaker?5without?5a?5noise?5k@ 200b5fc4     g_target.obj
 0002:00005ff0       ??_C@_04IBLEHOMF@?4wav?$AA@ 200b5ff0     g_target.obj
 0002:00005ff8       ??_C@_06MKMJDPPC@?$CFs?4wav?$AA@ 200b5ff8     g_target.obj
 0002:00006000       ??_C@_0BO@JBAPADMO@?$CFs?5at?5?$CFs?3?5?$CFs?5is?5a?5bad?5target?6?$AA@ 200b6000     g_target.obj
 0002:00006020       ??_C@_0CG@NCOEMBAJ@Couldn?8t?5find?5teleporter?5destina@ 200b6020     g_target.obj
 0002:00006048       ??_C@_0BF@CCKDOAMJ@untargeted?5?$CFs?5at?5?$CFs?6?$AA@ 200b6048     g_target.obj
 0002:00006060       ??_C@_07CIFAGBMG@unknown?$AA@ 200b6060     g_target.obj
 0002:00006068       __real@45000000            200b6068     g_target.obj
 0002:0000606c       ??_C@_03FNPLCCOA@RED?$AA@  200b606c     g_team.obj
 0002:00006070       ??_C@_04CNFFLDFF@BLUE?$AA@ 200b6070     g_team.obj
 0002:00006078       ??_C@_09GNDCBOBP@SPECTATOR?$AA@ 200b6078     g_team.obj
 0002:00006084       ??_C@_04HEDFJGEJ@FREE?$AA@ 200b6084     g_team.obj
 0002:0000608c       ??_C@_02KAMBCCOF@?$FO1?$AA@ 200b608c     g_team.obj
 0002:00006090       ??_C@_02NNLGNGKA@?$FO4?$AA@ 200b6090     g_team.obj
 0002:00006094       ??_C@_02JCPHEAGH@?$FO3?$AA@ 200b6094     g_team.obj
 0002:00006098       ??_C@_02PGJLIFGD@?$FO7?$AA@ 200b6098     g_team.obj
 0002:0000609c       ??_C@_0BB@GAGKBLAF@PrintMsg?5overrun?$AA@ 200b609c     g_team.obj
 0002:000060b0       ??_C@_0CB@KOPONFBB@?$CFs?$FO7?5fragged?5?$CFs?8s?5flag?5carrier?$CB?6@ 200b60b0     g_team.obj
 0002:000060d4       ??_C@_0CC@MJFJLHGN@?$CFs?$FO7?5fragged?5?$CFs?8s?5skull?5carrier?$CB@ 200b60d4     g_team.obj
 0002:000060f8       ??_C@_0BF@NFGOPKAE@team_CTF_neutralflag?$AA@ 200b60f8     g_team.obj
 0002:00006110       ??_C@_0CP@OBNDLAL@Warning?3?5?5NULL?5passed?5to?5Team_Re@ 200b6110     g_team.obj
 0002:00006140       ??_C@_0CN@EPFNCNCH@Warning?3?5?5NULL?5passed?5to?5Team_Ta@ 200b6140     g_team.obj
 0002:00006170       ??_C@_0DA@ICMFPMGB@Warning?3?5?5NULL?5passed?5to?5Team_Ca@ 200b6170     g_team.obj
 0002:000061a0       ??_C@_0BI@KNNACEDO@The?5flag?5has?5returned?$CB?6?$AA@ 200b61a0     g_team.obj
 0002:000061b8       ??_C@_0BL@EJNDMGGL@The?5?$CFs?5flag?5has?5returned?$CB?6?$AA@ 200b61b8     g_team.obj
 0002:000061d4       ??_C@_0BM@BDFECDMG@?$CFs?$FO7?5returned?5the?5?$CFs?5flag?$CB?6?$AA@ 200b61d4     g_team.obj
 0002:000061f0       ??_C@_0BM@NKAOENPK@?$CFs?$FO7?5captured?5the?5?$CFs?5flag?$CB?6?$AA@ 200b61f0     g_team.obj
 0002:0000620c       ??_C@_0BH@PJAKMCBO@?$CFs?$FO7?5got?5the?5?$CFs?5flag?$CB?6?$AA@ 200b620c     g_team.obj
 0002:00006224       ??_C@_0CG@PMIHGLOD@Don?8t?5know?5what?5team?5the?5flag?5is@ 200b6224     g_team.obj
 0002:0000624c       ??_C@_08BKJPOMKC@?$CFc?$CFc?$CFs?$FO7?$AA@ 200b624c     g_team.obj
 0002:00006258       ??_C@_0BD@FAPFLCHD@?5?$CFi?5?$CFi?5?$CFi?5?$CFi?5?$CFi?5?$CFi?$AA@ 200b6258     g_team.obj
 0002:0000626c       ??_C@_0M@PHDLOMHJ@tinfo?5?$CFi?5?$CFs?$AA@ 200b626c     g_team.obj
 0002:00006278       __real@45fa0000            200b6278     g_team.obj
 0002:0000627c       __real@4d400000            200b627c     g_team.obj
 0002:00006280       __real@c0a00000            200b6280     g_team.obj
 0002:00006284       ??_C@_03LOHCHBBO@0?45?$AA@ 200b6284     g_trigger.obj
 0002:00006288       ??_C@_0CF@LENMBBGI@trigger_multiple?5has?5random?5?$DO?$DN?5w@ 200b6288     g_trigger.obj
 0002:000062b0       ??_C@_0BI@DGLBHPLI@sound?1world?1jumppad?4wav?$AA@ 200b62b0     g_trigger.obj
 0002:000062c8       ??_C@_0BH@FEKNGHLG@sound?1misc?1windfly?4wav?$AA@ 200b62c8     g_trigger.obj
 0002:000062e0       ??_C@_0BI@KPLPFMKN@sound?1world?1electro?4wav?$AA@ 200b62e0     g_trigger.obj
 0002:000062f8       ??_C@_0CF@GJKCPHON@func_timer?5at?5?$CFs?5has?5random?5?$DO?$DN?5w@ 200b62f8     g_trigger.obj
 0002:00006320       ??_C@_0N@MLGFLFEI@?$CFs?$DN?$CFs?3?$CF5?42f?$EA?$AA@ 200b6320     g_utils.obj
 0002:00006330       ??_C@_0CC@KBENIHEG@G_FindConfigstringIndex?3?5overflo@ 200b6330     g_utils.obj
 0002:00006354       ??_C@_0CK@JOENGKNM@G_PickTarget?5called?5with?5NULL?5ta@ 200b6354     g_utils.obj
 0002:00006380       ??_C@_0CD@HHFHMIIH@G_PickTarget?3?5target?5?$CFs?5not?5foun@ 200b6380     g_utils.obj
 0002:000063a4       ??_C@_0BO@JIDGNOMJ@WARNING?3?5Entity?5used?5itself?4?6?$AA@ 200b63a4     g_utils.obj
 0002:000063c4       ??_C@_0CI@HMPHOHE@entity?5was?5removed?5while?5using?5t@ 200b63c4     g_utils.obj
 0002:000063ec       ??_C@_0L@OPPGOKFJ@?$CI?$CFi?5?$CFi?5?$CFi?$CJ?$AA@ 200b63ec     g_utils.obj
 0002:000063f8       ??_C@_07CBNPCFPB@noclass?$AA@ 200b63f8     g_utils.obj
 0002:00006400       ??_C@_0BK@OECJBIJE@G_Spawn?3?5no?5free?5entities?$AA@ 200b6400     g_utils.obj
 0002:0000641c       ??_C@_05FAPHKBON@freed?$AA@ 200b641c     g_utils.obj
 0002:00006424       ??_C@_0L@CPIFJPHE@tempEntity?$AA@ 200b6424     g_utils.obj
 0002:00006430       ??_C@_0CM@MOJHPIKM@G_AddEvent?3?5zero?5event?5added?5for@ 200b6430     g_utils.obj
 0002:00006460       __real@400921fb60000000    200b6460     g_utils.obj
 0002:00006468       __real@bfefae147ae147ae    200b6468     g_utils.obj
 0002:00006470       __real@4030000000000000    200b6470     g_weapon.obj
 0002:00006478       __real@41600000            200b6478     g_weapon.obj
 0002:0000647c       __real@44400000            200b647c     g_weapon.obj
 0002:00006480       __real@46000000            200b6480     g_weapon.obj
 0002:00006484       __real@48000000            200b6484     g_weapon.obj
 0002:00006488       ??_C@_1FK@EEFABLJJ@?$AAe?$AA?3?$AA?2?$AAg?$AAi?$AAt?$AAh?$AAu?$AAb?$AA?2?$AAq?$AAu?$AAa?$AAk?$AAe?$AA?9?$AAi?$AAi?$AAi?$AA?9?$AAa?$AAr?$AAe?$AAn?$AAa?$AA?2?$AAc?$AAo?$AAd?$AAe?$AA?2?$AAg@ 200b6488     q_math.obj
 0002:000064e4       ??_C@_1DE@EJPCDGJI@?$AAQ?$AA_?$AAf?$AAa?$AAb?$AAs?$AA?$CI?$AAi?$AAn?$AAv?$AA_?$AAd?$AAe?$AAn?$AAo?$AAm?$AA?$CJ?$AA?5?$AA?$CB?$AA?$DN?$AA?5?$AA0?$AA?4?$AA0?$AAf?$AA?$AA@ 200b64e4     q_math.obj
 0002:00006518       __real@3c8efa35            200b6518     q_math.obj
 0002:0000651c       __real@3fc00000            200b651c     q_math.obj
 0002:00006520       __real@4066c16c16c16c17    200b6520     q_math.obj
 0002:00006528       __real@c7c34f80            200b6528     q_math.obj
 0002:00006530       __xmm@80000000000000008000000000000000 200b6530     q_math.obj
 0002:00006540       ??_C@_04HDOCAJNK@?$CFs?$CFs?$AA@ 200b6540     q_shared.obj
 0002:00006548       ??_C@_0BI@KPLEBEJF@ERROR?3?5?$CFs?0?5line?5?$CFd?3?5?$CFs?6?$AA@ 200b6548     q_shared.obj
 0002:00006560       ??_C@_0BK@DJMKDJBL@WARNING?3?5?$CFs?0?5line?5?$CFd?3?5?$CFs?6?$AA@ 200b6560     q_shared.obj
 0002:0000657c       ??_C@_0BF@BFEJCABG@MatchToken?3?5?$CFs?5?$CB?$DN?5?$CFs?$AA@ 200b657c     q_shared.obj
 0002:00006594       ??_C@_01ODHLEDKK@?$CI?$AA@ 200b6594     q_shared.obj
 0002:00006598       ??_C@_01PKGAHCOL@?$CJ?$AA@ 200b6598     q_shared.obj
 0002:0000659c       ??_C@_0BG@EKAPNPCH@Q_strncpyz?3?5NULL?5dest?$AA@ 200b659c     q_shared.obj
 0002:000065b4       ??_C@_0BF@BJHHBLMD@Q_strncpyz?3?5NULL?5src?$AA@ 200b65b4     q_shared.obj
 0002:000065cc       ??_C@_0BJ@OLBOPICM@Q_strncpyz?3?5destsize?5?$DM?51?$AA@ 200b65cc     q_shared.obj
 0002:000065e8       ??_C@_0BN@EFOOAHFL@Q_strcat?3?5already?5overflowed?$AA@ 200b65e8     q_shared.obj
 0002:00006608       ??_C@_0CC@GMEFDOKA@Com_sprintf?3?5overflowed?5bigbuffe@ 200b6608     q_shared.obj
 0002:0000662c       ??_C@_0CD@GIPJKOOD@Com_sprintf?3?5overflow?5of?5?$CFi?5in?5?$CF@ 200b662c     q_shared.obj
 0002:00006650       ??_C@_0CG@FLHABLN@Info_ValueForKey?3?5oversize?5infos@ 200b6650     q_shared.obj
 0002:00006678       ??_C@_0CE@HMPLGKDK@Info_RemoveKey?3?5oversize?5infostr@ 200b6678     q_shared.obj
 0002:0000669c       ??_C@_0CI@CPIEPBLO@Info_RemoveKey_Big?3?5oversize?5inf@ 200b669c     q_shared.obj
 0002:000066c4       ??_C@_0CJ@CEEBDGNA@Info_SetValueForKey?3?5oversize?5in@ 200b66c4     q_shared.obj
 0002:000066f0       ??_C@_0CD@JIDDAEOO@Can?8t?5use?5keys?5or?5values?5with?5a?5@ 200b66f0     q_shared.obj
 0002:00006714       ??_C@_0CL@JCFAGLFD@Can?8t?5use?5keys?5or?5values?5with?5a?5@ 200b6714     q_shared.obj
 0002:00006740       ??_C@_0CD@MGFMEBLE@Can?8t?5use?5keys?5or?5values?5with?5a?5@ 200b6740     q_shared.obj
 0002:00006764       ??_C@_06NELKLDPM@?2?$CFs?2?$CFs?$AA@ 200b6764     q_shared.obj
 0002:0000676c       ??_C@_0BN@CAOBGKLE@Info?5string?5length?5exceeded?6?$AA@ 200b676c     q_shared.obj
 0002:0000678c       ??_C@_0CB@EMDOOGBI@BIG?5Info?5string?5length?5exceeded?6@ 200b678c     q_shared.obj
 0002:000067b8       __FPinit                   200b67b8     LIBCMTD:fpinit.obj
 0002:000067bc       ?ProcessDetach@NativeDll@<CrtImplementationDetails>@@0IB 200b67bc     LIBCMTD:atof.obj
 0002:000067c0       ?ProcessAttach@NativeDll@<CrtImplementationDetails>@@0IB 200b67c0     LIBCMTD:atof.obj
 0002:000067c4       ?ThreadAttach@NativeDll@<CrtImplementationDetails>@@0IB 200b67c4     LIBCMTD:atof.obj
 0002:000067c8       ?ThreadDetach@NativeDll@<CrtImplementationDetails>@@0IB 200b67c8     LIBCMTD:atof.obj
 0002:000067cc       ?ProcessVerifier@NativeDll@<CrtImplementationDetails>@@0IB 200b67cc     LIBCMTD:atof.obj
 0002:000067d0       ??_C@_1BK@LAOAACLJ@?$AAn?$AAp?$AAt?$AAr?$AA?5?$AA?$CB?$AA?$DN?$AA?5?$AAN?$AAU?$AAL?$AAL?$AA?$AA@ 200b67d0     LIBCMTD:atof.obj
 0002:000067ec       ??_C@_15GANGMFKL@?$AA?$CF?$AAs?$AA?$AA@ 200b67ec     LIBCMTD:atof.obj
 0002:000067f8       ??_C@_1FA@HGHEMCII@?$AAf?$AA?3?$AA?2?$AAd?$AAd?$AA?2?$AAv?$AAc?$AAt?$AAo?$AAo?$AAl?$AAs?$AA?2?$AAc?$AAr?$AAt?$AA?2?$AAc?$AAr?$AAt?$AAw?$AA3?$AA2?$AA?2?$AAc?$AAo?$AAn?$AAv?$AAe?$AAr?$AAt@ 200b67f8     LIBCMTD:atof.obj
 0002:00006848       ??_C@_1BA@NJCJMLHI@?$AA_?$AAa?$AAt?$AAo?$AAf?$AA_?$AAl?$AA?$AA@ 200b6848     LIBCMTD:atof.obj
 0002:00006858       ??_C@_1CC@OLIJCKA@?$AA?$CI?$AAs?$AAt?$AAr?$AAi?$AAn?$AAg?$AA?5?$AA?$CB?$AA?$DN?$AA?5?$AAN?$AAU?$AAL?$AAL?$AA?$CJ?$AA?$AA@ 200b6858     LIBCMTD:sscanf.obj
 0002:00006880       ??_C@_1FA@LIFAAFAC@?$AAf?$AA?3?$AA?2?$AAd?$AAd?$AA?2?$AAv?$AAc?$AAt?$AAo?$AAo?$AAl?$AAs?$AA?2?$AAc?$AAr?$AAt?$AA?2?$AAc?$AAr?$AAt?$AAw?$AA3?$AA2?$AA?2?$AAs?$AAt?$AAd?$AAi?$AAo?$AA?2?$AAs@ 200b6880     LIBCMTD:sscanf.obj
 0002:000068d0       ??_C@_1BC@KMGJCMNP@?$AAv?$AAs?$AAc?$AAa?$AAn?$AA_?$AAf?$AAn?$AA?$AA@ 200b68d0     LIBCMTD:sscanf.obj
 0002:000068e4       ??_C@_1CC@MGIEJOME@?$AA?$CI?$AAf?$AAo?$AAr?$AAm?$AAa?$AAt?$AA?5?$AA?$CB?$AA?$DN?$AA?5?$AAN?$AAU?$AAL?$AAL?$AA?$CJ?$AA?$AA@ 200b68e4     LIBCMTD:sscanf.obj
 0002:00006908       ??_C@_1FE@CKCGICM@?$AAf?$AA?3?$AA?2?$AAd?$AAd?$AA?2?$AAv?$AAc?$AAt?$AAo?$AAo?$AAl?$AAs?$AA?2?$AAc?$AAr?$AAt?$AA?2?$AAc?$AAr?$AAt?$AAw?$AA3?$AA2?$AA?2?$AAs?$AAt?$AAd?$AAi?$AAo?$AA?2?$AAv@ 200b6908     LIBCMTD:vsprintf.obj
 0002:0000695c       ??_C@_1BI@IGILPKD@?$AA_?$AAv?$AAs?$AAp?$AAr?$AAi?$AAn?$AAt?$AAf?$AA_?$AAl?$AA?$AA@ 200b695c     LIBCMTD:vsprintf.obj
 0002:00006974       ??_C@_1CE@HMKDJHB@?$AA_?$AAv?$AAs?$AAc?$AAp?$AAr?$AAi?$AAn?$AAt?$AAf?$AA_?$AAh?$AAe?$AAl?$AAp?$AAe?$AAr?$AA?$AA@ 200b6974     LIBCMTD:vsprintf.obj
 0002:000069e8       ??_C@_1DC@HAGCIKOA@?$AAb?$AAa?$AAs?$AAe?$AA?5?$AA?$CB?$AA?$DN?$AA?5?$AAN?$AAU?$AAL?$AAL?$AA?5?$AA?$HM?$AA?$HM?$AA?5?$AAn?$AAu?$AAm?$AA?5?$AA?$DN?$AA?$DN?$AA?5?$AA0?$AA?$AA@ 200b69e8     LIBCMTD:qsort.obj
 0002:00006a20       ??_C@_1EM@MCNFEMJ@?$AAf?$AA?3?$AA?2?$AAd?$AAd?$AA?2?$AAv?$AAc?$AAt?$AAo?$AAo?$AAl?$AAs?$AA?2?$AAc?$AAr?$AAt?$AA?2?$AAc?$AAr?$AAt?$AAw?$AA3?$AA2?$AA?2?$AAm?$AAi?$AAs?$AAc?$AA?2?$AAq?$AAs@ 200b6a20     LIBCMTD:qsort.obj
 0002:00006a6c       ??_C@_1M@INMHODIG@?$AAq?$AAs?$AAo?$AAr?$AAt?$AA?$AA@ 200b6a6c     LIBCMTD:qsort.obj
 0002:00006a78       ??_C@_1BE@NJBEBBME@?$AAw?$AAi?$AAd?$AAt?$AAh?$AA?5?$AA?$DO?$AA?5?$AA0?$AA?$AA@ 200b6a78     LIBCMTD:qsort.obj
 0002:00006a8c       ??_C@_1BK@HJGMBFLF@?$AAc?$AAo?$AAm?$AAp?$AA?5?$AA?$CB?$AA?$DN?$AA?5?$AAN?$AAU?$AAL?$AAL?$AA?$AA@ 200b6a8c     LIBCMTD:qsort.obj
 0002:00006aa8       ??_C@_17LGKOMLJ@?$AA?4?$AA?4?$AA?4?$AA?$AA@ 200b6aa8     LIBCMTD:wassert.obj
 0002:00006ab0       ??_C@_13LBAGMAIH@?$AA?6?$AA?$AA@ 200b6ab0     LIBCMTD:wassert.obj
 0002:00006ab4       ??_C@_15IABLJNFO@?$AA?6?$AA?6?$AA?$AA@ 200b6ab4     LIBCMTD:wassert.obj
 0002:00006ac0       ??_C@_1EO@DPPHNOPL@?$AAf?$AA?3?$AA?2?$AAd?$AAd?$AA?2?$AAv?$AAc?$AAt?$AAo?$AAo?$AAl?$AAs?$AA?2?$AAc?$AAr?$AAt?$AA?2?$AAc?$AAr?$AAt?$AAw?$AA3?$AA2?$AA?2?$AAm?$AAi?$AAs?$AAc?$AA?2?$AAa?$AAs@ 200b6ac0     LIBCMTD:wassert.obj
 0002:00006b10       ??_C@_1BC@LNOOMFNA@?$AA_?$AAw?$AAa?$AAs?$AAs?$AAe?$AAr?$AAt?$AA?$AA@ 200b6b10     LIBCMTD:wassert.obj
 0002:00006b28       ??_C@_1GM@PANFFKAD@?$AAw?$AAc?$AAs?$AAc?$AAp?$AAy?$AA_?$AAs?$AA?$CI?$AA?5?$AAa?$AAs?$AAs?$AAe?$AAr?$AAt?$AAb?$AAu?$AAf?$AA?0?$AA?5?$AA?$CI?$AA6?$AA4?$AA?5?$AA?$CK?$AA?5?$AA9?$AA?$CJ?$AA?0?$AA?5?$AAL@ 200b6b28     LIBCMTD:wassert.obj
 0002:00006b94       ??_C@_1CE@OJBNHDMO@?$AAA?$AAs?$AAs?$AAe?$AAr?$AAt?$AAi?$AAo?$AAn?$AA?5?$AAf?$AAa?$AAi?$AAl?$AAe?$AAd?$AA?$CB?$AA?$AA@ 200b6b94     LIBCMTD:wassert.obj
 0002:00006bb8       ??_C@_1FI@OJONHFCN@?$AAw?$AAc?$AAs?$AAc?$AAa?$AAt?$AA_?$AAs?$AA?$CI?$AA?5?$AAa?$AAs?$AAs?$AAe?$AAr?$AAt?$AAb?$AAu?$AAf?$AA?0?$AA?5?$AA?$CI?$AA6?$AA4?$AA?5?$AA?$CK?$AA?5?$AA9?$AA?$CJ?$AA?0?$AA?5?$AAd@ 200b6bb8     LIBCMTD:wassert.obj
 0002:00006c10       ??_C@_1FM@JONFCKBO@?$AAw?$AAc?$AAs?$AAc?$AAa?$AAt?$AA_?$AAs?$AA?$CI?$AA?5?$AAa?$AAs?$AAs?$AAe?$AAr?$AAt?$AAb?$AAu?$AAf?$AA?0?$AA?5?$AA?$CI?$AA6?$AA4?$AA?5?$AA?$CK?$AA?5?$AA9?$AA?$CJ?$AA?0?$AA?5?$AAL@ 200b6c10     LIBCMTD:wassert.obj
 0002:00006c6c       ??_C@_1BE@PHKBBGE@?$AAP?$AAr?$AAo?$AAg?$AAr?$AAa?$AAm?$AA?3?$AA?5?$AA?$AA@ 200b6c6c     LIBCMTD:wassert.obj
 0002:00006c80       ??_C@_1HA@EPFCONEE@?$AAw?$AAc?$AAs?$AAc?$AAp?$AAy?$AA_?$AAs?$AA?$CI?$AA?5?$AAp?$AAr?$AAo?$AAg?$AAn?$AAa?$AAm?$AAe?$AA?0?$AA?5?$AA2?$AA6?$AA0?$AA?5?$AA?$CL?$AA?5?$AA1?$AA?0?$AA?5?$AAL?$AA?$CC?$AA?$DM@ 200b6c80     LIBCMTD:wassert.obj
 0002:00006cf0       ??_C@_1CO@EAEJAADC@?$AA?$DM?$AAp?$AAr?$AAo?$AAg?$AAr?$AAa?$AAm?$AA?5?$AAn?$AAa?$AAm?$AAe?$AA?5?$AAu?$AAn?$AAk?$AAn?$AAo?$AAw?$AAn?$AA?$DO?$AA?$AA@ 200b6cf0     LIBCMTD:wassert.obj
 0002:00006d20       ??_C@_1LK@LGFOFOMH@?$AAm?$AAe?$AAm?$AAc?$AAp?$AAy?$AA_?$AAs?$AA?$CI?$AAp?$AAc?$AAh?$AA?0?$AA?5?$AAs?$AAi?$AAz?$AAe?$AAo?$AAf?$AA?$CI?$AAT?$AAC?$AAH?$AAA?$AAR?$AA?$CJ?$AA?5?$AA?$CK?$AA?5?$AA?$CI?$AA?$CI@ 200b6d20     LIBCMTD:wassert.obj
 0002:00006de0       ??_C@_1EK@BFAHOLDO@?$AAw?$AAc?$AAs?$AAc?$AAa?$AAt?$AA_?$AAs?$AA?$CI?$AA?5?$AAa?$AAs?$AAs?$AAe?$AAr?$AAt?$AAb?$AAu?$AAf?$AA?0?$AA?5?$AA?$CI?$AA6?$AA4?$AA?5?$AA?$CK?$AA?5?$AA9?$AA?$CJ?$AA?0?$AA?5?$AAp@ 200b6de0     LIBCMTD:wassert.obj
 0002:00006e30       ??_C@_1FC@GNPGDADJ@?$AAw?$AAc?$AAs?$AAc?$AAa?$AAt?$AA_?$AAs?$AA?$CI?$AA?5?$AAa?$AAs?$AAs?$AAe?$AAr?$AAt?$AAb?$AAu?$AAf?$AA?0?$AA?5?$AA?$CI?$AA6?$AA4?$AA?5?$AA?$CK?$AA?5?$AA9?$AA?$CJ?$AA?0?$AA?5?$AAn@ 200b6e30     LIBCMTD:wassert.obj
 0002:00006e88       ??_C@_1FG@NHACFNEK@?$AAw?$AAc?$AAs?$AAc?$AAa?$AAt?$AA_?$AAs?$AA?$CI?$AA?5?$AAa?$AAs?$AAs?$AAe?$AAr?$AAt?$AAb?$AAu?$AAf?$AA?0?$AA?5?$AA?$CI?$AA6?$AA4?$AA?5?$AA?$CK?$AA?5?$AA9?$AA?$CJ?$AA?0?$AA?5?$AAL@ 200b6e88     LIBCMTD:wassert.obj
 0002:00006ee0       ??_C@_1O@HEMHKNDC@?$AAF?$AAi?$AAl?$AAe?$AA?3?$AA?5?$AA?$AA@ 200b6ee0     LIBCMTD:wassert.obj
 0002:00006ef0       ??_C@_1GG@PKOIFPHI@?$AAw?$AAc?$AAs?$AAn?$AAc?$AAa?$AAt?$AA_?$AAs?$AA?$CI?$AA?5?$AAa?$AAs?$AAs?$AAe?$AAr?$AAt?$AAb?$AAu?$AAf?$AA?0?$AA?5?$AA?$CI?$AA6?$AA4?$AA?5?$AA?$CK?$AA?5?$AA9?$AA?$CJ?$AA?0?$AA?5@ 200b6ef0     LIBCMTD:wassert.obj
 0002:00006f58       ??_C@_1FG@PLMFGJFG@?$AAw?$AAc?$AAs?$AAc?$AAa?$AAt?$AA_?$AAs?$AA?$CI?$AA?5?$AAa?$AAs?$AAs?$AAe?$AAr?$AAt?$AAb?$AAu?$AAf?$AA?0?$AA?5?$AA?$CI?$AA6?$AA4?$AA?5?$AA?$CK?$AA?5?$AA9?$AA?$CJ?$AA?0?$AA?5?$AAd@ 200b6f58     LIBCMTD:wassert.obj
 0002:00006fb0       ??_C@_1FO@HPHMICDB@?$AAw?$AAc?$AAs?$AAc?$AAa?$AAt?$AA_?$AAs?$AA?$CI?$AA?5?$AAa?$AAs?$AAs?$AAe?$AAr?$AAt?$AAb?$AAu?$AAf?$AA?0?$AA?5?$AA?$CI?$AA6?$AA4?$AA?5?$AA?$CK?$AA?5?$AA9?$AA?$CJ?$AA?0?$AA?5?$AAp@ 200b6fb0     LIBCMTD:wassert.obj
 0002:00007010       ??_C@_1GO@KNIHEHNA@?$AAw?$AAc?$AAs?$AAn?$AAc?$AAa?$AAt?$AA_?$AAs?$AA?$CI?$AA?5?$AAa?$AAs?$AAs?$AAe?$AAr?$AAt?$AAb?$AAu?$AAf?$AA?0?$AA?5?$AA?$CI?$AA6?$AA4?$AA?5?$AA?$CK?$AA?5?$AA9?$AA?$CJ?$AA?0?$AA?5@ 200b7010     LIBCMTD:wassert.obj
 0002:00007080       ??_C@_1HG@FHHFPPED@?$AAw?$AAc?$AAs?$AAn?$AAc?$AAa?$AAt?$AA_?$AAs?$AA?$CI?$AA?5?$AAa?$AAs?$AAs?$AAe?$AAr?$AAt?$AAb?$AAu?$AAf?$AA?0?$AA?5?$AA?$CI?$AA6?$AA4?$AA?5?$AA?$CK?$AA?5?$AA9?$AA?$CJ?$AA?0?$AA?5@ 200b7080     LIBCMTD:wassert.obj
 0002:000070f8       ??_C@_1IC@JGCGJJHO@?$AAw?$AAc?$AAs?$AAc?$AAa?$AAt?$AA_?$AAs?$AA?$CI?$AA?5?$AAa?$AAs?$AAs?$AAe?$AAr?$AAt?$AAb?$AAu?$AAf?$AA?0?$AA?5?$AA?$CI?$AA6?$AA4?$AA?5?$AA?$CK?$AA?5?$AA9?$AA?$CJ?$AA?0?$AA?5?$AAp@ 200b70f8     LIBCMTD:wassert.obj
 0002:00007180       ??_C@_1FE@NDOBOCBD@?$AAw?$AAc?$AAs?$AAc?$AAa?$AAt?$AA_?$AAs?$AA?$CI?$AA?5?$AAa?$AAs?$AAs?$AAe?$AAr?$AAt?$AAb?$AAu?$AAf?$AA?0?$AA?5?$AA?$CI?$AA6?$AA4?$AA?5?$AA?$CK?$AA?5?$AA9?$AA?$CJ?$AA?0?$AA?5?$AAf@ 200b7180     LIBCMTD:wassert.obj
 0002:000071d8       ??_C@_1FG@HLHNIBH@?$AAw?$AAc?$AAs?$AAc?$AAa?$AAt?$AA_?$AAs?$AA?$CI?$AA?5?$AAa?$AAs?$AAs?$AAe?$AAr?$AAt?$AAb?$AAu?$AAf?$AA?0?$AA?5?$AA?$CI?$AA6?$AA4?$AA?5?$AA?$CK?$AA?5?$AA9?$AA?$CJ?$AA?0?$AA?5?$AAL@ 200b71d8     LIBCMTD:wassert.obj
 0002:00007230       ??_C@_1O@KCAFKHJE@?$AAL?$AAi?$AAn?$AAe?$AA?3?$AA?5?$AA?$AA@ 200b7230     LIBCMTD:wassert.obj
 0002:00007240       ??_C@_1KG@NJJPHNOK@?$AA_?$AAi?$AAt?$AAo?$AAw?$AA_?$AAs?$AA?$CI?$AA?5?$AAl?$AAi?$AAn?$AAe?$AAn?$AAo?$AA?0?$AA?5?$AAa?$AAs?$AAs?$AAe?$AAr?$AAt?$AAb?$AAu?$AAf?$AA?5?$AA?$CL?$AA?5?$AAw?$AAc?$AAs@ 200b7240     LIBCMTD:wassert.obj
 0002:000072e8       ??_C@_1GC@CFDADAM@?$AAw?$AAc?$AAs?$AAc?$AAa?$AAt?$AA_?$AAs?$AA?$CI?$AA?5?$AAa?$AAs?$AAs?$AAe?$AAr?$AAt?$AAb?$AAu?$AAf?$AA?0?$AA?5?$AA?$CI?$AA6?$AA4?$AA?5?$AA?$CK?$AA?5?$AA9?$AA?$CJ?$AA?0?$AA?5?$AAL@ 200b72e8     LIBCMTD:wassert.obj
 0002:0000734c       ??_C@_1BK@PEDCIPMA@?$AAE?$AAx?$AAp?$AAr?$AAe?$AAs?$AAs?$AAi?$AAo?$AAn?$AA?3?$AA?5?$AA?$AA@ 200b734c     LIBCMTD:wassert.obj
 0002:00007368       ??_C@_1CHM@HIHGOMKE@?$AAw?$AAc?$AAs?$AAn?$AAc?$AAa?$AAt?$AA_?$AAs?$AA?$CI?$AA?5?$AAa?$AAs?$AAs?$AAe?$AAr?$AAt?$AAb?$AAu?$AAf?$AA?0?$AA?5?$AA?$CI?$AA6?$AA4?$AA?5?$AA?$CK?$AA?5?$AA9?$AA?$CJ?$AA?0?$AA?5@ 200b7368     LIBCMTD:wassert.obj
 0002:000075e8       ??_C@_1EM@DAMJKKKC@?$AAw?$AAc?$AAs?$AAc?$AAa?$AAt?$AA_?$AAs?$AA?$CI?$AA?5?$AAa?$AAs?$AAs?$AAe?$AAr?$AAt?$AAb?$AAu?$AAf?$AA?0?$AA?5?$AA?$CI?$AA6?$AA4?$AA?5?$AA?$CK?$AA?5?$AA9?$AA?$CJ?$AA?0?$AA?5?$AAe@ 200b75e8     LIBCMTD:wassert.obj
 0002:00007638       ??_C@_1BCO@GAGHDLIF@?$AAw?$AAc?$AAs?$AAc?$AAa?$AAt?$AA_?$AAs?$AA?$CI?$AAa?$AAs?$AAs?$AAe?$AAr?$AAt?$AAb?$AAu?$AAf?$AA?0?$AA?5?$AA?$CI?$AA6?$AA4?$AA?5?$AA?$CK?$AA?5?$AA9?$AA?$CJ?$AA?0?$AA?5?$AAL?$AA?$CC@ 200b7638     LIBCMTD:wassert.obj
 0002:00007768       ??_C@_1OA@EGMLFBHJ@?$AAF?$AAo?$AAr?$AA?5?$AAi?$AAn?$AAf?$AAo?$AAr?$AAm?$AAa?$AAt?$AAi?$AAo?$AAn?$AA?5?$AAo?$AAn?$AA?5?$AAh?$AAo?$AAw?$AA?5?$AAy?$AAo?$AAu?$AAr?$AA?5?$AAp?$AAr?$AAo?$AAg@ 200b7768     LIBCMTD:wassert.obj
 0002:00007848       ??_C@_1FG@IFIHHMNM@?$AAw?$AAc?$AAs?$AAc?$AAa?$AAt?$AA_?$AAs?$AA?$CI?$AAa?$AAs?$AAs?$AAe?$AAr?$AAt?$AAb?$AAu?$AAf?$AA?0?$AA?5?$AA?$CI?$AA6?$AA4?$AA?5?$AA?$CK?$AA?5?$AA9?$AA?$CJ?$AA?0?$AA?5?$AAd?$AAb@ 200b7848     LIBCMTD:wassert.obj
 0002:000078a0       ??_C@_1LO@CHAFGADE@?$AAw?$AAc?$AAs?$AAc?$AAa?$AAt?$AA_?$AAs?$AA?$CI?$AAa?$AAs?$AAs?$AAe?$AAr?$AAt?$AAb?$AAu?$AAf?$AA?0?$AA?5?$AA?$CI?$AA6?$AA4?$AA?5?$AA?$CK?$AA?5?$AA9?$AA?$CJ?$AA?0?$AA?5?$AAL?$AA?$CC@ 200b78a0     LIBCMTD:wassert.obj
 0002:00007960       ??_C@_1HK@POCJMFGK@?$AA?$CI?$AAP?$AAr?$AAe?$AAs?$AAs?$AA?5?$AAR?$AAe?$AAt?$AAr?$AAy?$AA?5?$AAt?$AAo?$AA?5?$AAd?$AAe?$AAb?$AAu?$AAg?$AA?5?$AAt?$AAh?$AAe?$AA?5?$AAa?$AAp?$AAp?$AAl?$AAi?$AAc@ 200b7960     LIBCMTD:wassert.obj
 0002:000079e0       ??_C@_1EK@MBDPDCGA@?$AAM?$AAi?$AAc?$AAr?$AAo?$AAs?$AAo?$AAf?$AAt?$AA?5?$AAV?$AAi?$AAs?$AAu?$AAa?$AAl?$AA?5?$AAC?$AA?$CL?$AA?$CL?$AA?5?$AAR?$AAu?$AAn?$AAt?$AAi?$AAm?$AAe?$AA?5?$AAL?$AAi?$AAb@ 200b79e0     LIBCMTD:wassert.obj
 0002:00007a2c       __pRawDllMain              200b7a2c     LIBCMTD:dllcrt0.obj
 0002:00007a2c       __pDefaultRawDllMain       200b7a2c     LIBCMTD:dllcrt0.obj
 0002:00007a30       ??_C@_0CL@OOIKPIHN@f?3?2dd?2vctools?2crt?2crtw32?2startup@ 200b7a30     LIBCMTD:dllcrt0.obj
 0002:00007a5c       ??_C@_1BK@MGMFAEKH@?$AAk?$AAe?$AAr?$AAn?$AAe?$AAl?$AA3?$AA2?$AA?4?$AAd?$AAl?$AAl?$AA?$AA@ 200b7a5c     LIBCMTD:winapisupp.obj
 0002:00007a78       ??_C@_08KNHFBNJ@FlsAlloc?$AA@ 200b7a78     LIBCMTD:winapisupp.obj
 0002:00007a84       ??_C@_07PEJMOBNF@FlsFree?$AA@ 200b7a84     LIBCMTD:winapisupp.obj
 0002:00007a8c       ??_C@_0M@GDNOONDI@FlsGetValue?$AA@ 200b7a8c     LIBCMTD:winapisupp.obj
 0002:00007a98       ??_C@_0M@JCPCPOEF@FlsSetValue?$AA@ 200b7a98     LIBCMTD:winapisupp.obj
 0002:00007aa4       ??_C@_0BM@HCFOFFN@InitializeCriticalSectionEx?$AA@ 200b7aa4     LIBCMTD:winapisupp.obj
 0002:00007ac0       ??_C@_0P@DLHPPCNH@CreateEventExW?$AA@ 200b7ac0     LIBCMTD:winapisupp.obj
 0002:00007ad0       ??_C@_0BD@KIEEOEEH@CreateSemaphoreExW?$AA@ 200b7ad0     LIBCMTD:winapisupp.obj
 0002:00007ae4       ??_C@_0BI@BKLFFAPO@SetThreadStackGuarantee?$AA@ 200b7ae4     LIBCMTD:winapisupp.obj
 0002:00007afc       ??_C@_0BG@OGFAJCKC@CreateThreadpoolTimer?$AA@ 200b7afc     LIBCMTD:winapisupp.obj
 0002:00007b14       ??_C@_0BD@LPLEMMDI@SetThreadpoolTimer?$AA@ 200b7b14     LIBCMTD:winapisupp.obj
 0002:00007b28       ??_C@_0CA@FMNJENH@WaitForThreadpoolTimerCallbacks?$AA@ 200b7b28     LIBCMTD:winapisupp.obj
 0002:00007b48       ??_C@_0BF@DCFCCNOC@CloseThreadpoolTimer?$AA@ 200b7b48     LIBCMTD:winapisupp.obj
 0002:00007b60       ??_C@_0BF@FLABGKKM@CreateThreadpoolWait?$AA@ 200b7b60     LIBCMTD:winapisupp.obj
 0002:00007b78       ??_C@_0BC@MGCOHNA@SetThreadpoolWait?$AA@ 200b7b78     LIBCMTD:winapisupp.obj
 0002:00007b8c       ??_C@_0BE@OCIOMIMP@CloseThreadpoolWait?$AA@ 200b7b8c     LIBCMTD:winapisupp.obj
 0002:00007ba0       ??_C@_0BJ@LKGHFHBO@FlushProcessWriteBuffers?$AA@ 200b7ba0     LIBCMTD:winapisupp.obj
 0002:00007bbc       ??_C@_0BP@KALKKPMO@FreeLibraryWhenCallbackReturns?$AA@ 200b7bbc     LIBCMTD:winapisupp.obj
 0002:00007bdc       ??_C@_0BK@DFNBACLA@GetCurrentProcessorNumber?$AA@ 200b7bdc     LIBCMTD:winapisupp.obj
 0002:00007bf8       ??_C@_0BP@KHGALBC@GetLogicalProcessorInformation?$AA@ 200b7bf8     LIBCMTD:winapisupp.obj
 0002:00007c18       ??_C@_0BE@FKKLLFLM@CreateSymbolicLinkW?$AA@ 200b7c18     LIBCMTD:winapisupp.obj
 0002:00007c2c       ??_C@_0BJ@OHNKDLIJ@SetDefaultDllDirectories?$AA@ 200b7c2c     LIBCMTD:winapisupp.obj
 0002:00007c48       ??_C@_0BE@LJANKFHF@EnumSystemLocalesEx?$AA@ 200b7c48     LIBCMTD:winapisupp.obj
 0002:00007c5c       ??_C@_0BA@IHGNDAEB@CompareStringEx?$AA@ 200b7c5c     LIBCMTD:winapisupp.obj
 0002:00007c6c       ??_C@_0BA@EPCJIIPD@GetDateFormatEx?$AA@ 200b7c6c     LIBCMTD:winapisupp.obj
 0002:00007c7c       ??_C@_0BA@ONOKGCMP@GetLocaleInfoEx?$AA@ 200b7c7c     LIBCMTD:winapisupp.obj
 0002:00007c8c       ??_C@_0BA@CIJJKCJJ@GetTimeFormatEx?$AA@ 200b7c8c     LIBCMTD:winapisupp.obj
 0002:00007c9c       ??_C@_0BJ@PBCCBIPI@GetUserDefaultLocaleName?$AA@ 200b7c9c     LIBCMTD:winapisupp.obj
 0002:00007cb8       ??_C@_0BC@CELBKLLA@IsValidLocaleName?$AA@ 200b7cb8     LIBCMTD:winapisupp.obj
 0002:00007ccc       ??_C@_0O@KKBNKAPF@LCMapStringEx?$AA@ 200b7ccc     LIBCMTD:winapisupp.obj
 0002:00007cdc       ??_C@_0BE@JOGNEJCI@GetCurrentPackageId?$AA@ 200b7cdc     LIBCMTD:winapisupp.obj
 0002:00007cf0       ??_C@_0P@CDHHOHKP@GetTickCount64?$AA@ 200b7cf0     LIBCMTD:winapisupp.obj
 0002:00007d00       ??_C@_0BO@KPCLFDJJ@GetFileInformationByHandleExW?$AA@ 200b7d00     LIBCMTD:winapisupp.obj
 0002:00007d20       ??_C@_0BM@MHIDLABK@SetFileInformationByHandleW?$AA@ 200b7d20     LIBCMTD:winapisupp.obj
 0002:00007d40       ??_C@_1FE@JDMNKKN@?$AAf?$AA?3?$AA?2?$AAd?$AAd?$AA?2?$AAv?$AAc?$AAt?$AAo?$AAo?$AAl?$AAs?$AA?2?$AAc?$AAr?$AAt?$AA?2?$AAc?$AAr?$AAt?$AAw?$AA3?$AA2?$AA?2?$AAc?$AAo?$AAn?$AAv?$AAe?$AAr?$AAt@ 200b7d40     LIBCMTD:strtoq.obj
 0002:00007d94       ??_C@_1BA@BMMDEPNE@?$AAs?$AAt?$AAr?$AAt?$AAo?$AAx?$AAq?$AA?$AA@ 200b7d94     LIBCMTD:strtoq.obj
 0002:00007da8       ??_C@_1FE@CEHLKAHD@?$AAi?$AAb?$AAa?$AAs?$AAe?$AA?5?$AA?$DN?$AA?$DN?$AA?5?$AA0?$AA?5?$AA?$HM?$AA?$HM?$AA?5?$AA?$CI?$AA2?$AA?5?$AA?$DM?$AA?$DN?$AA?5?$AAi?$AAb?$AAa?$AAs?$AAe?$AA?5?$AA?$CG?$AA?$CG?$AA?5?$AAi?$AAb?$AAa@ 200b7da8     LIBCMTD:strtoq.obj
 0002:00007e00       ??_C@_1FE@OOICPOFH@?$AAf?$AA?3?$AA?2?$AAd?$AAd?$AA?2?$AAv?$AAc?$AAt?$AAo?$AAo?$AAl?$AAs?$AA?2?$AAc?$AAr?$AAt?$AA?2?$AAc?$AAr?$AAt?$AAw?$AA3?$AA2?$AA?2?$AAc?$AAo?$AAn?$AAv?$AAe?$AAr?$AAt@ 200b7e00     LIBCMTD:strtol.obj
 0002:00007e54       ??_C@_1BA@LOLAMAJG@?$AAs?$AAt?$AAr?$AAt?$AAo?$AAx?$AAl?$AA?$AA@ 200b7e54     LIBCMTD:strtol.obj
 0002:00007e64       ??_C@_0CM@KPPOKOAI@f?3?2dd?2vctools?2crt?2crtw32?2startup@ 200b7e64     LIBCMTD:tidtable.obj
 0002:00007e90       ??_C@_1BI@ICGGMGLK@?$AAb?$AAu?$AAf?$AA?5?$AA?$CB?$AA?$DN?$AA?5?$AAN?$AAU?$AAL?$AAL?$AA?$AA@ 200b7e90     LIBCMTD:cvt.obj
 0002:00007ea8       ??_C@_1EG@OHONNKNN@?$AAf?$AA?3?$AA?2?$AAd?$AAd?$AA?2?$AAv?$AAc?$AAt?$AAo?$AAo?$AAl?$AAs?$AA?2?$AAc?$AAr?$AAt?$AA?2?$AAf?$AAp?$AAw?$AA3?$AA2?$AA?2?$AAc?$AAo?$AAn?$AAv?$AA?2?$AAc?$AAv?$AAt@ 200b7ea8     LIBCMTD:cvt.obj
 0002:00007ef0       ??_C@_1BE@OLBNEILL@?$AA_?$AAc?$AAf?$AAt?$AAo?$AAe?$AA2?$AA_?$AAl?$AA?$AA@ 200b7ef0     LIBCMTD:cvt.obj
 0002:00007f04       ??_C@_1CA@CBMNPEO@?$AAs?$AAi?$AAz?$AAe?$AAI?$AAn?$AAB?$AAy?$AAt?$AAe?$AAs?$AA?5?$AA?$DO?$AA?5?$AA0?$AA?$AA@ 200b7f04     LIBCMTD:cvt.obj
 0002:00007f28       ??_C@_1HE@NACBNDPP@?$AAs?$AAi?$AAz?$AAe?$AAI?$AAn?$AAB?$AAy?$AAt?$AAe?$AAs?$AA?5?$AA?$DO?$AA?5?$AA?$CI?$AAs?$AAi?$AAz?$AAe?$AA_?$AAt?$AA?$CJ?$AA?$CI?$AA3?$AA?5?$AA?$CL?$AA?5?$AA?$CI?$AAn?$AAd?$AAe?$AAc@ 200b7f28     LIBCMTD:cvt.obj
 0002:00007fa0       ??_C@_1LE@EOIFGNCJ@?$AAs?$AAt?$AAr?$AAc?$AAp?$AAy?$AA_?$AAs?$AA?$CI?$AAp?$AA?0?$AA?5?$AA?$CI?$AAs?$AAi?$AAz?$AAe?$AAI?$AAn?$AAB?$AAy?$AAt?$AAe?$AAs?$AA?5?$AA?$DN?$AA?$DN?$AA?5?$AA?$CI?$AAs?$AAi?$AAz@ 200b7fa0     LIBCMTD:cvt.obj
 0002:00008054       ??_C@_05KLBDPFGC@e?$CL000?$AA@ 200b8054     LIBCMTD:cvt.obj
 0002:0000805c       ??_C@_1BC@INKAPMHI@?$AA_?$AAc?$AAf?$AAt?$AAo?$AAe?$AA_?$AAl?$AA?$AA@ 200b805c     LIBCMTD:cvt.obj
 0002:00008070       ??_C@_1BC@JOKPCIC@?$AA_?$AAc?$AAf?$AAt?$AAo?$AAa?$AA_?$AAl?$AA?$AA@ 200b8070     LIBCMTD:cvt.obj
 0002:00008088       ??_C@_1FC@IKIMAMJB@?$AAs?$AAi?$AAz?$AAe?$AAI?$AAn?$AAB?$AAy?$AAt?$AAe?$AAs?$AA?5?$AA?$DO?$AA?5?$AA?$CI?$AAs?$AAi?$AAz?$AAe?$AA_?$AAt?$AA?$CJ?$AA?$CI?$AA1?$AA?5?$AA?$CL?$AA?5?$AA4?$AA?5?$AA?$CL?$AA?5?$AAn@ 200b8088     LIBCMTD:cvt.obj
 0002:000080dc       ??_C@_1BE@CKPDLI@?$AA_?$AAc?$AAf?$AAt?$AAo?$AAf?$AA2?$AA_?$AAl?$AA?$AA@ 200b80dc     LIBCMTD:cvt.obj
 0002:000080f0       ??_C@_1BC@DCPPLJL@?$AA_?$AAc?$AAf?$AAt?$AAo?$AAf?$AA_?$AAl?$AA?$AA@ 200b80f0     LIBCMTD:cvt.obj
 0002:00008104       ??_C@_1BC@MPIFPLAF@?$AA_?$AAc?$AAf?$AAt?$AAo?$AAg?$AA_?$AAl?$AA?$AA@ 200b8104     LIBCMTD:cvt.obj
 0002:00008118       ??_C@_1FI@JJOJLGLE@?$AAf?$AA?3?$AA?2?$AAd?$AAd?$AA?2?$AAv?$AAc?$AAt?$AAo?$AAo?$AAl?$AAs?$AA?2?$AAc?$AAr?$AAt?$AA?2?$AAc?$AAr?$AAt?$AAw?$AA3?$AA2?$AA?2?$AAs?$AAt?$AAa?$AAr?$AAt?$AAu?$AAp@ 200b8118     LIBCMTD:fp8.obj
 0002:00008170       ??_C@_1CK@JMKHCBEI@?$AA_?$AAs?$AAe?$AAt?$AAd?$AAe?$AAf?$AAa?$AAu?$AAl?$AAt?$AAp?$AAr?$AAe?$AAc?$AAi?$AAs?$AAi?$AAo?$AAn?$AA?$AA@ 200b8170     LIBCMTD:fp8.obj
 0002:000081a0       ??_C@_1GE@KOCFNGPB@?$AA_?$AAc?$AAo?$AAn?$AAt?$AAr?$AAo?$AAl?$AAf?$AAp?$AA_?$AAs?$AA?$CI?$AA?$CI?$AA?$CI?$AAv?$AAo?$AAi?$AAd?$AA?5?$AA?$CK?$AA?$CJ?$AA0?$AA?$CJ?$AA?0?$AA?5?$AA0?$AAx?$AA0?$AA0?$AA0?$AA1@ 200b81a0     LIBCMTD:fp8.obj
 0002:00008210       __indefinite               200b8210     LIBCMTD:87disp.obj
 0002:0000821a       __piby2                    200b821a     LIBCMTD:87disp.obj
 0002:00008248       __DEFAULT_CW_in_mem        200b8248     LIBCMTD:common.obj
 0002:0000824a       __pi_by_2_to_61            200b824a     LIBCMTD:common.obj
 0002:00008284       ??_C@_1BO@LKEBEKJP@?$AAp?$AAV?$AAa?$AAl?$AAu?$AAe?$AA?5?$AA?$CB?$AA?$DN?$AA?5?$AAN?$AAU?$AAL?$AAL?$AA?$AA@ 200b8284     LIBCMTD:dosmap.obj
 0002:000082a8       ??_C@_1EM@IOHICOCC@?$AAf?$AA?3?$AA?2?$AAd?$AAd?$AA?2?$AAv?$AAc?$AAt?$AAo?$AAo?$AAl?$AAs?$AA?2?$AAc?$AAr?$AAt?$AA?2?$AAc?$AAr?$AAt?$AAw?$AA3?$AA2?$AA?2?$AAd?$AAo?$AAs?$AA?2?$AAd?$AAo?$AAs@ 200b82a8     LIBCMTD:dosmap.obj
 0002:000082f4       ??_C@_1BG@KCMPBBDK@?$AA_?$AAg?$AAe?$AAt?$AA_?$AAe?$AAr?$AAr?$AAn?$AAo?$AA?$AA@ 200b82f4     LIBCMTD:dosmap.obj
 0002:0000830c       ??_C@_1BM@INIPHHDD@?$AA_?$AAg?$AAe?$AAt?$AA_?$AAd?$AAo?$AAs?$AAe?$AAr?$AAr?$AAn?$AAo?$AA?$AA@ 200b830c     LIBCMTD:dosmap.obj
 0002:00008328       ??_C@_1CA@MBDBOHIB@?$AA_?$AAL?$AAo?$AAc?$AAa?$AAl?$AAe?$AA?5?$AA?$CB?$AA?$DN?$AA?5?$AAN?$AAU?$AAL?$AAL?$AA?$AA@ 200b8328     LIBCMTD:strgtold.obj
 0002:00008348       ??_C@_1FO@OFJNJPKB@?$AAf?$AA?3?$AA?2?$AAd?$AAd?$AA?2?$AAv?$AAc?$AAt?$AAo?$AAo?$AAl?$AAs?$AA?2?$AAc?$AAr?$AAt?$AA?2?$AAf?$AAp?$AAw?$AA3?$AA2?$AA?2?$AAi?$AAn?$AAc?$AAl?$AAu?$AAd?$AAe?$AA?2@ 200b8348     LIBCMTD:strgtold.obj
 0002:000083a8       ??_C@_1BO@IHLJHOPI@?$AA_?$AA_?$AAs?$AAt?$AAr?$AAg?$AAt?$AAo?$AAl?$AAd?$AA1?$AA2?$AA_?$AAl?$AA?$AA@ 200b83a8     LIBCMTD:strgtold.obj
 0002:000083c8       ??_C@_1BJK@FEBNHLFF@?$AA?$CI?$AA?$CI?$AAp?$AAt?$AAl?$AAo?$AAc?$AAi?$AA?9?$AA?$DO?$AAl?$AAc?$AA_?$AAc?$AAa?$AAt?$AAe?$AAg?$AAo?$AAr?$AAy?$AA?$FL?$AAc?$AAa?$AAt?$AAe?$AAg?$AAo?$AAr?$AAy?$AA?$FN?$AA?4@ 200b83c8     LIBCMTD:localref.obj
 0002:00008568       ??_C@_1FC@HINIIGNO@?$AAf?$AA?3?$AA?2?$AAd?$AAd?$AA?2?$AAv?$AAc?$AAt?$AAo?$AAo?$AAl?$AAs?$AA?2?$AAc?$AAr?$AAt?$AA?2?$AAc?$AAr?$AAt?$AAw?$AA3?$AA2?$AA?2?$AAm?$AAi?$AAs?$AAc?$AA?2?$AAl?$AAo@ 200b8568     LIBCMTD:localref.obj
 0002:000085cc       ??_C@_1M@HPNHIDJI@?$AAj?$AAa?$AA?9?$AAJ?$AAP?$AA?$AA@ 200b85cc     LIBCMTD:mbctype.obj
 0002:000085d8       ??_C@_1M@BIBDDEMK@?$AAz?$AAh?$AA?9?$AAC?$AAN?$AA?$AA@ 200b85d8     LIBCMTD:mbctype.obj
 0002:000085e4       ??_C@_1M@JLOOOEGK@?$AAk?$AAo?$AA?9?$AAK?$AAR?$AA?$AA@ 200b85e4     LIBCMTD:mbctype.obj
 0002:000085f0       ??_C@_1M@CLNBBOPM@?$AAz?$AAh?$AA?9?$AAT?$AAW?$AA?$AA@ 200b85f0     LIBCMTD:mbctype.obj
 0002:000085fc       ??_C@_0CM@BEDCPGGG@f?3?2dd?2vctools?2crt?2crtw32?2mbstrin@ 200b85fc     LIBCMTD:mbctype.obj
 0002:00008628       ??_C@_1CI@JELMFMDH@?$AAc?$AA?5?$AA?$DO?$AA?$DN?$AA?5?$AA?9?$AA1?$AA?5?$AA?$CG?$AA?$CG?$AA?5?$AAc?$AA?5?$AA?$DM?$AA?$DN?$AA?5?$AA2?$AA5?$AA5?$AA?$AA@ 200b8628     LIBCMTD:isctype.obj
 0002:00008650       ??_C@_1FG@IBFIOCOE@?$AAf?$AA?3?$AA?2?$AAd?$AAd?$AA?2?$AAv?$AAc?$AAt?$AAo?$AAo?$AAl?$AAs?$AA?2?$AAc?$AAr?$AAt?$AA?2?$AAc?$AAr?$AAt?$AAw?$AA3?$AA2?$AA?2?$AAc?$AAo?$AAn?$AAv?$AAe?$AAr?$AAt@ 200b8650     LIBCMTD:isctype.obj
 0002:000086b4       ??_C@_1BA@GLMCNLEM@?$AAW?$AAa?$AAr?$AAn?$AAi?$AAn?$AAg?$AA?$AA@ 200b86b4     LIBCMTD:dbgrptw.obj
 0002:000086c4       ??_C@_1M@ILHOPKA@?$AAE?$AAr?$AAr?$AAo?$AAr?$AA?$AA@ 200b86c4     LIBCMTD:dbgrptw.obj
 0002:000086d0       ??_C@_1CC@CGHMNGDG@?$AAA?$AAs?$AAs?$AAe?$AAr?$AAt?$AAi?$AAo?$AAn?$AA?5?$AAF?$AAa?$AAi?$AAl?$AAe?$AAd?$AA?$AA@ 200b86d0     LIBCMTD:dbgrptw.obj
 0002:000086f8       ??_C@_1HI@OFEHGPPC@?$AAm?$AAo?$AAd?$AAe?$AA?5?$AA?$DN?$AA?$DN?$AA?5?$AA_?$AAC?$AAR?$AAT?$AA_?$AAR?$AAP?$AAT?$AAH?$AAO?$AAO?$AAK?$AA_?$AAI?$AAN?$AAS?$AAT?$AAA?$AAL?$AAL?$AA?5?$AA?$HM?$AA?$HM?$AA?5@ 200b86f8     LIBCMTD:dbgrptw.obj
 0002:00008770       ??_C@_1EO@JACJHHCK@?$AAf?$AA?3?$AA?2?$AAd?$AAd?$AA?2?$AAv?$AAc?$AAt?$AAo?$AAo?$AAl?$AAs?$AA?2?$AAc?$AAr?$AAt?$AA?2?$AAc?$AAr?$AAt?$AAw?$AA3?$AA2?$AA?2?$AAm?$AAi?$AAs?$AAc?$AA?2?$AAd?$AAb@ 200b8770     LIBCMTD:dbgrptw.obj
 0002:000087c0       ??_C@_1CI@IIHEAKEI@?$AA_?$AAC?$AAr?$AAt?$AAS?$AAe?$AAt?$AAR?$AAe?$AAp?$AAo?$AAr?$AAt?$AAH?$AAo?$AAo?$AAk?$AAW?$AA2?$AA?$AA@ 200b87c0     LIBCMTD:dbgrptw.obj
 0002:000087e8       ??_C@_1CG@JBJEFOCM@?$AAp?$AAf?$AAn?$AAN?$AAe?$AAw?$AAH?$AAo?$AAo?$AAk?$AA?5?$AA?$CB?$AA?$DN?$AA?5?$AAN?$AAU?$AAL?$AAL?$AA?$AA@ 200b87e8     LIBCMTD:dbgrptw.obj
 0002:00008810       ??_C@_1FI@PHIAFFHM@?$AA?$CI?$AA?$CC?$AAT?$AAh?$AAe?$AA?5?$AAh?$AAo?$AAo?$AAk?$AA?5?$AAf?$AAu?$AAn?$AAc?$AAt?$AAi?$AAo?$AAn?$AA?5?$AAi?$AAs?$AA?5?$AAn?$AAo?$AAt?$AA?5?$AAi?$AAn?$AA?5?$AAt?$AAh@ 200b8810     LIBCMTD:dbgrptw.obj
 0002:00008868       ??_C@_0CH@BBGAHGHC@f?3?2dd?2vctools?2crt?2crtw32?2misc?2db@ 200b8868     LIBCMTD:dbgrptw.obj
 0002:00008890       ??_C@_1CI@PGJIFDEK@?$AA_?$AA_?$AAc?$AAr?$AAt?$AAM?$AAe?$AAs?$AAs?$AAa?$AAg?$AAe?$AAW?$AAi?$AAn?$AAd?$AAo?$AAw?$AAW?$AA?$AA@ 200b8890     LIBCMTD:dbgrptw.obj
 0002:000088b8       ??_C@_1GI@DEDNNLCI@?$AAw?$AAc?$AAs?$AAc?$AAp?$AAy?$AA_?$AAs?$AA?$CI?$AAs?$AAz?$AAE?$AAx?$AAe?$AAN?$AAa?$AAm?$AAe?$AA?0?$AA?5?$AA2?$AA6?$AA0?$AA?0?$AA?5?$AAL?$AA?$CC?$AA?$DM?$AAp?$AAr?$AAo?$AAg@ 200b88b8     LIBCMTD:dbgrptw.obj
 0002:00008920       ??_C@_1NO@LECLLHOL@?$AAm?$AAe?$AAm?$AAc?$AAp?$AAy?$AA_?$AAs?$AA?$CI?$AAs?$AAz?$AAS?$AAh?$AAo?$AAr?$AAt?$AAP?$AAr?$AAo?$AAg?$AAN?$AAa?$AAm?$AAe?$AA?0?$AA?5?$AAs?$AAi?$AAz?$AAe?$AAo?$AAf@ 200b8920     LIBCMTD:dbgrptw.obj
 0002:00008a00       ??_C@_1OG@PMPPFHAF@?$AA?6?$AA?6?$AAF?$AAo?$AAr?$AA?5?$AAi?$AAn?$AAf?$AAo?$AAr?$AAm?$AAa?$AAt?$AAi?$AAo?$AAn?$AA?5?$AAo?$AAn?$AA?5?$AAh?$AAo?$AAw?$AA?5?$AAy?$AAo?$AAu?$AAr?$AA?5?$AAp?$AAr@ 200b8a00     LIBCMTD:dbgrptw.obj
 0002:00008ae8       ??_C@_11LOCGONAA@?$AA?$AA@ 200b8ae8     LIBCMTD:dbgrptw.obj
 0002:00008aec       ??_C@_1BA@GLLGCPCK@?$AA?6?$AAL?$AAi?$AAn?$AAe?$AA?3?$AA?5?$AA?$AA@ 200b8aec     LIBCMTD:dbgrptw.obj
 0002:00008afc       ??_C@_1BA@LNHECFIM@?$AA?6?$AAF?$AAi?$AAl?$AAe?$AA?3?$AA?5?$AA?$AA@ 200b8afc     LIBCMTD:dbgrptw.obj
 0002:00008b0c       ??_C@_1BE@CGCJKGHI@?$AA?6?$AAM?$AAo?$AAd?$AAu?$AAl?$AAe?$AA?3?$AA?5?$AA?$AA@ 200b8b0c     LIBCMTD:dbgrptw.obj
 0002:00008b20       ??_C@_1KM@HNMIBKJH@?$AAD?$AAe?$AAb?$AAu?$AAg?$AA?5?$AA?$CF?$AAs?$AA?$CB?$AA?6?$AA?6?$AAP?$AAr?$AAo?$AAg?$AAr?$AAa?$AAm?$AA?3?$AA?5?$AA?$CF?$AAs?$AA?$CF?$AAs?$AA?$CF?$AAs?$AA?$CF?$AAs?$AA?$CF?$AAs?$AA?$CF?$AAs@ 200b8b20     LIBCMTD:dbgrptw.obj
 0002:00008bcc       ??_C@_1BI@KALLJECN@?$AA?$CI?$AA?$CK?$AA_?$AAe?$AAr?$AAr?$AAn?$AAo?$AA?$CI?$AA?$CJ?$AA?$CJ?$AA?$AA@ 200b8bcc     LIBCMTD:dbgrptw.obj
 0002:00008be8       ??_C@_1JI@EACPGHID@?$AAw?$AAc?$AAs?$AAc?$AAp?$AAy?$AA_?$AAs?$AA?$CI?$AAs?$AAz?$AAO?$AAu?$AAt?$AAM?$AAe?$AAs?$AAs?$AAa?$AAg?$AAe?$AA?0?$AA?5?$AA4?$AA0?$AA9?$AA6?$AA?0?$AA?5?$AAL?$AA?$CC?$AA_@ 200b8be8     LIBCMTD:dbgrptw.obj
 0002:00008c80       ??_C@_1FG@BBOLDHGF@?$AA_?$AAC?$AAr?$AAt?$AAD?$AAb?$AAg?$AAR?$AAe?$AAp?$AAo?$AAr?$AAt?$AA?3?$AA?5?$AAS?$AAt?$AAr?$AAi?$AAn?$AAg?$AA?5?$AAt?$AAo?$AAo?$AA?5?$AAl?$AAo?$AAn?$AAg?$AA?5?$AAo@ 200b8c80     LIBCMTD:dbgrptw.obj
 0002:00008cd8       ??_C@_03KOEHGMDN@Sun?$AA@  200b8cd8     LIBCMTD:nlsdata.obj
 0002:00008cdc       ??_C@_03PDAGKDH@Mon?$AA@   200b8cdc     LIBCMTD:nlsdata.obj
 0002:00008ce0       ??_C@_03NAGEINEP@Tue?$AA@  200b8ce0     LIBCMTD:nlsdata.obj
 0002:00008ce4       ??_C@_03MHOMLAJA@Wed?$AA@  200b8ce4     LIBCMTD:nlsdata.obj
 0002:00008ce8       ??_C@_03IOFIKPDN@Thu?$AA@  200b8ce8     LIBCMTD:nlsdata.obj
 0002:00008cec       ??_C@_03IDIOELNC@Fri?$AA@  200b8cec     LIBCMTD:nlsdata.obj
 0002:00008cf0       ??_C@_03FEFJNEK@Sat?$AA@   200b8cf0     LIBCMTD:nlsdata.obj
 0002:00008cf4       ??_C@_06OOPIFAJ@Sunday?$AA@ 200b8cf4     LIBCMTD:nlsdata.obj
 0002:00008cfc       ??_C@_06JLEDEDGH@Monday?$AA@ 200b8cfc     LIBCMTD:nlsdata.obj
 0002:00008d04       ??_C@_07BAAGCFCM@Tuesday?$AA@ 200b8d04     LIBCMTD:nlsdata.obj
 0002:00008d0c       ??_C@_09DLIGFAKA@Wednesday?$AA@ 200b8d0c     LIBCMTD:nlsdata.obj
 0002:00008d18       ??_C@_08HACCIKIA@Thursday?$AA@ 200b8d18     LIBCMTD:nlsdata.obj
 0002:00008d24       ??_C@_06JECMNKMI@Friday?$AA@ 200b8d24     LIBCMTD:nlsdata.obj
 0002:00008d2c       ??_C@_08INBOOONO@Saturday?$AA@ 200b8d2c     LIBCMTD:nlsdata.obj
 0002:00008d38       ??_C@_03JIHJHPIE@Jan?$AA@  200b8d38     LIBCMTD:nlsdata.obj
 0002:00008d3c       ??_C@_03HJBDCHOM@Feb?$AA@  200b8d3c     LIBCMTD:nlsdata.obj
 0002:00008d40       ??_C@_03ODNJBKGA@Mar?$AA@  200b8d40     LIBCMTD:nlsdata.obj
 0002:00008d44       ??_C@_03LEOLGMJP@Apr?$AA@  200b8d44     LIBCMTD:nlsdata.obj
 0002:00008d48       ??_C@_03CNMDKL@May?$AA@    200b8d48     LIBCMTD:nlsdata.obj
 0002:00008d4c       ??_C@_03IDFGHECI@Jun?$AA@  200b8d4c     LIBCMTD:nlsdata.obj
 0002:00008d50       ??_C@_03LBGABGKK@Jul?$AA@  200b8d50     LIBCMTD:nlsdata.obj
 0002:00008d54       ??_C@_03IFJFEIGA@Aug?$AA@  200b8d54     LIBCMTD:nlsdata.obj
 0002:00008d58       ??_C@_03GGCAPAJC@Sep?$AA@  200b8d58     LIBCMTD:nlsdata.obj
 0002:00008d5c       ??_C@_03BMAOKBAD@Oct?$AA@  200b8d5c     LIBCMTD:nlsdata.obj
 0002:00008d60       ??_C@_03JPJOFNIA@Nov?$AA@  200b8d60     LIBCMTD:nlsdata.obj
 0002:00008d64       ??_C@_03MKABNOCG@Dec?$AA@  200b8d64     LIBCMTD:nlsdata.obj
 0002:00008d68       ??_C@_07CGJPFGJA@January?$AA@ 200b8d68     LIBCMTD:nlsdata.obj
 0002:00008d70       ??_C@_08GNJGEPFN@February?$AA@ 200b8d70     LIBCMTD:nlsdata.obj
 0002:00008d7c       ??_C@_05HPCKOFNC@March?$AA@ 200b8d7c     LIBCMTD:nlsdata.obj
 0002:00008d84       ??_C@_05DMJDNLEJ@April?$AA@ 200b8d84     LIBCMTD:nlsdata.obj
 0002:00008d8c       ??_C@_04CNLMGBGM@June?$AA@ 200b8d8c     LIBCMTD:nlsdata.obj
 0002:00008d94       ??_C@_04MIEPOIFP@July?$AA@ 200b8d94     LIBCMTD:nlsdata.obj
 0002:00008d9c       ??_C@_06LBBHFDDG@August?$AA@ 200b8d9c     LIBCMTD:nlsdata.obj
 0002:00008da4       ??_C@_09BHHEALKD@September?$AA@ 200b8da4     LIBCMTD:nlsdata.obj
 0002:00008db0       ??_C@_07JJNFCEND@October?$AA@ 200b8db0     LIBCMTD:nlsdata.obj
 0002:00008db8       ??_C@_08HCHEGEOA@November?$AA@ 200b8db8     LIBCMTD:nlsdata.obj
 0002:00008dc4       ??_C@_08EDHMEBNP@December?$AA@ 200b8dc4     LIBCMTD:nlsdata.obj
 0002:00008dd0       ??_C@_02DEDBPAFC@AM?$AA@   200b8dd0     LIBCMTD:nlsdata.obj
 0002:00008dd4       ??_C@_02CJNFDJBF@PM?$AA@   200b8dd4     LIBCMTD:nlsdata.obj
 0002:00008dd8       ??_C@_08BPBNCDIB@MM?1dd?1yy?$AA@ 200b8dd8     LIBCMTD:nlsdata.obj
 0002:00008de4       ??_C@_0BE@CKGJFCPC@dddd?0?5MMMM?5dd?0?5yyyy?$AA@ 200b8de4     LIBCMTD:nlsdata.obj
 0002:00008df8       ??_C@_08JCCMCCIL@HH?3mm?3ss?$AA@ 200b8df8     LIBCMTD:nlsdata.obj
 0002:00008e04       ??_C@_17MBGCMIPB@?$AAS?$AAu?$AAn?$AA?$AA@ 200b8e04     LIBCMTD:nlsdata.obj
 0002:00008e0c       ??_C@_17KBOMKBF@?$AAM?$AAo?$AAn?$AA?$AA@ 200b8e0c     LIBCMTD:nlsdata.obj
 0002:00008e14       ??_C@_17BMKGEGOJ@?$AAT?$AAu?$AAe?$AA?$AA@ 200b8e14     LIBCMTD:nlsdata.obj
 0002:00008e1c       ??_C@_17CJEDCEPE@?$AAW?$AAe?$AAd?$AA?$AA@ 200b8e1c     LIBCMTD:nlsdata.obj
 0002:00008e24       ??_C@_17PDPHAADD@?$AAT?$AAh?$AAu?$AA?$AA@ 200b8e24     LIBCMTD:nlsdata.obj
 0002:00008e2c       ??_C@_17HFOLPPLP@?$AAF?$AAr?$AAi?$AA?$AA@ 200b8e2c     LIBCMTD:nlsdata.obj
 0002:00008e34       ??_C@_17GGIBDPIH@?$AAS?$AAa?$AAt?$AA?$AA@ 200b8e34     LIBCMTD:nlsdata.obj
 0002:00008e3c       ??_C@_1O@IHNHDHPB@?$AAS?$AAu?$AAn?$AAd?$AAa?$AAy?$AA?$AA@ 200b8e3c     LIBCMTD:nlsdata.obj
 0002:00008e4c       ??_C@_1O@MMNBFLIA@?$AAM?$AAo?$AAn?$AAd?$AAa?$AAy?$AA?$AA@ 200b8e4c     LIBCMTD:nlsdata.obj
 0002:00008e5c       ??_C@_1BA@ENFBFFEK@?$AAT?$AAu?$AAe?$AAs?$AAd?$AAa?$AAy?$AA?$AA@ 200b8e5c     LIBCMTD:nlsdata.obj
 0002:00008e6c       ??_C@_1BE@EBOGMDOH@?$AAW?$AAe?$AAd?$AAn?$AAe?$AAs?$AAd?$AAa?$AAy?$AA?$AA@ 200b8e6c     LIBCMTD:nlsdata.obj
 0002:00008e80       ??_C@_1BC@HHMNLIHE@?$AAT?$AAh?$AAu?$AAr?$AAs?$AAd?$AAa?$AAy?$AA?$AA@ 200b8e80     LIBCMTD:nlsdata.obj
 0002:00008e94       ??_C@_1O@PDICJHAG@?$AAF?$AAr?$AAi?$AAd?$AAa?$AAy?$AA?$AA@ 200b8e94     LIBCMTD:nlsdata.obj
 0002:00008ea4       ??_C@_1BC@ENMNNPAJ@?$AAS?$AAa?$AAt?$AAu?$AAr?$AAd?$AAa?$AAy?$AA?$AA@ 200b8ea4     LIBCMTD:nlsdata.obj
 0002:00008eb8       ??_C@_17DKNBKCHM@?$AAJ?$AAa?$AAn?$AA?$AA@ 200b8eb8     LIBCMTD:nlsdata.obj
 0002:00008ec0       ??_C@_17LMDJEKJN@?$AAF?$AAe?$AAb?$AA?$AA@ 200b8ec0     LIBCMTD:nlsdata.obj
 0002:00008ec8       ??_C@_17CKNLEDEC@?$AAM?$AAa?$AAr?$AA?$AA@ 200b8ec8     LIBCMTD:nlsdata.obj
 0002:00008ed0       ??_C@_17LFPOIHDD@?$AAA?$AAp?$AAr?$AA?$AA@ 200b8ed0     LIBCMTD:nlsdata.obj
 0002:00008ed8       ??_C@_17PNNKMEED@?$AAM?$AAa?$AAy?$AA?$AA@ 200b8ed8     LIBCMTD:nlsdata.obj
 0002:00008ee0       ??_C@_17KCJGOCPB@?$AAJ?$AAu?$AAn?$AA?$AA@ 200b8ee0     LIBCMTD:nlsdata.obj
 0002:00008ee8       ??_C@_17IJPCKHK@?$AAJ?$AAu?$AAl?$AA?$AA@ 200b8ee8     LIBCMTD:nlsdata.obj
 0002:00008ef0       ??_C@_17ICPELBCN@?$AAA?$AAu?$AAg?$AA?$AA@ 200b8ef0     LIBCMTD:nlsdata.obj
 0002:00008ef8       ??_C@_17HCHCOKMG@?$AAS?$AAe?$AAp?$AA?$AA@ 200b8ef8     LIBCMTD:nlsdata.obj
 0002:00008f00       ??_C@_17FNLKOI@?$AAO?$AAc?$AAt?$AA?$AA@ 200b8f00     LIBCMTD:nlsdata.obj
 0002:00008f08       ??_C@_17BBDMLCIG@?$AAN?$AAo?$AAv?$AA?$AA@ 200b8f08     LIBCMTD:nlsdata.obj
 0002:00008f10       ??_C@_17EGKACKIF@?$AAD?$AAe?$AAc?$AA?$AA@ 200b8f10     LIBCMTD:nlsdata.obj
 0002:00008f18       ??_C@_1BA@EFMEIEBA@?$AAJ?$AAa?$AAn?$AAu?$AAa?$AAr?$AAy?$AA?$AA@ 200b8f18     LIBCMTD:nlsdata.obj
 0002:00008f28       ??_C@_1BC@JGDDFFAM@?$AAF?$AAe?$AAb?$AAr?$AAu?$AAa?$AAr?$AAy?$AA?$AA@ 200b8f28     LIBCMTD:nlsdata.obj
 0002:00008f3c       ??_C@_1M@IKEENEDF@?$AAM?$AAa?$AAr?$AAc?$AAh?$AA?$AA@ 200b8f3c     LIBCMTD:nlsdata.obj
 0002:00008f48       ??_C@_1M@GJNLMHFD@?$AAA?$AAp?$AAr?$AAi?$AAl?$AA?$AA@ 200b8f48     LIBCMTD:nlsdata.obj
 0002:00008f54       ??_C@_19EPFLPGAP@?$AAJ?$AAu?$AAn?$AAe?$AA?$AA@ 200b8f54     LIBCMTD:nlsdata.obj
 0002:00008f60       ??_C@_19BIFMLPCD@?$AAJ?$AAu?$AAl?$AAy?$AA?$AA@ 200b8f60     LIBCMTD:nlsdata.obj
 0002:00008f6c       ??_C@_1O@PAHLKOAC@?$AAA?$AAu?$AAg?$AAu?$AAs?$AAt?$AA?$AA@ 200b8f6c     LIBCMTD:nlsdata.obj
 0002:00008f7c       ??_C@_1BE@DKAAMBJL@?$AAS?$AAe?$AAp?$AAt?$AAe?$AAm?$AAb?$AAe?$AAr?$AA?$AA@ 200b8f7c     LIBCMTD:nlsdata.obj
 0002:00008f90       ??_C@_1BA@EPANDLNG@?$AAO?$AAc?$AAt?$AAo?$AAb?$AAe?$AAr?$AA?$AA@ 200b8f90     LIBCMTD:nlsdata.obj
 0002:00008fa0       ??_C@_1BC@BGLIFPF@?$AAN?$AAo?$AAv?$AAe?$AAm?$AAb?$AAe?$AAr?$AA?$AA@ 200b8fa0     LIBCMTD:nlsdata.obj
 0002:00008fb4       ??_C@_1BC@FEMKIFH@?$AAD?$AAe?$AAc?$AAe?$AAm?$AAb?$AAe?$AAr?$AA?$AA@ 200b8fb4     LIBCMTD:nlsdata.obj
 0002:00008fc8       ??_C@_15ODEHAHHF@?$AAA?$AAM?$AA?$AA@ 200b8fc8     LIBCMTD:nlsdata.obj
 0002:00008fd0       ??_C@_15CLMNNGEL@?$AAP?$AAM?$AA?$AA@ 200b8fd0     LIBCMTD:nlsdata.obj
 0002:00008fd8       ??_C@_1BC@IEBCMHCM@?$AAM?$AAM?$AA?1?$AAd?$AAd?$AA?1?$AAy?$AAy?$AA?$AA@ 200b8fd8     LIBCMTD:nlsdata.obj
 0002:00008fec       ??_C@_1CI@KNAKOEBC@?$AAd?$AAd?$AAd?$AAd?$AA?0?$AA?5?$AAM?$AAM?$AAM?$AAM?$AA?5?$AAd?$AAd?$AA?0?$AA?5?$AAy?$AAy?$AAy?$AAy?$AA?$AA@ 200b8fec     LIBCMTD:nlsdata.obj
 0002:00009014       ??_C@_1BC@GDGBMEMK@?$AAH?$AAH?$AA?3?$AAm?$AAm?$AA?3?$AAs?$AAs?$AA?$AA@ 200b9014     LIBCMTD:nlsdata.obj
 0002:00009028       ??_C@_1M@BMHNFIME@?$AAe?$AAn?$AA?9?$AAU?$AAS?$AA?$AA@ 200b9028     LIBCMTD:nlsdata.obj
 0002:00009034       ??_C@_1DO@MBOKMJPK@?$AAn?$AAF?$AAl?$AAo?$AAa?$AAt?$AAS?$AAt?$AAr?$AAU?$AAs?$AAe?$AAd?$AA?$DM?$AA?$DN?$AA?$CI?$AA?$CK?$AAp?$AAn?$AAF?$AAl?$AAo?$AAa?$AAt?$AAS?$AAt?$AAr?$AAS?$AAz?$AA?$CJ?$AA?$AA@ 200b9034     LIBCMTD:input.obj
 0002:00009078       ??_C@_1EO@KHEPNMPN@?$AAf?$AA?3?$AA?2?$AAd?$AAd?$AA?2?$AAv?$AAc?$AAt?$AAo?$AAo?$AAl?$AAs?$AA?2?$AAc?$AAr?$AAt?$AA?2?$AAc?$AAr?$AAt?$AAw?$AA3?$AA2?$AA?2?$AAs?$AAt?$AAd?$AAi?$AAo?$AA?2?$AAi@ 200b9078     LIBCMTD:input.obj
 0002:000090c8       ??_C@_0CH@IOLKKJMC@f?3?2dd?2vctools?2crt?2crtw32?2stdio?2i@ 200b90c8     LIBCMTD:input.obj
 0002:000090f0       ??_C@_1BC@MJNBEDIJ@?$AA_?$AAi?$AAn?$AAp?$AAu?$AAt?$AA_?$AAl?$AA?$AA@ 200b90f0     LIBCMTD:input.obj
 0002:00009104       ??_C@_1CC@FADMNIL@?$AA?$CI?$AAs?$AAt?$AAr?$AAe?$AAa?$AAm?$AA?5?$AA?$CB?$AA?$DN?$AA?5?$AAN?$AAU?$AAL?$AAL?$AA?$CJ?$AA?$AA@ 200b9104     LIBCMTD:input.obj
 0002:00009128       ??_C@_1BAA@ODEGEDCK@?$AA?$CI?$AA?5?$AA?$CI?$AA_?$AAS?$AAt?$AAr?$AAe?$AAa?$AAm?$AA?9?$AA?$DO?$AA_?$AAf?$AAl?$AAa?$AAg?$AA?5?$AA?$CG?$AA?5?$AA_?$AAI?$AAO?$AAS?$AAT?$AAR?$AAG?$AA?$CJ?$AA?5?$AA?$HM?$AA?$HM?$AA?5@ 200b9128     LIBCMTD:input.obj
 0002:00009228       ??_C@_1BG@LBKFJFHM@?$AA_?$AAi?$AAn?$AAp?$AAu?$AAt?$AA_?$AAs?$AA_?$AAl?$AA?$AA@ 200b9228     LIBCMTD:inputs.obj
 0002:00009240       ??_C@_1DG@MPPGJOHD@?$AA?$CI?$AA?$CC?$AAI?$AAn?$AAv?$AAa?$AAl?$AAi?$AAd?$AA?5?$AAI?$AAn?$AAp?$AAu?$AAt?$AA?5?$AAF?$AAo?$AAr?$AAm?$AAa?$AAt?$AA?$CC?$AA?0?$AA0?$AA?$CJ?$AA?$AA@ 200b9240     LIBCMTD:inputs.obj
 0002:00009278       ??_C@_03KHJOGHMM@exp?$AA@  200b9278     LIBCMTD:fpexcept.obj
 0002:0000927c       ??_C@_03JGHBODFD@pow?$AA@  200b927c     LIBCMTD:fpexcept.obj
 0002:00009280       ??_C@_05HGHHAHAP@log10?$AA@ 200b9280     LIBCMTD:fpexcept.obj
 0002:00009288       ??_C@_04COOMCNPB@sinh?$AA@ 200b9288     LIBCMTD:fpexcept.obj
 0002:00009290       ??_C@_04HPJJNFIM@cosh?$AA@ 200b9290     LIBCMTD:fpexcept.obj
 0002:00009298       ??_C@_04FJHINJAO@tanh?$AA@ 200b9298     LIBCMTD:fpexcept.obj
 0002:000092a0       ??_C@_04FIHNOPOL@asin?$AA@ 200b92a0     LIBCMTD:fpexcept.obj
 0002:000092a8       ??_C@_04PDIFKINK@acos?$AA@ 200b92a8     LIBCMTD:fpexcept.obj
 0002:000092b0       ??_C@_04MLLJIGOK@atan?$AA@ 200b92b0     LIBCMTD:fpexcept.obj
 0002:000092b8       ??_C@_05KNGEOGJB@atan2?$AA@ 200b92b8     LIBCMTD:fpexcept.obj
 0002:000092c0       ??_C@_04EIAKFFMI@sqrt?$AA@ 200b92c0     LIBCMTD:fpexcept.obj
 0002:000092c8       ??_C@_03BLEJJJBH@sin?$AA@  200b92c8     LIBCMTD:fpexcept.obj
 0002:000092cc       ??_C@_03LALBNOCG@cos?$AA@  200b92cc     LIBCMTD:fpexcept.obj
 0002:000092d0       ??_C@_03IIINPABG@tan?$AA@  200b92d0     LIBCMTD:fpexcept.obj
 0002:000092d4       ??_C@_04GFPJNGEK@ceil?$AA@ 200b92d4     LIBCMTD:fpexcept.obj
 0002:000092dc       ??_C@_05PBJFFIGL@floor?$AA@ 200b92dc     LIBCMTD:fpexcept.obj
 0002:000092e4       ??_C@_04ODHECPBC@fabs?$AA@ 200b92e4     LIBCMTD:fpexcept.obj
 0002:000092ec       ??_C@_04EHEDPDJG@modf?$AA@ 200b92ec     LIBCMTD:fpexcept.obj
 0002:000092f4       ??_C@_05CEJMAHNP@ldexp?$AA@ 200b92f4     LIBCMTD:fpexcept.obj
 0002:000092fc       ??_C@_05KBKMEMPO@_cabs?$AA@ 200b92fc     LIBCMTD:fpexcept.obj
 0002:00009304       ??_C@_06MEIMCGCF@_hypot?$AA@ 200b9304     LIBCMTD:fpexcept.obj
 0002:0000930c       ??_C@_04KEPJIHGP@fmod?$AA@ 200b930c     LIBCMTD:fpexcept.obj
 0002:00009314       ??_C@_05GKKHEGJL@frexp?$AA@ 200b9314     LIBCMTD:fpexcept.obj
 0002:0000931c       ??_C@_03MJLDFKDL@_y0?$AA@  200b931c     LIBCMTD:fpexcept.obj
 0002:00009320       ??_C@_03NAKIGLHK@_y1?$AA@  200b9320     LIBCMTD:fpexcept.obj
 0002:00009324       ??_C@_03ONILCKOB@_yn?$AA@  200b9324     LIBCMTD:fpexcept.obj
 0002:00009328       ??_C@_05JGDBENOH@_logb?$AA@ 200b9328     LIBCMTD:fpexcept.obj
 0002:00009330       ??_C@_0L@KDOEJCKC@_nextafter?$AA@ 200b9330     LIBCMTD:fpexcept.obj
 0002:00009340       ??_C@_1FE@KNPCCODH@?$AA?$CI?$AA?$CC?$AAC?$AAo?$AAr?$AAr?$AAu?$AAp?$AAt?$AAe?$AAd?$AA?5?$AAp?$AAo?$AAi?$AAn?$AAt?$AAe?$AAr?$AA?5?$AAp?$AAa?$AAs?$AAs?$AAe?$AAd?$AA?5?$AAt?$AAo?$AA?5?$AA_?$AAf@ 200b9340     LIBCMTD:a_map.obj
 0002:00009398       ??_C@_1EI@DKDOCKPJ@?$AAf?$AA?3?$AA?2?$AAd?$AAd?$AA?2?$AAv?$AAc?$AAt?$AAo?$AAo?$AAl?$AAs?$AA?2?$AAc?$AAr?$AAt?$AA?2?$AAc?$AAr?$AAt?$AAw?$AA3?$AA2?$AA?2?$AAh?$AA?2?$AAm?$AAa?$AAl?$AAl?$AAo@ 200b9398     LIBCMTD:a_map.obj
 0002:000093e0       ___lc_category             200b93e0     LIBCMTD:wsetloca.obj
 0002:00009428       ??_C@_1O@GIFLHMA@?$AAL?$AAC?$AA_?$AAA?$AAL?$AAL?$AA?$AA@ 200b9428     LIBCMTD:wsetloca.obj
 0002:00009438       ??_C@_1BG@PPOMIBNJ@?$AAL?$AAC?$AA_?$AAC?$AAO?$AAL?$AAL?$AAA?$AAT?$AAE?$AA?$AA@ 200b9438     LIBCMTD:wsetloca.obj
 0002:00009450       ??_C@_1BC@FFJGAPJM@?$AAL?$AAC?$AA_?$AAC?$AAT?$AAY?$AAP?$AAE?$AA?$AA@ 200b9450     LIBCMTD:wsetloca.obj
 0002:00009464       ??_C@_1BI@PCKFNJFB@?$AAL?$AAC?$AA_?$AAM?$AAO?$AAN?$AAE?$AAT?$AAA?$AAR?$AAY?$AA?$AA@ 200b9464     LIBCMTD:wsetloca.obj
 0002:0000947c       ??_C@_1BG@ENIEDKID@?$AAL?$AAC?$AA_?$AAN?$AAU?$AAM?$AAE?$AAR?$AAI?$AAC?$AA?$AA@ 200b947c     LIBCMTD:wsetloca.obj
 0002:00009494       ??_C@_1BA@HAAOMIIG@?$AAL?$AAC?$AA_?$AAT?$AAI?$AAM?$AAE?$AA?$AA@ 200b9494     LIBCMTD:wsetloca.obj
 0002:00009528       ??_C@_1GA@LDEGDKD@?$AA?$CI?$AA?$CC?$AAI?$AAn?$AAv?$AAa?$AAl?$AAi?$AAd?$AA?5?$AAp?$AAa?$AAr?$AAa?$AAm?$AAe?$AAt?$AAe?$AAr?$AA?5?$AAf?$AAo?$AAr?$AA?5?$AA_?$AAc?$AAo?$AAn?$AAf?$AAi?$AAg?$AAt@ 200b9528     LIBCMTD:wsetloca.obj
 0002:00009588       ??_C@_1FC@GFIKBLFA@?$AAf?$AA?3?$AA?2?$AAd?$AAd?$AA?2?$AAv?$AAc?$AAt?$AAo?$AAo?$AAl?$AAs?$AA?2?$AAc?$AAr?$AAt?$AA?2?$AAc?$AAr?$AAt?$AAw?$AA3?$AA2?$AA?2?$AAm?$AAi?$AAs?$AAc?$AA?2?$AAw?$AAs@ 200b9588     LIBCMTD:wsetloca.obj
 0002:000095dc       ??_C@_1CI@FGIONOJM@?$AA_?$AAc?$AAo?$AAn?$AAf?$AAi?$AAg?$AAt?$AAh?$AAr?$AAe?$AAa?$AAd?$AAl?$AAo?$AAc?$AAa?$AAl?$AAe?$AA?$AA@ 200b95dc     LIBCMTD:wsetloca.obj
 0002:00009604       ??_C@_0CJ@MIILEBP@f?3?2dd?2vctools?2crt?2crtw32?2misc?2ws@ 200b9604     LIBCMTD:wsetloca.obj
 0002:00009630       ??_C@_1FG@OHLFEKMC@?$AAL?$AAC?$AA_?$AAM?$AAI?$AAN?$AA?5?$AA?$DM?$AA?$DN?$AA?5?$AA_?$AAc?$AAa?$AAt?$AAe?$AAg?$AAo?$AAr?$AAy?$AA?5?$AA?$CG?$AA?$CG?$AA?5?$AA_?$AAc?$AAa?$AAt?$AAe?$AAg?$AAo?$AAr?$AAy@ 200b9630     LIBCMTD:wsetloca.obj
 0002:00009688       ??_C@_1BI@KJNPAEHL@?$AA_?$AAw?$AAs?$AAe?$AAt?$AAl?$AAo?$AAc?$AAa?$AAl?$AAe?$AA?$AA@ 200b9688     LIBCMTD:wsetloca.obj
 0002:000096a0       ??_C@_15NBPDDFIP@?$AA?$DN?$AA?$DL?$AA?$AA@ 200b96a0     LIBCMTD:wsetloca.obj
 0002:000096a8       ??_C@_13PJJBFPED@?$AA?$DL?$AA?$AA@ 200b96a8     LIBCMTD:wsetloca.obj
 0002:000096ac       ??_C@_1CG@DKJCBBPP@?$AA_?$AAw?$AAs?$AAe?$AAt?$AAl?$AAo?$AAc?$AAa?$AAl?$AAe?$AA_?$AAn?$AAo?$AAl?$AAo?$AAc?$AAk?$AA?$AA@ 200b96ac     LIBCMTD:wsetloca.obj
 0002:000096d8       ??_C@_1IA@DGCOPCLP@?$AAw?$AAc?$AAs?$AAn?$AAc?$AAp?$AAy?$AA_?$AAs?$AA?$CI?$AAl?$AAc?$AAt?$AAe?$AAm?$AAp?$AA?0?$AA?5?$AA?$CI?$AAs?$AAi?$AAz?$AAe?$AAo?$AAf?$AA?$CI?$AAl?$AAc?$AAt?$AAe?$AAm?$AAp@ 200b96d8     LIBCMTD:wsetloca.obj
 0002:00009758       ??_C@_1CI@ODOPEMNJ@?$AA_?$AAw?$AAs?$AAe?$AAt?$AAl?$AAo?$AAc?$AAa?$AAl?$AAe?$AA_?$AAs?$AAe?$AAt?$AA_?$AAc?$AAa?$AAt?$AA?$AA@ 200b9758     LIBCMTD:wsetloca.obj
 0002:00009780       ??_C@_1EM@MHOCNIAA@?$AAw?$AAc?$AAs?$AAc?$AAp?$AAy?$AA_?$AAs?$AA?$CI?$AAp?$AAc?$AAh?$AA_?$AAc?$AAa?$AAt?$AA_?$AAl?$AAo?$AAc?$AAa?$AAl?$AAe?$AA?0?$AA?5?$AAc?$AAc?$AAh?$AA?0?$AA?5?$AAl?$AAc@ 200b9780     LIBCMTD:wsetloca.obj
 0002:000097cc       ??_C@_13NMPKAAJP@?$AA?$DN?$AA?$AA@ 200b97cc     LIBCMTD:wsetloca.obj
 0002:000097d0       ??_C@_1CI@LKOPFFBD@?$AA_?$AAw?$AAs?$AAe?$AAt?$AAl?$AAo?$AAc?$AAa?$AAl?$AAe?$AA_?$AAg?$AAe?$AAt?$AA_?$AAa?$AAl?$AAl?$AA?$AA@ 200b97d0     LIBCMTD:wsetloca.obj
 0002:000097f8       ??_C@_1DC@HMLJMODP@?$AAw?$AAc?$AAs?$AAc?$AAa?$AAt?$AA_?$AAs?$AA?$CI?$AAp?$AAc?$AAh?$AA?0?$AA?5?$AAc?$AAc?$AAh?$AA?0?$AA?5?$AAL?$AA?$CC?$AA?$DL?$AA?$CC?$AA?$CJ?$AA?$AA@ 200b97f8     LIBCMTD:wsetloca.obj
 0002:0000982c       ??_C@_1BM@OIIBLEFG@?$AA_?$AAe?$AAx?$AAp?$AAa?$AAn?$AAd?$AAl?$AAo?$AAc?$AAa?$AAl?$AAe?$AA?$AA@ 200b982c     LIBCMTD:wsetloca.obj
 0002:00009848       ??_C@_1BFG@FHLOBJGM@?$AAw?$AAc?$AAs?$AAn?$AAc?$AAp?$AAy?$AA_?$AAs?$AA?$CI?$AAl?$AAo?$AAc?$AAa?$AAl?$AAe?$AAN?$AAa?$AAm?$AAe?$AAO?$AAu?$AAt?$AAp?$AAu?$AAt?$AA?0?$AA?5?$AAl?$AAo?$AAc?$AAa@ 200b9848     LIBCMTD:wsetloca.obj
 0002:000099a0       ??_C@_1EI@OCINLCHN@?$AAw?$AAc?$AAs?$AAc?$AAp?$AAy?$AA_?$AAs?$AA?$CI?$AAo?$AAu?$AAt?$AAp?$AAu?$AAt?$AA?0?$AA?5?$AAs?$AAi?$AAz?$AAe?$AAI?$AAn?$AAC?$AAh?$AAa?$AAr?$AAs?$AA?0?$AA?5?$AAL?$AA?$CC@ 200b99a0     LIBCMTD:wsetloca.obj
 0002:000099e8       ??_C@_13FHBKNHDA@?$AAC?$AA?$AA@ 200b99e8     LIBCMTD:wsetloca.obj
 0002:000099f0       ??_C@_1MO@NNCNEOAP@?$AAw?$AAc?$AAs?$AAn?$AAc?$AAp?$AAy?$AA_?$AAs?$AA?$CI?$AAl?$AAo?$AAc?$AAa?$AAl?$AAe?$AAN?$AAa?$AAm?$AAe?$AAO?$AAu?$AAt?$AAp?$AAu?$AAt?$AA?0?$AA?5?$AAl?$AAo?$AAc?$AAa@ 200b99f0     LIBCMTD:wsetloca.obj
 0002:00009ac0       ??_C@_1IG@MKDIEKFD@?$AAw?$AAc?$AAs?$AAn?$AAc?$AAp?$AAy?$AA_?$AAs?$AA?$CI?$AAc?$AAa?$AAc?$AAh?$AAe?$AAo?$AAu?$AAt?$AA?0?$AA?5?$AAc?$AAa?$AAc?$AAh?$AAe?$AAo?$AAu?$AAt?$AAL?$AAe?$AAn?$AA?0@ 200b9ac0     LIBCMTD:wsetloca.obj
 0002:00009b48       ??_C@_1KK@KMIFPBBC@?$AAw?$AAc?$AAs?$AAn?$AAc?$AAp?$AAy?$AA_?$AAs?$AA?$CI?$AAl?$AAo?$AAc?$AAa?$AAl?$AAe?$AAN?$AAa?$AAm?$AAe?$AAO?$AAu?$AAt?$AAp?$AAu?$AAt?$AA?0?$AA?5?$AAl?$AAo?$AAc?$AAa@ 200b9b48     LIBCMTD:wsetloca.obj
 0002:00009bf8       ??_C@_1BEK@OJDMMIMP@?$AAw?$AAc?$AAs?$AAn?$AAc?$AAp?$AAy?$AA_?$AAs?$AA?$CI?$AA_?$AAp?$AAs?$AAe?$AAt?$AAl?$AAo?$AAc?$AA_?$AAd?$AAa?$AAt?$AAa?$AA?9?$AA?$DO?$AA_?$AAc?$AAa?$AAc?$AAh?$AAe?$AAL@ 200b9bf8     LIBCMTD:wsetloca.obj
 0002:00009d48       ??_C@_1BGG@FCLLNAOE@?$AAw?$AAc?$AAs?$AAn?$AAc?$AAp?$AAy?$AA_?$AAs?$AA?$CI?$AA_?$AAp?$AAs?$AAe?$AAt?$AAl?$AAo?$AAc?$AA_?$AAd?$AAa?$AAt?$AAa?$AA?9?$AA?$DO?$AA_?$AAc?$AAa?$AAc?$AAh?$AAe?$AAL@ 200b9d48     LIBCMTD:wsetloca.obj
 0002:00009eb0       ??_C@_1IC@FCCDBGLL@?$AAw?$AAc?$AAs?$AAn?$AAc?$AAp?$AAy?$AA_?$AAs?$AA?$CI?$AAc?$AAa?$AAc?$AAh?$AAe?$AAi?$AAn?$AA?0?$AA?5?$AAc?$AAa?$AAc?$AAh?$AAe?$AAi?$AAn?$AAL?$AAe?$AAn?$AA?0?$AA?5?$AAe@ 200b9eb0     LIBCMTD:wsetloca.obj
 0002:00009f38       ??_C@_1FA@HOOAAHFF@?$AAw?$AAc?$AAs?$AAc?$AAp?$AAy?$AA_?$AAs?$AA?$CI?$AAo?$AAu?$AAt?$AAp?$AAu?$AAt?$AA?0?$AA?5?$AAs?$AAi?$AAz?$AAe?$AAI?$AAn?$AAC?$AAh?$AAa?$AAr?$AAs?$AA?0?$AA?5?$AAc?$AAa@ 200b9f38     LIBCMTD:wsetloca.obj
 0002:00009f88       ??_C@_1BC@LEOKFFML@?$AA_?$AAw?$AAc?$AAs?$AAc?$AAa?$AAt?$AAs?$AA?$AA@ 200b9f88     LIBCMTD:wsetloca.obj
 0002:00009fa0       ??_C@_1BII@IONPPCCF@?$AAw?$AAc?$AAs?$AAc?$AAa?$AAt?$AA_?$AAs?$AA?$CI?$AAo?$AAu?$AAt?$AAs?$AAt?$AAr?$AA?0?$AA?5?$AAn?$AAu?$AAm?$AAb?$AAe?$AAr?$AAO?$AAf?$AAE?$AAl?$AAe?$AAm?$AAe?$AAn?$AAt@ 200b9fa0     LIBCMTD:wsetloca.obj
 0002:0000a128       ??_C@_1BK@GNCHCGCN@?$AA_?$AA_?$AAl?$AAc?$AA_?$AAw?$AAc?$AAs?$AAt?$AAo?$AAl?$AAc?$AA?$AA@ 200ba128     LIBCMTD:wsetloca.obj
 0002:0000a148       ??_C@_1NI@NELJHJBO@?$AAw?$AAc?$AAs?$AAn?$AAc?$AAp?$AAy?$AA_?$AAs?$AA?$CI?$AAn?$AAa?$AAm?$AAe?$AAs?$AA?9?$AA?$DO?$AAs?$AAz?$AAC?$AAo?$AAd?$AAe?$AAP?$AAa?$AAg?$AAe?$AA?0?$AA?5?$AA?$CI?$AAs?$AAi@ 200ba148     LIBCMTD:wsetloca.obj
 0002:0000a220       ??_C@_17MBJJLFDM@?$AA_?$AA?4?$AA?0?$AA?$AA@ 200ba220     LIBCMTD:wsetloca.obj
 0002:0000a228       ??_C@_1MO@PBGOIBFL@?$AAw?$AAc?$AAs?$AAn?$AAc?$AAp?$AAy?$AA_?$AAs?$AA?$CI?$AAn?$AAa?$AAm?$AAe?$AAs?$AA?9?$AA?$DO?$AAs?$AAz?$AAL?$AAa?$AAn?$AAg?$AAu?$AAa?$AAg?$AAe?$AA?0?$AA?5?$AA?$CI?$AAs?$AAi@ 200ba228     LIBCMTD:wsetloca.obj
 0002:0000a2f8       ??_C@_1MI@CLMFNAAJ@?$AAw?$AAc?$AAs?$AAn?$AAc?$AAp?$AAy?$AA_?$AAs?$AA?$CI?$AAn?$AAa?$AAm?$AAe?$AAs?$AA?9?$AA?$DO?$AAs?$AAz?$AAC?$AAo?$AAu?$AAn?$AAt?$AAr?$AAy?$AA?0?$AA?5?$AA?$CI?$AAs?$AAi?$AAz@ 200ba2f8     LIBCMTD:wsetloca.obj
 0002:0000a3c0       ??_C@_1MO@NBFBMKCB@?$AAw?$AAc?$AAs?$AAn?$AAc?$AAp?$AAy?$AA_?$AAs?$AA?$CI?$AAn?$AAa?$AAm?$AAe?$AAs?$AA?9?$AA?$DO?$AAs?$AAz?$AAC?$AAo?$AAd?$AAe?$AAP?$AAa?$AAg?$AAe?$AA?0?$AA?5?$AA?$CI?$AAs?$AAi@ 200ba3c0     LIBCMTD:wsetloca.obj
 0002:0000a490       ??_C@_1BK@HEBMGPEK@?$AA_?$AA_?$AAl?$AAc?$AA_?$AAl?$AAc?$AAt?$AAo?$AAw?$AAc?$AAs?$AA?$AA@ 200ba490     LIBCMTD:wsetloca.obj
 0002:0000a4b0       ??_C@_1GM@FOFMGOEK@?$AAw?$AAc?$AAs?$AAc?$AAp?$AAy?$AA_?$AAs?$AA?$CI?$AAl?$AAo?$AAc?$AAa?$AAl?$AAe?$AA?0?$AA?5?$AAn?$AAu?$AAm?$AAb?$AAe?$AAr?$AAO?$AAf?$AAE?$AAl?$AAe?$AAm?$AAe?$AAn?$AAt@ 200ba4b0     LIBCMTD:wsetloca.obj
 0002:0000a51c       ??_C@_13ENNFDPBH@?$AA_?$AA?$AA@ 200ba51c     LIBCMTD:wsetloca.obj
 0002:0000a520       ??_C@_13JOFGPIOO@?$AA?4?$AA?$AA@ 200ba520     LIBCMTD:wsetloca.obj
 0002:0000a524       ??_C@_1CG@HCGEAFEA@?$AA_?$AA_?$AAc?$AAo?$AAp?$AAy?$AA_?$AAl?$AAo?$AAc?$AAa?$AAl?$AAe?$AA_?$AAn?$AAa?$AAm?$AAe?$AA?$AA@ 200ba524     LIBCMTD:wsetloca.obj
 0002:0000a550       ??_C@_1GI@HBNMCKGD@?$AAw?$AAc?$AAs?$AAn?$AAc?$AAp?$AAy?$AA_?$AAs?$AA?$CI?$AAl?$AAo?$AAc?$AAa?$AAl?$AAe?$AAN?$AAa?$AAm?$AAe?$AAC?$AAo?$AAp?$AAy?$AA?0?$AA?5?$AAc?$AAc?$AAh?$AA?$CL?$AA1?$AA?0@ 200ba550     LIBCMTD:wsetloca.obj
 0002:0000a5b8       ??_C@_1BI@MFCLPIBM@?$AAs?$AAt?$AAr?$AA?5?$AA?$CB?$AA?$DN?$AA?5?$AAN?$AAU?$AAL?$AAL?$AA?$AA@ 200ba5b8     LIBCMTD:_flsbuf.obj
 0002:0000a5d0       ??_C@_1FC@OBEHAONE@?$AAf?$AA?3?$AA?2?$AAd?$AAd?$AA?2?$AAv?$AAc?$AAt?$AAo?$AAo?$AAl?$AAs?$AA?2?$AAc?$AAr?$AAt?$AA?2?$AAc?$AAr?$AAt?$AAw?$AA3?$AA2?$AA?2?$AAs?$AAt?$AAd?$AAi?$AAo?$AA?2?$AA_@ 200ba5d0     LIBCMTD:_flsbuf.obj
 0002:0000a628       ??_C@_1HO@MLMGPAFH@?$AA?$CI?$AA?$CC?$AAi?$AAn?$AAc?$AAo?$AAn?$AAs?$AAi?$AAs?$AAt?$AAe?$AAn?$AAt?$AA?5?$AAI?$AAO?$AAB?$AA?5?$AAf?$AAi?$AAe?$AAl?$AAd?$AAs?$AA?$CC?$AA?0?$AA?5?$AAs?$AAt?$AAr?$AAe@ 200ba628     LIBCMTD:_flsbuf.obj
 0002:0000a6a8       ??_C@_06OJHGLDPL@?$CInull?$CJ?$AA@ 200ba6a8     LIBCMTD:output.obj
 0002:0000a6b0       ??_C@_1O@CEDCILHN@?$AA?$CI?$AAn?$AAu?$AAl?$AAl?$AA?$CJ?$AA?$AA@ 200ba6b0     LIBCMTD:output.obj
 0002:0000a6c0       ___lookuptable             200ba6c0     LIBCMTD:output.obj
 0002:0000a720       ??_C@_1FA@KMIJDCIC@?$AAf?$AA?3?$AA?2?$AAd?$AAd?$AA?2?$AAv?$AAc?$AAt?$AAo?$AAo?$AAl?$AAs?$AA?2?$AAc?$AAr?$AAt?$AA?2?$AAc?$AAr?$AAt?$AAw?$AA3?$AA2?$AA?2?$AAs?$AAt?$AAd?$AAi?$AAo?$AA?2?$AAo@ 200ba720     LIBCMTD:output.obj
 0002:0000a770       ??_C@_1BE@IONLIDNC@?$AA_?$AAo?$AAu?$AAt?$AAp?$AAu?$AAt?$AA_?$AAl?$AA?$AA@ 200ba770     LIBCMTD:output.obj
 0002:0000a784       ??_C@_1CC@IFFHEMNF@?$AA?$CI?$AAc?$AAh?$AA?5?$AA?$CB?$AA?$DN?$AA?5?$AA_?$AAT?$AA?$CI?$AA?8?$AA?2?$AA0?$AA?8?$AA?$CJ?$AA?$CJ?$AA?$AA@ 200ba784     LIBCMTD:output.obj
 0002:0000a7a8       ??_C@_1EK@PNGFDECN@?$AA?$CI?$AA?$CC?$AA?8?$AAn?$AA?8?$AA?5?$AAf?$AAo?$AAr?$AAm?$AAa?$AAt?$AA?5?$AAs?$AAp?$AAe?$AAc?$AAi?$AAf?$AAi?$AAe?$AAr?$AA?5?$AAd?$AAi?$AAs?$AAa?$AAb?$AAl?$AAe?$AAd?$AA?$CC@ 200ba7a8     LIBCMTD:output.obj
 0002:0000a7f4       ??_C@_0CI@CMOPBIOD@f?3?2dd?2vctools?2crt?2crtw32?2stdio?2o@ 200ba7f4     LIBCMTD:output.obj
 0002:0000a81c       ??_C@_1BI@KANOLAMF@?$AA_?$AAo?$AAu?$AAt?$AAp?$AAu?$AAt?$AA_?$AAp?$AA_?$AAl?$AA?$AA@ 200ba81c     LIBCMTD:outputp.obj
 0002:0000a838       ??_C@_1JC@PFJNKEIO@?$AA?$CI?$AA?$CI?$AAt?$AAy?$AAp?$AAe?$AA_?$AAp?$AAo?$AAs?$AA?5?$AA?$DO?$AA?$DN?$AA?5?$AA0?$AA?$CJ?$AA?5?$AA?$CG?$AA?$CG?$AA?5?$AA?$CI?$AA?$CK?$AAe?$AAn?$AAd?$AA_?$AAp?$AAo?$AAs?$AA?5?$AA?$DN?$AA?$DN@ 200ba838     LIBCMTD:outputp.obj
 0002:0000a8d0       ??_C@_1EE@DMAIGNBG@?$AA?$CI?$AA?$CC?$AAI?$AAn?$AAc?$AAo?$AAr?$AAr?$AAe?$AAc?$AAt?$AA?5?$AAf?$AAo?$AAr?$AAm?$AAa?$AAt?$AA?5?$AAs?$AAp?$AAe?$AAc?$AAi?$AAf?$AAi?$AAe?$AAr?$AA?$CC?$AA?0?$AA?5?$AA0@ 200ba8d0     LIBCMTD:outputp.obj
 0002:0000a918       ??_C@_1JE@NMBHOLFI@?$AA?$CI?$AA?$CI?$AAw?$AAi?$AAd?$AAt?$AAh?$AA_?$AAp?$AAo?$AAs?$AA?5?$AA?$DO?$AA?$DN?$AA?5?$AA0?$AA?$CJ?$AA?5?$AA?$CG?$AA?$CG?$AA?5?$AA?$CI?$AA?$CK?$AAe?$AAn?$AAd?$AA_?$AAp?$AAo?$AAs?$AA?5?$AA?$DN@ 200ba918     LIBCMTD:outputp.obj
 0002:0000a9b0       ??_C@_1II@PIPIMLPF@?$AA_?$AAt?$AAv?$AAa?$AAl?$AAi?$AAd?$AAa?$AAt?$AAe?$AA_?$AAp?$AAa?$AAr?$AAa?$AAm?$AA_?$AAr?$AAe?$AAu?$AAs?$AAe?$AA?$CI?$AA?$CG?$AAp?$AAo?$AAs?$AA_?$AAv?$AAa?$AAl?$AAu@ 200ba9b0     LIBCMTD:outputp.obj
 0002:0000aa38       ??_C@_1JG@JBJBOCFB@?$AA?$CI?$AA?$CI?$AAp?$AAr?$AAe?$AAc?$AAi?$AAs?$AA_?$AAp?$AAo?$AAs?$AA?5?$AA?$DO?$AA?$DN?$AA?5?$AA0?$AA?$CJ?$AA?5?$AA?$CG?$AA?$CG?$AA?5?$AA?$CI?$AA?$CK?$AAe?$AAn?$AAd?$AA_?$AAp?$AAo?$AAs?$AA?5@ 200baa38     LIBCMTD:outputp.obj
 0002:0000aad0       ??_C@_1IK@EIEPDKHJ@?$AA_?$AAt?$AAv?$AAa?$AAl?$AAi?$AAd?$AAa?$AAt?$AAe?$AA_?$AAp?$AAa?$AAr?$AAa?$AAm?$AA_?$AAr?$AAe?$AAu?$AAs?$AAe?$AA?$CI?$AA?$CG?$AAp?$AAo?$AAs?$AA_?$AAv?$AAa?$AAl?$AAu@ 200baad0     LIBCMTD:outputp.obj
 0002:0000ab60       ??_C@_1EM@BNPHBBIA@?$AA?$CI?$AA?$CI?$AAt?$AAy?$AAp?$AAe?$AA_?$AAp?$AAo?$AAs?$AA?$DO?$AA?$DN?$AA0?$AA?$CJ?$AA?5?$AA?$CG?$AA?$CG?$AA?5?$AA?$CI?$AAt?$AAy?$AAp?$AAe?$AA_?$AAp?$AAo?$AAs?$AA?$DM?$AA_?$AAA?$AAR?$AAG@ 200bab60     LIBCMTD:outputp.obj
 0002:0000abb0       ??_C@_1IK@MHEDJAMK@?$AA_?$AAt?$AAv?$AAa?$AAl?$AAi?$AAd?$AAa?$AAt?$AAe?$AA_?$AAp?$AAa?$AAr?$AAa?$AAm?$AA_?$AAr?$AAe?$AAu?$AAs?$AAe?$AA?$CI?$AA?$CG?$AAp?$AAo?$AAs?$AA_?$AAv?$AAa?$AAl?$AAu@ 200babb0     LIBCMTD:outputp.obj
 0002:0000ac40       ??_C@_1IG@FDCPLALG@?$AA_?$AAt?$AAv?$AAa?$AAl?$AAi?$AAd?$AAa?$AAt?$AAe?$AA_?$AAp?$AAa?$AAr?$AAa?$AAm?$AA_?$AAr?$AAe?$AAu?$AAs?$AAe?$AA?$CI?$AA?$CG?$AAp?$AAo?$AAs?$AA_?$AAv?$AAa?$AAl?$AAu@ 200bac40     LIBCMTD:outputp.obj
 0002:0000acc8       ??_C@_1IG@HJIMKDHC@?$AA_?$AAt?$AAv?$AAa?$AAl?$AAi?$AAd?$AAa?$AAt?$AAe?$AA_?$AAp?$AAa?$AAr?$AAa?$AAm?$AA_?$AAr?$AAe?$AAu?$AAs?$AAe?$AA?$CI?$AA?$CG?$AAp?$AAo?$AAs?$AA_?$AAv?$AAa?$AAl?$AAu@ 200bacc8     LIBCMTD:outputp.obj
 0002:0000ad50       ??_C@_1IM@DNGHAPLB@?$AA_?$AAt?$AAv?$AAa?$AAl?$AAi?$AAd?$AAa?$AAt?$AAe?$AA_?$AAp?$AAa?$AAr?$AAa?$AAm?$AA_?$AAr?$AAe?$AAu?$AAs?$AAe?$AA?$CI?$AA?$CG?$AAp?$AAo?$AAs?$AA_?$AAv?$AAa?$AAl?$AAu@ 200bad50     LIBCMTD:outputp.obj
 0002:0000addc       ??_C@_1DG@GOHGNKHE@?$AAp?$AAa?$AAs?$AAs?$AA?5?$AA?$DN?$AA?$DN?$AA?5?$AAF?$AAO?$AAR?$AAM?$AAA?$AAT?$AA_?$AAO?$AAU?$AAT?$AAP?$AAU?$AAT?$AA_?$AAP?$AAA?$AAS?$AAS?$AA?$AA@ 200baddc     LIBCMTD:outputp.obj
 0002:0000ae18       ??_C@_1IK@NBGDDCBN@?$AA_?$AAt?$AAv?$AAa?$AAl?$AAi?$AAd?$AAa?$AAt?$AAe?$AA_?$AAp?$AAa?$AAr?$AAa?$AAm?$AA_?$AAr?$AAe?$AAu?$AAs?$AAe?$AA?$CI?$AA?$CG?$AAp?$AAo?$AAs?$AA_?$AAv?$AAa?$AAl?$AAu@ 200bae18     LIBCMTD:outputp.obj
 0002:0000aea8       ??_C@_1JC@OACKELNN@?$AA_?$AAt?$AAv?$AAa?$AAl?$AAi?$AAd?$AAa?$AAt?$AAe?$AA_?$AAp?$AAa?$AAr?$AAa?$AAm?$AA_?$AAr?$AAe?$AAu?$AAs?$AAe?$AA?$CI?$AA?$CG?$AAp?$AAo?$AAs?$AA_?$AAv?$AAa?$AAl?$AAu@ 200baea8     LIBCMTD:outputp.obj
 0002:0000af40       ??_C@_1FK@LNCFKALM@?$AA?$CI?$AA?$CI?$AAs?$AAt?$AAa?$AAt?$AAe?$AA?5?$AA?$DN?$AA?$DN?$AA?5?$AAS?$AAT?$AA_?$AAN?$AAO?$AAR?$AAM?$AAA?$AAL?$AA?$CJ?$AA?5?$AA?$HM?$AA?$HM?$AA?5?$AA?$CI?$AAs?$AAt?$AAa?$AAt?$AAe?$AA?5@ 200baf40     LIBCMTD:outputp.obj
 0002:0000afa0       ??_C@_1FK@BCPANIEK@?$AA?$CI?$AA?$CC?$AAM?$AAi?$AAs?$AAs?$AAi?$AAn?$AAg?$AA?5?$AAp?$AAo?$AAs?$AAi?$AAt?$AAi?$AAo?$AAn?$AA?5?$AAi?$AAn?$AA?5?$AAt?$AAh?$AAe?$AA?5?$AAf?$AAo?$AAr?$AAm?$AAa?$AAt@ 200bafa0     LIBCMTD:outputp.obj
 0002:0000c1b8       ??_C@_05EOHGHCHD@exp10?$AA@ 200bc1b8     LIBCMTD:libm_error.obj
 0002:0000c1c0       __OP_ATAN2jmptab           200bc1c0     LIBCMTD:87triga.obj
 0002:0000c240       ??_C@_1BI@GKKCBDMD@?$AAd?$AAs?$AAt?$AA?5?$AA?$CB?$AA?$DN?$AA?5?$AAN?$AAU?$AAL?$AAL?$AA?$AA@ 200bc240     LIBCMTD:memcpy_s.obj
 0002:0000c258       ??_C@_1FG@COJCEIPE@?$AAf?$AA?3?$AA?2?$AAd?$AAd?$AA?2?$AAv?$AAc?$AAt?$AAo?$AAo?$AAl?$AAs?$AA?2?$AAc?$AAr?$AAt?$AA?2?$AAc?$AAr?$AAt?$AAw?$AA3?$AA2?$AA?2?$AAs?$AAt?$AAr?$AAi?$AAn?$AAg?$AA?2@ 200bc258     LIBCMTD:memcpy_s.obj
 0002:0000c2b0       ??_C@_1BC@GKHDJMGB@?$AAm?$AAe?$AAm?$AAc?$AAp?$AAy?$AA_?$AAs?$AA?$AA@ 200bc2b0     LIBCMTD:memcpy_s.obj
 0002:0000c2c4       ??_C@_1BI@DCHLDCPP@?$AAs?$AAr?$AAc?$AA?5?$AA?$CB?$AA?$DN?$AA?5?$AAN?$AAU?$AAL?$AAL?$AA?$AA@ 200bc2c4     LIBCMTD:memcpy_s.obj
 0002:0000c2dc       ??_C@_1CK@DDKKOLAN@?$AAs?$AAi?$AAz?$AAe?$AAI?$AAn?$AAB?$AAy?$AAt?$AAe?$AAs?$AA?5?$AA?$DO?$AA?$DN?$AA?5?$AAc?$AAo?$AAu?$AAn?$AAt?$AA?$AA@ 200bc2dc     LIBCMTD:memcpy_s.obj
 0002:0000c308       ??_C@_1FC@PFMLEHKI@?$AA?$CI?$AA?$CI?$AA_?$AAD?$AAs?$AAt?$AA?$CJ?$AA?$CJ?$AA?5?$AA?$CB?$AA?$DN?$AA?5?$AAN?$AAU?$AAL?$AAL?$AA?5?$AA?$CG?$AA?$CG?$AA?5?$AA?$CI?$AA?$CI?$AA_?$AAS?$AAi?$AAz?$AAe?$AAI?$AAn?$AAW?$AAo?$AAr@ 200bc308     LIBCMTD:wcscat_s.obj
 0002:0000c360       ??_C@_1FA@EDIAPAPE@?$AAf?$AA?3?$AA?2?$AAd?$AAd?$AA?2?$AAv?$AAc?$AAt?$AAo?$AAo?$AAl?$AAs?$AA?2?$AAc?$AAr?$AAt?$AA?2?$AAc?$AAr?$AAt?$AAw?$AA3?$AA2?$AA?2?$AAh?$AA?2?$AAt?$AAc?$AAs?$AAc?$AAa@ 200bc360     LIBCMTD:wcscat_s.obj
 0002:0000c3b0       ??_C@_1BC@PLIEPKPJ@?$AAw?$AAc?$AAs?$AAc?$AAa?$AAt?$AA_?$AAs?$AA?$AA@ 200bc3b0     LIBCMTD:wcscat_s.obj
 0002:0000c3c4       ??_C@_1CG@OFBJMIGJ@?$AA?$CI?$AA?$CI?$AA?$CI?$AA_?$AAS?$AAr?$AAc?$AA?$CJ?$AA?$CJ?$AA?$CJ?$AA?5?$AA?$CB?$AA?$DN?$AA?5?$AAN?$AAU?$AAL?$AAL?$AA?$AA@ 200bc3c4     LIBCMTD:wcscat_s.obj
 0002:0000c3ec       ??_C@_1DM@FHLMIEG@?$AAS?$AAt?$AAr?$AAi?$AAn?$AAg?$AA?5?$AAi?$AAs?$AA?5?$AAn?$AAo?$AAt?$AA?5?$AAn?$AAu?$AAl?$AAl?$AA?5?$AAt?$AAe?$AAr?$AAm?$AAi?$AAn?$AAa?$AAt?$AAe?$AAd?$AA?$AA@ 200bc3ec     LIBCMTD:wcscat_s.obj
 0002:0000c428       ??_C@_1FA@MJKDNFFB@?$AA?$CI?$AAL?$AA?$CC?$AAS?$AAt?$AAr?$AAi?$AAn?$AAg?$AA?5?$AAi?$AAs?$AA?5?$AAn?$AAo?$AAt?$AA?5?$AAn?$AAu?$AAl?$AAl?$AA?5?$AAt?$AAe?$AAr?$AAm?$AAi?$AAn?$AAa?$AAt?$AAe?$AAd@ 200bc428     LIBCMTD:wcscat_s.obj
 0002:0000c478       ??_C@_1CI@HCPHDDLE@?$AAB?$AAu?$AAf?$AAf?$AAe?$AAr?$AA?5?$AAi?$AAs?$AA?5?$AAt?$AAo?$AAo?$AA?5?$AAs?$AAm?$AAa?$AAl?$AAl?$AA?$AA@ 200bc478     LIBCMTD:wcscat_s.obj
 0002:0000c4a0       ??_C@_1DM@MADKGDLO@?$AA?$CI?$AAL?$AA?$CC?$AAB?$AAu?$AAf?$AAf?$AAe?$AAr?$AA?5?$AAi?$AAs?$AA?5?$AAt?$AAo?$AAo?$AA?5?$AAs?$AAm?$AAa?$AAl?$AAl?$AA?$CC?$AA?5?$AA?$CG?$AA?$CG?$AA?5?$AA0?$AA?$CJ?$AA?$AA@ 200bc4a0     LIBCMTD:wcscat_s.obj
 0002:0000c4e0       ??_C@_1FA@ILDLFIFE@?$AAf?$AA?3?$AA?2?$AAd?$AAd?$AA?2?$AAv?$AAc?$AAt?$AAo?$AAo?$AAl?$AAs?$AA?2?$AAc?$AAr?$AAt?$AA?2?$AAc?$AAr?$AAt?$AAw?$AA3?$AA2?$AA?2?$AAh?$AA?2?$AAt?$AAc?$AAs?$AAc?$AAp@ 200bc4e0     LIBCMTD:wcscpy_s.obj
 0002:0000c530       ??_C@_1BC@KIONAFPO@?$AAw?$AAc?$AAs?$AAc?$AAp?$AAy?$AA_?$AAs?$AA?$AA@ 200bc530     LIBCMTD:wcscpy_s.obj
 0002:0000c548       ??_C@_1FC@HNAKBBDB@?$AAf?$AA?3?$AA?2?$AAd?$AAd?$AA?2?$AAv?$AAc?$AAt?$AAo?$AAo?$AAl?$AAs?$AA?2?$AAc?$AAr?$AAt?$AA?2?$AAc?$AAr?$AAt?$AAw?$AA3?$AA2?$AA?2?$AAh?$AA?2?$AAt?$AAc?$AAs?$AAn?$AAc@ 200bc548     LIBCMTD:wcsncat_s.obj
 0002:0000c59c       ??_C@_1BE@KPKIKKCF@?$AAw?$AAc?$AAs?$AAn?$AAc?$AAa?$AAt?$AA_?$AAs?$AA?$AA@ 200bc59c     LIBCMTD:wcsncat_s.obj
 0002:0000c5b0       ??_C@_1BI@BGOHAHKC@?$AAm?$AAs?$AAc?$AAo?$AAr?$AAe?$AAe?$AA?4?$AAd?$AAl?$AAl?$AA?$AA@ 200bc5b0     LIBCMTD:crt0dat.obj
 0002:0000c5c8       ??_C@_0P@MIGLKIOC@CorExitProcess?$AA@ 200bc5c8     LIBCMTD:crt0dat.obj
 0002:0000c5d8       ??_C@_1FG@MHCBBJEK@?$AAf?$AA?3?$AA?2?$AAd?$AAd?$AA?2?$AAv?$AAc?$AAt?$AAo?$AAo?$AAl?$AAs?$AA?2?$AAc?$AAr?$AAt?$AA?2?$AAc?$AAr?$AAt?$AAw?$AA3?$AA2?$AA?2?$AAs?$AAt?$AAa?$AAr?$AAt?$AAu?$AAp@ 200bc5d8     LIBCMTD:crt0dat.obj
 0002:0000c630       ??_C@_1BK@PNLDCCDP@?$AA_?$AAg?$AAe?$AAt?$AA_?$AAw?$AAp?$AAg?$AAm?$AAp?$AAt?$AAr?$AA?$AA@ 200bc630     LIBCMTD:crt0dat.obj
 0002:0000c64c       ??_C@_1CC@CDIPMFPD@?$AA_?$AAw?$AAp?$AAg?$AAm?$AAp?$AAt?$AAr?$AA?5?$AA?$CB?$AA?$DN?$AA?5?$AAN?$AAU?$AAL?$AAL?$AA?$AA@ 200bc64c     LIBCMTD:crt0dat.obj
 0002:0000c670       ??_C@_1BI@COAAPHJK@?$AA_?$AAg?$AAe?$AAt?$AA_?$AAp?$AAg?$AAm?$AAp?$AAt?$AAr?$AA?$AA@ 200bc670     LIBCMTD:crt0dat.obj
 0002:0000c688       ??_C@_1CA@BBNAFCKO@?$AA_?$AAp?$AAg?$AAm?$AAp?$AAt?$AAr?$AA?5?$AA?$CB?$AA?$DN?$AA?5?$AAN?$AAU?$AAL?$AAL?$AA?$AA@ 200bc688     LIBCMTD:crt0dat.obj
 0002:0000c6a8       ??_C@_1BK@DJNILIMN@?$AAp?$AAa?$AAt?$AAh?$AA?5?$AA?$CB?$AA?$DN?$AA?5?$AAN?$AAU?$AAL?$AAL?$AA?$AA@ 200bc6a8     LIBCMTD:crt0dat.obj
 0002:0000c6c4       ??_C@_1DG@KANBJOCK@?$AA_?$AA_?$AAc?$AAo?$AAp?$AAy?$AA_?$AAp?$AAa?$AAt?$AAh?$AA_?$AAt?$AAo?$AA_?$AAw?$AAi?$AAd?$AAe?$AA_?$AAs?$AAt?$AAr?$AAi?$AAn?$AAg?$AA?$AA@ 200bc6c4     LIBCMTD:crt0dat.obj
 0002:0000c6fc       ??_C@_1CA@BGODLPHH@?$AAo?$AAu?$AAt?$AAP?$AAa?$AAt?$AAh?$AA?5?$AA?$CB?$AA?$DN?$AA?5?$AAN?$AAU?$AAL?$AAL?$AA?$AA@ 200bc6fc     LIBCMTD:crt0dat.obj
 0002:0000c71c       ??_C@_0CL@LMMOJFEN@f?3?2dd?2vctools?2crt?2crtw32?2startup@ 200bc71c     LIBCMTD:crt0dat.obj
 0002:0000c748       ??_C@_1CC@NLGECIOD@?$AAi?$AAn?$AAS?$AAt?$AAr?$AAi?$AAn?$AAg?$AA?5?$AA?$CB?$AA?$DN?$AA?5?$AAN?$AAU?$AAL?$AAL?$AA?$AA@ 200bc748     LIBCMTD:crt0dat.obj
 0002:0000c76c       ??_C@_1BO@PNPLHAEP@?$AA_?$AA_?$AAc?$AAo?$AAp?$AAy?$AA_?$AAt?$AAo?$AA_?$AAc?$AAh?$AAa?$AAr?$AA?$AA@ 200bc76c     LIBCMTD:crt0dat.obj
 0002:0000c78c       ??_C@_1CE@HIPDKGHC@?$AAo?$AAu?$AAt?$AAS?$AAt?$AAr?$AAi?$AAn?$AAg?$AA?5?$AA?$CB?$AA?$DN?$AA?5?$AAN?$AAU?$AAL?$AAL?$AA?$AA@ 200bc78c     LIBCMTD:crt0dat.obj
 0002:0000c7b0       ??_C@_1DE@BCNCAIK@?$AA?$CI?$AA?$CC?$AAI?$AAn?$AAv?$AAa?$AAl?$AAi?$AAd?$AA?5?$AAe?$AAr?$AAr?$AAo?$AAr?$AA_?$AAm?$AAo?$AAd?$AAe?$AA?$CC?$AA?0?$AA?5?$AA0?$AA?$CJ?$AA?$AA@ 200bc7b0     LIBCMTD:errmode.obj
 0002:0000c7e8       ??_C@_1FA@PBBGNIFD@?$AAf?$AA?3?$AA?2?$AAd?$AAd?$AA?2?$AAv?$AAc?$AAt?$AAo?$AAo?$AAl?$AAs?$AA?2?$AAc?$AAr?$AAt?$AA?2?$AAc?$AAr?$AAt?$AAw?$AA3?$AA2?$AA?2?$AAm?$AAi?$AAs?$AAc?$AA?2?$AAe?$AAr@ 200bc7e8     LIBCMTD:errmode.obj
 0002:0000c838       ??_C@_1CA@LFDHAMEM@?$AA_?$AAs?$AAe?$AAt?$AA_?$AAe?$AAr?$AAr?$AAo?$AAr?$AA_?$AAm?$AAo?$AAd?$AAe?$AA?$AA@ 200bc838     LIBCMTD:errmode.obj
 0002:0000c858       ??_C@_1FA@LEFFAILN@?$AAf?$AA?3?$AA?2?$AAd?$AAd?$AA?2?$AAv?$AAc?$AAt?$AAo?$AAo?$AAl?$AAs?$AA?2?$AAc?$AAr?$AAt?$AA?2?$AAc?$AAr?$AAt?$AAw?$AA3?$AA2?$AA?2?$AAc?$AAo?$AAn?$AAv?$AAe?$AAr?$AAt@ 200bc858     LIBCMTD:xtows.obj
 0002:0000c8a8       ??_C@_1O@NCBFODOE@?$AAx?$AAt?$AAo?$AAw?$AA_?$AAs?$AA?$AA@ 200bc8a8     LIBCMTD:xtows.obj
 0002:0000c8b8       ??_C@_1CC@JNJFIMGE@?$AAs?$AAi?$AAz?$AAe?$AAI?$AAn?$AAT?$AAC?$AAh?$AAa?$AAr?$AAs?$AA?5?$AA?$DO?$AA?5?$AA0?$AA?$AA@ 200bc8b8     LIBCMTD:xtows.obj
 0002:0000c8e0       ??_C@_1FA@MKGGAGEI@?$AAs?$AAi?$AAz?$AAe?$AAI?$AAn?$AAT?$AAC?$AAh?$AAa?$AAr?$AAs?$AA?5?$AA?$DO?$AA?5?$AA?$CI?$AAs?$AAi?$AAz?$AAe?$AA_?$AAt?$AA?$CJ?$AA?$CI?$AAi?$AAs?$AA_?$AAn?$AAe?$AAg?$AA?5?$AA?$DP@ 200bc8e0     LIBCMTD:xtows.obj
 0002:0000c930       ??_C@_1DE@PCJGDBBD@?$AA2?$AA?5?$AA?$DM?$AA?$DN?$AA?5?$AAr?$AAa?$AAd?$AAi?$AAx?$AA?5?$AA?$CG?$AA?$CG?$AA?5?$AAr?$AAa?$AAd?$AAi?$AAx?$AA?5?$AA?$DM?$AA?$DN?$AA?5?$AA3?$AA6?$AA?$AA@ 200bc930     LIBCMTD:xtows.obj
 0002:0000c964       ??_C@_1CM@HABGDNLJ@?$AAl?$AAe?$AAn?$AAg?$AAt?$AAh?$AA?5?$AA?$DM?$AA?5?$AAs?$AAi?$AAz?$AAe?$AAI?$AAn?$AAT?$AAC?$AAh?$AAa?$AAr?$AAs?$AA?$AA@ 200bc964     LIBCMTD:xtows.obj
 0002:0000c990       ??_C@_1BC@HDEJCFPB@?$AAx?$AA6?$AA4?$AAt?$AAo?$AAw?$AA_?$AAs?$AA?$AA@ 200bc990     LIBCMTD:xtows.obj
 0002:0000c9a4       ??_C@_0CH@FPHLCLAF@f?3?2dd?2vctools?2crt?2crtw32?2stdio?2_@ 200bc9a4     LIBCMTD:_file.obj
 0002:0000c9cc       ??_C@_1BM@JMKHIAHP@?$AA?$CI?$AAs?$AAt?$AAr?$AA?5?$AA?$CB?$AA?$DN?$AA?5?$AAN?$AAU?$AAL?$AAL?$AA?$CJ?$AA?$AA@ 200bc9cc     LIBCMTD:setvbuf.obj
 0002:0000c9e8       ??_C@_1FC@NDJMHBOK@?$AAf?$AA?3?$AA?2?$AAd?$AAd?$AA?2?$AAv?$AAc?$AAt?$AAo?$AAo?$AAl?$AAs?$AA?2?$AAc?$AAr?$AAt?$AA?2?$AAc?$AAr?$AAt?$AAw?$AA3?$AA2?$AA?2?$AAs?$AAt?$AAd?$AAi?$AAo?$AA?2?$AAs@ 200bc9e8     LIBCMTD:setvbuf.obj
 0002:0000ca3c       ??_C@_1BA@OGODIODK@?$AAs?$AAe?$AAt?$AAv?$AAb?$AAu?$AAf?$AA?$AA@ 200bca3c     LIBCMTD:setvbuf.obj
 0002:0000ca50       ??_C@_1HC@CBFEDAGG@?$AA?$CI?$AAt?$AAy?$AAp?$AAe?$AA?5?$AA?$DN?$AA?$DN?$AA?5?$AA_?$AAI?$AAO?$AAN?$AAB?$AAF?$AA?$CJ?$AA?5?$AA?$HM?$AA?$HM?$AA?5?$AA?$CI?$AAt?$AAy?$AAp?$AAe?$AA?5?$AA?$DN?$AA?$DN?$AA?5?$AA_?$AAI?$AAO@ 200bca50     LIBCMTD:setvbuf.obj
 0002:0000cac8       ??_C@_1EG@IJNJIDNB@?$AA?$CI?$AA?$CI?$AA2?$AA?5?$AA?$DM?$AA?$DN?$AA?5?$AAs?$AAi?$AAz?$AAe?$AA?$CJ?$AA?5?$AA?$CG?$AA?$CG?$AA?5?$AA?$CI?$AAs?$AAi?$AAz?$AAe?$AA?5?$AA?$DM?$AA?$DN?$AA?5?$AAI?$AAN?$AAT?$AA_?$AAM?$AAA?$AAX@ 200bcac8     LIBCMTD:setvbuf.obj
 0002:0000cb10       ??_C@_0CJ@IACMAHEB@f?3?2dd?2vctools?2crt?2crtw32?2stdio?2s@ 200bcb10     LIBCMTD:setvbuf.obj
 0002:0000cb40       ??_C@_1FE@OFLIMJDE@?$AAf?$AA?3?$AA?2?$AAd?$AAd?$AA?2?$AAv?$AAc?$AAt?$AAo?$AAo?$AAl?$AAs?$AA?2?$AAc?$AAr?$AAt?$AA?2?$AAc?$AAr?$AAt?$AAw?$AA3?$AA2?$AA?2?$AAs?$AAt?$AAd?$AAi?$AAo?$AA?2?$AAf@ 200bcb40     LIBCMTD:fwprintf.obj
 0002:0000cb94       ??_C@_1BC@BHLPNJBO@?$AAf?$AAw?$AAp?$AAr?$AAi?$AAn?$AAt?$AAf?$AA?$AA@ 200bcb94     LIBCMTD:fwprintf.obj
 0002:0000cba8       ??_C@_1FE@DHCMIOFC@?$AAf?$AA?3?$AA?2?$AAd?$AAd?$AA?2?$AAv?$AAc?$AAt?$AAo?$AAo?$AAl?$AAs?$AA?2?$AAc?$AAr?$AAt?$AA?2?$AAc?$AAr?$AAt?$AAw?$AA3?$AA2?$AA?2?$AAs?$AAt?$AAd?$AAi?$AAo?$AA?2?$AAv@ 200bcba8     LIBCMTD:vswprnc.obj
 0002:0000cbfc       ??_C@_1CE@IGKFIJFD@?$AA_?$AAv?$AAs?$AAw?$AAp?$AAr?$AAi?$AAn?$AAt?$AAf?$AA_?$AAh?$AAe?$AAl?$AAp?$AAe?$AAr?$AA?$AA@ 200bcbfc     LIBCMTD:vswprnc.obj
 0002:0000cc20       ??_C@_1EC@FABAOFFO@?$AA?$CI?$AAc?$AAo?$AAu?$AAn?$AAt?$AA?5?$AA?$DN?$AA?$DN?$AA?5?$AA0?$AA?$CJ?$AA?5?$AA?$HM?$AA?$HM?$AA?5?$AA?$CI?$AAs?$AAt?$AAr?$AAi?$AAn?$AAg?$AA?5?$AA?$CB?$AA?$DN?$AA?5?$AAN?$AAU?$AAL?$AAL?$AA?$CJ@ 200bcc20     LIBCMTD:vswprnc.obj
 0002:0000cc64       ??_C@_1BO@MLMCMBKN@?$AAf?$AAo?$AAr?$AAm?$AAa?$AAt?$AA?5?$AA?$CB?$AA?$DN?$AA?5?$AAN?$AAU?$AAL?$AAL?$AA?$AA@ 200bcc64     LIBCMTD:vswprnc.obj
 0002:0000cc84       ??_C@_1BO@OALHJLCI@?$AA_?$AAv?$AAs?$AAw?$AAp?$AAr?$AAi?$AAn?$AAt?$AAf?$AA_?$AAs?$AA_?$AAl?$AA?$AA@ 200bcc84     LIBCMTD:vswprnc.obj
 0002:0000cca8       ??_C@_1EE@MPCHJFGP@?$AAs?$AAt?$AAr?$AAi?$AAn?$AAg?$AA?5?$AA?$CB?$AA?$DN?$AA?5?$AAN?$AAU?$AAL?$AAL?$AA?5?$AA?$CG?$AA?$CG?$AA?5?$AAs?$AAi?$AAz?$AAe?$AAI?$AAn?$AAW?$AAo?$AAr?$AAd?$AAs?$AA?5?$AA?$DO?$AA?5@ 200bcca8     LIBCMTD:vswprnc.obj
 0002:0000ccec       ??_C@_1DA@HPBFKMEB@?$AA?$CI?$AA?$CC?$AAB?$AAu?$AAf?$AAf?$AAe?$AAr?$AA?5?$AAt?$AAo?$AAo?$AA?5?$AAs?$AAm?$AAa?$AAl?$AAl?$AA?$CC?$AA?0?$AA?5?$AA0?$AA?$CJ?$AA?$AA@ 200bccec     LIBCMTD:vswprnc.obj
 0002:0000cd1c       ??_C@_1CA@BKFKMJFF@?$AA_?$AAv?$AAs?$AAn?$AAw?$AAp?$AAr?$AAi?$AAn?$AAt?$AAf?$AA_?$AAs?$AA_?$AAl?$AA?$AA@ 200bcd1c     LIBCMTD:vswprnc.obj
 0002:0000cd3c       ??_C@_0CH@KINPIPGE@f?3?2dd?2vctools?2crt?2crtw32?2misc?2wi@ 200bcd3c     LIBCMTD:winsig.obj
 0002:0000cd64       ??_C@_1DO@MLNEDKGB@?$AA?$CI?$AA?$CC?$AAI?$AAn?$AAv?$AAa?$AAl?$AAi?$AAd?$AA?5?$AAs?$AAi?$AAg?$AAn?$AAa?$AAl?$AA?5?$AAo?$AAr?$AA?5?$AAe?$AAr?$AAr?$AAo?$AAr?$AA?$CC?$AA?0?$AA?5?$AA0?$AA?$CJ?$AA?$AA@ 200bcd64     LIBCMTD:winsig.obj
 0002:0000cda8       ??_C@_1EO@BCKLPCCI@?$AAf?$AA?3?$AA?2?$AAd?$AAd?$AA?2?$AAv?$AAc?$AAt?$AAo?$AAo?$AAl?$AAs?$AA?2?$AAc?$AAr?$AAt?$AA?2?$AAc?$AAr?$AAt?$AAw?$AA3?$AA2?$AA?2?$AAm?$AAi?$AAs?$AAc?$AA?2?$AAw?$AAi@ 200bcda8     LIBCMTD:winsig.obj
 0002:0000cdf8       ??_C@_1O@EJLDHPPL@?$AAs?$AAi?$AAg?$AAn?$AAa?$AAl?$AA?$AA@ 200bcdf8     LIBCMTD:winsig.obj
 0002:0000ce08       ??_C@_1M@DMJEIKHL@?$AAr?$AAa?$AAi?$AAs?$AAe?$AA?$AA@ 200bce08     LIBCMTD:winsig.obj
 0002:0000ce14       ??_C@_1BG@GOEBHBDC@?$AAU?$AAS?$AAE?$AAR?$AA3?$AA2?$AA?4?$AAD?$AAL?$AAL?$AA?$AA@ 200bce14     LIBCMTD:crtmboxw.obj
 0002:0000ce2c       ??_C@_0M@DLDCCGNP@MessageBoxW?$AA@ 200bce2c     LIBCMTD:crtmboxw.obj
 0002:0000ce38       ??_C@_0BA@HNOPNCHB@GetActiveWindow?$AA@ 200bce38     LIBCMTD:crtmboxw.obj
 0002:0000ce48       ??_C@_0BD@HHGDFDBJ@GetLastActivePopup?$AA@ 200bce48     LIBCMTD:crtmboxw.obj
 0002:0000ce5c       ??_C@_0BK@DEKFELLI@GetUserObjectInformationW?$AA@ 200bce5c     LIBCMTD:crtmboxw.obj
 0002:0000ce78       ??_C@_0BI@DFKBFLJE@GetProcessWindowStation?$AA@ 200bce78     LIBCMTD:crtmboxw.obj
 0002:0000cf48       ??_C@_1FK@PGACCAFB@?$AAR?$AA6?$AA0?$AA0?$AA2?$AA?$AN?$AA?6?$AA?9?$AA?5?$AAf?$AAl?$AAo?$AAa?$AAt?$AAi?$AAn?$AAg?$AA?5?$AAp?$AAo?$AAi?$AAn?$AAt?$AA?5?$AAs?$AAu?$AAp?$AAp?$AAo?$AAr?$AAt?$AA?5@ 200bcf48     LIBCMTD:crt0msg.obj
 0002:0000cfa8       ??_C@_1FE@LLNEDJMD@?$AAR?$AA6?$AA0?$AA0?$AA8?$AA?$AN?$AA?6?$AA?9?$AA?5?$AAn?$AAo?$AAt?$AA?5?$AAe?$AAn?$AAo?$AAu?$AAg?$AAh?$AA?5?$AAs?$AAp?$AAa?$AAc?$AAe?$AA?5?$AAf?$AAo?$AAr?$AA?5?$AAa?$AAr@ 200bcfa8     LIBCMTD:crt0msg.obj
 0002:0000d000       ??_C@_1FI@HONFMGBI@?$AAR?$AA6?$AA0?$AA0?$AA9?$AA?$AN?$AA?6?$AA?9?$AA?5?$AAn?$AAo?$AAt?$AA?5?$AAe?$AAn?$AAo?$AAu?$AAg?$AAh?$AA?5?$AAs?$AAp?$AAa?$AAc?$AAe?$AA?5?$AAf?$AAo?$AAr?$AA?5?$AAe?$AAn@ 200bd000     LIBCMTD:crt0msg.obj
 0002:0000d058       ??_C@_1EG@BEHAGFJD@?$AAR?$AA6?$AA0?$AA1?$AA0?$AA?$AN?$AA?6?$AA?9?$AA?5?$AAa?$AAb?$AAo?$AAr?$AAt?$AA?$CI?$AA?$CJ?$AA?5?$AAh?$AAa?$AAs?$AA?5?$AAb?$AAe?$AAe?$AAn?$AA?5?$AAc?$AAa?$AAl?$AAl?$AAe?$AAd@ 200bd058     LIBCMTD:crt0msg.obj
 0002:0000d0a0       ??_C@_1FI@LOGNIKDM@?$AAR?$AA6?$AA0?$AA1?$AA6?$AA?$AN?$AA?6?$AA?9?$AA?5?$AAn?$AAo?$AAt?$AA?5?$AAe?$AAn?$AAo?$AAu?$AAg?$AAh?$AA?5?$AAs?$AAp?$AAa?$AAc?$AAe?$AA?5?$AAf?$AAo?$AAr?$AA?5?$AAt?$AAh@ 200bd0a0     LIBCMTD:crt0msg.obj
 0002:0000d0f8       ??_C@_1FK@BEOGODMC@?$AAR?$AA6?$AA0?$AA1?$AA7?$AA?$AN?$AA?6?$AA?9?$AA?5?$AAu?$AAn?$AAe?$AAx?$AAp?$AAe?$AAc?$AAt?$AAe?$AAd?$AA?5?$AAm?$AAu?$AAl?$AAt?$AAi?$AAt?$AAh?$AAr?$AAe?$AAa?$AAd?$AA?5@ 200bd0f8     LIBCMTD:crt0msg.obj
 0002:0000d158       ??_C@_1EC@JIBHAOPH@?$AAR?$AA6?$AA0?$AA1?$AA8?$AA?$AN?$AA?6?$AA?9?$AA?5?$AAu?$AAn?$AAe?$AAx?$AAp?$AAe?$AAc?$AAt?$AAe?$AAd?$AA?5?$AAh?$AAe?$AAa?$AAp?$AA?5?$AAe?$AAr?$AAr?$AAo?$AAr?$AA?$AN?$AA?6@ 200bd158     LIBCMTD:crt0msg.obj
 0002:0000d1a0       ??_C@_1FC@ECHBIFBC@?$AAR?$AA6?$AA0?$AA1?$AA9?$AA?$AN?$AA?6?$AA?9?$AA?5?$AAu?$AAn?$AAa?$AAb?$AAl?$AAe?$AA?5?$AAt?$AAo?$AA?5?$AAo?$AAp?$AAe?$AAn?$AA?5?$AAc?$AAo?$AAn?$AAs?$AAo?$AAl?$AAe?$AA?5@ 200bd1a0     LIBCMTD:crt0msg.obj
 0002:0000d1f8       ??_C@_1GK@FHCKBEFA@?$AAR?$AA6?$AA0?$AA2?$AA4?$AA?$AN?$AA?6?$AA?9?$AA?5?$AAn?$AAo?$AAt?$AA?5?$AAe?$AAn?$AAo?$AAu?$AAg?$AAh?$AA?5?$AAs?$AAp?$AAa?$AAc?$AAe?$AA?5?$AAf?$AAo?$AAr?$AA?5?$AA_?$AAo@ 200bd1f8     LIBCMTD:crt0msg.obj
 0002:0000d268       ??_C@_1EM@MAADIHMB@?$AAR?$AA6?$AA0?$AA2?$AA5?$AA?$AN?$AA?6?$AA?9?$AA?5?$AAp?$AAu?$AAr?$AAe?$AA?5?$AAv?$AAi?$AAr?$AAt?$AAu?$AAa?$AAl?$AA?5?$AAf?$AAu?$AAn?$AAc?$AAt?$AAi?$AAo?$AAn?$AA?5?$AAc@ 200bd268     LIBCMTD:crt0msg.obj
 0002:0000d2b8       ??_C@_1GK@MCAAGJMO@?$AAR?$AA6?$AA0?$AA2?$AA6?$AA?$AN?$AA?6?$AA?9?$AA?5?$AAn?$AAo?$AAt?$AA?5?$AAe?$AAn?$AAo?$AAu?$AAg?$AAh?$AA?5?$AAs?$AAp?$AAa?$AAc?$AAe?$AA?5?$AAf?$AAo?$AAr?$AA?5?$AAs?$AAt@ 200bd2b8     LIBCMTD:crt0msg.obj
 0002:0000d328       ??_C@_1GK@MFGOKLAG@?$AAR?$AA6?$AA0?$AA2?$AA7?$AA?$AN?$AA?6?$AA?9?$AA?5?$AAn?$AAo?$AAt?$AA?5?$AAe?$AAn?$AAo?$AAu?$AAg?$AAh?$AA?5?$AAs?$AAp?$AAa?$AAc?$AAe?$AA?5?$AAf?$AAo?$AAr?$AA?5?$AAl?$AAo@ 200bd328     LIBCMTD:crt0msg.obj
 0002:0000d398       ??_C@_1EK@HHFLMAOL@?$AAR?$AA6?$AA0?$AA2?$AA8?$AA?$AN?$AA?6?$AA?9?$AA?5?$AAu?$AAn?$AAa?$AAb?$AAl?$AAe?$AA?5?$AAt?$AAo?$AA?5?$AAi?$AAn?$AAi?$AAt?$AAi?$AAa?$AAl?$AAi?$AAz?$AAe?$AA?5?$AAh?$AAe@ 200bd398     LIBCMTD:crt0msg.obj
 0002:0000d3e4       ??_C@_1DO@BMFCDCD@?$AAR?$AA6?$AA0?$AA3?$AA0?$AA?$AN?$AA?6?$AA?9?$AA?5?$AAC?$AAR?$AAT?$AA?5?$AAn?$AAo?$AAt?$AA?5?$AAi?$AAn?$AAi?$AAt?$AAi?$AAa?$AAl?$AAi?$AAz?$AAe?$AAd?$AA?$AN?$AA?6?$AA?$AA@ 200bd3e4     LIBCMTD:crt0msg.obj
 0002:0000d428       ??_C@_1MG@ENCOOIDF@?$AAR?$AA6?$AA0?$AA3?$AA1?$AA?$AN?$AA?6?$AA?9?$AA?5?$AAA?$AAt?$AAt?$AAe?$AAm?$AAp?$AAt?$AA?5?$AAt?$AAo?$AA?5?$AAi?$AAn?$AAi?$AAt?$AAi?$AAa?$AAl?$AAi?$AAz?$AAe?$AA?5?$AAt@ 200bd428     LIBCMTD:crt0msg.obj
 0002:0000d4f0       ??_C@_1GG@GOPILAJP@?$AAR?$AA6?$AA0?$AA3?$AA2?$AA?$AN?$AA?6?$AA?9?$AA?5?$AAn?$AAo?$AAt?$AA?5?$AAe?$AAn?$AAo?$AAu?$AAg?$AAh?$AA?5?$AAs?$AAp?$AAa?$AAc?$AAe?$AA?5?$AAf?$AAo?$AAr?$AA?5?$AAl?$AAo@ 200bd4f0     LIBCMTD:crt0msg.obj
 0002:0000d558       ??_C@_1BOO@KGEDBGAJ@?$AAR?$AA6?$AA0?$AA3?$AA3?$AA?$AN?$AA?6?$AA?9?$AA?5?$AAA?$AAt?$AAt?$AAe?$AAm?$AAp?$AAt?$AA?5?$AAt?$AAo?$AA?5?$AAu?$AAs?$AAe?$AA?5?$AAM?$AAS?$AAI?$AAL?$AA?5?$AAc?$AAo?$AAd@ 200bd558     LIBCMTD:crt0msg.obj
 0002:0000d748       ??_C@_1GG@MKFPEKFO@?$AAR?$AA6?$AA0?$AA3?$AA4?$AA?$AN?$AA?6?$AA?9?$AA?5?$AAi?$AAn?$AAc?$AAo?$AAn?$AAs?$AAi?$AAs?$AAt?$AAe?$AAn?$AAt?$AA?5?$AAo?$AAn?$AAe?$AAx?$AAi?$AAt?$AA?5?$AAb?$AAe?$AAg@ 200bd748     LIBCMTD:crt0msg.obj
 0002:0000d7b0       ??_C@_1BO@BFCDCGC@?$AAD?$AAO?$AAM?$AAA?$AAI?$AAN?$AA?5?$AAe?$AAr?$AAr?$AAo?$AAr?$AA?$AN?$AA?6?$AA?$AA@ 200bd7b0     LIBCMTD:crt0msg.obj
 0002:0000d7d0       ??_C@_1BK@KMOMNAAI@?$AAS?$AAI?$AAN?$AAG?$AA?5?$AAe?$AAr?$AAr?$AAo?$AAr?$AA?$AN?$AA?6?$AA?$AA@ 200bd7d0     LIBCMTD:crt0msg.obj
 0002:0000d7ec       ??_C@_1BM@JBBEPPHI@?$AAT?$AAL?$AAO?$AAS?$AAS?$AA?5?$AAe?$AAr?$AAr?$AAo?$AAr?$AA?$AN?$AA?6?$AA?$AA@ 200bd7ec     LIBCMTD:crt0msg.obj
 0002:0000d808       ??_C@_15JNBOKNOG@?$AA?$AN?$AA?6?$AA?$AA@ 200bd808     LIBCMTD:crt0msg.obj
 0002:0000d810       ??_C@_1BO@BKOMIGKJ@?$AAr?$AAu?$AAn?$AAt?$AAi?$AAm?$AAe?$AA?5?$AAe?$AAr?$AAr?$AAo?$AAr?$AA?5?$AA?$AA@ 200bd810     LIBCMTD:crt0msg.obj
 0002:0000d830       ??_C@_1FG@ILOHEEMG@?$AAf?$AA?3?$AA?2?$AAd?$AAd?$AA?2?$AAv?$AAc?$AAt?$AAo?$AAo?$AAl?$AAs?$AA?2?$AAc?$AAr?$AAt?$AA?2?$AAc?$AAr?$AAt?$AAw?$AA3?$AA2?$AA?2?$AAs?$AAt?$AAa?$AAr?$AAt?$AAu?$AAp@ 200bd830     LIBCMTD:crt0msg.obj
 0002:0000d888       ??_C@_1BI@EAHMBMEC@?$AA_?$AAN?$AAM?$AAS?$AAG?$AA_?$AAW?$AAR?$AAI?$AAT?$AAE?$AA?$AA@ 200bd888     LIBCMTD:crt0msg.obj
 0002:0000d8a0       ??_C@_1KO@BKLCKNFL@?$AAw?$AAc?$AAs?$AAc?$AAp?$AAy?$AA_?$AAs?$AA?$CI?$AAo?$AAu?$AAt?$AAm?$AAs?$AAg?$AA?0?$AA?5?$AA?$CI?$AAs?$AAi?$AAz?$AAe?$AAo?$AAf?$AA?$CI?$AAo?$AAu?$AAt?$AAm?$AAs?$AAg?$AA?$CJ@ 200bd8a0     LIBCMTD:crt0msg.obj
 0002:0000d950       ??_C@_1DE@JNGNBFGO@?$AAR?$AAu?$AAn?$AAt?$AAi?$AAm?$AAe?$AA?5?$AAE?$AAr?$AAr?$AAo?$AAr?$AA?$CB?$AA?6?$AA?6?$AAP?$AAr?$AAo?$AAg?$AAr?$AAa?$AAm?$AA?3?$AA?5?$AA?$AA@ 200bd950     LIBCMTD:crt0msg.obj
 0002:0000d988       ??_C@_1HK@FJJNAABO@?$AAw?$AAc?$AAs?$AAc?$AAp?$AAy?$AA_?$AAs?$AA?$CI?$AAp?$AAr?$AAo?$AAg?$AAn?$AAa?$AAm?$AAe?$AA?0?$AA?5?$AAp?$AAr?$AAo?$AAg?$AAn?$AAa?$AAm?$AAe?$AA_?$AAs?$AAi?$AAz?$AAe@ 200bd988     LIBCMTD:crt0msg.obj
 0002:0000da08       ??_C@_1HI@FLHKGEBE@?$AAw?$AAc?$AAs?$AAn?$AAc?$AAp?$AAy?$AA_?$AAs?$AA?$CI?$AAp?$AAc?$AAh?$AA?0?$AA?5?$AAp?$AAr?$AAo?$AAg?$AAn?$AAa?$AAm?$AAe?$AA_?$AAs?$AAi?$AAz?$AAe?$AA?5?$AA?9?$AA?5?$AA?$CI@ 200bda08     LIBCMTD:crt0msg.obj
 0002:0000da80       ??_C@_1IA@DCJGKHFO@?$AAw?$AAc?$AAs?$AAc?$AAa?$AAt?$AA_?$AAs?$AA?$CI?$AAo?$AAu?$AAt?$AAm?$AAs?$AAg?$AA?0?$AA?5?$AA?$CI?$AAs?$AAi?$AAz?$AAe?$AAo?$AAf?$AA?$CI?$AAo?$AAu?$AAt?$AAm?$AAs?$AAg?$AA?$CJ@ 200bda80     LIBCMTD:crt0msg.obj
 0002:0000db00       ??_C@_1IG@NMONDPP@?$AAw?$AAc?$AAs?$AAc?$AAa?$AAt?$AA_?$AAs?$AA?$CI?$AAo?$AAu?$AAt?$AAm?$AAs?$AAg?$AA?0?$AA?5?$AA?$CI?$AAs?$AAi?$AAz?$AAe?$AAo?$AAf?$AA?$CI?$AAo?$AAu?$AAt?$AAm?$AAs?$AAg?$AA?$CJ@ 200bdb00     LIBCMTD:crt0msg.obj
 0002:0000db88       __XcptActTab               200bdb88     LIBCMTD:winxfltr.obj
 0002:0000dc18       __XcptActTabCount          200bdc18     LIBCMTD:winxfltr.obj
 0002:0000dc1c       __XcptActTabSize           200bdc1c     LIBCMTD:winxfltr.obj
 0002:0000dc20       __First_FPE_Indx           200bdc20     LIBCMTD:winxfltr.obj
 0002:0000dc24       __Num_FPE                  200bdc24     LIBCMTD:winxfltr.obj
 0002:0000dc28       ??_C@_1BC@DENNNKIM@?$AA_?$AAc?$AAr?$AAt?$AAh?$AAe?$AAa?$AAp?$AA?$AA@ 200bdc28     LIBCMTD:heapinit.obj
 0002:0000dc40       ??_C@_1FC@JOHAHJGP@?$AAf?$AA?3?$AA?2?$AAd?$AAd?$AA?2?$AAv?$AAc?$AAt?$AAo?$AAo?$AAl?$AAs?$AA?2?$AAc?$AAr?$AAt?$AA?2?$AAc?$AAr?$AAt?$AAw?$AA3?$AA2?$AA?2?$AAh?$AAe?$AAa?$AAp?$AA?2?$AAh?$AAe@ 200bdc40     LIBCMTD:heapinit.obj
 0002:0000dc94       ??_C@_0CI@BIOGDJKL@f?3?2dd?2vctools?2crt?2crtw32?2lowio?2i@ 200bdc94     LIBCMTD:ioinit.obj
 0002:0000dcbc       ??_C@_0CL@OBKFGCKK@f?3?2dd?2vctools?2crt?2crtw32?2startup@ 200bdcbc     LIBCMTD:stdargv.obj
 0002:0000dce8       ??_C@_0CL@BJBFGFLH@f?3?2dd?2vctools?2crt?2crtw32?2startup@ 200bdce8     LIBCMTD:stdenvp.obj
 0002:0000dd18       ??_C@_1FG@MHBLOJIO@?$AAf?$AA?3?$AA?2?$AAd?$AAd?$AA?2?$AAv?$AAc?$AAt?$AAo?$AAo?$AAl?$AAs?$AA?2?$AAc?$AAr?$AAt?$AA?2?$AAc?$AAr?$AAt?$AAw?$AA3?$AA2?$AA?2?$AAs?$AAt?$AAa?$AAr?$AAt?$AAu?$AAp@ 200bdd18     LIBCMTD:stdenvp.obj
 0002:0000dd70       ??_C@_1BC@GHMCNHHL@?$AA_?$AAs?$AAe?$AAt?$AAe?$AAn?$AAv?$AAp?$AA?$AA@ 200bdd70     LIBCMTD:stdenvp.obj
 0002:0000dd84       ??_C@_1DE@MMOGFGHF@?$AAs?$AAt?$AAr?$AAc?$AAp?$AAy?$AA_?$AAs?$AA?$CI?$AA?$CK?$AAe?$AAn?$AAv?$AA?0?$AA?5?$AAc?$AAc?$AAh?$AAa?$AAr?$AAs?$AA?0?$AA?5?$AAp?$AA?$CJ?$AA?$AA@ 200bdd84     LIBCMTD:stdenvp.obj
 0002:0000ddcc       ??_C@_04HJMOFLDF@Free?$AA@ 200bddcc     LIBCMTD:dbgheap.obj
 0002:0000ddd4       ??_C@_06EFAGIKOH@Normal?$AA@ 200bddd4     LIBCMTD:dbgheap.obj
 0002:0000dddc       ??_C@_03OGPFLFLO@CRT?$AA@  200bdddc     LIBCMTD:dbgheap.obj
 0002:0000dde0       ??_C@_06KMEJCCGM@Ignore?$AA@ 200bdde0     LIBCMTD:dbgheap.obj
 0002:0000dde8       ??_C@_06PJIGMIJB@Client?$AA@ 200bdde8     LIBCMTD:dbgheap.obj
 0002:0000ddf0       ??_C@_1CE@LJFEPPMP@?$AA_?$AAC?$AAr?$AAt?$AAC?$AAh?$AAe?$AAc?$AAk?$AAM?$AAe?$AAm?$AAo?$AAr?$AAy?$AA?$CI?$AA?$CJ?$AA?$AA@ 200bddf0     LIBCMTD:dbgheap.obj
 0002:0000de18       ??_C@_1FA@JKEKCOIC@?$AAf?$AA?3?$AA?2?$AAd?$AAd?$AA?2?$AAv?$AAc?$AAt?$AAo?$AAo?$AAl?$AAs?$AA?2?$AAc?$AAr?$AAt?$AA?2?$AAc?$AAr?$AAt?$AAw?$AA3?$AA2?$AA?2?$AAm?$AAi?$AAs?$AAc?$AA?2?$AAd?$AAb@ 200bde18     LIBCMTD:dbgheap.obj
 0002:0000de68       ??_C@_0DF@BBEGIFEK@Client?5hook?5allocation?5failure?5a@ 200bde68     LIBCMTD:dbgheap.obj
 0002:0000dea0       ??_C@_0CB@CCLOLAHO@Client?5hook?5allocation?5failure?4?6@ 200bdea0     LIBCMTD:dbgheap.obj
 0002:0000dec4       ??_C@_0CF@BICKFLAF@Invalid?5allocation?5size?3?5?$CFIu?5byt@ 200bdec4     LIBCMTD:dbgheap.obj
 0002:0000deec       ??_C@_0DC@JEMAGEKG@Error?3?5memory?5allocation?3?5bad?5me@ 200bdeec     LIBCMTD:dbgheap.obj
 0002:0000df20       ??_C@_0DI@KKJPDPGM@Client?5hook?5re?9allocation?5failur@ 200bdf20     LIBCMTD:dbgheap.obj
 0002:0000df58       ??_C@_0CE@DOFMDOL@Client?5hook?5re?9allocation?5failur@ 200bdf58     LIBCMTD:dbgheap.obj
 0002:0000df80       ??_C@_0ED@GPCPBAGP@Invalid?5allocation?5size?3?5?$CFIu?5byt@ 200bdf80     LIBCMTD:dbgheap.obj
 0002:0000dfc8       ??_C@_0FA@EFEIGJKG@Error?3?5memory?5allocation?3?5bad?5me@ 200bdfc8     LIBCMTD:dbgheap.obj
 0002:0000e018       ??_C@_0EM@LGFLMAGJ@The?5Block?5at?50x?$CFp?5was?5allocated?5@ 200be018     LIBCMTD:dbgheap.obj
 0002:0000e068       ??_C@_1EE@GFOPCECE@?$AA_?$AAC?$AAr?$AAt?$AAI?$AAs?$AAV?$AAa?$AAl?$AAi?$AAd?$AAH?$AAe?$AAa?$AAp?$AAP?$AAo?$AAi?$AAn?$AAt?$AAe?$AAr?$AA?$CI?$AAp?$AAU?$AAs?$AAe?$AAr?$AAD?$AAa?$AAt?$AAa@ 200be068     LIBCMTD:dbgheap.obj
 0002:0000e0b0       ??_C@_1IK@DCPKDGNH@?$AAp?$AAO?$AAl?$AAd?$AAB?$AAl?$AAo?$AAc?$AAk?$AA?9?$AA?$DO?$AAn?$AAL?$AAi?$AAn?$AAe?$AA?5?$AA?$DN?$AA?$DN?$AA?5?$AAI?$AAG?$AAN?$AAO?$AAR?$AAE?$AA_?$AAL?$AAI?$AAN?$AAE?$AA?5@ 200be0b0     LIBCMTD:dbgheap.obj
 0002:0000e13c       ??_C@_0DA@HFBKENN@Error?3?5possible?5heap?5corruption?5@ 200be13c     LIBCMTD:dbgheap.obj
 0002:0000e170       ??_C@_1GE@PCKLOLAO@?$AAf?$AAR?$AAe?$AAa?$AAl?$AAl?$AAo?$AAc?$AA?5?$AA?$HM?$AA?$HM?$AA?5?$AA?$CI?$AA?$CB?$AAf?$AAR?$AAe?$AAa?$AAl?$AAl?$AAo?$AAc?$AA?5?$AA?$CG?$AA?$CG?$AA?5?$AAp?$AAN?$AAe?$AAw?$AAB?$AAl@ 200be170     LIBCMTD:dbgheap.obj
 0002:0000e1d4       ??_C@_1DC@GEFKNOOL@?$AA_?$AAp?$AAL?$AAa?$AAs?$AAt?$AAB?$AAl?$AAo?$AAc?$AAk?$AA?5?$AA?$DN?$AA?$DN?$AA?5?$AAp?$AAO?$AAl?$AAd?$AAB?$AAl?$AAo?$AAc?$AAk?$AA?$AA@ 200be1d4     LIBCMTD:dbgheap.obj
 0002:0000e208       ??_C@_1DE@KOOKLFBB@?$AA_?$AAp?$AAF?$AAi?$AAr?$AAs?$AAt?$AAB?$AAl?$AAo?$AAc?$AAk?$AA?5?$AA?$DN?$AA?$DN?$AA?5?$AAp?$AAO?$AAl?$AAd?$AAB?$AAl?$AAo?$AAc?$AAk?$AA?$AA@ 200be208     LIBCMTD:dbgheap.obj
 0002:0000e23c       ??_C@_1CE@CJACEFBA@?$AAp?$AAU?$AAs?$AAe?$AAr?$AAD?$AAa?$AAt?$AAa?$AA?5?$AA?$CB?$AA?$DN?$AA?5?$AAN?$AAU?$AAL?$AAL?$AA?$AA@ 200be23c     LIBCMTD:dbgheap.obj
 0002:0000e260       ??_C@_1BI@HAPNGHDP@?$AA_?$AAe?$AAx?$AAp?$AAa?$AAn?$AAd?$AA_?$AAd?$AAb?$AAg?$AA?$AA@ 200be260     LIBCMTD:dbgheap.obj
 0002:0000e278       ??_C@_0EJ@HEIBCIMJ@The?5Block?5at?50x?$CFp?5was?5allocated?5@ 200be278     LIBCMTD:dbgheap.obj
 0002:0000e2c4       ??_C@_0BL@KEIPLFAC@Client?5hook?5free?5failure?4?6?$AA@ 200be2c4     LIBCMTD:dbgheap.obj
 0002:0000e2e0       ??_C@_1EO@LHDAJOCM@?$AA_?$AAB?$AAL?$AAO?$AAC?$AAK?$AA_?$AAT?$AAY?$AAP?$AAE?$AA_?$AAI?$AAS?$AA_?$AAV?$AAA?$AAL?$AAI?$AAD?$AA?$CI?$AAp?$AAH?$AAe?$AAa?$AAd?$AA?9?$AA?$DO?$AAn?$AAB?$AAl?$AAo@ 200be2e0     LIBCMTD:dbgheap.obj
 0002:0000e330       ??_C@_0KI@JGFOHMEB@HEAP?5CORRUPTION?5DETECTED?3?5before@ 200be330     LIBCMTD:dbgheap.obj
 0002:0000e3d8       ??_C@_0IK@PJCGLBOB@HEAP?5CORRUPTION?5DETECTED?3?5before@ 200be3d8     LIBCMTD:dbgheap.obj
 0002:0000e468       ??_C@_0KE@MBMNHHHN@HEAP?5CORRUPTION?5DETECTED?3?5after?5@ 200be468     LIBCMTD:dbgheap.obj
 0002:0000e510       ??_C@_0IG@LEMBDCJK@HEAP?5CORRUPTION?5DETECTED?3?5after?5@ 200be510     LIBCMTD:dbgheap.obj
 0002:0000e598       ??_C@_1HK@HPCBMDFG@?$AAp?$AAH?$AAe?$AAa?$AAd?$AA?9?$AA?$DO?$AAn?$AAL?$AAi?$AAn?$AAe?$AA?5?$AA?$DN?$AA?$DN?$AA?5?$AAI?$AAG?$AAN?$AAO?$AAR?$AAE?$AA_?$AAL?$AAI?$AAN?$AAE?$AA?5?$AA?$CG?$AA?$CG?$AA?5?$AAp@ 200be598     LIBCMTD:dbgheap.obj
 0002:0000e614       ??_C@_1DM@ODCJIDCP@?$AAp?$AAH?$AAe?$AAa?$AAd?$AA?9?$AA?$DO?$AAn?$AAB?$AAl?$AAo?$AAc?$AAk?$AAU?$AAs?$AAe?$AA?5?$AA?$DN?$AA?$DN?$AA?5?$AAn?$AAB?$AAl?$AAo?$AAc?$AAk?$AAU?$AAs?$AAe?$AA?$AA@ 200be614     LIBCMTD:dbgheap.obj
 0002:0000e650       ??_C@_1CK@DMAGEMBG@?$AA_?$AAp?$AAL?$AAa?$AAs?$AAt?$AAB?$AAl?$AAo?$AAc?$AAk?$AA?5?$AA?$DN?$AA?$DN?$AA?5?$AAp?$AAH?$AAe?$AAa?$AAd?$AA?$AA@ 200be650     LIBCMTD:dbgheap.obj
 0002:0000e67c       ??_C@_1CM@MMAADDMD@?$AA_?$AAp?$AAF?$AAi?$AAr?$AAs?$AAt?$AAB?$AAl?$AAo?$AAc?$AAk?$AA?5?$AA?$DN?$AA?$DN?$AA?5?$AAp?$AAH?$AAe?$AAa?$AAd?$AA?$AA@ 200be67c     LIBCMTD:dbgheap.obj
 0002:0000e6a8       ??_C@_1BG@MBKOGDLD@?$AA_?$AAm?$AAs?$AAi?$AAz?$AAe?$AA_?$AAd?$AAb?$AAg?$AA?$AA@ 200be6a8     LIBCMTD:dbgheap.obj
 0002:0000e6c0       ??_C@_0CE@MKKHMBMK@_heapchk?5fails?5with?5_HEAPBADBEGI@ 200be6c0     LIBCMTD:dbgheap.obj
 0002:0000e6e4       ??_C@_0CD@CPKEAPBD@_heapchk?5fails?5with?5_HEAPBADNODE@ 200be6e4     LIBCMTD:dbgheap.obj
 0002:0000e708       ??_C@_0CC@MJGLGBDG@_heapchk?5fails?5with?5_HEAPBADEND?4@ 200be708     LIBCMTD:dbgheap.obj
 0002:0000e72c       ??_C@_0CC@MFFCHFHO@_heapchk?5fails?5with?5_HEAPBADPTR?4@ 200be72c     LIBCMTD:dbgheap.obj
 0002:0000e750       ??_C@_0CL@HNNNMKMJ@_heapchk?5fails?5with?5unknown?5retu@ 200be750     LIBCMTD:dbgheap.obj
 0002:0000e77c       ??_C@_07OHKEFPKJ@DAMAGED?$AA@ 200be77c     LIBCMTD:dbgheap.obj
 0002:0000e788       ??_C@_0KA@IHNJJKPL@HEAP?5CORRUPTION?5DETECTED?3?5on?5top@ 200be788     LIBCMTD:dbgheap.obj
 0002:0000e828       ??_C@_0IC@BBJIOOJH@HEAP?5CORRUPTION?5DETECTED?3?5on?5top@ 200be828     LIBCMTD:dbgheap.obj
 0002:0000e8b0       ??_C@_0EG@DGJMPDBH@?$CFhs?5located?5at?50x?$CFp?5is?5?$CFIu?5bytes@ 200be8b0     LIBCMTD:dbgheap.obj
 0002:0000e8f8       ??_C@_0CI@JMLBEDHJ@?$CFhs?5located?5at?50x?$CFp?5is?5?$CFIu?5bytes@ 200be8f8     LIBCMTD:dbgheap.obj
 0002:0000e920       ??_C@_1BHO@NNANJNF@?$AA?$CI?$AAf?$AAN?$AAe?$AAw?$AAB?$AAi?$AAt?$AAs?$AA?$DN?$AA?$DN?$AA_?$AAC?$AAR?$AAT?$AAD?$AAB?$AAG?$AA_?$AAR?$AAE?$AAP?$AAO?$AAR?$AAT?$AA_?$AAF?$AAL?$AAA?$AAG?$AA?$CJ?$AA?5@ 200be920     LIBCMTD:dbgheap.obj
 0002:0000eaa0       ??_C@_1BO@GJFDNMNF@?$AA_?$AAC?$AAr?$AAt?$AAS?$AAe?$AAt?$AAD?$AAb?$AAg?$AAF?$AAl?$AAa?$AAg?$AA?$AA@ 200beaa0     LIBCMTD:dbgheap.obj
 0002:0000eac0       ??_C@_1BI@CJGCEEDL@?$AAp?$AAf?$AAn?$AA?5?$AA?$CB?$AA?$DN?$AA?5?$AAN?$AAU?$AAL?$AAL?$AA?$AA@ 200beac0     LIBCMTD:dbgheap.obj
 0002:0000ead8       ??_C@_1DE@GJCKCKEC@?$AA_?$AAC?$AAr?$AAt?$AAD?$AAo?$AAF?$AAo?$AAr?$AAA?$AAl?$AAl?$AAC?$AAl?$AAi?$AAe?$AAn?$AAt?$AAO?$AAb?$AAj?$AAe?$AAc?$AAt?$AAs?$AA?$AA@ 200bead8     LIBCMTD:dbgheap.obj
 0002:0000eb0c       ??_C@_1BM@MIMANDHC@?$AAs?$AAt?$AAa?$AAt?$AAe?$AA?5?$AA?$CB?$AA?$DN?$AA?5?$AAN?$AAU?$AAL?$AAL?$AA?$AA@ 200beb0c     LIBCMTD:dbgheap.obj
 0002:0000eb28       ??_C@_1CE@NJJKELF@?$AA_?$AAC?$AAr?$AAt?$AAM?$AAe?$AAm?$AAC?$AAh?$AAe?$AAc?$AAk?$AAp?$AAo?$AAi?$AAn?$AAt?$AA?$AA@ 200beb28     LIBCMTD:dbgheap.obj
 0002:0000eb4c       ??_C@_0DP@LEFMFBOD@Bad?5memory?5block?5found?5at?50x?$CFp?4?6@ 200beb4c     LIBCMTD:dbgheap.obj
 0002:0000eb8c       ??_C@_0CB@EAAIGELO@Bad?5memory?5block?5found?5at?50x?$CFp?4?6@ 200beb8c     LIBCMTD:dbgheap.obj
 0002:0000ebb0       ??_C@_1CE@PDIENACM@?$AA_?$AAC?$AAr?$AAt?$AAM?$AAe?$AAm?$AAD?$AAi?$AAf?$AAf?$AAe?$AAr?$AAe?$AAn?$AAc?$AAe?$AA?$AA@ 200bebb0     LIBCMTD:dbgheap.obj
 0002:0000ebd4       ??_C@_1CC@DHPFEMMN@?$AAo?$AAl?$AAd?$AAS?$AAt?$AAa?$AAt?$AAe?$AA?5?$AA?$CB?$AA?$DN?$AA?5?$AAN?$AAU?$AAL?$AAL?$AA?$AA@ 200bebd4     LIBCMTD:dbgheap.obj
 0002:0000ebf8       ??_C@_1CC@DFPEDFBP@?$AAn?$AAe?$AAw?$AAS?$AAt?$AAa?$AAt?$AAe?$AA?5?$AA?$CB?$AA?$DN?$AA?5?$AAN?$AAU?$AAL?$AAL?$AA?$AA@ 200bebf8     LIBCMTD:dbgheap.obj
 0002:0000ec1c       ??_C@_05MKKEDADM@?$CF?42X?5?$AA@ 200bec1c     LIBCMTD:dbgheap.obj
 0002:0000ec24       ??_C@_1CG@LPFIACGM@?$AA_?$AAp?$AAr?$AAi?$AAn?$AAt?$AAM?$AAe?$AAm?$AAB?$AAl?$AAo?$AAc?$AAk?$AAD?$AAa?$AAt?$AAa?$AA?$AA@ 200bec24     LIBCMTD:dbgheap.obj
 0002:0000ec4c       ??_C@_0BA@HJBKCELP@?5Data?3?5?$DM?$CFs?$DO?5?$CFs?6?$AA@ 200bec4c     LIBCMTD:dbgheap.obj
 0002:0000ec5c       ??_C@_0BE@KCIPKCIA@Dumping?5objects?5?9?$DO?6?$AA@ 200bec5c     LIBCMTD:dbgheap.obj
 0002:0000ec70       ??_C@_0BE@OIEFNFL@?$CDFile?5Error?$CD?$CI?$CFd?$CJ?5?3?5?$AA@ 200bec70     LIBCMTD:dbgheap.obj
 0002:0000ec84       ??_C@_0L@JMEFFCCJ@?$CFhs?$CI?$CFd?$CJ?5?3?5?$AA@ 200bec84     LIBCMTD:dbgheap.obj
 0002:0000ec90       ??_C@_06PKLGBFGM@?$HL?$CFld?$HN?5?$AA@ 200bec90     LIBCMTD:dbgheap.obj
 0002:0000ec98       ??_C@_0DD@GHNAAKBB@client?5block?5at?50x?$CFp?0?5subtype?5?$CFx@ 200bec98     LIBCMTD:dbgheap.obj
 0002:0000eccc       ??_C@_0CH@FAGDDGPN@normal?5block?5at?50x?$CFp?0?5?$CFIu?5bytes?5@ 200beccc     LIBCMTD:dbgheap.obj
 0002:0000ecf4       ??_C@_0DA@MDLBNIBM@crt?5block?5at?50x?$CFp?0?5subtype?5?$CFx?0?5?$CF@ 200becf4     LIBCMTD:dbgheap.obj
 0002:0000ed24       ??_C@_0BH@GFGKJDCO@Object?5dump?5complete?4?6?$AA@ 200bed24     LIBCMTD:dbgheap.obj
 0002:0000ed3c       ??_C@_0BI@JBFPOEJA@Detected?5memory?5leaks?$CB?6?$AA@ 200bed3c     LIBCMTD:dbgheap.obj
 0002:0000ed54       ??_C@_1CM@MPNIBKGK@?$AA_?$AAC?$AAr?$AAt?$AAM?$AAe?$AAm?$AAD?$AAu?$AAm?$AAp?$AAS?$AAt?$AAa?$AAt?$AAi?$AAs?$AAt?$AAi?$AAc?$AAs?$AA?$AA@ 200bed54     LIBCMTD:dbgheap.obj
 0002:0000ed80       ??_C@_0BO@DACNIABB@?$CFId?5bytes?5in?5?$CFId?5?$CFhs?5Blocks?4?6?$AA@ 200bed80     LIBCMTD:dbgheap.obj
 0002:0000eda0       ??_C@_0CB@BLHDAFNE@Largest?5number?5used?3?5?$CFId?5bytes?4?6@ 200beda0     LIBCMTD:dbgheap.obj
 0002:0000edc4       ??_C@_0BP@DEDHGGGI@Total?5allocations?3?5?$CFId?5bytes?4?6?$AA@ 200bedc4     LIBCMTD:dbgheap.obj
 0002:0000ede4       ??_C@_1CE@NPMGPNNP@?$AAI?$AAS?$AA_?$AA2?$AA_?$AAP?$AAO?$AAW?$AA_?$AAN?$AA?$CI?$AAa?$AAl?$AAi?$AAg?$AAn?$AA?$CJ?$AA?$AA@ 200bede4     LIBCMTD:dbgheap.obj
 0002:0000ee08       ??_C@_1DG@DONCJBBJ@?$AA_?$AAa?$AAl?$AAi?$AAg?$AAn?$AAe?$AAd?$AA_?$AAo?$AAf?$AAf?$AAs?$AAe?$AAt?$AA_?$AAm?$AAa?$AAl?$AAl?$AAo?$AAc?$AA_?$AAd?$AAb?$AAg?$AA?$AA@ 200bee08     LIBCMTD:dbgheap.obj
 0002:0000ee40       ??_C@_1DK@LFLKFPDA@?$AAo?$AAf?$AAf?$AAs?$AAe?$AAt?$AA?5?$AA?$DN?$AA?$DN?$AA?5?$AA0?$AA?5?$AA?$HM?$AA?$HM?$AA?5?$AAo?$AAf?$AAf?$AAs?$AAe?$AAt?$AA?5?$AA?$DM?$AA?5?$AAs?$AAi?$AAz?$AAe?$AA?$AA@ 200bee40     LIBCMTD:dbgheap.obj
 0002:0000ee80       ??_C@_0EI@NDNJMAJK@The?5block?5at?50x?$CFp?5was?5not?5alloca@ 200bee80     LIBCMTD:dbgheap.obj
 0002:0000eec8       ??_C@_0DL@PGHMMKNE@Damage?5before?50x?$CFp?5which?5was?5all@ 200beec8     LIBCMTD:dbgheap.obj
 0002:0000ef04       ??_C@_1DI@NINIKFFK@?$AA_?$AAa?$AAl?$AAi?$AAg?$AAn?$AAe?$AAd?$AA_?$AAo?$AAf?$AAf?$AAs?$AAe?$AAt?$AA_?$AAr?$AAe?$AAa?$AAl?$AAl?$AAo?$AAc?$AA_?$AAd?$AAb?$AAg?$AA?$AA@ 200bef04     LIBCMTD:dbgheap.obj
 0002:0000ef40       ??_C@_0EF@PGELACII@The?5block?5at?50x?$CFp?5was?5not?5alloca@ 200bef40     LIBCMTD:dbgheap.obj
 0002:0000ef88       ??_C@_1CC@MOBIKHH@?$AAm?$AAe?$AAm?$AAb?$AAl?$AAo?$AAc?$AAk?$AA?5?$AA?$CB?$AA?$DN?$AA?5?$AAN?$AAU?$AAL?$AAL?$AA?$AA@ 200bef88     LIBCMTD:dbgheap.obj
 0002:0000efac       ??_C@_1CG@CEGMHIMN@?$AA_?$AAa?$AAl?$AAi?$AAg?$AAn?$AAe?$AAd?$AA_?$AAm?$AAs?$AAi?$AAz?$AAe?$AA_?$AAd?$AAb?$AAg?$AA?$AA@ 200befac     LIBCMTD:dbgheap.obj
 0002:0000efd4       ??_C@_0CG@NNNNMKLF@f?3?2dd?2vctools?2crt?2crtw32?2misc?2a_@ 200befd4     LIBCMTD:a_env.obj
 0002:0000f000       ??_C@_1FE@DNGHOFOC@?$AAf?$AA?3?$AA?2?$AAd?$AAd?$AA?2?$AAv?$AAc?$AAt?$AAo?$AAo?$AAl?$AAs?$AA?2?$AAc?$AAr?$AAt?$AA?2?$AAc?$AAr?$AAt?$AAw?$AA3?$AA2?$AA?2?$AAc?$AAo?$AAn?$AAv?$AAe?$AAr?$AAt@ 200bf000     LIBCMTD:strtod.obj
 0002:0000f054       ??_C@_1BE@KFBKGHJC@?$AA_?$AAs?$AAt?$AAr?$AAt?$AAo?$AAd?$AA_?$AAl?$AA?$AA@ 200bf054     LIBCMTD:strtod.obj
 0002:0000f068       ??_C@_0CJ@LPLBAFNO@f?3?2dd?2vctools?2crt?2crtw32?2startup@ 200bf068     LIBCMTD:mlock.obj
 0002:0000f098       ??_C@_1FC@NCPEPIBI@?$AA?$CI?$AA?$CI?$AA_?$AAD?$AAs?$AAt?$AA?$CJ?$AA?$CJ?$AA?5?$AA?$CB?$AA?$DN?$AA?5?$AAN?$AAU?$AAL?$AAL?$AA?5?$AA?$CG?$AA?$CG?$AA?5?$AA?$CI?$AA?$CI?$AA_?$AAS?$AAi?$AAz?$AAe?$AAI?$AAn?$AAB?$AAy?$AAt@ 200bf098     LIBCMTD:strcpy_s.obj
 0002:0000f0ec       ??_C@_1BC@CFJEPFGF@?$AAs?$AAt?$AAr?$AAc?$AAp?$AAy?$AA_?$AAs?$AA?$AA@ 200bf0ec     LIBCMTD:strcpy_s.obj
 0002:0000f100       ??_C@_1FI@JBLIKEIM@?$AAf?$AA?3?$AA?2?$AAd?$AAd?$AA?2?$AAv?$AAc?$AAt?$AAo?$AAo?$AAl?$AAs?$AA?2?$AAc?$AAr?$AAt?$AA?2?$AAc?$AAr?$AAt?$AAw?$AA3?$AA2?$AA?2?$AAc?$AAo?$AAn?$AAv?$AAe?$AAr?$AAt@ 200bf100     LIBCMTD:_fptostr.obj
 0002:0000f158       ??_C@_1BC@OPALLEB@?$AA_?$AAf?$AAp?$AAt?$AAo?$AAs?$AAt?$AAr?$AA?$AA@ 200bf158     LIBCMTD:_fptostr.obj
 0002:0000f170       ??_C@_1GM@CEDLGDDI@?$AAs?$AAi?$AAz?$AAe?$AAI?$AAn?$AAB?$AAy?$AAt?$AAe?$AAs?$AA?5?$AA?$DO?$AA?5?$AA?$CI?$AAs?$AAi?$AAz?$AAe?$AA_?$AAt?$AA?$CJ?$AA?$CI?$AA?$CI?$AAd?$AAi?$AAg?$AAi?$AAt?$AAs?$AA?5?$AA?$DO@ 200bf170     LIBCMTD:_fptostr.obj
 0002:0000f1dc       ??_C@_1BK@CLIEHFDF@?$AAp?$AAf?$AAl?$AAt?$AA?5?$AA?$CB?$AA?$DN?$AA?5?$AAN?$AAU?$AAL?$AAL?$AA?$AA@ 200bf1dc     LIBCMTD:_fptostr.obj
 0002:0000f1f8       ??_C@_1EK@LJBJCHGA@?$AAf?$AA?3?$AA?2?$AAd?$AAd?$AA?2?$AAv?$AAc?$AAt?$AAo?$AAo?$AAl?$AAs?$AA?2?$AAc?$AAr?$AAt?$AA?2?$AAf?$AAp?$AAw?$AA3?$AA2?$AA?2?$AAc?$AAo?$AAn?$AAv?$AA?2?$AAc?$AAf?$AAo@ 200bf1f8     LIBCMTD:cfout.obj
 0002:0000f244       ??_C@_1BC@BPMMEHLK@?$AA_?$AAf?$AAl?$AAt?$AAo?$AAu?$AAt?$AA2?$AA?$AA@ 200bf244     LIBCMTD:cfout.obj
 0002:0000f258       ??_C@_1FK@KODCOBKF@?$AAs?$AAt?$AAr?$AAc?$AAp?$AAy?$AA_?$AAs?$AA?$CI?$AAr?$AAe?$AAs?$AAu?$AAl?$AAt?$AAs?$AAt?$AAr?$AA?0?$AA?5?$AAr?$AAe?$AAs?$AAu?$AAl?$AAt?$AAs?$AAi?$AAz?$AAe?$AA?0?$AA?5@ 200bf258     LIBCMTD:cfout.obj
 0002:0000f2b8       ??_C@_1EM@EGEEBJLG@?$AA?$CI?$AAo?$AAp?$AAt?$AAi?$AAo?$AAn?$AAs?$AA?5?$AA?$CG?$AA?5?$AA?$HO?$AA_?$AAT?$AAW?$AAO?$AA_?$AAD?$AAI?$AAG?$AAI?$AAT?$AA_?$AAE?$AAX?$AAP?$AAO?$AAN?$AAE?$AAN?$AAT?$AA?$CJ@ 200bf2b8     LIBCMTD:outputformat.obj
 0002:0000f308       ??_C@_1FM@FBHCILLE@?$AAf?$AA?3?$AA?2?$AAd?$AAd?$AA?2?$AAv?$AAc?$AAt?$AAo?$AAo?$AAl?$AAs?$AA?2?$AAc?$AAr?$AAt?$AA?2?$AAc?$AAr?$AAt?$AAw?$AA3?$AA2?$AA?2?$AAs?$AAt?$AAd?$AAi?$AAo?$AA?2?$AAo@ 200bf308     LIBCMTD:outputformat.obj
 0002:0000f364       ??_C@_1CG@EBJECAJM@?$AA_?$AAs?$AAe?$AAt?$AA_?$AAo?$AAu?$AAt?$AAp?$AAu?$AAt?$AA_?$AAf?$AAo?$AAr?$AAm?$AAa?$AAt?$AA?$AA@ 200bf364     LIBCMTD:outputformat.obj
 0002:0000f38c       ??_C@_1DG@JNDMIEJL@?$AA?$CI?$AA?$CC?$AAI?$AAn?$AAv?$AAa?$AAl?$AAi?$AAd?$AA?5?$AAi?$AAn?$AAp?$AAu?$AAt?$AA?5?$AAv?$AAa?$AAl?$AAu?$AAe?$AA?$CC?$AA?0?$AA?5?$AA0?$AA?$CJ?$AA?$AA@ 200bf38c     LIBCMTD:contrlfp.obj
 0002:0000f3c8       ??_C@_1FA@IJLDLDMO@?$AAf?$AA?3?$AA?2?$AAd?$AAd?$AA?2?$AAv?$AAc?$AAt?$AAo?$AAo?$AAl?$AAs?$AA?2?$AAc?$AAr?$AAt?$AA?2?$AAf?$AAp?$AAw?$AA3?$AA2?$AA?2?$AAt?$AAr?$AAa?$AAn?$AA?2?$AAc?$AAo?$AAn@ 200bf3c8     LIBCMTD:contrlfp.obj
 0002:0000f418       ??_C@_1BK@CDOALEA@?$AA_?$AAc?$AAo?$AAn?$AAt?$AAr?$AAo?$AAl?$AAf?$AAp?$AA_?$AAs?$AA?$AA@ 200bf418     LIBCMTD:contrlfp.obj
 0002:0000f434       ??_C@_0CI@NOHEOGNG@f?3?2dd?2vctools?2crt?2crtw32?2misc?2in@ 200bf434     LIBCMTD:initmon.obj
 0002:0000f45c       ??_C@_1DM@GKAPAMDO@?$AAp?$AAl?$AAo?$AAc?$AAi?$AA?9?$AA?$DO?$AAl?$AAc?$AAo?$AAn?$AAv?$AA_?$AAm?$AAo?$AAn?$AA_?$AAr?$AAe?$AAf?$AAc?$AAo?$AAu?$AAn?$AAt?$AA?5?$AA?$DO?$AA?5?$AA0?$AA?$AA@ 200bf45c     LIBCMTD:initmon.obj
 0002:0000f498       ??_C@_1FA@CNNDGPJL@?$AAf?$AA?3?$AA?2?$AAd?$AAd?$AA?2?$AAv?$AAc?$AAt?$AAo?$AAo?$AAl?$AAs?$AA?2?$AAc?$AAr?$AAt?$AA?2?$AAc?$AAr?$AAt?$AAw?$AA3?$AA2?$AA?2?$AAm?$AAi?$AAs?$AAc?$AA?2?$AAi?$AAn@ 200bf498     LIBCMTD:initmon.obj
 0002:0000f4e8       ??_C@_0CI@GAAFLELF@f?3?2dd?2vctools?2crt?2crtw32?2misc?2in@ 200bf4e8     LIBCMTD:initnum.obj
 0002:0000f510       ??_C@_1DM@IFKAINNE@?$AAp?$AAl?$AAo?$AAc?$AAi?$AA?9?$AA?$DO?$AAl?$AAc?$AAo?$AAn?$AAv?$AA_?$AAn?$AAu?$AAm?$AA_?$AAr?$AAe?$AAf?$AAc?$AAo?$AAu?$AAn?$AAt?$AA?5?$AA?$DO?$AA?5?$AA0?$AA?$AA@ 200bf510     LIBCMTD:initnum.obj
 0002:0000f550       ??_C@_1FA@OEEOKLKJ@?$AAf?$AA?3?$AA?2?$AAd?$AAd?$AA?2?$AAv?$AAc?$AAt?$AAo?$AAo?$AAl?$AAs?$AA?2?$AAc?$AAr?$AAt?$AA?2?$AAc?$AAr?$AAt?$AAw?$AA3?$AA2?$AA?2?$AAm?$AAi?$AAs?$AAc?$AA?2?$AAi?$AAn@ 200bf550     LIBCMTD:initnum.obj
 0002:0000f5a0       ??_C@_0CJ@HGFGLKBM@f?3?2dd?2vctools?2crt?2crtw32?2misc?2in@ 200bf5a0     LIBCMTD:inittime.obj
 0002:0000f5d0       ??_C@_1EE@FDHCFDHN@?$AAp?$AAl?$AAo?$AAc?$AAi?$AA?9?$AA?$DO?$AAl?$AAc?$AA_?$AAt?$AAi?$AAm?$AAe?$AA_?$AAc?$AAu?$AAr?$AAr?$AA?9?$AA?$DO?$AAr?$AAe?$AAf?$AAc?$AAo?$AAu?$AAn?$AAt?$AA?5?$AA?$DO?$AA?5@ 200bf5d0     LIBCMTD:inittime.obj
 0002:0000f618       ??_C@_1FC@GNPEEAOA@?$AAf?$AA?3?$AA?2?$AAd?$AAd?$AA?2?$AAv?$AAc?$AAt?$AAo?$AAo?$AAl?$AAs?$AA?2?$AAc?$AAr?$AAt?$AA?2?$AAc?$AAr?$AAt?$AAw?$AA3?$AA2?$AA?2?$AAm?$AAi?$AAs?$AAc?$AA?2?$AAi?$AAn@ 200bf618     LIBCMTD:inittime.obj
 0002:0000f670       ??_C@_1FE@HMGHELF@?$AAf?$AA?3?$AA?2?$AAd?$AAd?$AA?2?$AAv?$AAc?$AAt?$AAo?$AAo?$AAl?$AAs?$AA?2?$AAc?$AAr?$AAt?$AA?2?$AAc?$AAr?$AAt?$AAw?$AA3?$AA2?$AA?2?$AAs?$AAt?$AAd?$AAi?$AAo?$AA?2?$AAs@ 200bf670     LIBCMTD:swprintf.obj
 0002:0000f6c4       ??_C@_1BE@BMIJMLDD@?$AA_?$AAs?$AAw?$AAp?$AAr?$AAi?$AAn?$AAt?$AAf?$AA?$AA@ 200bf6c4     LIBCMTD:swprintf.obj
 0002:0000f6d8       ??_C@_1FA@IFFFOLDJ@?$AAn?$AAR?$AAp?$AAt?$AAT?$AAy?$AAp?$AAe?$AA?5?$AA?$DO?$AA?$DN?$AA?5?$AA0?$AA?5?$AA?$CG?$AA?$CG?$AA?5?$AAn?$AAR?$AAp?$AAt?$AAT?$AAy?$AAp?$AAe?$AA?5?$AA?$DM?$AA?5?$AA_?$AAC?$AAR?$AAT@ 200bf6d8     LIBCMTD:dbgrptt.obj
 0002:0000f728       ??_C@_1FA@PPLJBGMP@?$AAf?$AA?3?$AA?2?$AAd?$AAd?$AA?2?$AAv?$AAc?$AAt?$AAo?$AAo?$AAl?$AAs?$AA?2?$AAc?$AAr?$AAt?$AA?2?$AAc?$AAr?$AAt?$AAw?$AA3?$AA2?$AA?2?$AAm?$AAi?$AAs?$AAc?$AA?2?$AAd?$AAb@ 200bf728     LIBCMTD:dbgrptt.obj
 0002:0000f778       ??_C@_1CE@FIHIECNJ@?$AA_?$AAC?$AAr?$AAt?$AAS?$AAe?$AAt?$AAR?$AAe?$AAp?$AAo?$AAr?$AAt?$AAM?$AAo?$AAd?$AAe?$AA?$AA@ 200bf778     LIBCMTD:dbgrptt.obj
 0002:0000f7a0       ??_C@_1NK@LOFHIHFC@?$AAf?$AAM?$AAo?$AAd?$AAe?$AA?5?$AA?$DN?$AA?$DN?$AA?5?$AA_?$AAC?$AAR?$AAT?$AAD?$AAB?$AAG?$AA_?$AAR?$AAE?$AAP?$AAO?$AAR?$AAT?$AA_?$AAM?$AAO?$AAD?$AAE?$AA?5?$AA?$HM?$AA?$HM?$AA?5@ 200bf7a0     LIBCMTD:dbgrptt.obj
 0002:0000f87c       ??_C@_1CE@IKKEDCME@?$AA_?$AAC?$AAr?$AAt?$AAS?$AAe?$AAt?$AAR?$AAe?$AAp?$AAo?$AAr?$AAt?$AAF?$AAi?$AAl?$AAe?$AA?$AA@ 200bf87c     LIBCMTD:dbgrptt.obj
 0002:0000f8a0       ??_C@_1CA@KHJHLKA@?$AA_?$AAV?$AAC?$AAr?$AAt?$AAD?$AAb?$AAg?$AAR?$AAe?$AAp?$AAo?$AAr?$AAt?$AAA?$AA?$AA@ 200bf8a0     LIBCMTD:dbgrptt.obj
 0002:0000f8c0       ??_C@_1FA@JPHJBHEM@?$AA_?$AAi?$AAt?$AAo?$AAa?$AA_?$AAs?$AA?$CI?$AAn?$AAL?$AAi?$AAn?$AAe?$AA?0?$AA?5?$AAs?$AAz?$AAL?$AAi?$AAn?$AAe?$AAM?$AAe?$AAs?$AAs?$AAa?$AAg?$AAe?$AA?0?$AA?5?$AA4?$AA0@ 200bf8c0     LIBCMTD:dbgrptt.obj
 0002:0000f910       ??_C@_0CG@BNGLOCEO@Second?5Chance?5Assertion?5Failed?3?5@ 200bf910     LIBCMTD:dbgrptt.obj
 0002:0000f938       ??_C@_0P@DFJNDPOP@?$DMfile?5unknown?$DO?$AA@ 200bf938     LIBCMTD:dbgrptt.obj
 0002:0000f948       ??_C@_07BHGABMGB@?0?5Line?5?$AA@ 200bf948     LIBCMTD:dbgrptt.obj
 0002:0000f950       ??_C@_1JI@GAALPGBM@?$AAs?$AAt?$AAr?$AAc?$AAp?$AAy?$AA_?$AAs?$AA?$CI?$AAs?$AAz?$AAU?$AAs?$AAe?$AAr?$AAM?$AAe?$AAs?$AAs?$AAa?$AAg?$AAe?$AA?0?$AA?5?$AA4?$AA0?$AA9?$AA6?$AA?0?$AA?5?$AA?$CC?$AA_@ 200bf950     LIBCMTD:dbgrptt.obj
 0002:0000f9e8       ??_C@_0CL@EACFGMNB@_CrtDbgReport?3?5String?5too?5long?5o@ 200bf9e8     LIBCMTD:dbgrptt.obj
 0002:0000fa18       ??_C@_1KK@GIGAEDMO@?$AAs?$AAt?$AAr?$AAc?$AAp?$AAy?$AA_?$AAs?$AA?$CI?$AAs?$AAz?$AAL?$AAi?$AAn?$AAe?$AAM?$AAe?$AAs?$AAs?$AAa?$AAg?$AAe?$AA?0?$AA?5?$AA4?$AA0?$AA9?$AA6?$AA?0?$AA?5?$AAs?$AAz@ 200bfa18     LIBCMTD:dbgrptt.obj
 0002:0000fac4       ??_C@_0BD@CAENFOHP@Assertion?5failed?3?5?$AA@ 200bfac4     LIBCMTD:dbgrptt.obj
 0002:0000fad8       ??_C@_0BC@LAIDCHCH@Assertion?5failed?$CB?$AA@ 200bfad8     LIBCMTD:dbgrptt.obj
 0002:0000faf0       ??_C@_1FK@NPGBPOFO@?$AAs?$AAt?$AAr?$AAc?$AAa?$AAt?$AA_?$AAs?$AA?$CI?$AAs?$AAz?$AAL?$AAi?$AAn?$AAe?$AAM?$AAe?$AAs?$AAs?$AAa?$AAg?$AAe?$AA?0?$AA?5?$AA4?$AA0?$AA9?$AA6?$AA?0?$AA?5?$AAs?$AAz@ 200bfaf0     LIBCMTD:dbgrptt.obj
 0002:0000fb50       ??_C@_1EI@CACDLAFK@?$AAs?$AAt?$AAr?$AAc?$AAa?$AAt?$AA_?$AAs?$AA?$CI?$AAs?$AAz?$AAL?$AAi?$AAn?$AAe?$AAM?$AAe?$AAs?$AAs?$AAa?$AAg?$AAe?$AA?0?$AA?5?$AA4?$AA0?$AA9?$AA6?$AA?0?$AA?5?$AA?$CC?$AA?2@ 200bfb50     LIBCMTD:dbgrptt.obj
 0002:0000fb98       ??_C@_01LIIJDEN@?$AN?$AA@  200bfb98     LIBCMTD:dbgrptt.obj
 0002:0000fba0       ??_C@_1EI@LDHJEDO@?$AAs?$AAt?$AAr?$AAc?$AAa?$AAt?$AA_?$AAs?$AA?$CI?$AAs?$AAz?$AAL?$AAi?$AAn?$AAe?$AAM?$AAe?$AAs?$AAs?$AAa?$AAg?$AAe?$AA?0?$AA?5?$AA4?$AA0?$AA9?$AA6?$AA?0?$AA?5?$AA?$CC?$AA?2@ 200bfba0     LIBCMTD:dbgrptt.obj
 0002:0000fbe8       ??_C@_0M@IPILFDFN@?$CFs?$CI?$CFd?$CJ?5?3?5?$CFs?$AA@ 200bfbe8     LIBCMTD:dbgrptt.obj
 0002:0000fbf8       ??_C@_1JG@CPKCIOEE@?$AAs?$AAt?$AAr?$AAc?$AAp?$AAy?$AA_?$AAs?$AA?$CI?$AAs?$AAz?$AAO?$AAu?$AAt?$AAM?$AAe?$AAs?$AAs?$AAa?$AAg?$AAe?$AA?0?$AA?5?$AA4?$AA0?$AA9?$AA6?$AA?0?$AA?5?$AA?$CC?$AA_?$AAC@ 200bfbf8     LIBCMTD:dbgrptt.obj
 0002:0000fc90       ??_C@_1FI@IBIOIHEG@?$AAs?$AAt?$AAr?$AAc?$AAp?$AAy?$AA_?$AAs?$AA?$CI?$AAs?$AAz?$AAO?$AAu?$AAt?$AAM?$AAe?$AAs?$AAs?$AAa?$AAg?$AAe?$AA?0?$AA?5?$AA4?$AA0?$AA9?$AA6?$AA?0?$AA?5?$AAs?$AAz?$AAL@ 200bfc90     LIBCMTD:dbgrptt.obj
 0002:0000fce8       ??_C@_1IM@OOKIFKOH@?$AAe?$AA?5?$AA?$DN?$AA?5?$AAm?$AAb?$AAs?$AAt?$AAo?$AAw?$AAc?$AAs?$AA_?$AAs?$AA?$CI?$AA?$CG?$AAr?$AAe?$AAt?$AA?0?$AA?5?$AAs?$AAz?$AAO?$AAu?$AAt?$AAM?$AAe?$AAs?$AAs?$AAa?$AAg@ 200bfce8     LIBCMTD:dbgrptt.obj
 0002:0000fd78       ??_C@_1MC@IGEECMDB@?$AAw?$AAc?$AAs?$AAc?$AAp?$AAy?$AA_?$AAs?$AA?$CI?$AAs?$AAz?$AAO?$AAu?$AAt?$AAM?$AAe?$AAs?$AAs?$AAa?$AAg?$AAe?$AA2?$AA?0?$AA?5?$AA4?$AA0?$AA9?$AA6?$AA?0?$AA?5?$AAL?$AA?$CC@ 200bfd78     LIBCMTD:dbgrptt.obj
 0002:0000fe40       ??_C@_1HO@PJOFIKFE@?$AA_?$AAC?$AAr?$AAt?$AAD?$AAb?$AAg?$AAR?$AAe?$AAp?$AAo?$AAr?$AAt?$AA?3?$AA?5?$AAS?$AAt?$AAr?$AAi?$AAn?$AAg?$AA?5?$AAt?$AAo?$AAo?$AA?5?$AAl?$AAo?$AAn?$AAg?$AA?5?$AAo@ 200bfe40     LIBCMTD:dbgrptt.obj
 0002:0000fec0       ??_C@_1CA@HPALHDOD@?$AA_?$AAV?$AAC?$AAr?$AAt?$AAD?$AAb?$AAg?$AAR?$AAe?$AAp?$AAo?$AAr?$AAt?$AAW?$AA?$AA@ 200bfec0     LIBCMTD:dbgrptt.obj
 0002:0000fee0       ??_C@_1FA@CNLLOMHI@?$AA_?$AAi?$AAt?$AAo?$AAw?$AA_?$AAs?$AA?$CI?$AAn?$AAL?$AAi?$AAn?$AAe?$AA?0?$AA?5?$AAs?$AAz?$AAL?$AAi?$AAn?$AAe?$AAM?$AAe?$AAs?$AAs?$AAa?$AAg?$AAe?$AA?0?$AA?5?$AA4?$AA0@ 200bfee0     LIBCMTD:dbgrptt.obj
 0002:0000ff30       ??_C@_1EM@MJFLEDMB@?$AAS?$AAe?$AAc?$AAo?$AAn?$AAd?$AA?5?$AAC?$AAh?$AAa?$AAn?$AAc?$AAe?$AA?5?$AAA?$AAs?$AAs?$AAe?$AAr?$AAt?$AAi?$AAo?$AAn?$AA?5?$AAF?$AAa?$AAi?$AAl?$AAe?$AAd?$AA?3?$AA?5@ 200bff30     LIBCMTD:dbgrptt.obj
 0002:0000ff7c       ??_C@_1BO@OCHMLCAG@?$AA?$DM?$AAf?$AAi?$AAl?$AAe?$AA?5?$AAu?$AAn?$AAk?$AAn?$AAo?$AAw?$AAn?$AA?$DO?$AA?$AA@ 200bff7c     LIBCMTD:dbgrptt.obj
 0002:0000ff9c       ??_C@_1BA@ELMMDCFC@?$AA?0?$AA?5?$AAL?$AAi?$AAn?$AAe?$AA?5?$AA?$AA@ 200bff9c     LIBCMTD:dbgrptt.obj
 0002:0000ffb0       ??_C@_1JK@KHFABAEO@?$AAw?$AAc?$AAs?$AAc?$AAp?$AAy?$AA_?$AAs?$AA?$CI?$AAs?$AAz?$AAU?$AAs?$AAe?$AAr?$AAM?$AAe?$AAs?$AAs?$AAa?$AAg?$AAe?$AA?0?$AA?5?$AA4?$AA0?$AA9?$AA6?$AA?0?$AA?5?$AAL?$AA?$CC@ 200bffb0     LIBCMTD:dbgrptt.obj
 0002:00010050       ??_C@_1KO@DGAHENCH@?$AAw?$AAc?$AAs?$AAc?$AAp?$AAy?$AA_?$AAs?$AA?$CI?$AAs?$AAz?$AAL?$AAi?$AAn?$AAe?$AAM?$AAe?$AAs?$AAs?$AAa?$AAg?$AAe?$AA?0?$AA?5?$AA4?$AA0?$AA9?$AA6?$AA?0?$AA?5?$AAs?$AAz@ 200c0050     LIBCMTD:dbgrptt.obj
 0002:00010100       ??_C@_1CG@FFFGGODN@?$AAA?$AAs?$AAs?$AAe?$AAr?$AAt?$AAi?$AAo?$AAn?$AA?5?$AAf?$AAa?$AAi?$AAl?$AAe?$AAd?$AA?3?$AA?5?$AA?$AA@ 200c0100     LIBCMTD:dbgrptt.obj
 0002:00010128       ??_C@_1FK@HPADHBBD@?$AAw?$AAc?$AAs?$AAc?$AAa?$AAt?$AA_?$AAs?$AA?$CI?$AAs?$AAz?$AAL?$AAi?$AAn?$AAe?$AAM?$AAe?$AAs?$AAs?$AAa?$AAg?$AAe?$AA?0?$AA?5?$AA4?$AA0?$AA9?$AA6?$AA?0?$AA?5?$AAs?$AAz@ 200c0128     LIBCMTD:dbgrptt.obj
 0002:00010188       ??_C@_1EK@NMDFGHMF@?$AAw?$AAc?$AAs?$AAc?$AAa?$AAt?$AA_?$AAs?$AA?$CI?$AAs?$AAz?$AAL?$AAi?$AAn?$AAe?$AAM?$AAe?$AAs?$AAs?$AAa?$AAg?$AAe?$AA?0?$AA?5?$AA4?$AA0?$AA9?$AA6?$AA?0?$AA?5?$AAL?$AA?$CC@ 200c0188     LIBCMTD:dbgrptt.obj
 0002:000101d4       ??_C@_13CMNBPIDO@?$AA?$AN?$AA?$AA@ 200c01d4     LIBCMTD:dbgrptt.obj
 0002:000101d8       ??_C@_1EK@PHCBEDKB@?$AAw?$AAc?$AAs?$AAc?$AAa?$AAt?$AA_?$AAs?$AA?$CI?$AAs?$AAz?$AAL?$AAi?$AAn?$AAe?$AAM?$AAe?$AAs?$AAs?$AAa?$AAg?$AAe?$AA?0?$AA?5?$AA4?$AA0?$AA9?$AA6?$AA?0?$AA?5?$AAL?$AA?$CC@ 200c01d8     LIBCMTD:dbgrptt.obj
 0002:00010224       ??_C@_1BI@JIDBEPIG@?$AA?$CF?$AAs?$AA?$CI?$AA?$CF?$AAd?$AA?$CJ?$AA?5?$AA?3?$AA?5?$AA?$CF?$AAs?$AA?$AA@ 200c0224     LIBCMTD:dbgrptt.obj
 0002:00010240       ??_C@_1FI@DBAIJPJE@?$AAw?$AAc?$AAs?$AAc?$AAp?$AAy?$AA_?$AAs?$AA?$CI?$AAs?$AAz?$AAO?$AAu?$AAt?$AAM?$AAe?$AAs?$AAs?$AAa?$AAg?$AAe?$AA?0?$AA?5?$AA4?$AA0?$AA9?$AA6?$AA?0?$AA?5?$AAs?$AAz?$AAL@ 200c0240     LIBCMTD:dbgrptt.obj
 0002:00010298       ??_C@_1JC@EOAPFDLN@?$AAw?$AAc?$AAs?$AAt?$AAo?$AAm?$AAb?$AAs?$AA_?$AAs?$AA?$CI?$AA?$CI?$AA?$CI?$AAv?$AAo?$AAi?$AAd?$AA?5?$AA?$CK?$AA?$CJ?$AA0?$AA?$CJ?$AA?0?$AA?5?$AAs?$AAz?$AAO?$AAu?$AAt?$AAM?$AAe?$AAs@ 200c0298     LIBCMTD:dbgrptt.obj
 0002:00010330       ??_C@_1MA@LBAMNNOB@?$AAs?$AAt?$AAr?$AAc?$AAp?$AAy?$AA_?$AAs?$AA?$CI?$AAs?$AAz?$AAO?$AAu?$AAt?$AAM?$AAe?$AAs?$AAs?$AAa?$AAg?$AAe?$AA2?$AA?0?$AA?5?$AA4?$AA0?$AA9?$AA6?$AA?0?$AA?5?$AA?$CC?$AA_@ 200c0330     LIBCMTD:dbgrptt.obj
 0002:000103f0       ??_C@_0DP@GNPEPHJD@_CrtDbgReport?3?5String?5too?5long?5o@ 200c03f0     LIBCMTD:dbgrptt.obj
 0002:00010430       ??_C@_1IE@CPGKIAGP@?$AAw?$AAc?$AAs?$AAt?$AAo?$AAm?$AAb?$AAs?$AA_?$AAs?$AA?$CI?$AA?$CG?$AAr?$AAe?$AAt?$AA?0?$AA?5?$AAs?$AAz?$AAa?$AAO?$AAu?$AAt?$AAM?$AAe?$AAs?$AAs?$AAa?$AAg?$AAe?$AA?0?$AA?5@ 200c0430     LIBCMTD:dbgrptt.obj
 0002:000104b8       ___newctype                200c04b8     LIBCMTD:ctype.obj
 0002:000107b8       __wctype                   200c07b8     LIBCMTD:ctype.obj
 0002:000109c0       ___newclmap                200c09c0     LIBCMTD:ctype.obj
 0002:00010b40       ___newcumap                200c0b40     LIBCMTD:ctype.obj
 0002:00010cc0       ??_C@_1FC@KLDIFLFI@?$AAf?$AA?3?$AA?2?$AAd?$AAd?$AA?2?$AAv?$AAc?$AAt?$AAo?$AAo?$AAl?$AAs?$AA?2?$AAc?$AAr?$AAt?$AA?2?$AAc?$AAr?$AAt?$AAw?$AA3?$AA2?$AA?2?$AAs?$AAt?$AAd?$AAi?$AAo?$AA?2?$AA_@ 200c0cc0     LIBCMTD:_filbuf.obj
 0002:00010d14       ??_C@_1BA@IIKEPOGH@?$AA_?$AAf?$AAi?$AAl?$AAb?$AAu?$AAf?$AA?$AA@ 200c0d14     LIBCMTD:_filbuf.obj
 0002:00010d28       ??_C@_1FA@CKEACION@?$AAf?$AA?3?$AA?2?$AAd?$AAd?$AA?2?$AAv?$AAc?$AAt?$AAo?$AAo?$AAl?$AAs?$AA?2?$AAc?$AAr?$AAt?$AA?2?$AAc?$AAr?$AAt?$AAw?$AA3?$AA2?$AA?2?$AAs?$AAt?$AAd?$AAi?$AAo?$AA?2?$AAf@ 200c0d28     LIBCMTD:fileno.obj
 0002:00010d78       ??_C@_1BA@JGHIEKKM@?$AA_?$AAf?$AAi?$AAl?$AAe?$AAn?$AAo?$AA?$AA@ 200c0d78     LIBCMTD:fileno.obj
 0002:00010d88       ??_C@_1FA@DLIHGOGB@?$AAf?$AA?3?$AA?2?$AAd?$AAd?$AA?2?$AAv?$AAc?$AAt?$AAo?$AAo?$AAl?$AAs?$AA?2?$AAc?$AAr?$AAt?$AA?2?$AAc?$AAr?$AAt?$AAw?$AA3?$AA2?$AA?2?$AAs?$AAt?$AAd?$AAi?$AAo?$AA?2?$AAu@ 200c0d88     LIBCMTD:ungetc.obj
 0002:00010dd8       ??_C@_1O@JDPLECOK@?$AAu?$AAn?$AAg?$AAe?$AAt?$AAc?$AA?$AA@ 200c0dd8     LIBCMTD:ungetc.obj
 0002:00010de8       ??_C@_1FK@GNHGKPOM@?$AAf?$AA?3?$AA?2?$AAd?$AAd?$AA?2?$AAv?$AAc?$AAt?$AAo?$AAo?$AAl?$AAs?$AA?2?$AAc?$AAr?$AAt?$AA?2?$AAc?$AAr?$AAt?$AAw?$AA3?$AA2?$AA?2?$AAh?$AA?2?$AAu?$AAn?$AAg?$AAe?$AAt@ 200c0de8     LIBCMTD:ungetc.obj
 0002:00010e44       ??_C@_1BO@OLMLKKEA@?$AA_?$AAu?$AAn?$AAg?$AAe?$AAt?$AAc?$AA_?$AAn?$AAo?$AAl?$AAo?$AAc?$AAk?$AA?$AA@ 200c0e44     LIBCMTD:ungetc.obj
 0002:00010e68       ??_C@_1NC@EINCOKCO@?$AA_?$AAl?$AAo?$AAc?$AA_?$AAu?$AAp?$AAd?$AAa?$AAt?$AAe?$AA?4?$AAG?$AAe?$AAt?$AAL?$AAo?$AAc?$AAa?$AAl?$AAe?$AAT?$AA?$CI?$AA?$CJ?$AA?9?$AA?$DO?$AAl?$AAo?$AAc?$AAi?$AAn?$AAf@ 200c0e68     LIBCMTD:mbtowc.obj
 0002:00010f40       ??_C@_1FE@EKLDGEI@?$AAf?$AA?3?$AA?2?$AAd?$AAd?$AA?2?$AAv?$AAc?$AAt?$AAo?$AAo?$AAl?$AAs?$AA?2?$AAc?$AAr?$AAt?$AA?2?$AAc?$AAr?$AAt?$AAw?$AA3?$AA2?$AA?2?$AAc?$AAo?$AAn?$AAv?$AAe?$AAr?$AAt@ 200c0f40     LIBCMTD:mbtowc.obj
 0002:00010f94       ??_C@_15EDMHLDMO@?$AAc?$AAa?$AA?$AA@ 200c0f94     LIBCMTD:winapinls.obj
 0002:00010f9c       ??_C@_1O@BPEAJADD@?$AAz?$AAh?$AA?9?$AAC?$AAH?$AAS?$AA?$AA@ 200c0f9c     LIBCMTD:winapinls.obj
 0002:00010fac       ??_C@_15LJNHCMNK@?$AAc?$AAs?$AA?$AA@ 200c0fac     LIBCMTD:winapinls.obj
 0002:00010fb4       ??_C@_15FOMCIDHG@?$AAd?$AAa?$AA?$AA@ 200c0fb4     LIBCMTD:winapinls.obj
 0002:00010fbc       ??_C@_15NBKABECB@?$AAd?$AAe?$AA?$AA@ 200c0fbc     LIBCMTD:winapinls.obj
 0002:00010fc4       ??_C@_15GHPEIIAO@?$AAe?$AAl?$AA?$AA@ 200c0fc4     LIBCMTD:winapinls.obj
 0002:00010fcc       ??_C@_15MNPNEAIF@?$AAe?$AAn?$AA?$AA@ 200c0fcc     LIBCMTD:winapinls.obj
 0002:00010fd4       ??_C@_15GPIOMPMH@?$AAe?$AAs?$AA?$AA@ 200c0fd4     LIBCMTD:winapinls.obj
 0002:00010fdc       ??_C@_15NGLOAKJC@?$AAf?$AAi?$AA?$AA@ 200c0fdc     LIBCMTD:winapinls.obj
 0002:00010fe4       ??_C@_15FBKGNKAM@?$AAf?$AAr?$AA?$AA@ 200c0fe4     LIBCMTD:winapinls.obj
 0002:00010fec       ??_C@_15KGGCNEFK@?$AAh?$AAe?$AA?$AA@ 200c0fec     LIBCMTD:winapinls.obj
 0002:00010ff4       ??_C@_15PGHLIDMF@?$AAh?$AAu?$AA?$AA@ 200c0ff4     LIBCMTD:winapinls.obj
 0002:00010ffc       ??_C@_15BIEMAPLM@?$AAi?$AAs?$AA?$AA@ 200c0ffc     LIBCMTD:winapinls.obj
 0002:00011004       ??_C@_15IFJLDHAF@?$AAi?$AAt?$AA?$AA@ 200c1004     LIBCMTD:winapinls.obj
 0002:0001100c       ??_C@_15GEMIOCAG@?$AAj?$AAa?$AA?$AA@ 200c100c     LIBCMTD:winapinls.obj
 0002:00011014       ??_C@_15EPELEGJA@?$AAk?$AAo?$AA?$AA@ 200c1014     LIBCMTD:winapinls.obj
 0002:0001101c       ??_C@_15NDDHIMN@?$AAn?$AAl?$AA?$AA@ 200c101c     LIBCMTD:winapinls.obj
 0002:00011024       ??_C@_15BPIGNHCD@?$AAn?$AAo?$AA?$AA@ 200c1024     LIBCMTD:winapinls.obj
 0002:0001102c       ??_C@_15DEOPBLCG@?$AAp?$AAl?$AA?$AA@ 200c102c     LIBCMTD:winapinls.obj
 0002:00011034       ??_C@_15KBECGEFG@?$AAp?$AAt?$AA?$AA@ 200c1034     LIBCMTD:winapinls.obj
 0002:0001103c       ??_C@_15GLJCBFMD@?$AAr?$AAo?$AA?$AA@ 200c103c     LIBCMTD:winapinls.obj
 0002:00011044       ??_C@_15FEDGKCDI@?$AAr?$AAu?$AA?$AA@ 200c1044     LIBCMTD:winapinls.obj
 0002:0001104c       ??_C@_15GLKMLLHM@?$AAh?$AAr?$AA?$AA@ 200c104c     LIBCMTD:winapinls.obj
 0002:00011054       ??_C@_15CPKMFBDB@?$AAs?$AAk?$AA?$AA@ 200c1054     LIBCMTD:winapinls.obj
 0002:0001105c       ??_C@_15BAAIOGMK@?$AAs?$AAq?$AA?$AA@ 200c105c     LIBCMTD:winapinls.obj
 0002:00011064       ??_C@_15INNPNOHD@?$AAs?$AAv?$AA?$AA@ 200c1064     LIBCMTD:winapinls.obj
 0002:0001106c       ??_C@_15CABMMOGH@?$AAt?$AAh?$AA?$AA@ 200c106c     LIBCMTD:winapinls.obj
 0002:00011074       ??_C@_15BPLIHJJM@?$AAt?$AAr?$AA?$AA@ 200c1074     LIBCMTD:winapinls.obj
 0002:0001107c       ??_C@_15NEOEKKDJ@?$AAu?$AAr?$AA?$AA@ 200c107c     LIBCMTD:winapinls.obj
 0002:00011084       ??_C@_15NFICGAJK@?$AAi?$AAd?$AA?$AA@ 200c1084     LIBCMTD:winapinls.obj
 0002:0001108c       ??_C@_15PJPFLCCM@?$AAu?$AAk?$AA?$AA@ 200c108c     LIBCMTD:winapinls.obj
 0002:00011094       ??_C@_15HPJPHDM@?$AAb?$AAe?$AA?$AA@ 200c1094     LIBCMTD:winapinls.obj
 0002:0001109c       ??_C@_15LCHLGJII@?$AAs?$AAl?$AA?$AA@ 200c109c     LIBCMTD:winapinls.obj
 0002:000110a4       ??_C@_15PCFJPHHO@?$AAe?$AAt?$AA?$AA@ 200c10a4     LIBCMTD:winapinls.obj
 0002:000110ac       ??_C@_15HPFPGODN@?$AAl?$AAv?$AA?$AA@ 200c10ac     LIBCMTD:winapinls.obj
 0002:000110b4       ??_C@_15NFFGKGLG@?$AAl?$AAt?$AA?$AA@ 200c10b4     LIBCMTD:winapinls.obj
 0002:000110bc       ??_C@_15BDAKCCHN@?$AAf?$AAa?$AA?$AA@ 200c10bc     LIBCMTD:winapinls.obj
 0002:000110c4       ??_C@_15NFGIAIAJ@?$AAv?$AAi?$AA?$AA@ 200c10c4     LIBCMTD:winapinls.obj
 0002:000110cc       ??_C@_15LMKNDMHN@?$AAh?$AAy?$AA?$AA@ 200c10cc     LIBCMTD:winapinls.obj
 0002:000110d4       ??_C@_15IJBHMCFL@?$AAa?$AAz?$AA?$AA@ 200c10d4     LIBCMTD:winapinls.obj
 0002:000110dc       ??_C@_15EKOFJABL@?$AAe?$AAu?$AA?$AA@ 200c10dc     LIBCMTD:winapinls.obj
 0002:000110e4       ??_C@_15BGHADCNK@?$AAm?$AAk?$AA?$AA@ 200c10e4     LIBCMTD:winapinls.obj
 0002:000110ec       ??_C@_15JDNICKHM@?$AAa?$AAf?$AA?$AA@ 200c10ec     LIBCMTD:winapinls.obj
 0002:000110f4       ??_C@_15KPJEDBKD@?$AAk?$AAa?$AA?$AA@ 200c10f4     LIBCMTD:winapinls.obj
 0002:000110fc       ??_C@_15PDNFFFEO@?$AAf?$AAo?$AA?$AA@ 200c10fc     LIBCMTD:winapinls.obj
 0002:00011104       ??_C@_15OMLEGLOC@?$AAh?$AAi?$AA?$AA@ 200c1104     LIBCMTD:winapinls.obj
 0002:0001110c       ??_C@_15IDNNENKK@?$AAm?$AAs?$AA?$AA@ 200c110c     LIBCMTD:winapinls.obj
 0002:00011114       ??_C@_15MACJNBMH@?$AAk?$AAk?$AA?$AA@ 200c1114     LIBCMTD:winapinls.obj
 0002:0001111c       ??_C@_15DKDJEOND@?$AAk?$AAy?$AA?$AA@ 200c111c     LIBCMTD:winapinls.obj
 0002:00011124       ??_C@_15DFGDLJBG@?$AAs?$AAw?$AA?$AA@ 200c1124     LIBCMTD:winapinls.obj
 0002:0001112c       ??_C@_15BBFAICNG@?$AAu?$AAz?$AA?$AA@ 200c112c     LIBCMTD:winapinls.obj
 0002:00011134       ??_C@_15DKNDCGEA@?$AAt?$AAt?$AA?$AA@ 200c1134     LIBCMTD:winapinls.obj
 0002:0001113c       ??_C@_15MGIFMDPL@?$AAp?$AAa?$AA?$AA@ 200c113c     LIBCMTD:winapinls.obj
 0002:00011144       ??_C@_15HCNDBBA@?$AAg?$AAu?$AA?$AA@ 200c1144     LIBCMTD:winapinls.obj
 0002:0001114c       ??_C@_15FNBEIBON@?$AAt?$AAa?$AA?$AA@ 200c114c     LIBCMTD:winapinls.obj
 0002:00011154       ??_C@_15NCHGBGLK@?$AAt?$AAe?$AA?$AA@ 200c1154     LIBCMTD:winapinls.obj
 0002:0001115c       ??_C@_15PHPHCBPF@?$AAk?$AAn?$AA?$AA@ 200c115c     LIBCMTD:winapinls.obj
 0002:00011164       ??_C@_15DLGBCKMP@?$AAm?$AAr?$AA?$AA@ 200c1164     LIBCMTD:winapinls.obj
 0002:0001116c       ??_C@_15EABBLBFF@?$AAs?$AAa?$AA?$AA@ 200c116c     LIBCMTD:winapinls.obj
 0002:00011174       ??_C@_15CBKOMCOI@?$AAm?$AAn?$AA?$AA@ 200c1174     LIBCMTD:winapinls.obj
 0002:0001117c       ??_C@_15CKDMCJAF@?$AAg?$AAl?$AA?$AA@ 200c117c     LIBCMTD:winapinls.obj
 0002:00011184       ??_C@_17CNJFBPG@?$AAk?$AAo?$AAk?$AA?$AA@ 200c1184     LIBCMTD:winapinls.obj
 0002:0001118c       ??_C@_17FFBJICPL@?$AAs?$AAy?$AAr?$AA?$AA@ 200c118c     LIBCMTD:winapinls.obj
 0002:00011194       ??_C@_17KPNDCPAF@?$AAd?$AAi?$AAv?$AA?$AA@ 200c1194     LIBCMTD:winapinls.obj
 0002:0001119c       ??_C@_1M@OKAHONE@?$AAa?$AAr?$AA?9?$AAS?$AAA?$AA?$AA@ 200c119c     LIBCMTD:winapinls.obj
 0002:000111a8       ??_C@_1M@FFFIGIGK@?$AAb?$AAg?$AA?9?$AAB?$AAG?$AA?$AA@ 200c11a8     LIBCMTD:winapinls.obj
 0002:000111b4       ??_C@_1M@BJNKEDC@?$AAc?$AAa?$AA?9?$AAE?$AAS?$AA?$AA@ 200c11b4     LIBCMTD:winapinls.obj
 0002:000111c0       ??_C@_1M@IJJHFJHA@?$AAc?$AAs?$AA?9?$AAC?$AAZ?$AA?$AA@ 200c11c0     LIBCMTD:winapinls.obj
 0002:000111cc       ??_C@_1M@CLPEOBGI@?$AAd?$AAa?$AA?9?$AAD?$AAK?$AA?$AA@ 200c11cc     LIBCMTD:winapinls.obj
 0002:000111d8       ??_C@_1M@MCMADGCB@?$AAd?$AAe?$AA?9?$AAD?$AAE?$AA?$AA@ 200c11d8     LIBCMTD:winapinls.obj
 0002:000111e4       ??_C@_1M@OOCKEMAM@?$AAe?$AAl?$AA?9?$AAG?$AAR?$AA?$AA@ 200c11e4     LIBCMTD:winapinls.obj
 0002:000111f0       ??_C@_1M@DDNJFGID@?$AAf?$AAi?$AA?9?$AAF?$AAI?$AA?$AA@ 200c11f0     LIBCMTD:winapinls.obj
 0002:000111fc       ??_C@_1M@GLIPPMAC@?$AAf?$AAr?$AA?9?$AAF?$AAR?$AA?$AA@ 200c11fc     LIBCMTD:winapinls.obj
 0002:00011208       ??_C@_1M@GFMCHPE@?$AAh?$AAe?$AA?9?$AAI?$AAL?$AA?$AA@ 200c1208     LIBCMTD:winapinls.obj
 0002:00011214       ??_C@_1M@MHLPGNKM@?$AAh?$AAu?$AA?9?$AAH?$AAU?$AA?$AA@ 200c1214     LIBCMTD:winapinls.obj
 0002:00011220       ??_C@_1M@LPDDNNPN@?$AAi?$AAs?$AA?9?$AAI?$AAS?$AA?$AA@ 200c1220     LIBCMTD:winapinls.obj
 0002:0001122c       ??_C@_1M@MADIPODN@?$AAi?$AAt?$AA?9?$AAI?$AAT?$AA?$AA@ 200c122c     LIBCMTD:winapinls.obj
 0002:00011238       ??_C@_1M@IHBJJGG@?$AAn?$AAl?$AA?9?$AAN?$AAL?$AA?$AA@ 200c1238     LIBCMTD:winapinls.obj
 0002:00011244       ??_C@_1M@EANAGDL@?$AAn?$AAb?$AA?9?$AAN?$AAO?$AA?$AA@ 200c1244     LIBCMTD:winapinls.obj
 0002:00011250       ??_C@_1M@NEIEMEGP@?$AAp?$AAl?$AA?9?$AAP?$AAL?$AA?$AA@ 200c1250     LIBCMTD:winapinls.obj
 0002:0001125c       ??_C@_1M@BOCFIGEP@?$AAp?$AAt?$AA?9?$AAB?$AAR?$AA?$AA@ 200c125c     LIBCMTD:winapinls.obj
 0002:00011268       ??_C@_1M@IMPFOPBG@?$AAr?$AAo?$AA?9?$AAR?$AAO?$AA?$AA@ 200c1268     LIBCMTD:winapinls.obj
 0002:00011274       ??_C@_1M@IDNNEJMM@?$AAr?$AAu?$AA?9?$AAR?$AAU?$AA?$AA@ 200c1274     LIBCMTD:winapinls.obj
 0002:00011280       ??_C@_1M@LILEEOGM@?$AAh?$AAr?$AA?9?$AAH?$AAR?$AA?$AA@ 200c1280     LIBCMTD:winapinls.obj
 0002:0001128c       ??_C@_1M@FKIFEHPB@?$AAs?$AAk?$AA?9?$AAS?$AAK?$AA?$AA@ 200c128c     LIBCMTD:winapinls.obj
 0002:00011298       ??_C@_1M@LJMAMNPJ@?$AAs?$AAq?$AA?9?$AAA?$AAL?$AA?$AA@ 200c1298     LIBCMTD:winapinls.obj
 0002:000112a4       ??_C@_1M@GIAKDKJK@?$AAs?$AAv?$AA?9?$AAS?$AAE?$AA?$AA@ 200c12a4     LIBCMTD:winapinls.obj
 0002:000112b0       ??_C@_1M@MKJKIKCL@?$AAt?$AAh?$AA?9?$AAT?$AAH?$AA?$AA@ 200c12b0     LIBCMTD:winapinls.obj
 0002:000112bc       ??_C@_1M@MFLCCMPB@?$AAt?$AAr?$AA?9?$AAT?$AAR?$AA?$AA@ 200c12bc     LIBCMTD:winapinls.obj
 0002:000112c8       ??_C@_1M@OIJHDKJN@?$AAu?$AAr?$AA?9?$AAP?$AAK?$AA?$AA@ 200c12c8     LIBCMTD:winapinls.obj
 0002:000112d4       ??_C@_1M@LHIPCIEK@?$AAi?$AAd?$AA?9?$AAI?$AAD?$AA?$AA@ 200c12d4     LIBCMTD:winapinls.obj
 0002:000112e0       ??_C@_1M@MFMOBGI@?$AAu?$AAk?$AA?9?$AAU?$AAA?$AA?$AA@ 200c12e0     LIBCMTD:winapinls.obj
 0002:000112ec       ??_C@_1M@OBGLJIPL@?$AAb?$AAe?$AA?9?$AAB?$AAY?$AA?$AA@ 200c12ec     LIBCMTD:winapinls.obj
 0002:000112f8       ??_C@_1M@BCFAJEAD@?$AAs?$AAl?$AA?9?$AAS?$AAI?$AA?$AA@ 200c12f8     LIBCMTD:winapinls.obj
 0002:00011304       ??_C@_1M@FKFFEDDN@?$AAe?$AAt?$AA?9?$AAE?$AAE?$AA?$AA@ 200c1304     LIBCMTD:winapinls.obj
 0002:00011310       ??_C@_1M@KGKKAACI@?$AAl?$AAv?$AA?9?$AAL?$AAV?$AA?$AA@ 200c1310     LIBCMTD:winapinls.obj
 0002:0001131c       ??_C@_1M@IFGBIJO@?$AAl?$AAt?$AA?9?$AAL?$AAT?$AA?$AA@ 200c131c     LIBCMTD:winapinls.obj
 0002:00011328       ??_C@_1M@FGEAHEDM@?$AAf?$AAa?$AA?9?$AAI?$AAR?$AA?$AA@ 200c1328     LIBCMTD:winapinls.obj
 0002:00011334       ??_C@_1M@KBMAIBFN@?$AAv?$AAi?$AA?9?$AAV?$AAN?$AA?$AA@ 200c1334     LIBCMTD:winapinls.obj
 0002:00011340       ??_C@_1M@GPCBKDJK@?$AAh?$AAy?$AA?9?$AAA?$AAM?$AA?$AA@ 200c1340     LIBCMTD:winapinls.obj
 0002:0001134c       ??_C@_1BG@BECMDDJB@?$AAa?$AAz?$AA?9?$AAA?$AAZ?$AA?9?$AAL?$AAa?$AAt?$AAn?$AA?$AA@ 200c134c     LIBCMTD:winapinls.obj
 0002:00011364       ??_C@_1M@MAOFCAEA@?$AAe?$AAu?$AA?9?$AAE?$AAS?$AA?$AA@ 200c1364     LIBCMTD:winapinls.obj
 0002:00011370       ??_C@_1M@IGHABKPI@?$AAm?$AAk?$AA?9?$AAM?$AAK?$AA?$AA@ 200c1370     LIBCMTD:winapinls.obj
 0002:0001137c       ??_C@_1M@IAIGNEJG@?$AAt?$AAn?$AA?9?$AAZ?$AAA?$AA?$AA@ 200c137c     LIBCMTD:winapinls.obj
 0002:00011388       ??_C@_1M@IIJCOJFA@?$AAx?$AAh?$AA?9?$AAZ?$AAA?$AA?$AA@ 200c1388     LIBCMTD:winapinls.obj
 0002:00011394       ??_C@_1M@LGPJHNJH@?$AAz?$AAu?$AA?9?$AAZ?$AAA?$AA?$AA@ 200c1394     LIBCMTD:winapinls.obj
 0002:000113a0       ??_C@_1M@HOKAOIO@?$AAa?$AAf?$AA?9?$AAZ?$AAA?$AA?$AA@ 200c13a0     LIBCMTD:winapinls.obj
 0002:000113ac       ??_C@_1M@DPCLHLIE@?$AAk?$AAa?$AA?9?$AAG?$AAE?$AA?$AA@ 200c13ac     LIBCMTD:winapinls.obj
 0002:000113b8       ??_C@_1M@BLKMHJBI@?$AAf?$AAo?$AA?9?$AAF?$AAO?$AA?$AA@ 200c13b8     LIBCMTD:winapinls.obj
 0002:000113c4       ??_C@_1M@LGGJAPPB@?$AAh?$AAi?$AA?9?$AAI?$AAN?$AA?$AA@ 200c13c4     LIBCMTD:winapinls.obj
 0002:000113d0       ??_C@_1M@FIKPIHFE@?$AAm?$AAt?$AA?9?$AAM?$AAT?$AA?$AA@ 200c13d0     LIBCMTD:winapinls.obj
 0002:000113dc       ??_C@_1M@HEGGPBFA@?$AAs?$AAe?$AA?9?$AAN?$AAO?$AA?$AA@ 200c13dc     LIBCMTD:winapinls.obj
 0002:000113e8       ??_C@_1M@EIBJEEPA@?$AAm?$AAs?$AA?9?$AAM?$AAY?$AA?$AA@ 200c13e8     LIBCMTD:winapinls.obj
 0002:000113f4       ??_C@_1M@FHLBGMPP@?$AAk?$AAk?$AA?9?$AAK?$AAZ?$AA?$AA@ 200c13f4     LIBCMTD:winapinls.obj
 0002:00011400       ??_C@_1M@NGJJLCGI@?$AAk?$AAy?$AA?9?$AAK?$AAG?$AA?$AA@ 200c1400     LIBCMTD:winapinls.obj
 0002:0001140c       ??_C@_1M@GIENNBFC@?$AAs?$AAw?$AA?9?$AAK?$AAE?$AA?$AA@ 200c140c     LIBCMTD:winapinls.obj
 0002:00011418       ??_C@_1BG@NDGMJIMJ@?$AAu?$AAz?$AA?9?$AAU?$AAZ?$AA?9?$AAL?$AAa?$AAt?$AAn?$AA?$AA@ 200c1418     LIBCMTD:winapinls.obj
 0002:00011430       ??_C@_1M@IDCCIHBC@?$AAt?$AAt?$AA?9?$AAR?$AAU?$AA?$AA@ 200c1430     LIBCMTD:winapinls.obj
 0002:0001143c       ??_C@_1M@LOICPMOJ@?$AAb?$AAn?$AA?9?$AAI?$AAN?$AA?$AA@ 200c143c     LIBCMTD:winapinls.obj
 0002:00011448       ??_C@_1M@KPKKNEAH@?$AAp?$AAa?$AA?9?$AAI?$AAN?$AA?$AA@ 200c1448     LIBCMTD:winapinls.obj
 0002:00011454       ??_C@_1M@PJGPPBOG@?$AAg?$AAu?$AA?9?$AAI?$AAN?$AA?$AA@ 200c1454     LIBCMTD:winapinls.obj
 0002:00011460       ??_C@_1M@KMKMOPHI@?$AAt?$AAa?$AA?9?$AAI?$AAN?$AA?$AA@ 200c1460     LIBCMTD:winapinls.obj
 0002:0001146c       ??_C@_1M@KFEHEPAC@?$AAt?$AAe?$AA?9?$AAI?$AAN?$AA?$AA@ 200c146c     LIBCMTD:winapinls.obj
 0002:00011478       ??_C@_1M@CDCLMGHI@?$AAk?$AAn?$AA?9?$AAI?$AAN?$AA?$AA@ 200c1478     LIBCMTD:winapinls.obj
 0002:00011484       ??_C@_1M@MIODLDKF@?$AAm?$AAl?$AA?9?$AAI?$AAN?$AA?$AA@ 200c1484     LIBCMTD:winapinls.obj
 0002:00011490       ??_C@_1M@PBIEACPO@?$AAm?$AAr?$AA?9?$AAI?$AAN?$AA?$AA@ 200c1490     LIBCMTD:winapinls.obj
 0002:0001149c       ??_C@_1M@NIDEAGPH@?$AAs?$AAa?$AA?9?$AAI?$AAN?$AA?$AA@ 200c149c     LIBCMTD:winapinls.obj
 0002:000114a8       ??_C@_1M@FHIHCBIO@?$AAm?$AAn?$AA?9?$AAM?$AAN?$AA?$AA@ 200c14a8     LIBCMTD:winapinls.obj
 0002:000114b4       ??_C@_1M@JAIJPENP@?$AAc?$AAy?$AA?9?$AAG?$AAB?$AA?$AA@ 200c14b4     LIBCMTD:winapinls.obj
 0002:000114c0       ??_C@_1M@PHGFBEPN@?$AAg?$AAl?$AA?9?$AAE?$AAS?$AA?$AA@ 200c14c0     LIBCMTD:winapinls.obj
 0002:000114cc       ??_C@_1O@KPIPDNCP@?$AAk?$AAo?$AAk?$AA?9?$AAI?$AAN?$AA?$AA@ 200c14cc     LIBCMTD:winapinls.obj
 0002:000114dc       ??_C@_1O@KNHJLDJA@?$AAs?$AAy?$AAr?$AA?9?$AAS?$AAY?$AA?$AA@ 200c14dc     LIBCMTD:winapinls.obj
 0002:000114ec       ??_C@_1O@MKEKBLAH@?$AAd?$AAi?$AAv?$AA?9?$AAM?$AAV?$AA?$AA@ 200c14ec     LIBCMTD:winapinls.obj
 0002:000114fc       ??_C@_1O@OHDCKDDF@?$AAq?$AAu?$AAz?$AA?9?$AAB?$AAO?$AA?$AA@ 200c14fc     LIBCMTD:winapinls.obj
 0002:0001150c       ??_C@_1M@LEPJNLFD@?$AAn?$AAs?$AA?9?$AAZ?$AAA?$AA?$AA@ 200c150c     LIBCMTD:winapinls.obj
 0002:00011518       ??_C@_1M@OMLEIIJB@?$AAm?$AAi?$AA?9?$AAN?$AAZ?$AA?$AA@ 200c1518     LIBCMTD:winapinls.obj
 0002:00011524       ??_C@_1M@PMPEAILG@?$AAa?$AAr?$AA?9?$AAI?$AAQ?$AA?$AA@ 200c1524     LIBCMTD:winapinls.obj
 0002:00011530       ??_C@_1M@CNKPNOEE@?$AAd?$AAe?$AA?9?$AAC?$AAH?$AA?$AA@ 200c1530     LIBCMTD:winapinls.obj
 0002:0001153c       ??_C@_1M@LKMGMLKO@?$AAe?$AAn?$AA?9?$AAG?$AAB?$AA?$AA@ 200c153c     LIBCMTD:winapinls.obj
 0002:00011548       ??_C@_1M@PGKJFFGL@?$AAe?$AAs?$AA?9?$AAM?$AAX?$AA?$AA@ 200c1548     LIBCMTD:winapinls.obj
 0002:00011554       ??_C@_1M@DNNANBDC@?$AAf?$AAr?$AA?9?$AAB?$AAE?$AA?$AA@ 200c1554     LIBCMTD:winapinls.obj
 0002:00011560       ??_C@_1M@HLGMDFHM@?$AAi?$AAt?$AA?9?$AAC?$AAH?$AA?$AA@ 200c1560     LIBCMTD:winapinls.obj
 0002:0001156c       ??_C@_1M@CLLBGJH@?$AAn?$AAl?$AA?9?$AAB?$AAE?$AA?$AA@ 200c156c     LIBCMTD:winapinls.obj
 0002:00011578       ??_C@_1M@BODBOGLF@?$AAn?$AAn?$AA?9?$AAN?$AAO?$AA?$AA@ 200c1578     LIBCMTD:winapinls.obj
 0002:00011584       ??_C@_1M@HFFAHKAD@?$AAp?$AAt?$AA?9?$AAP?$AAT?$AA?$AA@ 200c1584     LIBCMTD:winapinls.obj
 0002:00011590       ??_C@_1BG@LNOAKHIE@?$AAs?$AAr?$AA?9?$AAS?$AAP?$AA?9?$AAL?$AAa?$AAt?$AAn?$AA?$AA@ 200c1590     LIBCMTD:winapinls.obj
 0002:000115a8       ??_C@_1M@HBMHBGAK@?$AAs?$AAv?$AA?9?$AAF?$AAI?$AA?$AA@ 200c15a8     LIBCMTD:winapinls.obj
 0002:000115b4       ??_C@_1BG@DGCJGJBE@?$AAa?$AAz?$AA?9?$AAA?$AAZ?$AA?9?$AAC?$AAy?$AAr?$AAl?$AA?$AA@ 200c15b4     LIBCMTD:winapinls.obj
 0002:000115cc       ??_C@_1M@KEJDAAHB@?$AAs?$AAe?$AA?9?$AAS?$AAE?$AA?$AA@ 200c15cc     LIBCMTD:winapinls.obj
 0002:000115d8       ??_C@_1M@HEIBJJAD@?$AAm?$AAs?$AA?9?$AAB?$AAN?$AA?$AA@ 200c15d8     LIBCMTD:winapinls.obj
 0002:000115e4       ??_C@_1BG@PBGJMCEM@?$AAu?$AAz?$AA?9?$AAU?$AAZ?$AA?9?$AAC?$AAy?$AAr?$AAl?$AA?$AA@ 200c15e4     LIBCMTD:winapinls.obj
 0002:000115fc       ??_C@_1O@LAOBCMDF@?$AAq?$AAu?$AAz?$AA?9?$AAE?$AAC?$AA?$AA@ 200c15fc     LIBCMTD:winapinls.obj
 0002:0001160c       ??_C@_1M@POEEMAIO@?$AAa?$AAr?$AA?9?$AAE?$AAG?$AA?$AA@ 200c160c     LIBCMTD:winapinls.obj
 0002:00011618       ??_C@_1M@EFAKDEDL@?$AAz?$AAh?$AA?9?$AAH?$AAK?$AA?$AA@ 200c1618     LIBCMTD:winapinls.obj
 0002:00011624       ??_C@_1M@HKKIJHGI@?$AAd?$AAe?$AA?9?$AAA?$AAT?$AA?$AA@ 200c1624     LIBCMTD:winapinls.obj
 0002:00011630       ??_C@_1M@KBFBEHJF@?$AAe?$AAn?$AA?9?$AAA?$AAU?$AA?$AA@ 200c1630     LIBCMTD:winapinls.obj
 0002:0001163c       ??_C@_1M@MNPLFAAH@?$AAe?$AAs?$AA?9?$AAE?$AAS?$AA?$AA@ 200c163c     LIBCMTD:winapinls.obj
 0002:00011648       ??_C@_1M@HJOOJFMA@?$AAf?$AAr?$AA?9?$AAC?$AAA?$AA?$AA@ 200c1648     LIBCMTD:winapinls.obj
 0002:00011654       ??_C@_1BG@JPOFPNAB@?$AAs?$AAr?$AA?9?$AAS?$AAP?$AA?9?$AAC?$AAy?$AAr?$AAl?$AA?$AA@ 200c1654     LIBCMTD:winapinls.obj
 0002:0001166c       ??_C@_1M@LNFOCMOB@?$AAs?$AAe?$AA?9?$AAF?$AAI?$AA?$AA@ 200c166c     LIBCMTD:winapinls.obj
 0002:00011678       ??_C@_1O@MGJBOAMB@?$AAq?$AAu?$AAz?$AA?9?$AAP?$AAE?$AA?$AA@ 200c1678     LIBCMTD:winapinls.obj
 0002:00011688       ??_C@_1M@GJINLBOK@?$AAa?$AAr?$AA?9?$AAL?$AAY?$AA?$AA@ 200c1688     LIBCMTD:winapinls.obj
 0002:00011694       ??_C@_1M@GGMNHJNL@?$AAz?$AAh?$AA?9?$AAS?$AAG?$AA?$AA@ 200c1694     LIBCMTD:winapinls.obj
 0002:000116a0       ??_C@_1M@HOIKODND@?$AAd?$AAe?$AA?9?$AAL?$AAU?$AA?$AA@ 200c16a0     LIBCMTD:winapinls.obj
 0002:000116ac       ??_C@_1M@DDOCCGFG@?$AAe?$AAn?$AA?9?$AAC?$AAA?$AA?$AA@ 200c16ac     LIBCMTD:winapinls.obj
 0002:000116b8       ??_C@_1M@BNOEMJLF@?$AAe?$AAs?$AA?9?$AAG?$AAT?$AA?$AA@ 200c16b8     LIBCMTD:winapinls.obj
 0002:000116c4       ??_C@_1M@EOGNKEK@?$AAf?$AAr?$AA?9?$AAC?$AAH?$AA?$AA@ 200c16c4     LIBCMTD:winapinls.obj
 0002:000116d0       ??_C@_1M@FLIDJFHL@?$AAh?$AAr?$AA?9?$AAB?$AAA?$AA?$AA@ 200c16d0     LIBCMTD:winapinls.obj
 0002:000116dc       ??_C@_1O@FMCELNAJ@?$AAs?$AAm?$AAj?$AA?9?$AAN?$AAO?$AA?$AA@ 200c16dc     LIBCMTD:winapinls.obj
 0002:000116ec       ??_C@_1M@JHGLJMGJ@?$AAa?$AAr?$AA?9?$AAD?$AAZ?$AA?$AA@ 200c16ec     LIBCMTD:winapinls.obj
 0002:000116f8       ??_C@_1M@JKKFDCNP@?$AAz?$AAh?$AA?9?$AAM?$AAO?$AA?$AA@ 200c16f8     LIBCMTD:winapinls.obj
 0002:00011704       ??_C@_1M@GEEFALPE@?$AAd?$AAe?$AA?9?$AAL?$AAI?$AA?$AA@ 200c1704     LIBCMTD:winapinls.obj
 0002:00011710       ??_C@_1M@IGEOFBG@?$AAe?$AAn?$AA?9?$AAN?$AAZ?$AA?$AA@ 200c1710     LIBCMTD:winapinls.obj
 0002:0001171c       ??_C@_1M@KDBONEHP@?$AAe?$AAs?$AA?9?$AAC?$AAR?$AA?$AA@ 200c171c     LIBCMTD:winapinls.obj
 0002:00011728       ??_C@_1M@FHMDOHNN@?$AAf?$AAr?$AA?9?$AAL?$AAU?$AA?$AA@ 200c1728     LIBCMTD:winapinls.obj
 0002:00011734       ??_C@_1BG@NFKKMAFG@?$AAb?$AAs?$AA?9?$AAB?$AAA?$AA?9?$AAL?$AAa?$AAt?$AAn?$AA?$AA@ 200c1734     LIBCMTD:winapinls.obj
 0002:0001174c       ??_C@_1O@IMNBEMCI@?$AAs?$AAm?$AAj?$AA?9?$AAS?$AAE?$AA?$AA@ 200c174c     LIBCMTD:winapinls.obj
 0002:0001175c       ??_C@_1M@DHHMBNDP@?$AAa?$AAr?$AA?9?$AAM?$AAA?$AA?$AA@ 200c175c     LIBCMTD:winapinls.obj
 0002:00011768       ??_C@_1M@BNBLJCGH@?$AAe?$AAn?$AA?9?$AAI?$AAE?$AA?$AA@ 200c1768     LIBCMTD:winapinls.obj
 0002:00011774       ??_C@_1M@GEPAFMDL@?$AAe?$AAs?$AA?9?$AAP?$AAA?$AA?$AA@ 200c1774     LIBCMTD:winapinls.obj
 0002:00011780       ??_C@_1M@OJONDMDL@?$AAf?$AAr?$AA?9?$AAM?$AAC?$AA?$AA@ 200c1780     LIBCMTD:winapinls.obj
 0002:0001178c       ??_C@_1BG@OBCNFJB@?$AAs?$AAr?$AA?9?$AAB?$AAA?$AA?9?$AAL?$AAa?$AAt?$AAn?$AA?$AA@ 200c178c     LIBCMTD:winapinls.obj
 0002:000117a4       ??_C@_1O@KEMEEGPO@?$AAs?$AAm?$AAa?$AA?9?$AAN?$AAO?$AA?$AA@ 200c17a4     LIBCMTD:winapinls.obj
 0002:000117b4       ??_C@_1M@ELMGFODK@?$AAa?$AAr?$AA?9?$AAT?$AAN?$AA?$AA@ 200c17b4     LIBCMTD:winapinls.obj
 0002:000117c0       ??_C@_1M@BHDLHFAF@?$AAe?$AAn?$AA?9?$AAZ?$AAA?$AA?$AA@ 200c17c0     LIBCMTD:winapinls.obj
 0002:000117cc       ??_C@_1M@BMGIGLIF@?$AAe?$AAs?$AA?9?$AAD?$AAO?$AA?$AA@ 200c17cc     LIBCMTD:winapinls.obj
 0002:000117d8       ??_C@_1BG@CMBHIPBE@?$AAs?$AAr?$AA?9?$AAB?$AAA?$AA?9?$AAC?$AAy?$AAr?$AAl?$AA?$AA@ 200c17d8     LIBCMTD:winapinls.obj
 0002:000117f0       ??_C@_1O@HEDBLHNP@?$AAs?$AAm?$AAa?$AA?9?$AAS?$AAE?$AA?$AA@ 200c17f0     LIBCMTD:winapinls.obj
 0002:00011800       ??_C@_1M@DAGCADIM@?$AAa?$AAr?$AA?9?$AAO?$AAM?$AA?$AA@ 200c1800     LIBCMTD:winapinls.obj
 0002:0001180c       ??_C@_1M@FODLMICG@?$AAe?$AAn?$AA?9?$AAJ?$AAM?$AA?$AA@ 200c180c     LIBCMTD:winapinls.obj
 0002:00011818       ??_C@_1M@DNMLCIHB@?$AAe?$AAs?$AA?9?$AAV?$AAE?$AA?$AA@ 200c1818     LIBCMTD:winapinls.obj
 0002:00011824       ??_C@_1O@EOKHMKJK@?$AAs?$AAm?$AAs?$AA?9?$AAF?$AAI?$AA?$AA@ 200c1824     LIBCMTD:winapinls.obj
 0002:00011834       ??_C@_1M@CAFJMKOF@?$AAa?$AAr?$AA?9?$AAY?$AAE?$AA?$AA@ 200c1834     LIBCMTD:winapinls.obj
 0002:00011840       ??_C@_1M@CBFHIJLI@?$AAe?$AAn?$AA?9?$AAC?$AAB?$AA?$AA@ 200c1840     LIBCMTD:winapinls.obj
 0002:0001184c       ??_C@_1M@BGNFLDN@?$AAe?$AAs?$AA?9?$AAC?$AAO?$AA?$AA@ 200c184c     LIBCMTD:winapinls.obj
 0002:00011858       ??_C@_1O@JMPHMAMC@?$AAs?$AAm?$AAn?$AA?9?$AAF?$AAI?$AA?$AA@ 200c1858     LIBCMTD:winapinls.obj
 0002:00011868       ??_C@_1M@JLANABKE@?$AAa?$AAr?$AA?9?$AAS?$AAY?$AA?$AA@ 200c1868     LIBCMTD:winapinls.obj
 0002:00011874       ??_C@_1M@HPKGCFGN@?$AAe?$AAn?$AA?9?$AAB?$AAZ?$AA?$AA@ 200c1874     LIBCMTD:winapinls.obj
 0002:00011880       ??_C@_1M@OLJCMLGM@?$AAe?$AAs?$AA?9?$AAP?$AAE?$AA?$AA@ 200c1880     LIBCMTD:winapinls.obj
 0002:0001188c       ??_C@_1M@MKKGFKLE@?$AAa?$AAr?$AA?9?$AAJ?$AAO?$AA?$AA@ 200c188c     LIBCMTD:winapinls.obj
 0002:00011898       ??_C@_1M@EKPGLDNI@?$AAe?$AAn?$AA?9?$AAT?$AAT?$AA?$AA@ 200c1898     LIBCMTD:winapinls.obj
 0002:000118a4       ??_C@_1M@OONGHFHE@?$AAe?$AAs?$AA?9?$AAA?$AAR?$AA?$AA@ 200c18a4     LIBCMTD:winapinls.obj
 0002:000118b0       ??_C@_1M@OOJFGBHE@?$AAa?$AAr?$AA?9?$AAL?$AAB?$AA?$AA@ 200c18b0     LIBCMTD:winapinls.obj
 0002:000118bc       ??_C@_1M@GCEJHNEG@?$AAe?$AAn?$AA?9?$AAZ?$AAW?$AA?$AA@ 200c18bc     LIBCMTD:winapinls.obj
 0002:000118c8       ??_C@_1M@JNOCAHJI@?$AAe?$AAs?$AA?9?$AAE?$AAC?$AA?$AA@ 200c18c8     LIBCMTD:winapinls.obj
 0002:000118d4       ??_C@_1M@JEFHPGGB@?$AAa?$AAr?$AA?9?$AAK?$AAW?$AA?$AA@ 200c18d4     LIBCMTD:winapinls.obj
 0002:000118e0       ??_C@_1M@MLKIBJOJ@?$AAe?$AAn?$AA?9?$AAP?$AAH?$AA?$AA@ 200c18e0     LIBCMTD:winapinls.obj
 0002:000118ec       ??_C@_1M@BDNIPEND@?$AAe?$AAs?$AA?9?$AAC?$AAL?$AA?$AA@ 200c18ec     LIBCMTD:winapinls.obj
 0002:000118f8       ??_C@_1M@MPNMEKBD@?$AAa?$AAr?$AA?9?$AAA?$AAE?$AA?$AA@ 200c18f8     LIBCMTD:winapinls.obj
 0002:00011904       ??_C@_1M@KBJALCPI@?$AAe?$AAs?$AA?9?$AAU?$AAY?$AA?$AA@ 200c1904     LIBCMTD:winapinls.obj
 0002:00011910       ??_C@_1M@LLCCOAGA@?$AAa?$AAr?$AA?9?$AAB?$AAH?$AA?$AA@ 200c1910     LIBCMTD:winapinls.obj
 0002:0001191c       ??_C@_1M@PBFNCDEL@?$AAe?$AAs?$AA?9?$AAP?$AAY?$AA?$AA@ 200c191c     LIBCMTD:winapinls.obj
 0002:00011928       ??_C@_1M@EDGINPNP@?$AAa?$AAr?$AA?9?$AAQ?$AAA?$AA?$AA@ 200c1928     LIBCMTD:winapinls.obj
 0002:00011934       ??_C@_1M@MKDBIIJI@?$AAe?$AAs?$AA?9?$AAB?$AAO?$AA?$AA@ 200c1934     LIBCMTD:winapinls.obj
 0002:00011940       ??_C@_1M@CPKKEBLD@?$AAe?$AAs?$AA?9?$AAS?$AAV?$AA?$AA@ 200c1940     LIBCMTD:winapinls.obj
 0002:0001194c       ??_C@_1M@NDBGMMJL@?$AAe?$AAs?$AA?9?$AAH?$AAN?$AA?$AA@ 200c194c     LIBCMTD:winapinls.obj
 0002:00011958       ??_C@_1M@JIJIBHDP@?$AAe?$AAs?$AA?9?$AAN?$AAI?$AA?$AA@ 200c1958     LIBCMTD:winapinls.obj
 0002:00011964       ??_C@_1M@CGFMKEEK@?$AAe?$AAs?$AA?9?$AAP?$AAR?$AA?$AA@ 200c1964     LIBCMTD:winapinls.obj
 0002:00011970       ??_C@_1O@ICJHKIIK@?$AAz?$AAh?$AA?9?$AAC?$AAH?$AAT?$AA?$AA@ 200c1970     LIBCMTD:winapinls.obj
 0002:00011980       ??_C@_15CLNEJCE@?$AAs?$AAr?$AA?$AA@ 200c1980     LIBCMTD:winapinls.obj
 0002:00011988       _LocaleNameToIndexTable    200c1988     LIBCMTD:winapinls.obj
 0002:000120a8       _LcidToLocaleNameTable     200c20a8     LIBCMTD:winapinls.obj
 0002:000127c8       ??_C@_1M@KAHEKEIG@?$AAa?$AAf?$AA?9?$AAz?$AAa?$AA?$AA@ 200c27c8     LIBCMTD:winapinls.obj
 0002:000127d4       ??_C@_1M@GIECOABL@?$AAa?$AAr?$AA?9?$AAa?$AAe?$AA?$AA@ 200c27d4     LIBCMTD:winapinls.obj
 0002:000127e0       ??_C@_1M@BMLMEKGI@?$AAa?$AAr?$AA?9?$AAb?$AAh?$AA?$AA@ 200c27e0     LIBCMTD:winapinls.obj
 0002:000127ec       ??_C@_1M@DAPFDGGB@?$AAa?$AAr?$AA?9?$AAd?$AAz?$AA?$AA@ 200c27ec     LIBCMTD:winapinls.obj
 0002:000127f8       ??_C@_1M@FJNKGKIG@?$AAa?$AAr?$AA?9?$AAe?$AAg?$AA?$AA@ 200c27f8     LIBCMTD:winapinls.obj
 0002:00012804       ??_C@_1M@FLGKKCLO@?$AAa?$AAr?$AA?9?$AAi?$AAq?$AA?$AA@ 200c2804     LIBCMTD:winapinls.obj
 0002:00012810       ??_C@_1M@GNDIPALM@?$AAa?$AAr?$AA?9?$AAj?$AAo?$AA?$AA@ 200c2810     LIBCMTD:winapinls.obj
 0002:0001281c       ??_C@_1M@DDMJFMGJ@?$AAa?$AAr?$AA?9?$AAk?$AAw?$AA?$AA@ 200c281c     LIBCMTD:winapinls.obj
 0002:00012828       ??_C@_1M@EJALMLHM@?$AAa?$AAr?$AA?9?$AAl?$AAb?$AA?$AA@ 200c2828     LIBCMTD:winapinls.obj
 0002:00012834       ??_C@_1M@MOBDBLOC@?$AAa?$AAr?$AA?9?$AAl?$AAy?$AA?$AA@ 200c2834     LIBCMTD:winapinls.obj
 0002:00012840       ??_C@_1M@JAOCLHDH@?$AAa?$AAr?$AA?9?$AAm?$AAa?$AA?$AA@ 200c2840     LIBCMTD:winapinls.obj
 0002:0001284c       ??_C@_1M@JHPMKJIE@?$AAa?$AAr?$AA?9?$AAo?$AAm?$AA?$AA@ 200c284c     LIBCMTD:winapinls.obj
 0002:00012858       ??_C@_1M@OEPGHFNH@?$AAa?$AAr?$AA?9?$AAq?$AAa?$AA?$AA@ 200c2858     LIBCMTD:winapinls.obj
 0002:00012864       ??_C@_1M@KJDONENM@?$AAa?$AAr?$AA?9?$AAs?$AAa?$AA?$AA@ 200c2864     LIBCMTD:winapinls.obj
 0002:00012870       ??_C@_1M@DMJDKLKM@?$AAa?$AAr?$AA?9?$AAs?$AAy?$AA?$AA@ 200c2870     LIBCMTD:winapinls.obj
 0002:0001287c       ??_C@_1M@OMFIPEDC@?$AAa?$AAr?$AA?9?$AAt?$AAn?$AA?$AA@ 200c287c     LIBCMTD:winapinls.obj
 0002:00012888       ??_C@_1M@IHMHGAON@?$AAa?$AAr?$AA?9?$AAy?$AAe?$AA?$AA@ 200c2888     LIBCMTD:winapinls.obj
 0002:00012894       ??_C@_1BG@KDCPGJGB@?$AAa?$AAz?$AA?9?$AAa?$AAz?$AA?9?$AAc?$AAy?$AAr?$AAl?$AA?$AA@ 200c2894     LIBCMTD:winapinls.obj
 0002:000128ac       ??_C@_1BG@IBCKDDOE@?$AAa?$AAz?$AA?9?$AAa?$AAz?$AA?9?$AAl?$AAa?$AAt?$AAn?$AA?$AA@ 200c28ac     LIBCMTD:winapinls.obj
 0002:000128c4       ??_C@_1M@EGPFDCPD@?$AAb?$AAe?$AA?9?$AAb?$AAy?$AA?$AA@ 200c28c4     LIBCMTD:winapinls.obj
 0002:000128d0       ??_C@_1M@PCMGMCGC@?$AAb?$AAg?$AA?9?$AAb?$AAg?$AA?$AA@ 200c28d0     LIBCMTD:winapinls.obj
 0002:000128dc       ??_C@_1M@BJBMFGOB@?$AAb?$AAn?$AA?9?$AAi?$AAn?$AA?$AA@ 200c28dc     LIBCMTD:winapinls.obj
 0002:000128e8       ??_C@_1BG@EAKMMACD@?$AAb?$AAs?$AA?9?$AAb?$AAa?$AA?9?$AAl?$AAa?$AAt?$AAn?$AA?$AA@ 200c28e8     LIBCMTD:winapinls.obj
 0002:00012900       ??_C@_1M@KGADAODK@?$AAc?$AAa?$AA?9?$AAe?$AAs?$AA?$AA@ 200c2900     LIBCMTD:winapinls.obj
 0002:0001290c       ??_C@_1M@COAJPDHI@?$AAc?$AAs?$AA?9?$AAc?$AAz?$AA?$AA@ 200c290c     LIBCMTD:winapinls.obj
 0002:00012918       ??_C@_1M@DHBHFONH@?$AAc?$AAy?$AA?9?$AAg?$AAb?$AA?$AA@ 200c2918     LIBCMTD:winapinls.obj
 0002:00012924       ??_C@_1M@IMGKELGA@?$AAd?$AAa?$AA?9?$AAd?$AAk?$AA?$AA@ 200c2924     LIBCMTD:winapinls.obj
 0002:00012930       ??_C@_1M@NNDGDNGA@?$AAd?$AAe?$AA?9?$AAa?$AAt?$AA?$AA@ 200c2930     LIBCMTD:winapinls.obj
 0002:0001293c       ??_C@_1M@IKDBHEEM@?$AAd?$AAe?$AA?9?$AAc?$AAh?$AA?$AA@ 200c293c     LIBCMTD:winapinls.obj
 0002:00012948       ??_C@_1M@GFFOJMCJ@?$AAd?$AAe?$AA?9?$AAd?$AAe?$AA?$AA@ 200c2948     LIBCMTD:winapinls.obj
 0002:00012954       ??_C@_1M@MDNLKBPM@?$AAd?$AAe?$AA?9?$AAl?$AAi?$AA?$AA@ 200c2954     LIBCMTD:winapinls.obj
 0002:00012960       ??_C@_1M@NJBEEJNL@?$AAd?$AAe?$AA?9?$AAl?$AAu?$AA?$AA@ 200c2960     LIBCMTD:winapinls.obj
 0002:0001296c       ??_C@_1O@GNNELBAP@?$AAd?$AAi?$AAv?$AA?9?$AAm?$AAv?$AA?$AA@ 200c296c     LIBCMTD:winapinls.obj
 0002:0001297c       ??_C@_1M@EJLEOGAE@?$AAe?$AAl?$AA?9?$AAg?$AAr?$AA?$AA@ 200c297c     LIBCMTD:winapinls.obj
 0002:00012988       ??_C@_1M@GMPONJN@?$AAe?$AAn?$AA?9?$AAa?$AAu?$AA?$AA@ 200c2988     LIBCMTD:winapinls.obj
 0002:00012994       ??_C@_1M@NIDIIPGF@?$AAe?$AAn?$AA?9?$AAb?$AAz?$AA?$AA@ 200c2994     LIBCMTD:winapinls.obj
 0002:000129a0       ??_C@_1M@JEHMIMFO@?$AAe?$AAn?$AA?9?$AAc?$AAa?$AA?$AA@ 200c29a0     LIBCMTD:winapinls.obj
 0002:000129ac       ??_C@_1M@IGMJCDLA@?$AAe?$AAn?$AA?9?$AAc?$AAb?$AA?$AA@ 200c29ac     LIBCMTD:winapinls.obj
 0002:000129b8       ??_C@_1M@BNFIGBKG@?$AAe?$AAn?$AA?9?$AAg?$AAb?$AA?$AA@ 200c29b8     LIBCMTD:winapinls.obj
 0002:000129c4       ??_C@_1M@LKIFDIGP@?$AAe?$AAn?$AA?9?$AAi?$AAe?$AA?$AA@ 200c29c4     LIBCMTD:winapinls.obj
 0002:000129d0       ??_C@_1M@PJKFGCCO@?$AAe?$AAn?$AA?9?$AAj?$AAm?$AA?$AA@ 200c29d0     LIBCMTD:winapinls.obj
 0002:000129dc       ??_C@_1M@KPPKEPBO@?$AAe?$AAn?$AA?9?$AAn?$AAz?$AA?$AA@ 200c29dc     LIBCMTD:winapinls.obj
 0002:000129e8       ??_C@_1M@GMDGLDOB@?$AAe?$AAn?$AA?9?$AAp?$AAh?$AA?$AA@ 200c29e8     LIBCMTD:winapinls.obj
 0002:000129f4       ??_C@_1M@ONGIBJNA@?$AAe?$AAn?$AA?9?$AAt?$AAt?$AA?$AA@ 200c29f4     LIBCMTD:winapinls.obj
 0002:00012a00       ??_C@_1M@LLODPCMM@?$AAe?$AAn?$AA?9?$AAu?$AAs?$AA?$AA@ 200c2a00     LIBCMTD:winapinls.obj
 0002:00012a0c       ??_C@_1M@LAKFNPAN@?$AAe?$AAn?$AA?9?$AAz?$AAa?$AA?$AA@ 200c2a0c     LIBCMTD:winapinls.obj
 0002:00012a18       ??_C@_1M@MFNHNHEO@?$AAe?$AAn?$AA?9?$AAz?$AAw?$AA?$AA@ 200c2a18     LIBCMTD:winapinls.obj
 0002:00012a24       ??_C@_1M@EJEINPHM@?$AAe?$AAs?$AA?9?$AAa?$AAr?$AA?$AA@ 200c2a24     LIBCMTD:winapinls.obj
 0002:00012a30       ??_C@_1M@GNKPCCJA@?$AAe?$AAs?$AA?9?$AAb?$AAo?$AA?$AA@ 200c2a30     LIBCMTD:winapinls.obj
 0002:00012a3c       ??_C@_1M@LEEGFONL@?$AAe?$AAs?$AA?9?$AAc?$AAl?$AA?$AA@ 200c2a3c     LIBCMTD:winapinls.obj
 0002:00012a48       ??_C@_1M@KGPDPBDF@?$AAe?$AAs?$AA?9?$AAc?$AAo?$AA?$AA@ 200c2a48     LIBCMTD:winapinls.obj
 0002:00012a54       ??_C@_1M@EIAHOHH@?$AAe?$AAs?$AA?9?$AAc?$AAr?$AA?$AA@ 200c2a54     LIBCMTD:winapinls.obj
 0002:00012a60       ??_C@_1M@LLPGMBIN@?$AAe?$AAs?$AA?9?$AAd?$AAo?$AA?$AA@ 200c2a60     LIBCMTD:winapinls.obj
 0002:00012a6c       ??_C@_1M@DKHMKNJA@?$AAe?$AAs?$AA?9?$AAe?$AAc?$AA?$AA@ 200c2a6c     LIBCMTD:winapinls.obj
 0002:00012a78       ??_C@_1M@GKGFPKAP@?$AAe?$AAs?$AA?9?$AAe?$AAs?$AA?$AA@ 200c2a78     LIBCMTD:winapinls.obj
 0002:00012a84       ??_C@_1M@LKHKGDLN@?$AAe?$AAs?$AA?9?$AAg?$AAt?$AA?$AA@ 200c2a84     LIBCMTD:winapinls.obj
 0002:00012a90       ??_C@_1M@HEIIGGJD@?$AAe?$AAs?$AA?9?$AAh?$AAn?$AA?$AA@ 200c2a90     LIBCMTD:winapinls.obj
 0002:00012a9c       ??_C@_1M@FBDHPPGD@?$AAe?$AAs?$AA?9?$AAm?$AAx?$AA?$AA@ 200c2a9c     LIBCMTD:winapinls.obj
 0002:00012aa8       ??_C@_1M@DPAGLNDH@?$AAe?$AAs?$AA?9?$AAn?$AAi?$AA?$AA@ 200c2aa8     LIBCMTD:winapinls.obj
 0002:00012ab4       ??_C@_1M@MDGOPGDD@?$AAe?$AAs?$AA?9?$AAp?$AAa?$AA?$AA@ 200c2ab4     LIBCMTD:winapinls.obj
 0002:00012ac0       ??_C@_1M@EMAMGBGE@?$AAe?$AAs?$AA?9?$AAp?$AAe?$AA?$AA@ 200c2ac0     LIBCMTD:winapinls.obj
 0002:00012acc       ??_C@_1M@IBMCAOEC@?$AAe?$AAs?$AA?9?$AAp?$AAr?$AA?$AA@ 200c2acc     LIBCMTD:winapinls.obj
 0002:00012ad8       ??_C@_1M@FGMDIJED@?$AAe?$AAs?$AA?9?$AAp?$AAy?$AA?$AA@ 200c2ad8     LIBCMTD:winapinls.obj
 0002:00012ae4       ??_C@_1M@IIDEOLLL@?$AAe?$AAs?$AA?9?$AAs?$AAv?$AA?$AA@ 200c2ae4     LIBCMTD:winapinls.obj
 0002:00012af0       ??_C@_1M@GAOBIPA@?$AAe?$AAs?$AA?9?$AAu?$AAy?$AA?$AA@ 200c2af0     LIBCMTD:winapinls.obj
 0002:00012afc       ??_C@_1M@JKFFICHJ@?$AAe?$AAs?$AA?9?$AAv?$AAe?$AA?$AA@ 200c2afc     LIBCMTD:winapinls.obj
 0002:00012b08       ??_C@_1M@PNMLOJDF@?$AAe?$AAt?$AA?9?$AAe?$AAe?$AA?$AA@ 200c2b08     LIBCMTD:winapinls.obj
 0002:00012b14       ??_C@_1M@GHHLIKEI@?$AAe?$AAu?$AA?9?$AAe?$AAs?$AA?$AA@ 200c2b14     LIBCMTD:winapinls.obj
 0002:00012b20       ??_C@_1M@PBNONODE@?$AAf?$AAa?$AA?9?$AAi?$AAr?$AA?$AA@ 200c2b20     LIBCMTD:winapinls.obj
 0002:00012b2c       ??_C@_1M@JEEHPMIL@?$AAf?$AAi?$AA?9?$AAf?$AAi?$AA?$AA@ 200c2b2c     LIBCMTD:winapinls.obj
 0002:00012b38       ??_C@_1M@LMDCNDBA@?$AAf?$AAo?$AA?9?$AAf?$AAo?$AA?$AA@ 200c2b38     LIBCMTD:winapinls.obj
 0002:00012b44       ??_C@_1M@JKEOHLDK@?$AAf?$AAr?$AA?9?$AAb?$AAe?$AA?$AA@ 200c2b44     LIBCMTD:winapinls.obj
 0002:00012b50       ??_C@_1M@NOHADPMI@?$AAf?$AAr?$AA?9?$AAc?$AAa?$AA?$AA@ 200c2b50     LIBCMTD:winapinls.obj
 0002:00012b5c       ??_C@_1M@KDHIHAEC@?$AAf?$AAr?$AA?9?$AAc?$AAh?$AA?$AA@ 200c2b5c     LIBCMTD:winapinls.obj
 0002:00012b68       ??_C@_1M@MMBBFGAK@?$AAf?$AAr?$AA?9?$AAf?$AAr?$AA?$AA@ 200c2b68     LIBCMTD:winapinls.obj
 0002:00012b74       ??_C@_1M@PAFNENNF@?$AAf?$AAr?$AA?9?$AAl?$AAu?$AA?$AA@ 200c2b74     LIBCMTD:winapinls.obj
 0002:00012b80       ??_C@_1M@EOHDJGDD@?$AAf?$AAr?$AA?9?$AAm?$AAc?$AA?$AA@ 200c2b80     LIBCMTD:winapinls.obj
 0002:00012b8c       ??_C@_1M@FAPLLOPF@?$AAg?$AAl?$AA?9?$AAe?$AAs?$AA?$AA@ 200c2b8c     LIBCMTD:winapinls.obj
 0002:00012b98       ??_C@_1M@FOPBFLOO@?$AAg?$AAu?$AA?9?$AAi?$AAn?$AA?$AA@ 200c2b98     LIBCMTD:winapinls.obj
 0002:00012ba4       ??_C@_1M@KBMCINPM@?$AAh?$AAe?$AA?9?$AAi?$AAl?$AA?$AA@ 200c2ba4     LIBCMTD:winapinls.obj
 0002:00012bb0       ??_C@_1M@BBPHKFPJ@?$AAh?$AAi?$AA?9?$AAi?$AAn?$AA?$AA@ 200c2bb0     LIBCMTD:winapinls.obj
 0002:00012bbc       ??_C@_1M@PMBNDPHD@?$AAh?$AAr?$AA?9?$AAb?$AAa?$AA?$AA@ 200c2bbc     LIBCMTD:winapinls.obj
 0002:00012bc8       ??_C@_1M@BPCKOEGE@?$AAh?$AAr?$AA?9?$AAh?$AAr?$AA?$AA@ 200c2bc8     LIBCMTD:winapinls.obj
 0002:00012bd4       ??_C@_1M@GACBMHKE@?$AAh?$AAu?$AA?9?$AAh?$AAu?$AA?$AA@ 200c2bd4     LIBCMTD:winapinls.obj
 0002:00012be0       ??_C@_1M@MILPAJJC@?$AAh?$AAy?$AA?9?$AAa?$AAm?$AA?$AA@ 200c2be0     LIBCMTD:winapinls.obj
 0002:00012bec       ??_C@_1M@BABBICEC@?$AAi?$AAd?$AA?9?$AAi?$AAd?$AA?$AA@ 200c2bec     LIBCMTD:winapinls.obj
 0002:00012bf8       ??_C@_1M@BIKNHHPF@?$AAi?$AAs?$AA?9?$AAi?$AAs?$AA?$AA@ 200c2bf8     LIBCMTD:winapinls.obj
 0002:00012c04       ??_C@_1M@NMPCJPHE@?$AAi?$AAt?$AA?9?$AAc?$AAh?$AA?$AA@ 200c2c04     LIBCMTD:winapinls.obj
 0002:00012c10       ??_C@_1M@GHKGFEDF@?$AAi?$AAt?$AA?9?$AAi?$AAt?$AA?$AA@ 200c2c10     LIBCMTD:winapinls.obj
 0002:00012c1c       ??_C@_1M@NIEJCJJA@?$AAj?$AAa?$AA?9?$AAj?$AAp?$AA?$AA@ 200c2c1c     LIBCMTD:winapinls.obj
 0002:00012c28       ??_C@_1M@JILFNBIM@?$AAk?$AAa?$AA?9?$AAg?$AAe?$AA?$AA@ 200c2c28     LIBCMTD:winapinls.obj
 0002:00012c34       ??_C@_1M@PACPMGPH@?$AAk?$AAk?$AA?9?$AAk?$AAz?$AA?$AA@ 200c2c34     LIBCMTD:winapinls.obj
 0002:00012c40       ??_C@_1M@IELFGMHA@?$AAk?$AAn?$AA?9?$AAi?$AAn?$AA?$AA@ 200c2c40     LIBCMTD:winapinls.obj
 0002:00012c4c       ??_C@_1O@IBBJHCH@?$AAk?$AAo?$AAk?$AA?9?$AAi?$AAn?$AA?$AA@ 200c2c4c     LIBCMTD:winapinls.obj
 0002:00012c5c       ??_C@_1M@DMHAEOGC@?$AAk?$AAo?$AA?9?$AAk?$AAr?$AA?$AA@ 200c2c5c     LIBCMTD:winapinls.obj
 0002:00012c68       ??_C@_1M@HBAHBIGA@?$AAk?$AAy?$AA?9?$AAk?$AAg?$AA?$AA@ 200c2c68     LIBCMTD:winapinls.obj
 0002:00012c74       ??_C@_1M@KPMILCJG@?$AAl?$AAt?$AA?9?$AAl?$AAt?$AA?$AA@ 200c2c74     LIBCMTD:winapinls.obj
 0002:00012c80       ??_C@_1M@BDEKKCA@?$AAl?$AAv?$AA?9?$AAl?$AAv?$AA?$AA@ 200c2c80     LIBCMTD:winapinls.obj
 0002:00012c8c       ??_C@_1M@ELCKCCJJ@?$AAm?$AAi?$AA?9?$AAn?$AAz?$AA?$AA@ 200c2c8c     LIBCMTD:winapinls.obj
 0002:00012c98       ??_C@_1M@CBOOLAPA@?$AAm?$AAk?$AA?9?$AAm?$AAk?$AA?$AA@ 200c2c98     LIBCMTD:winapinls.obj
 0002:00012ca4       ??_C@_1M@GPHNBJKN@?$AAm?$AAl?$AA?9?$AAi?$AAn?$AA?$AA@ 200c2ca4     LIBCMTD:winapinls.obj
 0002:00012cb0       ??_C@_1M@PABJILIG@?$AAm?$AAn?$AA?9?$AAm?$AAn?$AA?$AA@ 200c2cb0     LIBCMTD:winapinls.obj
 0002:00012cbc       ??_C@_1M@FGBKKIPG@?$AAm?$AAr?$AA?9?$AAi?$AAn?$AA?$AA@ 200c2cbc     LIBCMTD:winapinls.obj
 0002:00012cc8       ??_C@_1M@NDBPDDAL@?$AAm?$AAs?$AA?9?$AAb?$AAn?$AA?$AA@ 200c2cc8     LIBCMTD:winapinls.obj
 0002:00012cd4       ??_C@_1M@OPIHOOPI@?$AAm?$AAs?$AA?9?$AAm?$AAy?$AA?$AA@ 200c2cd4     LIBCMTD:winapinls.obj
 0002:00012ce0       ??_C@_1M@PPDBCNFM@?$AAm?$AAt?$AA?9?$AAm?$AAt?$AA?$AA@ 200c2ce0     LIBCMTD:winapinls.obj
 0002:00012cec       ??_C@_1M@KDJDKMDD@?$AAn?$AAb?$AA?9?$AAn?$AAo?$AA?$AA@ 200c2cec     LIBCMTD:winapinls.obj
 0002:00012cf8       ??_C@_1M@KFCFLMJP@?$AAn?$AAl?$AA?9?$AAb?$AAe?$AA?$AA@ 200c2cf8     LIBCMTD:winapinls.obj
 0002:00012d04       ??_C@_1M@KPOPDDGO@?$AAn?$AAl?$AA?9?$AAn?$AAl?$AA?$AA@ 200c2d04     LIBCMTD:winapinls.obj
 0002:00012d10       ??_C@_1M@LJKPEMLN@?$AAn?$AAn?$AA?9?$AAn?$AAo?$AA?$AA@ 200c2d10     LIBCMTD:winapinls.obj
 0002:00012d1c       ??_C@_1M@BDGHHBFL@?$AAn?$AAs?$AA?9?$AAz?$AAa?$AA?$AA@ 200c2d1c     LIBCMTD:winapinls.obj
 0002:00012d28       ??_C@_1M@IDEHOAP@?$AAp?$AAa?$AA?9?$AAi?$AAn?$AA?$AA@ 200c2d28     LIBCMTD:winapinls.obj
 0002:00012d34       ??_C@_1M@HDBKGOGH@?$AAp?$AAl?$AA?9?$AAp?$AAl?$AA?$AA@ 200c2d34     LIBCMTD:winapinls.obj
 0002:00012d40       ??_C@_1M@LJLLCMEH@?$AAp?$AAt?$AA?9?$AAb?$AAr?$AA?$AA@ 200c2d40     LIBCMTD:winapinls.obj
 0002:00012d4c       ??_C@_1M@NCMONAAL@?$AAp?$AAt?$AA?9?$AAp?$AAt?$AA?$AA@ 200c2d4c     LIBCMTD:winapinls.obj
 0002:00012d58       ??_C@_1O@EAKMAJDN@?$AAq?$AAu?$AAz?$AA?9?$AAb?$AAo?$AA?$AA@ 200c2d58     LIBCMTD:winapinls.obj
 0002:00012d68       ??_C@_1O@BHHPIGDN@?$AAq?$AAu?$AAz?$AA?9?$AAe?$AAc?$AA?$AA@ 200c2d68     LIBCMTD:winapinls.obj
 0002:00012d78       ??_C@_1O@GBAPEKMJ@?$AAq?$AAu?$AAz?$AA?9?$AAp?$AAe?$AA?$AA@ 200c2d78     LIBCMTD:winapinls.obj
 0002:00012d88       ??_C@_1M@CLGLEFBO@?$AAr?$AAo?$AA?9?$AAr?$AAo?$AA?$AA@ 200c2d88     LIBCMTD:winapinls.obj
 0002:00012d94       ??_C@_1M@CEEDODME@?$AAr?$AAu?$AA?9?$AAr?$AAu?$AA?$AA@ 200c2d94     LIBCMTD:winapinls.obj
 0002:00012da0       ??_C@_1M@HPKKKMPP@?$AAs?$AAa?$AA?9?$AAi?$AAn?$AA?$AA@ 200c2da0     LIBCMTD:winapinls.obj
 0002:00012dac       ??_C@_1M@BKMAIGOJ@?$AAs?$AAe?$AA?9?$AAf?$AAi?$AA?$AA@ 200c2dac     LIBCMTD:winapinls.obj
 0002:00012db8       ??_C@_1M@NDPIFLFI@?$AAs?$AAe?$AA?9?$AAn?$AAo?$AA?$AA@ 200c2db8     LIBCMTD:winapinls.obj
 0002:00012dc4       ??_C@_1M@DANKKHJ@?$AAs?$AAe?$AA?9?$AAs?$AAe?$AA?$AA@ 200c2dc4     LIBCMTD:winapinls.obj
 0002:00012dd0       ??_C@_1M@PNBLONPJ@?$AAs?$AAk?$AA?9?$AAs?$AAk?$AA?$AA@ 200c2dd0     LIBCMTD:winapinls.obj
 0002:00012ddc       ??_C@_1M@LFMODOAL@?$AAs?$AAl?$AA?9?$AAs?$AAi?$AA?$AA@ 200c2ddc     LIBCMTD:winapinls.obj
 0002:00012de8       ??_C@_1O@DFKOMPG@?$AAs?$AAm?$AAa?$AA?9?$AAn?$AAo?$AA?$AA@ 200c2de8     LIBCMTD:winapinls.obj
 0002:00012df8       ??_C@_1O@NDKPBNNH@?$AAs?$AAm?$AAa?$AA?9?$AAs?$AAe?$AA?$AA@ 200c2df8     LIBCMTD:winapinls.obj
 0002:00012e08       ??_C@_1O@PLLKBHAB@?$AAs?$AAm?$AAj?$AA?9?$AAn?$AAo?$AA?$AA@ 200c2e08     LIBCMTD:winapinls.obj
 0002:00012e18       ??_C@_1O@CLEPOGCA@?$AAs?$AAm?$AAj?$AA?9?$AAs?$AAe?$AA?$AA@ 200c2e18     LIBCMTD:winapinls.obj
 0002:00012e28       ??_C@_1O@DLGJGKMK@?$AAs?$AAm?$AAn?$AA?9?$AAf?$AAi?$AA?$AA@ 200c2e28     LIBCMTD:winapinls.obj
 0002:00012e38       ??_C@_1O@OJDJGAJC@?$AAs?$AAm?$AAs?$AA?9?$AAf?$AAi?$AA?$AA@ 200c2e38     LIBCMTD:winapinls.obj
 0002:00012e48       ??_C@_1M@BOFOGHPB@?$AAs?$AAq?$AA?9?$AAa?$AAl?$AA?$AA@ 200c2e48     LIBCMTD:winapinls.obj
 0002:00012e54       ??_C@_1BG@LJBBIPGB@?$AAs?$AAr?$AA?9?$AAb?$AAa?$AA?9?$AAc?$AAy?$AAr?$AAl?$AA?$AA@ 200c2e54     LIBCMTD:winapinls.obj
 0002:00012e6c       ??_C@_1BG@JLBENFOE@?$AAs?$AAr?$AA?9?$AAb?$AAa?$AA?9?$AAl?$AAa?$AAt?$AAn?$AA?$AA@ 200c2e6c     LIBCMTD:winapinls.obj
 0002:00012e84       ??_C@_1BG@KODPNHE@?$AAs?$AAr?$AA?9?$AAs?$AAp?$AA?9?$AAc?$AAy?$AAr?$AAl?$AA?$AA@ 200c2e84     LIBCMTD:winapinls.obj
 0002:00012e9c       ??_C@_1BG@CIOGKHPB@?$AAs?$AAr?$AA?9?$AAs?$AAp?$AA?9?$AAl?$AAa?$AAt?$AAn?$AA?$AA@ 200c2e9c     LIBCMTD:winapinls.obj
 0002:00012eb4       ??_C@_1M@NGFJLMAC@?$AAs?$AAv?$AA?9?$AAf?$AAi?$AA?$AA@ 200c2eb4     LIBCMTD:winapinls.obj
 0002:00012ec0       ??_C@_1M@MPJEJAJC@?$AAs?$AAv?$AA?9?$AAs?$AAe?$AA?$AA@ 200c2ec0     LIBCMTD:winapinls.obj
 0002:00012ecc       ??_C@_1M@MPNDHLFK@?$AAs?$AAw?$AA?9?$AAk?$AAe?$AA?$AA@ 200c2ecc     LIBCMTD:winapinls.obj
 0002:00012ed8       ??_C@_1O@KOHBJJI@?$AAs?$AAy?$AAr?$AA?9?$AAs?$AAy?$AA?$AA@ 200c2ed8     LIBCMTD:winapinls.obj
 0002:00012ee8       ??_C@_1M@LDCEFHA@?$AAt?$AAa?$AA?9?$AAi?$AAn?$AA?$AA@ 200c2ee8     LIBCMTD:winapinls.obj
 0002:00012ef4       ??_C@_1M@CNJOFAK@?$AAt?$AAe?$AA?9?$AAi?$AAn?$AA?$AA@ 200c2ef4     LIBCMTD:winapinls.obj
 0002:00012f00       ??_C@_1M@GNAECACD@?$AAt?$AAh?$AA?9?$AAt?$AAh?$AA?$AA@ 200c2f00     LIBCMTD:winapinls.obj
 0002:00012f0c       ??_C@_1M@CHBIHOJO@?$AAt?$AAn?$AA?9?$AAz?$AAa?$AA?$AA@ 200c2f0c     LIBCMTD:winapinls.obj
 0002:00012f18       ??_C@_1M@GCCMIGPJ@?$AAt?$AAr?$AA?9?$AAt?$AAr?$AA?$AA@ 200c2f18     LIBCMTD:winapinls.obj
 0002:00012f24       ??_C@_1M@CELMCNBK@?$AAt?$AAt?$AA?9?$AAr?$AAu?$AA?$AA@ 200c2f24     LIBCMTD:winapinls.obj
 0002:00012f30       ??_C@_1M@KLMCELGA@?$AAu?$AAk?$AA?9?$AAu?$AAa?$AA?$AA@ 200c2f30     LIBCMTD:winapinls.obj
 0002:00012f3c       ??_C@_1M@EPAJJAJF@?$AAu?$AAr?$AA?9?$AAp?$AAk?$AA?$AA@ 200c2f3c     LIBCMTD:winapinls.obj
 0002:00012f48       ??_C@_1BG@GEGPMCDJ@?$AAu?$AAz?$AA?9?$AAu?$AAz?$AA?9?$AAc?$AAy?$AAr?$AAl?$AA?$AA@ 200c2f48     LIBCMTD:winapinls.obj
 0002:00012f60       ??_C@_1BG@EGGKJILM@?$AAu?$AAz?$AA?9?$AAu?$AAz?$AA?9?$AAl?$AAa?$AAt?$AAn?$AA?$AA@ 200c2f60     LIBCMTD:winapinls.obj
 0002:00012f78       ??_C@_1M@GFOCLFF@?$AAv?$AAi?$AA?9?$AAv?$AAn?$AA?$AA@ 200c2f78     LIBCMTD:winapinls.obj
 0002:00012f84       ??_C@_1M@CPAMEDFI@?$AAx?$AAh?$AA?9?$AAz?$AAa?$AA?$AA@ 200c2f84     LIBCMTD:winapinls.obj
 0002:00012f90       ??_C@_1O@EBKIFIGN@?$AAz?$AAh?$AA?9?$AAc?$AAh?$AAs?$AA?$AA@ 200c2f90     LIBCMTD:winapinls.obj
 0002:00012fa0       ??_C@_1O@NMHPGANE@?$AAz?$AAh?$AA?9?$AAc?$AAh?$AAt?$AA?$AA@ 200c2fa0     LIBCMTD:winapinls.obj
 0002:00012fb0       ??_C@_1M@LPINJOMC@?$AAz?$AAh?$AA?9?$AAc?$AAn?$AA?$AA@ 200c2fb0     LIBCMTD:winapinls.obj
 0002:00012fbc       ??_C@_1M@OCJEJODD@?$AAz?$AAh?$AA?9?$AAh?$AAk?$AA?$AA@ 200c2fbc     LIBCMTD:winapinls.obj
 0002:00012fc8       ??_C@_1M@DNDLJINH@?$AAz?$AAh?$AA?9?$AAm?$AAo?$AA?$AA@ 200c2fc8     LIBCMTD:winapinls.obj
 0002:00012fd4       ??_C@_1M@MBFDNDND@?$AAz?$AAh?$AA?9?$AAs?$AAg?$AA?$AA@ 200c2fd4     LIBCMTD:winapinls.obj
 0002:00012fe0       ??_C@_1M@IMEPLEPE@?$AAz?$AAh?$AA?9?$AAt?$AAw?$AA?$AA@ 200c2fe0     LIBCMTD:winapinls.obj
 0002:00012fec       ??_C@_1M@BBGHNHJP@?$AAz?$AAu?$AA?9?$AAz?$AAa?$AA?$AA@ 200c2fec     LIBCMTD:winapinls.obj
 0002:00012ff8       ??_C@_15EMKDOKLE@?$AAa?$AAr?$AA?$AA@ 200c2ff8     LIBCMTD:winapinls.obj
 0002:00013000       ??_C@_15KNPADPLH@?$AAb?$AAg?$AA?$AA@ 200c3000     LIBCMTD:winapinls.obj
 0002:00013008       ??_C@_1FE@HAPBHJIC@?$AAf?$AA?3?$AA?2?$AAd?$AAd?$AA?2?$AAv?$AAc?$AAt?$AAo?$AAo?$AAl?$AAs?$AA?2?$AAc?$AAr?$AAt?$AA?2?$AAc?$AAr?$AAt?$AAw?$AA3?$AA2?$AA?2?$AAm?$AAi?$AAs?$AAc?$AA?2?$AAw?$AAi@ 200c3008     LIBCMTD:winapinls.obj
 0002:0001305c       ??_C@_1DO@MBHJDOGM@?$AA_?$AA_?$AAc?$AAr?$AAt?$AAD?$AAo?$AAw?$AAn?$AAl?$AAe?$AAv?$AAe?$AAl?$AAL?$AAC?$AAI?$AAD?$AAT?$AAo?$AAL?$AAo?$AAc?$AAa?$AAl?$AAe?$AAN?$AAa?$AAm?$AAe?$AA?$AA@ 200c305c     LIBCMTD:winapinls.obj
 0002:000130a0       ??_C@_1FO@LFACCMJH@?$AAw?$AAc?$AAs?$AAc?$AAp?$AAy?$AA_?$AAs?$AA?$CI?$AAo?$AAu?$AAt?$AAL?$AAo?$AAc?$AAa?$AAl?$AAe?$AAN?$AAa?$AAm?$AAe?$AA?0?$AA?5?$AAc?$AAc?$AAh?$AAL?$AAo?$AAc?$AAa?$AAl@ 200c30a0     LIBCMTD:winapinls.obj
 0002:00013100       ??_C@_0CJ@JJMAJPPG@f?3?2dd?2vctools?2crt?2crtw32?2misc?2in@ 200c3100     LIBCMTD:initctyp.obj
 0002:00013130       ??_C@_1FC@OGCCCEID@?$AAf?$AA?3?$AA?2?$AAd?$AAd?$AA?2?$AAv?$AAc?$AAt?$AAo?$AAo?$AAl?$AAs?$AA?2?$AAc?$AAr?$AAt?$AA?2?$AAc?$AAr?$AAt?$AAw?$AA3?$AA2?$AA?2?$AAm?$AAi?$AAs?$AAc?$AA?2?$AAi?$AAn@ 200c3130     LIBCMTD:initctyp.obj
 0002:00013184       ??_C@_1DG@NMBGBDM@?$AAp?$AAl?$AAo?$AAc?$AAi?$AA?9?$AA?$DO?$AAc?$AAt?$AAy?$AAp?$AAe?$AA1?$AA_?$AAr?$AAe?$AAf?$AAc?$AAo?$AAu?$AAn?$AAt?$AA?5?$AA?$DO?$AA?5?$AA0?$AA?$AA@ 200c3184     LIBCMTD:initctyp.obj
 0002:000131c0       ??_C@_1FC@LFLBLJJB@?$AAf?$AA?3?$AA?2?$AAd?$AAd?$AA?2?$AAv?$AAc?$AAt?$AAo?$AAo?$AAl?$AAs?$AA?2?$AAc?$AAr?$AAt?$AA?2?$AAc?$AAr?$AAt?$AAw?$AA3?$AA2?$AA?2?$AAh?$AA?2?$AAt?$AAc?$AAs?$AAn?$AAc@ 200c31c0     LIBCMTD:wcsncpy_s.obj
 0002:00013214       ??_C@_1BE@PMMBFFCC@?$AAw?$AAc?$AAs?$AAn?$AAc?$AAp?$AAy?$AA_?$AAs?$AA?$AA@ 200c3214     LIBCMTD:wcsncpy_s.obj
 0002:00013228       ___rg_language             200c3228     LIBCMTD:getqloc.obj
 0002:00013534       ??_C@_1BC@LLOKLNP@?$AAa?$AAm?$AAe?$AAr?$AAi?$AAc?$AAa?$AAn?$AA?$AA@ 200c3534     LIBCMTD:getqloc.obj
 0002:00013548       ??_C@_1CC@HEIGCDGG@?$AAa?$AAm?$AAe?$AAr?$AAi?$AAc?$AAa?$AAn?$AA?5?$AAe?$AAn?$AAg?$AAl?$AAi?$AAs?$AAh?$AA?$AA@ 200c3548     LIBCMTD:getqloc.obj
 0002:0001356c       ??_C@_1CC@IHCNOMIN@?$AAa?$AAm?$AAe?$AAr?$AAi?$AAc?$AAa?$AAn?$AA?9?$AAe?$AAn?$AAg?$AAl?$AAi?$AAs?$AAh?$AA?$AA@ 200c356c     LIBCMTD:getqloc.obj
 0002:00013590       ??_C@_1BG@GKAGPCGG@?$AAa?$AAu?$AAs?$AAt?$AAr?$AAa?$AAl?$AAi?$AAa?$AAn?$AA?$AA@ 200c3590     LIBCMTD:getqloc.obj
 0002:000135a8       ??_C@_1BA@GMENCENF@?$AAb?$AAe?$AAl?$AAg?$AAi?$AAa?$AAn?$AA?$AA@ 200c35a8     LIBCMTD:getqloc.obj
 0002:000135b8       ??_C@_1BC@PJMIIAAN@?$AAc?$AAa?$AAn?$AAa?$AAd?$AAi?$AAa?$AAn?$AA?$AA@ 200c35b8     LIBCMTD:getqloc.obj
 0002:000135cc       ??_C@_17NOIMNFBF@?$AAc?$AAh?$AAh?$AA?$AA@ 200c35cc     LIBCMTD:getqloc.obj
 0002:000135d4       ??_C@_17GGDALCHA@?$AAc?$AAh?$AAi?$AA?$AA@ 200c35d4     LIBCMTD:getqloc.obj
 0002:000135dc       ??_C@_1BA@NPNJKIBL@?$AAc?$AAh?$AAi?$AAn?$AAe?$AAs?$AAe?$AA?$AA@ 200c35dc     LIBCMTD:getqloc.obj
 0002:000135ec       ??_C@_1CC@DINBAMMJ@?$AAc?$AAh?$AAi?$AAn?$AAe?$AAs?$AAe?$AA?9?$AAh?$AAo?$AAn?$AAg?$AAk?$AAo?$AAn?$AAg?$AA?$AA@ 200c35ec     LIBCMTD:getqloc.obj
 0002:00013610       ??_C@_1CG@IOBJPACO@?$AAc?$AAh?$AAi?$AAn?$AAe?$AAs?$AAe?$AA?9?$AAs?$AAi?$AAm?$AAp?$AAl?$AAi?$AAf?$AAi?$AAe?$AAd?$AA?$AA@ 200c3610     LIBCMTD:getqloc.obj
 0002:00013638       ??_C@_1CE@GAJNDCKG@?$AAc?$AAh?$AAi?$AAn?$AAe?$AAs?$AAe?$AA?9?$AAs?$AAi?$AAn?$AAg?$AAa?$AAp?$AAo?$AAr?$AAe?$AA?$AA@ 200c3638     LIBCMTD:getqloc.obj
 0002:0001365c       ??_C@_1CI@PAJPIOOD@?$AAc?$AAh?$AAi?$AAn?$AAe?$AAs?$AAe?$AA?9?$AAt?$AAr?$AAa?$AAd?$AAi?$AAt?$AAi?$AAo?$AAn?$AAa?$AAl?$AA?$AA@ 200c365c     LIBCMTD:getqloc.obj
 0002:00013684       ??_C@_1BM@NILJBMMD@?$AAd?$AAu?$AAt?$AAc?$AAh?$AA?9?$AAb?$AAe?$AAl?$AAg?$AAi?$AAa?$AAn?$AA?$AA@ 200c3684     LIBCMTD:getqloc.obj
 0002:000136a0       ??_C@_1CC@OOJPJNEJ@?$AAe?$AAn?$AAg?$AAl?$AAi?$AAs?$AAh?$AA?9?$AAa?$AAm?$AAe?$AAr?$AAi?$AAc?$AAa?$AAn?$AA?$AA@ 200c36a0     LIBCMTD:getqloc.obj
 0002:000136c4       ??_C@_1BI@IOLFEEM@?$AAe?$AAn?$AAg?$AAl?$AAi?$AAs?$AAh?$AA?9?$AAa?$AAu?$AAs?$AA?$AA@ 200c36c4     LIBCMTD:getqloc.obj
 0002:000136dc       ??_C@_1BO@HFFNLENJ@?$AAe?$AAn?$AAg?$AAl?$AAi?$AAs?$AAh?$AA?9?$AAb?$AAe?$AAl?$AAi?$AAz?$AAe?$AA?$AA@ 200c36dc     LIBCMTD:getqloc.obj
 0002:000136fc       ??_C@_1BI@HAPKJMPO@?$AAe?$AAn?$AAg?$AAl?$AAi?$AAs?$AAh?$AA?9?$AAc?$AAa?$AAn?$AA?$AA@ 200c36fc     LIBCMTD:getqloc.obj
 0002:00013714       ??_C@_1CE@HLNDMIOJ@?$AAe?$AAn?$AAg?$AAl?$AAi?$AAs?$AAh?$AA?9?$AAc?$AAa?$AAr?$AAi?$AAb?$AAb?$AAe?$AAa?$AAn?$AA?$AA@ 200c3714     LIBCMTD:getqloc.obj
 0002:00013738       ??_C@_1BI@LDHJHHAC@?$AAe?$AAn?$AAg?$AAl?$AAi?$AAs?$AAh?$AA?9?$AAi?$AAr?$AAe?$AA?$AA@ 200c3738     LIBCMTD:getqloc.obj
 0002:00013750       ??_C@_1CA@NJMMCFOC@?$AAe?$AAn?$AAg?$AAl?$AAi?$AAs?$AAh?$AA?9?$AAj?$AAa?$AAm?$AAa?$AAi?$AAc?$AAa?$AA?$AA@ 200c3750     LIBCMTD:getqloc.obj
 0002:00013770       ??_C@_1BG@BHJEBBGG@?$AAe?$AAn?$AAg?$AAl?$AAi?$AAs?$AAh?$AA?9?$AAn?$AAz?$AA?$AA@ 200c3770     LIBCMTD:getqloc.obj
 0002:00013788       ??_C@_1CK@FGOEJJCO@?$AAe?$AAn?$AAg?$AAl?$AAi?$AAs?$AAh?$AA?9?$AAs?$AAo?$AAu?$AAt?$AAh?$AA?5?$AAa?$AAf?$AAr?$AAi?$AAc?$AAa?$AA?$AA@ 200c3788     LIBCMTD:getqloc.obj
 0002:000137b4       ??_C@_1DE@PDBJPCJ@?$AAe?$AAn?$AAg?$AAl?$AAi?$AAs?$AAh?$AA?9?$AAt?$AAr?$AAi?$AAn?$AAi?$AAd?$AAa?$AAd?$AA?5?$AAy?$AA?5?$AAt?$AAo?$AAb?$AAa?$AAg?$AAo?$AA?$AA@ 200c37b4     LIBCMTD:getqloc.obj
 0002:000137e8       ??_C@_1BG@JGCANDME@?$AAe?$AAn?$AAg?$AAl?$AAi?$AAs?$AAh?$AA?9?$AAu?$AAk?$AA?$AA@ 200c37e8     LIBCMTD:getqloc.obj
 0002:00013800       ??_C@_1BG@DINKMLE@?$AAe?$AAn?$AAg?$AAl?$AAi?$AAs?$AAh?$AA?9?$AAu?$AAs?$AA?$AA@ 200c3800     LIBCMTD:getqloc.obj
 0002:00013818       ??_C@_1BI@NMFDBHJE@?$AAe?$AAn?$AAg?$AAl?$AAi?$AAs?$AAh?$AA?9?$AAu?$AAs?$AAa?$AA?$AA@ 200c3818     LIBCMTD:getqloc.obj
 0002:00013830       ??_C@_1BO@OIHKJKII@?$AAf?$AAr?$AAe?$AAn?$AAc?$AAh?$AA?9?$AAb?$AAe?$AAl?$AAg?$AAi?$AAa?$AAn?$AA?$AA@ 200c3830     LIBCMTD:getqloc.obj
 0002:00013850       ??_C@_1CA@NKAELJKI@?$AAf?$AAr?$AAe?$AAn?$AAc?$AAh?$AA?9?$AAc?$AAa?$AAn?$AAa?$AAd?$AAi?$AAa?$AAn?$AA?$AA@ 200c3850     LIBCMTD:getqloc.obj
 0002:00013870       ??_C@_1CE@MGKCNLGN@?$AAf?$AAr?$AAe?$AAn?$AAc?$AAh?$AA?9?$AAl?$AAu?$AAx?$AAe?$AAm?$AAb?$AAo?$AAu?$AAr?$AAg?$AA?$AA@ 200c3870     LIBCMTD:getqloc.obj
 0002:00013894       ??_C@_1BK@CEGEAILM@?$AAf?$AAr?$AAe?$AAn?$AAc?$AAh?$AA?9?$AAs?$AAw?$AAi?$AAs?$AAs?$AA?$AA@ 200c3894     LIBCMTD:getqloc.obj
 0002:000138b0       ??_C@_1CA@PAFKEOCC@?$AAg?$AAe?$AAr?$AAm?$AAa?$AAn?$AA?9?$AAa?$AAu?$AAs?$AAt?$AAr?$AAi?$AAa?$AAn?$AA?$AA@ 200c38b0     LIBCMTD:getqloc.obj
 0002:000138d0       ??_C@_1CI@HCFHGOFD@?$AAg?$AAe?$AAr?$AAm?$AAa?$AAn?$AA?9?$AAl?$AAi?$AAc?$AAh?$AAt?$AAe?$AAn?$AAs?$AAt?$AAe?$AAi?$AAn?$AA?$AA@ 200c38d0     LIBCMTD:getqloc.obj
 0002:000138f8       ??_C@_1CE@FEDDNPDG@?$AAg?$AAe?$AAr?$AAm?$AAa?$AAn?$AA?9?$AAl?$AAu?$AAx?$AAe?$AAm?$AAb?$AAo?$AAu?$AAr?$AAg?$AA?$AA@ 200c38f8     LIBCMTD:getqloc.obj
 0002:0001391c       ??_C@_1BK@LIMINNMN@?$AAg?$AAe?$AAr?$AAm?$AAa?$AAn?$AA?9?$AAs?$AAw?$AAi?$AAs?$AAs?$AA?$AA@ 200c391c     LIBCMTD:getqloc.obj
 0002:00013938       ??_C@_1BM@LGMDBEPD@?$AAi?$AAr?$AAi?$AAs?$AAh?$AA?9?$AAe?$AAn?$AAg?$AAl?$AAi?$AAs?$AAh?$AA?$AA@ 200c3938     LIBCMTD:getqloc.obj
 0002:00013954       ??_C@_1BM@NNCFBAEE@?$AAi?$AAt?$AAa?$AAl?$AAi?$AAa?$AAn?$AA?9?$AAs?$AAw?$AAi?$AAs?$AAs?$AA?$AA@ 200c3954     LIBCMTD:getqloc.obj
 0002:00013970       ??_C@_1BE@FEDJNPIB@?$AAn?$AAo?$AAr?$AAw?$AAe?$AAg?$AAi?$AAa?$AAn?$AA?$AA@ 200c3970     LIBCMTD:getqloc.obj
 0002:00013984       ??_C@_1CC@CILKDEIE@?$AAn?$AAo?$AAr?$AAw?$AAe?$AAg?$AAi?$AAa?$AAn?$AA?9?$AAb?$AAo?$AAk?$AAm?$AAa?$AAl?$AA?$AA@ 200c3984     LIBCMTD:getqloc.obj
 0002:000139a8       ??_C@_1CE@DHMMHEPL@?$AAn?$AAo?$AAr?$AAw?$AAe?$AAg?$AAi?$AAa?$AAn?$AA?9?$AAn?$AAy?$AAn?$AAo?$AAr?$AAs?$AAk?$AA?$AA@ 200c39a8     LIBCMTD:getqloc.obj
 0002:000139cc       ??_C@_1CK@OPNMHECD@?$AAp?$AAo?$AAr?$AAt?$AAu?$AAg?$AAu?$AAe?$AAs?$AAe?$AA?9?$AAb?$AAr?$AAa?$AAz?$AAi?$AAl?$AAi?$AAa?$AAn?$AA?$AA@ 200c39cc     LIBCMTD:getqloc.obj
 0002:000139f8       ??_C@_1CE@KEEHCDB@?$AAs?$AAp?$AAa?$AAn?$AAi?$AAs?$AAh?$AA?9?$AAa?$AAr?$AAg?$AAe?$AAn?$AAt?$AAi?$AAn?$AAa?$AA?$AA@ 200c39f8     LIBCMTD:getqloc.obj
 0002:00013a1c       ??_C@_1CA@GIAOLHJD@?$AAs?$AAp?$AAa?$AAn?$AAi?$AAs?$AAh?$AA?9?$AAb?$AAo?$AAl?$AAi?$AAv?$AAi?$AAa?$AA?$AA@ 200c3a1c     LIBCMTD:getqloc.obj
 0002:00013a3c       ??_C@_1BM@OJNDFNPD@?$AAs?$AAp?$AAa?$AAn?$AAi?$AAs?$AAh?$AA?9?$AAc?$AAh?$AAi?$AAl?$AAe?$AA?$AA@ 200c3a3c     LIBCMTD:getqloc.obj
 0002:00013a58       ??_C@_1CC@OCOLPALL@?$AAs?$AAp?$AAa?$AAn?$AAi?$AAs?$AAh?$AA?9?$AAc?$AAo?$AAl?$AAo?$AAm?$AAb?$AAi?$AAa?$AA?$AA@ 200c3a58     LIBCMTD:getqloc.obj
 0002:00013a7c       ??_C@_1CG@BPOFMKBB@?$AAs?$AAp?$AAa?$AAn?$AAi?$AAs?$AAh?$AA?9?$AAc?$AAo?$AAs?$AAt?$AAa?$AA?5?$AAr?$AAi?$AAc?$AAa?$AA?$AA@ 200c3a7c     LIBCMTD:getqloc.obj
 0002:00013aa4       ??_C@_1DG@IGOBAPBB@?$AAs?$AAp?$AAa?$AAn?$AAi?$AAs?$AAh?$AA?9?$AAd?$AAo?$AAm?$AAi?$AAn?$AAi?$AAc?$AAa?$AAn?$AA?5?$AAr?$AAe?$AAp?$AAu?$AAb?$AAl?$AAi?$AAc?$AA?$AA@ 200c3aa4     LIBCMTD:getqloc.obj
 0002:00013adc       ??_C@_1CA@JHAPGEGI@?$AAs?$AAp?$AAa?$AAn?$AAi?$AAs?$AAh?$AA?9?$AAe?$AAc?$AAu?$AAa?$AAd?$AAo?$AAr?$AA?$AA@ 200c3adc     LIBCMTD:getqloc.obj
 0002:00013afc       ??_C@_1CI@LAPALJPP@?$AAs?$AAp?$AAa?$AAn?$AAi?$AAs?$AAh?$AA?9?$AAe?$AAl?$AA?5?$AAs?$AAa?$AAl?$AAv?$AAa?$AAd?$AAo?$AAr?$AA?$AA@ 200c3afc     LIBCMTD:getqloc.obj
 0002:00013b24       ??_C@_1CE@PDGBOFOM@?$AAs?$AAp?$AAa?$AAn?$AAi?$AAs?$AAh?$AA?9?$AAg?$AAu?$AAa?$AAt?$AAe?$AAm?$AAa?$AAl?$AAa?$AA?$AA@ 200c3b24     LIBCMTD:getqloc.obj
 0002:00013b48       ??_C@_1CC@NBEBAODI@?$AAs?$AAp?$AAa?$AAn?$AAi?$AAs?$AAh?$AA?9?$AAh?$AAo?$AAn?$AAd?$AAu?$AAr?$AAa?$AAs?$AA?$AA@ 200c3b48     LIBCMTD:getqloc.obj
 0002:00013b6c       ??_C@_1CA@LLKGHBMF@?$AAs?$AAp?$AAa?$AAn?$AAi?$AAs?$AAh?$AA?9?$AAm?$AAe?$AAx?$AAi?$AAc?$AAa?$AAn?$AA?$AA@ 200c3b6c     LIBCMTD:getqloc.obj
 0002:00013b8c       ??_C@_1BO@LKNDOIGD@?$AAs?$AAp?$AAa?$AAn?$AAi?$AAs?$AAh?$AA?9?$AAm?$AAo?$AAd?$AAe?$AAr?$AAn?$AA?$AA@ 200c3b8c     LIBCMTD:getqloc.obj
 0002:00013bac       ??_C@_1CE@NMDMOEEB@?$AAs?$AAp?$AAa?$AAn?$AAi?$AAs?$AAh?$AA?9?$AAn?$AAi?$AAc?$AAa?$AAr?$AAa?$AAg?$AAu?$AAa?$AA?$AA@ 200c3bac     LIBCMTD:getqloc.obj
 0002:00013bd0       ??_C@_1BO@LLCBEJGB@?$AAs?$AAp?$AAa?$AAn?$AAi?$AAs?$AAh?$AA?9?$AAp?$AAa?$AAn?$AAa?$AAm?$AAa?$AA?$AA@ 200c3bd0     LIBCMTD:getqloc.obj
 0002:00013bf0       ??_C@_1CC@FKPGGIHO@?$AAs?$AAp?$AAa?$AAn?$AAi?$AAs?$AAh?$AA?9?$AAp?$AAa?$AAr?$AAa?$AAg?$AAu?$AAa?$AAy?$AA?$AA@ 200c3bf0     LIBCMTD:getqloc.obj
 0002:00013c14       ??_C@_1BK@CDEIHOOP@?$AAs?$AAp?$AAa?$AAn?$AAi?$AAs?$AAh?$AA?9?$AAp?$AAe?$AAr?$AAu?$AA?$AA@ 200c3c14     LIBCMTD:getqloc.obj
 0002:00013c30       ??_C@_1CI@GAHAKKGP@?$AAs?$AAp?$AAa?$AAn?$AAi?$AAs?$AAh?$AA?9?$AAp?$AAu?$AAe?$AAr?$AAt?$AAo?$AA?5?$AAr?$AAi?$AAc?$AAo?$AA?$AA@ 200c3c30     LIBCMTD:getqloc.obj
 0002:00013c58       ??_C@_1CA@NKJBCAGP@?$AAs?$AAp?$AAa?$AAn?$AAi?$AAs?$AAh?$AA?9?$AAu?$AAr?$AAu?$AAg?$AAu?$AAa?$AAy?$AA?$AA@ 200c3c58     LIBCMTD:getqloc.obj
 0002:00013c78       ??_C@_1CE@ODILCONM@?$AAs?$AAp?$AAa?$AAn?$AAi?$AAs?$AAh?$AA?9?$AAv?$AAe?$AAn?$AAe?$AAz?$AAu?$AAe?$AAl?$AAa?$AA?$AA@ 200c3c78     LIBCMTD:getqloc.obj
 0002:00013c9c       ??_C@_1CA@OBNMCGFO@?$AAs?$AAw?$AAe?$AAd?$AAi?$AAs?$AAh?$AA?9?$AAf?$AAi?$AAn?$AAl?$AAa?$AAn?$AAd?$AA?$AA@ 200c3c9c     LIBCMTD:getqloc.obj
 0002:00013cbc       ??_C@_1M@PIPDDPPI@?$AAs?$AAw?$AAi?$AAs?$AAs?$AA?$AA@ 200c3cbc     LIBCMTD:getqloc.obj
 0002:00013cc8       ??_C@_15GMFIMNFM@?$AAu?$AAs?$AA?$AA@ 200c3cc8     LIBCMTD:getqloc.obj
 0002:00013cd0       ??_C@_17HAEBFAGL@?$AAu?$AAs?$AAa?$AA?$AA@ 200c3cd0     LIBCMTD:getqloc.obj
 0002:00013cd8       ___rg_country              200c3cd8     LIBCMTD:getqloc.obj
 0002:00013dec       ??_C@_1BA@DPFJEPHB@?$AAa?$AAm?$AAe?$AAr?$AAi?$AAc?$AAa?$AA?$AA@ 200c3dec     LIBCMTD:getqloc.obj
 0002:00013dfc       ??_C@_1BA@ELOGGFK@?$AAb?$AAr?$AAi?$AAt?$AAa?$AAi?$AAn?$AA?$AA@ 200c3dfc     LIBCMTD:getqloc.obj
 0002:00013e0c       ??_C@_1M@GHBGIGDA@?$AAc?$AAh?$AAi?$AAn?$AAa?$AA?$AA@ 200c3e0c     LIBCMTD:getqloc.obj
 0002:00013e18       ??_C@_1M@NCHEJOPO@?$AAc?$AAz?$AAe?$AAc?$AAh?$AA?$AA@ 200c3e18     LIBCMTD:getqloc.obj
 0002:00013e24       ??_C@_1BA@BKPAPBLA@?$AAe?$AAn?$AAg?$AAl?$AAa?$AAn?$AAd?$AA?$AA@ 200c3e24     LIBCMTD:getqloc.obj
 0002:00013e34       ??_C@_1BM@HKBCKIPC@?$AAg?$AAr?$AAe?$AAa?$AAt?$AA?5?$AAb?$AAr?$AAi?$AAt?$AAa?$AAi?$AAn?$AA?$AA@ 200c3e34     LIBCMTD:getqloc.obj
 0002:00013e50       ??_C@_1BA@PPCHPGJB@?$AAh?$AAo?$AAl?$AAl?$AAa?$AAn?$AAd?$AA?$AA@ 200c3e50     LIBCMTD:getqloc.obj
 0002:00013e60       ??_C@_1BE@JBMPEGDG@?$AAh?$AAo?$AAn?$AAg?$AA?9?$AAk?$AAo?$AAn?$AAg?$AA?$AA@ 200c3e60     LIBCMTD:getqloc.obj
 0002:00013e74       ??_C@_1BI@KOELBBPJ@?$AAn?$AAe?$AAw?$AA?9?$AAz?$AAe?$AAa?$AAl?$AAa?$AAn?$AAd?$AA?$AA@ 200c3e74     LIBCMTD:getqloc.obj
 0002:00013e8c       ??_C@_15HIEBHAIO@?$AAn?$AAz?$AA?$AA@ 200c3e8c     LIBCMTD:getqloc.obj
 0002:00013e94       ??_C@_1BC@CHBCPFPI@?$AAp?$AAr?$AA?5?$AAc?$AAh?$AAi?$AAn?$AAa?$AA?$AA@ 200c3e94     LIBCMTD:getqloc.obj
 0002:00013ea8       ??_C@_1BC@JAOIIFKD@?$AAp?$AAr?$AA?9?$AAc?$AAh?$AAi?$AAn?$AAa?$AA?$AA@ 200c3ea8     LIBCMTD:getqloc.obj
 0002:00013ebc       ??_C@_1BI@BEHPPHKC@?$AAp?$AAu?$AAe?$AAr?$AAt?$AAo?$AA?9?$AAr?$AAi?$AAc?$AAo?$AA?$AA@ 200c3ebc     LIBCMTD:getqloc.obj
 0002:00013ed4       ??_C@_1O@PAEOFKDI@?$AAs?$AAl?$AAo?$AAv?$AAa?$AAk?$AA?$AA@ 200c3ed4     LIBCMTD:getqloc.obj
 0002:00013ee4       ??_C@_1BK@FIHMCKAM@?$AAs?$AAo?$AAu?$AAt?$AAh?$AA?5?$AAa?$AAf?$AAr?$AAi?$AAc?$AAa?$AA?$AA@ 200c3ee4     LIBCMTD:getqloc.obj
 0002:00013f00       ??_C@_1BI@NAEOODKB@?$AAs?$AAo?$AAu?$AAt?$AAh?$AA?5?$AAk?$AAo?$AAr?$AAe?$AAa?$AA?$AA@ 200c3f00     LIBCMTD:getqloc.obj
 0002:00013f18       ??_C@_1BK@FBDGGIFF@?$AAs?$AAo?$AAu?$AAt?$AAh?$AA?9?$AAa?$AAf?$AAr?$AAi?$AAc?$AAa?$AA?$AA@ 200c3f18     LIBCMTD:getqloc.obj
 0002:00013f34       ??_C@_1BI@GHLEJDPK@?$AAs?$AAo?$AAu?$AAt?$AAh?$AA?9?$AAk?$AAo?$AAr?$AAe?$AAa?$AA?$AA@ 200c3f34     LIBCMTD:getqloc.obj
 0002:00013f4c       ??_C@_1CE@PLHLOMJF@?$AAt?$AAr?$AAi?$AAn?$AAi?$AAd?$AAa?$AAd?$AA?5?$AA?$CG?$AA?5?$AAt?$AAo?$AAb?$AAa?$AAg?$AAo?$AA?$AA@ 200c3f4c     LIBCMTD:getqloc.obj
 0002:00013f70       ??_C@_1BO@MODIMHHI@?$AAu?$AAn?$AAi?$AAt?$AAe?$AAd?$AA?9?$AAk?$AAi?$AAn?$AAg?$AAd?$AAo?$AAm?$AA?$AA@ 200c3f70     LIBCMTD:getqloc.obj
 0002:00013f90       ??_C@_1BM@FFHJONBJ@?$AAu?$AAn?$AAi?$AAt?$AAe?$AAd?$AA?9?$AAs?$AAt?$AAa?$AAt?$AAe?$AAs?$AA?$AA@ 200c3f90     LIBCMTD:getqloc.obj
 0002:00013fac       ___rg_language_count       200c3fac     LIBCMTD:getqloc.obj
 0002:00013fb0       ___rg_country_count        200c3fb0     LIBCMTD:getqloc.obj
 0002:00013fb8       ??_C@_1FA@KCJCBMIG@?$AAf?$AA?3?$AA?2?$AAd?$AAd?$AA?2?$AAv?$AAc?$AAt?$AAo?$AAo?$AAl?$AAs?$AA?2?$AAc?$AAr?$AAt?$AA?2?$AAc?$AAr?$AAt?$AAw?$AA3?$AA2?$AA?2?$AAm?$AAi?$AAs?$AAc?$AA?2?$AAg?$AAe@ 200c3fb8     LIBCMTD:getqloc.obj
 0002:00014008       ??_C@_1CO@NJACLALJ@?$AA_?$AA_?$AAg?$AAe?$AAt?$AA_?$AAq?$AAu?$AAa?$AAl?$AAi?$AAf?$AAi?$AAe?$AAd?$AA_?$AAl?$AAo?$AAc?$AAa?$AAl?$AAe?$AA?$AA@ 200c4008     LIBCMTD:getqloc.obj
 0002:00014038       ??_C@_1BGM@FCCPEFDE@?$AAw?$AAc?$AAs?$AAn?$AAc?$AAp?$AAy?$AA_?$AAs?$AA?$CI?$AAl?$AAp?$AAO?$AAu?$AAt?$AAS?$AAt?$AAr?$AA?9?$AA?$DO?$AAs?$AAz?$AAL?$AAo?$AAc?$AAa?$AAl?$AAe?$AAN?$AAa?$AAm?$AAe@ 200c4038     LIBCMTD:getqloc.obj
 0002:000141a4       ??_C@_1CM@OGEMFJNJ@?$AAL?$AAa?$AAn?$AAg?$AAC?$AAo?$AAu?$AAn?$AAt?$AAr?$AAy?$AAE?$AAn?$AAu?$AAm?$AAP?$AAr?$AAo?$AAc?$AAE?$AAx?$AA?$AA@ 200c41a4     LIBCMTD:getqloc.obj
 0002:000141d0       ??_C@_1BFO@LLJKJAIC@?$AAw?$AAc?$AAs?$AAn?$AAc?$AAp?$AAy?$AA_?$AAs?$AA?$CI?$AA_?$AAp?$AAs?$AAe?$AAt?$AAl?$AAo?$AAc?$AA_?$AAd?$AAa?$AAt?$AAa?$AA?9?$AA?$DO?$AA_?$AAc?$AAa?$AAc?$AAh?$AAe?$AAL@ 200c41d0     LIBCMTD:getqloc.obj
 0002:00014330       ??_C@_1CG@PGLLICHO@?$AAL?$AAa?$AAn?$AAg?$AAu?$AAa?$AAg?$AAe?$AAE?$AAn?$AAu?$AAm?$AAP?$AAr?$AAo?$AAc?$AAE?$AAx?$AA?$AA@ 200c4330     LIBCMTD:getqloc.obj
 0002:00014358       ??_C@_1DC@CPKFANGP@?$AAG?$AAe?$AAt?$AAL?$AAo?$AAc?$AAa?$AAl?$AAe?$AAN?$AAa?$AAm?$AAe?$AAF?$AAr?$AAo?$AAm?$AAD?$AAe?$AAf?$AAa?$AAu?$AAl?$AAt?$AA?$AA@ 200c4358     LIBCMTD:getqloc.obj
 0002:00014390       ??_C@_1BEO@EJBNGKHB@?$AAw?$AAc?$AAs?$AAn?$AAc?$AAp?$AAy?$AA_?$AAs?$AA?$CI?$AA_?$AAp?$AAs?$AAe?$AAt?$AAl?$AAo?$AAc?$AA_?$AAd?$AAa?$AAt?$AAa?$AA?9?$AA?$DO?$AA_?$AAc?$AAa?$AAc?$AAh?$AAe?$AAL@ 200c4390     LIBCMTD:getqloc.obj
 0002:000144e0       ??_C@_17DNCLJFIF@?$AAA?$AAC?$AAP?$AA?$AA@ 200c44e0     LIBCMTD:getqloc.obj
 0002:000144e8       ??_C@_17CIKBIHLH@?$AAO?$AAC?$AAP?$AA?$AA@ 200c44e8     LIBCMTD:getqloc.obj
 0002:000144f0       ___rglangidNotDefault      200c44f0     LIBCMTD:getqloc_downlevel.obj
 0002:00014508       ??_C@_1FO@LPCLHKGE@?$AA?$CI?$AAf?$AAh?$AA?5?$AA?$DO?$AA?$DN?$AA?5?$AA0?$AA?5?$AA?$CG?$AA?$CG?$AA?5?$AA?$CI?$AAu?$AAn?$AAs?$AAi?$AAg?$AAn?$AAe?$AAd?$AA?$CJ?$AAf?$AAh?$AA?5?$AA?$DM?$AA?5?$AA?$CI?$AAu?$AAn?$AAs?$AAi@ 200c4508     LIBCMTD:isatty.obj
 0002:00014568       ??_C@_1FA@NFCHPDNG@?$AAf?$AA?3?$AA?2?$AAd?$AAd?$AA?2?$AAv?$AAc?$AAt?$AAo?$AAo?$AAl?$AAs?$AA?2?$AAc?$AAr?$AAt?$AA?2?$AAc?$AAr?$AAt?$AAw?$AA3?$AA2?$AA?2?$AAl?$AAo?$AAw?$AAi?$AAo?$AA?2?$AAi@ 200c4568     LIBCMTD:isatty.obj
 0002:000145b8       ??_C@_1BA@LEBDGIHM@?$AA_?$AAi?$AAs?$AAa?$AAt?$AAt?$AAy?$AA?$AA@ 200c45b8     LIBCMTD:isatty.obj
 0002:000145c8       ??_C@_1EO@NLGPLDCN@?$AAf?$AA?3?$AA?2?$AAd?$AAd?$AA?2?$AAv?$AAc?$AAt?$AAo?$AAo?$AAl?$AAs?$AA?2?$AAc?$AAr?$AAt?$AA?2?$AAc?$AAr?$AAt?$AAw?$AA3?$AA2?$AA?2?$AAl?$AAo?$AAw?$AAi?$AAo?$AA?2?$AAw@ 200c45c8     LIBCMTD:write.obj
 0002:00014618       ??_C@_1O@KOFKDHPL@?$AA_?$AAw?$AAr?$AAi?$AAt?$AAe?$AA?$AA@ 200c4618     LIBCMTD:write.obj
 0002:00014628       ??_C@_1CM@OKGMMMDH@?$AA?$CI?$AA_?$AAo?$AAs?$AAf?$AAi?$AAl?$AAe?$AA?$CI?$AAf?$AAh?$AA?$CJ?$AA?5?$AA?$CG?$AA?5?$AAF?$AAO?$AAP?$AAE?$AAN?$AA?$CJ?$AA?$AA@ 200c4628     LIBCMTD:write.obj
 0002:00014658       ??_C@_1JE@ECKHFIFP@?$AA?$CI?$AA?$CC?$AAI?$AAn?$AAv?$AAa?$AAl?$AAi?$AAd?$AA?5?$AAf?$AAi?$AAl?$AAe?$AA?5?$AAd?$AAe?$AAs?$AAc?$AAr?$AAi?$AAp?$AAt?$AAo?$AAr?$AA?4?$AA?5?$AAF?$AAi?$AAl?$AAe?$AA?5@ 200c4658     LIBCMTD:write.obj
 0002:000146ec       ??_C@_1BM@KFJLMBPG@?$AA?$CI?$AAb?$AAu?$AAf?$AA?5?$AA?$CB?$AA?$DN?$AA?5?$AAN?$AAU?$AAL?$AAL?$AA?$CJ?$AA?$AA@ 200c46ec     LIBCMTD:write.obj
 0002:00014708       ??_C@_1BM@NCANHCIP@?$AA_?$AAw?$AAr?$AAi?$AAt?$AAe?$AA_?$AAn?$AAo?$AAl?$AAo?$AAc?$AAk?$AA?$AA@ 200c4708     LIBCMTD:write.obj
 0002:00014724       ??_C@_1CC@EEOLPHGO@?$AA?$CI?$AA?$CI?$AAc?$AAn?$AAt?$AA?5?$AA?$CG?$AA?5?$AA1?$AA?$CJ?$AA?5?$AA?$DN?$AA?$DN?$AA?5?$AA0?$AA?$CJ?$AA?$AA@ 200c4724     LIBCMTD:write.obj
 0002:00014748       ??_C@_1DI@CNMHHHLG@?$AAi?$AAs?$AAl?$AAe?$AAa?$AAd?$AAb?$AAy?$AAt?$AAe?$AA?$CI?$AA_?$AAd?$AAb?$AAc?$AAs?$AAB?$AAu?$AAf?$AAf?$AAe?$AAr?$AA?$CI?$AAf?$AAh?$AA?$CJ?$AA?$CJ?$AA?$AA@ 200c4748     LIBCMTD:write.obj
 0002:00014780       ??_C@_1FE@NDDOFCDF@?$AAf?$AA?3?$AA?2?$AAd?$AAd?$AA?2?$AAv?$AAc?$AAt?$AAo?$AAo?$AAl?$AAs?$AA?2?$AAc?$AAr?$AAt?$AA?2?$AAc?$AAr?$AAt?$AAw?$AA3?$AA2?$AA?2?$AAl?$AAo?$AAw?$AAi?$AAo?$AA?2?$AAl@ 200c4780     LIBCMTD:lseeki64.obj
 0002:000147d4       ??_C@_1BE@KHFBJMNM@?$AA_?$AAl?$AAs?$AAe?$AAe?$AAk?$AAi?$AA6?$AA4?$AA?$AA@ 200c47d4     LIBCMTD:lseeki64.obj
 0002:000147e8       ??_C@_1FC@LGKDBMCL@?$AAf?$AA?3?$AA?2?$AAd?$AAd?$AA?2?$AAv?$AAc?$AAt?$AAo?$AAo?$AAl?$AAs?$AA?2?$AAc?$AAr?$AAt?$AA?2?$AAc?$AAr?$AAt?$AAw?$AA3?$AA2?$AA?2?$AAs?$AAt?$AAd?$AAi?$AAo?$AA?2?$AA_@ 200c47e8     LIBCMTD:_getbuf.obj
 0002:0001483c       ??_C@_0CJ@NMDFOMAF@f?3?2dd?2vctools?2crt?2crtw32?2stdio?2_@ 200c483c     LIBCMTD:_getbuf.obj
 0002:00014868       ??_C@_1FA@GMJBBNDK@?$AAf?$AA?3?$AA?2?$AAd?$AAd?$AA?2?$AAv?$AAc?$AAt?$AAo?$AAo?$AAl?$AAs?$AA?2?$AAc?$AAr?$AAt?$AA?2?$AAc?$AAr?$AAt?$AAw?$AA3?$AA2?$AA?2?$AAs?$AAt?$AAd?$AAi?$AAo?$AA?2?$AAp@ 200c4868     LIBCMTD:printf.obj
 0002:000148b8       ??_C@_1O@GKDHFACN@?$AAp?$AAr?$AAi?$AAn?$AAt?$AAf?$AA?$AA@ 200c48b8     LIBCMTD:printf.obj
 0002:000148c8       ??_C@_1CO@HFMIILNF@?$AAs?$AAi?$AAz?$AAe?$AAI?$AAn?$AAB?$AAy?$AAt?$AAe?$AAs?$AA?5?$AA?$DM?$AA?$DN?$AA?5?$AAI?$AAN?$AAT?$AA_?$AAM?$AAA?$AAX?$AA?$AA@ 200c48c8     LIBCMTD:wctomb.obj
 0002:000148f8       ??_C@_1FE@GKMDCPPB@?$AAf?$AA?3?$AA?2?$AAd?$AAd?$AA?2?$AAv?$AAc?$AAt?$AAo?$AAo?$AAl?$AAs?$AA?2?$AAc?$AAr?$AAt?$AA?2?$AAc?$AAr?$AAt?$AAw?$AA3?$AA2?$AA?2?$AAc?$AAo?$AAn?$AAv?$AAe?$AAr?$AAt@ 200c48f8     LIBCMTD:wctomb.obj
 0002:0001494c       ??_C@_1BI@IEADNOHF@?$AA_?$AAw?$AAc?$AAt?$AAo?$AAm?$AAb?$AA_?$AAs?$AA_?$AAl?$AA?$AA@ 200c494c     LIBCMTD:wctomb.obj
 0002:00014968       ___lookuptable_s           200c4968     LIBCMTD:outputs.obj
 0002:000149c4       ??_C@_1BI@COFBLHCG@?$AA_?$AAo?$AAu?$AAt?$AAp?$AAu?$AAt?$AA_?$AAs?$AA_?$AAl?$AA?$AA@ 200c49c4     LIBCMTD:outputs.obj
 0002:000149dc       ??_C@_0CH@JPGODKFM@f?3?2dd?2vctools?2crt?2crtw32?2misc?2on@ 200c49dc     LIBCMTD:onexit.obj
 0002:00014a04       ??_C@_1BC@JLLICHIC@?$AAp?$AAn?$AAh?$AA?5?$AA?$DN?$AA?$DN?$AA?5?$AA0?$AA?$AA@ 200c4a04     LIBCMTD:handler.obj
 0002:00014a18       ??_C@_1FE@HELBPGKC@?$AAf?$AA?3?$AA?2?$AAd?$AAd?$AA?2?$AAv?$AAc?$AAt?$AAo?$AAo?$AAl?$AAs?$AA?2?$AAc?$AAr?$AAt?$AA?2?$AAc?$AAr?$AAt?$AAw?$AA3?$AA2?$AA?2?$AAh?$AAe?$AAa?$AAp?$AA?2?$AAh?$AAa@ 200c4a18     LIBCMTD:handler.obj
 0002:00014a6c       ??_C@_0CJ@PLENACMA@f?3?2dd?2vctools?2crt?2crtw32?2misc?2in@ 200c4a6c     LIBCMTD:inithelp.obj
 0002:00014a98       ??_C@_1FC@PPCAPEFB@?$AAf?$AA?3?$AA?2?$AAd?$AAd?$AA?2?$AAv?$AAc?$AAt?$AAo?$AAo?$AAl?$AAs?$AA?2?$AAc?$AAr?$AAt?$AA?2?$AAc?$AAr?$AAt?$AAw?$AA3?$AA2?$AA?2?$AAm?$AAi?$AAs?$AAc?$AA?2?$AAi?$AAn@ 200c4a98     LIBCMTD:inithelp.obj
 0002:00014aec       ??_C@_1CA@KHHCPEI@?$AA_?$AA_?$AAg?$AAe?$AAt?$AAl?$AAo?$AAc?$AAa?$AAl?$AAe?$AAi?$AAn?$AAf?$AAo?$AA?$AA@ 200c4aec     LIBCMTD:inithelp.obj
 0002:00014b10       ??_C@_1GO@NGIGJNHH@?$AAs?$AAt?$AAr?$AAn?$AAc?$AAp?$AAy?$AA_?$AAs?$AA?$CI?$AA?$CK?$AAs?$AAt?$AAr?$AAa?$AAd?$AAd?$AAr?$AAe?$AAs?$AAs?$AA?0?$AA?5?$AAo?$AAu?$AAt?$AAs?$AAi?$AAz?$AAe?$AA?0?$AA?5@ 200c4b10     LIBCMTD:inithelp.obj
 0002:00014b80       ??_C@_1CK@GFDNDKK@?$AA_?$AAR?$AAa?$AAn?$AAd?$AAo?$AAm?$AAV?$AAa?$AAl?$AAu?$AAe?$AA?5?$AA?$CB?$AA?$DN?$AA?5?$AAN?$AAU?$AAL?$AAL?$AA?$AA@ 200c4b80     LIBCMTD:rand_s.obj
 0002:00014bb0       ??_C@_1EO@GANOMFFN@?$AAf?$AA?3?$AA?2?$AAd?$AAd?$AA?2?$AAv?$AAc?$AAt?$AAo?$AAo?$AAl?$AAs?$AA?2?$AAc?$AAr?$AAt?$AA?2?$AAc?$AAr?$AAt?$AAw?$AA3?$AA2?$AA?2?$AAm?$AAi?$AAs?$AAc?$AA?2?$AAr?$AAa@ 200c4bb0     LIBCMTD:rand_s.obj
 0002:00014c00       ??_C@_1O@IJGPPOGF@?$AAr?$AAa?$AAn?$AAd?$AA_?$AAs?$AA?$AA@ 200c4c00     LIBCMTD:rand_s.obj
 0002:00014c10       ??_C@_1BK@GAEMIDIL@?$AAA?$AAD?$AAV?$AAA?$AAP?$AAI?$AA3?$AA2?$AA?4?$AAD?$AAL?$AAL?$AA?$AA@ 200c4c10     LIBCMTD:rand_s.obj
 0002:00014c30       ??_C@_1GA@EBEDGGGB@?$AA?$CI?$AA?$CC?$AAr?$AAa?$AAn?$AAd?$AA_?$AAs?$AA?5?$AAi?$AAs?$AA?5?$AAn?$AAo?$AAt?$AA?5?$AAa?$AAv?$AAa?$AAi?$AAl?$AAa?$AAb?$AAl?$AAe?$AA?5?$AAo?$AAn?$AA?5?$AAt?$AAh?$AAi@ 200c4c30     LIBCMTD:rand_s.obj
 0002:00014c90       ??_C@_0BC@JEAENNKH@SystemFunction036?$AA@ 200c4c90     LIBCMTD:rand_s.obj
 0002:00014ca8       ??_C@_1FC@LKGACDMH@?$AAf?$AA?3?$AA?2?$AAd?$AAd?$AA?2?$AAv?$AAc?$AAt?$AAo?$AAo?$AAl?$AAs?$AA?2?$AAc?$AAr?$AAt?$AA?2?$AAc?$AAr?$AAt?$AAw?$AA3?$AA2?$AA?2?$AAs?$AAt?$AAd?$AAi?$AAo?$AA?2?$AA_@ 200c4ca8     LIBCMTD:_sftbuf.obj
 0002:00014cfc       ??_C@_0CJ@KDJGPIJL@f?3?2dd?2vctools?2crt?2crtw32?2stdio?2_@ 200c4cfc     LIBCMTD:_sftbuf.obj
 0002:00014d28       ??_C@_1CO@KCKAACMI@?$AAf?$AAl?$AAa?$AAg?$AA?5?$AA?$DN?$AA?$DN?$AA?5?$AA0?$AA?5?$AA?$HM?$AA?$HM?$AA?5?$AAf?$AAl?$AAa?$AAg?$AA?5?$AA?$DN?$AA?$DN?$AA?5?$AA1?$AA?$AA@ 200c4d28     LIBCMTD:_sftbuf.obj
 0002:00014d58       ??_C@_1HC@KFLBHHBC@?$AA?$CI?$AAf?$AAi?$AAl?$AAe?$AAd?$AAe?$AAs?$AA?5?$AA?$DO?$AA?$DN?$AA?5?$AA0?$AA?5?$AA?$CG?$AA?$CG?$AA?5?$AA?$CI?$AAu?$AAn?$AAs?$AAi?$AAg?$AAn?$AAe?$AAd?$AA?$CJ?$AAf?$AAi?$AAl?$AAe?$AAd@ 200c4d58     LIBCMTD:commit.obj
 0002:00014dd0       ??_C@_1FA@HELGICMG@?$AAf?$AA?3?$AA?2?$AAd?$AAd?$AA?2?$AAv?$AAc?$AAt?$AAo?$AAo?$AAl?$AAs?$AA?2?$AAc?$AAr?$AAt?$AA?2?$AAc?$AAr?$AAt?$AAw?$AA3?$AA2?$AA?2?$AAl?$AAo?$AAw?$AAi?$AAo?$AA?2?$AAc@ 200c4dd0     LIBCMTD:commit.obj
 0002:00014e20       ??_C@_1BA@FLNMBBIM@?$AA_?$AAc?$AAo?$AAm?$AAm?$AAi?$AAt?$AA?$AA@ 200c4e20     LIBCMTD:commit.obj
 0002:00014e30       ??_C@_1DG@LNNHNFHJ@?$AA?$CI?$AA_?$AAo?$AAs?$AAf?$AAi?$AAl?$AAe?$AA?$CI?$AAf?$AAi?$AAl?$AAe?$AAd?$AAe?$AAs?$AA?$CJ?$AA?5?$AA?$CG?$AA?5?$AAF?$AAO?$AAP?$AAE?$AAN?$AA?$CJ?$AA?$AA@ 200c4e30     LIBCMTD:commit.obj
 0002:00014e68       ??_C@_1BO@KIJENGPH@?$AAs?$AAt?$AAr?$AAe?$AAa?$AAm?$AA?5?$AA?$CB?$AA?$DN?$AA?5?$AAN?$AAU?$AAL?$AAL?$AA?$AA@ 200c4e68     LIBCMTD:_freebuf.obj
 0002:00014e88       ??_C@_1FE@DBCNNJOP@?$AAf?$AA?3?$AA?2?$AAd?$AAd?$AA?2?$AAv?$AAc?$AAt?$AAo?$AAo?$AAl?$AAs?$AA?2?$AAc?$AAr?$AAt?$AA?2?$AAc?$AAr?$AAt?$AAw?$AA3?$AA2?$AA?2?$AAs?$AAt?$AAd?$AAi?$AAo?$AA?2?$AA_@ 200c4e88     LIBCMTD:_freebuf.obj
 0002:00014ee0       ??_C@_1FE@PMGAPFGI@?$AAf?$AA?3?$AA?2?$AAd?$AAd?$AA?2?$AAv?$AAc?$AAt?$AAo?$AAo?$AAl?$AAs?$AA?2?$AAc?$AAr?$AAt?$AA?2?$AAc?$AAr?$AAt?$AAw?$AA3?$AA2?$AA?2?$AAs?$AAt?$AAd?$AAi?$AAo?$AA?2?$AAv@ 200c4ee0     LIBCMTD:vfwprint.obj
 0002:00014f34       ??_C@_1CC@MONNFDCM@?$AAv?$AAf?$AAw?$AAp?$AAr?$AAi?$AAn?$AAt?$AAf?$AA_?$AAh?$AAe?$AAl?$AAp?$AAe?$AAr?$AA?$AA@ 200c4f34     LIBCMTD:vfwprint.obj
 0002:00014f58       ??_C@_1BG@BBCDFOMA@?$AA_?$AAw?$AAo?$AAu?$AAt?$AAp?$AAu?$AAt?$AA_?$AAl?$AA?$AA@ 200c4f58     LIBCMTD:woutput.obj
 0002:00014f70       ??_C@_1BK@ONMFGLDB@?$AA_?$AAw?$AAo?$AAu?$AAt?$AAp?$AAu?$AAt?$AA_?$AAs?$AA_?$AAl?$AA?$AA@ 200c4f70     LIBCMTD:woutputs.obj
 0002:00014f8c       ??_C@_1BK@GDEKGMNC@?$AA_?$AAw?$AAo?$AAu?$AAt?$AAp?$AAu?$AAt?$AA_?$AAp?$AA_?$AAl?$AA?$AA@ 200c4f8c     LIBCMTD:woutputp.obj
 0002:00014fa8       ??_C@_1BO@KFIJIAEA@?$AAp?$AAB?$AAl?$AAo?$AAc?$AAk?$AA?5?$AA?$CB?$AA?$DN?$AA?5?$AAN?$AAU?$AAL?$AAL?$AA?$AA@ 200c4fa8     LIBCMTD:expand.obj
 0002:00014fc8       ??_C@_1EO@BOMKIKJB@?$AAf?$AA?3?$AA?2?$AAd?$AAd?$AA?2?$AAv?$AAc?$AAt?$AAo?$AAo?$AAl?$AAs?$AA?2?$AAc?$AAr?$AAt?$AA?2?$AAc?$AAr?$AAt?$AAw?$AA3?$AA2?$AA?2?$AAh?$AAe?$AAa?$AAp?$AA?2?$AAe?$AAx@ 200c4fc8     LIBCMTD:expand.obj
 0002:00015018       ??_C@_1BK@JMCGJOCC@?$AA_?$AAe?$AAx?$AAp?$AAa?$AAn?$AAd?$AA_?$AAb?$AAa?$AAs?$AAe?$AA?$AA@ 200c5018     LIBCMTD:expand.obj
 0002:00015040       ??_C@_03KHICJKCI@?4?4?4?$AA@ 200c5040     LIBCMTD:dbgrpt.obj
 0002:00015044       ??_C@_1CG@GNMJDMIO@?$AA_?$AAC?$AAr?$AAt?$AAS?$AAe?$AAt?$AAR?$AAe?$AAp?$AAo?$AAr?$AAt?$AAH?$AAo?$AAo?$AAk?$AA2?$AA?$AA@ 200c5044     LIBCMTD:dbgrpt.obj
 0002:0001506c       ??_C@_1CI@IDOKFLAJ@?$AA_?$AA_?$AAc?$AAr?$AAt?$AAM?$AAe?$AAs?$AAs?$AAa?$AAg?$AAe?$AAW?$AAi?$AAn?$AAd?$AAo?$AAw?$AAA?$AA?$AA@ 200c506c     LIBCMTD:dbgrpt.obj
 0002:00015098       ??_C@_1GG@DLDHOIGE@?$AAs?$AAt?$AAr?$AAc?$AAp?$AAy?$AA_?$AAs?$AA?$CI?$AAs?$AAz?$AAE?$AAx?$AAe?$AAN?$AAa?$AAm?$AAe?$AA?0?$AA?5?$AA2?$AA6?$AA0?$AA?0?$AA?5?$AA?$CC?$AA?$DM?$AAp?$AAr?$AAo?$AAg?$AAr@ 200c5098     LIBCMTD:dbgrpt.obj
 0002:00015100       ??_C@_0BH@DNAGHKFM@?$DMprogram?5name?5unknown?$DO?$AA@ 200c5100     LIBCMTD:dbgrpt.obj
 0002:00015118       ??_C@_1LG@BEHAHJLI@?$AAD?$AAe?$AAb?$AAu?$AAg?$AA?5?$AA?$CF?$AAs?$AA?$CB?$AA?6?$AA?6?$AAP?$AAr?$AAo?$AAg?$AAr?$AAa?$AAm?$AA?3?$AA?5?$AA?$CF?$AAh?$AAs?$AA?$CF?$AAs?$AA?$CF?$AAs?$AA?$CF?$AAh?$AAs?$AA?$CF?$AAs@ 200c5118     LIBCMTD:dbgrpt.obj
 0002:000151d0       ??_C@_1FC@JALKILNE@?$AAf?$AA?3?$AA?2?$AAd?$AAd?$AA?2?$AAv?$AAc?$AAt?$AAo?$AAo?$AAl?$AAs?$AA?2?$AAc?$AAr?$AAt?$AA?2?$AAc?$AAr?$AAt?$AAw?$AA3?$AA2?$AA?2?$AAs?$AAt?$AAd?$AAi?$AAo?$AA?2?$AAs@ 200c51d0     LIBCMTD:sprintf.obj
 0002:00015224       ??_C@_1BA@KBJJGFFE@?$AAs?$AAp?$AAr?$AAi?$AAn?$AAt?$AAf?$AA?$AA@ 200c5224     LIBCMTD:sprintf.obj
 0002:00015234       __pDestructExceptionObject 200c5234     LIBCMTD:frame.obj
 0002:00015238       ?value@?$integral_constant@_N$0A@@std@@2_NB 200c5238     LIBCMTD:frame.obj
 0002:00015239       ?value@?$integral_constant@_N$00@std@@2_NB 200c5239     LIBCMTD:frame.obj
 0002:00015240       ??_7bad_exception@std@@6B@ 200c5240     LIBCMTD:frame.obj
 0002:00015248       ??_C@_0O@DPKOEFFH@bad?5exception?$AA@ 200c5248     LIBCMTD:frame.obj
 0002:00015258       ??_C@_1EO@IKHIJFCK@?$AAf?$AA?3?$AA?2?$AAd?$AAd?$AA?2?$AAv?$AAc?$AAt?$AAo?$AAo?$AAl?$AAs?$AA?2?$AAc?$AAr?$AAt?$AA?2?$AAf?$AAp?$AAw?$AA3?$AA2?$AA?2?$AAc?$AAo?$AAn?$AAv?$AA?2?$AAx?$AA1?$AA0@ 200c5258     LIBCMTD:x10fout.obj
 0002:000152a8       ??_C@_1BI@ELMAAFLN@?$AA$?$AAI?$AA1?$AA0?$AA_?$AAO?$AAU?$AAT?$AAP?$AAU?$AAT?$AA?$AA@ 200c52a8     LIBCMTD:x10fout.obj
 0002:000152c0       ??_C@_1EG@CDDBFNOB@?$AAs?$AAt?$AAr?$AAc?$AAp?$AAy?$AA_?$AAs?$AA?$CI?$AAf?$AAo?$AAs?$AA?9?$AA?$DO?$AAm?$AAa?$AAn?$AA?0?$AA?5?$AA2?$AA1?$AA?$CL?$AA1?$AA?0?$AA?5?$AA?$CC?$AA1?$AA?$CD?$AAS?$AAN?$AAA?$AAN@ 200c52c0     LIBCMTD:x10fout.obj
 0002:00015308       ??_C@_06PGGFOGJG@1?$CDSNAN?$AA@ 200c5308     LIBCMTD:x10fout.obj
 0002:00015310       ??_C@_1EE@MADEBIHF@?$AAs?$AAt?$AAr?$AAc?$AAp?$AAy?$AA_?$AAs?$AA?$CI?$AAf?$AAo?$AAs?$AA?9?$AA?$DO?$AAm?$AAa?$AAn?$AA?0?$AA?5?$AA2?$AA1?$AA?$CL?$AA1?$AA?0?$AA?5?$AA?$CC?$AA1?$AA?$CD?$AAI?$AAN?$AAD?$AA?$CC@ 200c5310     LIBCMTD:x10fout.obj
 0002:00015354       ??_C@_05PHHOCPM@1?$CDIND?$AA@ 200c5354     LIBCMTD:x10fout.obj
 0002:00015360       ??_C@_1EE@ICBBBPAI@?$AAs?$AAt?$AAr?$AAc?$AAp?$AAy?$AA_?$AAs?$AA?$CI?$AAf?$AAo?$AAs?$AA?9?$AA?$DO?$AAm?$AAa?$AAn?$AA?0?$AA?5?$AA2?$AA1?$AA?$CL?$AA1?$AA?0?$AA?5?$AA?$CC?$AA1?$AA?$CD?$AAI?$AAN?$AAF?$AA?$CC@ 200c5360     LIBCMTD:x10fout.obj
 0002:000153a4       ??_C@_05DNEBIAHO@1?$CDINF?$AA@ 200c53a4     LIBCMTD:x10fout.obj
 0002:000153b0       ??_C@_1EG@MCFPJJEM@?$AAs?$AAt?$AAr?$AAc?$AAp?$AAy?$AA_?$AAs?$AA?$CI?$AAf?$AAo?$AAs?$AA?9?$AA?$DO?$AAm?$AAa?$AAn?$AA?0?$AA?5?$AA2?$AA1?$AA?$CL?$AA1?$AA?0?$AA?5?$AA?$CC?$AA1?$AA?$CD?$AAQ?$AAN?$AAA?$AAN@ 200c53b0     LIBCMTD:x10fout.obj
 0002:000153f8       ??_C@_06IMKFLFPG@1?$CDQNAN?$AA@ 200c53f8     LIBCMTD:x10fout.obj
 0002:00015400       ?commonFlags@?1??_control87@@9@9 200c5400     LIBCMTD:ieee87.obj
 0002:00015408       ??_C@_1FG@DINMPAPJ@?$AAf?$AA?3?$AA?2?$AAd?$AAd?$AA?2?$AAv?$AAc?$AAt?$AAo?$AAo?$AAl?$AAs?$AA?2?$AAc?$AAr?$AAt?$AA?2?$AAf?$AAp?$AAw?$AA3?$AA2?$AA?2?$AAt?$AAr?$AAa?$AAn?$AA?2?$AAi?$AA3?$AA8@ 200c5408     LIBCMTD:ieee87.obj
 0002:00015460       ??_C@_1BO@OFDNCLL@?$AA_?$AAs?$AAe?$AAt?$AA_?$AAc?$AAo?$AAn?$AAt?$AAr?$AAo?$AAl?$AAf?$AAp?$AA?$AA@ 200c5460     LIBCMTD:ieee87.obj
 0002:00015480       ??_C@_1GO@OKJGOMCB@?$AA_?$AAc?$AAo?$AAn?$AAt?$AAr?$AAo?$AAl?$AAf?$AAp?$AA_?$AAs?$AA?$CI?$AA?$CI?$AA?$CI?$AAv?$AAo?$AAi?$AAd?$AA?5?$AA?$CK?$AA?$CJ?$AA0?$AA?$CJ?$AA?0?$AA?5?$AAn?$AAe?$AAw?$AAc?$AAt?$AAr@ 200c5480     LIBCMTD:ieee87.obj
 0002:000154f0       ??_C@_1BK@EPLNBKAK@?$AA_?$AAv?$AAs?$AAw?$AAp?$AAr?$AAi?$AAn?$AAt?$AAf?$AA_?$AAl?$AA?$AA@ 200c54f0     LIBCMTD:vswprint.obj
 0002:0001550c       ??_C@_1CG@IMMIEPNA@?$AA_?$AAv?$AAs?$AAc?$AAw?$AAp?$AAr?$AAi?$AAn?$AAt?$AAf?$AA_?$AAh?$AAe?$AAl?$AAp?$AAe?$AAr?$AA?$AA@ 200c550c     LIBCMTD:vswprint.obj
 0002:00015534       ??_C@_1BC@HGPNAKGC@?$AAs?$AAt?$AAr?$AAc?$AAa?$AAt?$AA_?$AAs?$AA?$AA@ 200c5534     LIBCMTD:strcat_s.obj
 0002:00015548       ??_C@_1O@GIMBNLEI@?$AAx?$AAt?$AAo?$AAa?$AA_?$AAs?$AA?$AA@ 200c5548     LIBCMTD:xtoas.obj
 0002:00015558       ??_C@_1BC@MJJNBNFN@?$AAx?$AA6?$AA4?$AAt?$AAo?$AAa?$AA_?$AAs?$AA?$AA@ 200c5558     LIBCMTD:xtoas.obj
 0002:0001556c       ??_C@_1BE@EEKACIGI@?$AAs?$AA?5?$AA?$CB?$AA?$DN?$AA?5?$AAN?$AAU?$AAL?$AAL?$AA?$AA@ 200c556c     LIBCMTD:mbstowcs.obj
 0002:00015580       ??_C@_1FI@DADFCCMF@?$AAf?$AA?3?$AA?2?$AAd?$AAd?$AA?2?$AAv?$AAc?$AAt?$AAo?$AAo?$AAl?$AAs?$AA?2?$AAc?$AAr?$AAt?$AA?2?$AAc?$AAr?$AAt?$AAw?$AA3?$AA2?$AA?2?$AAc?$AAo?$AAn?$AAv?$AAe?$AAr?$AAt@ 200c5580     LIBCMTD:mbstowcs.obj
 0002:000155d8       ??_C@_1CG@JEHFHLNG@?$AA_?$AAm?$AAb?$AAs?$AAt?$AAo?$AAw?$AAc?$AAs?$AA_?$AAl?$AA_?$AAh?$AAe?$AAl?$AAp?$AAe?$AAr?$AA?$AA@ 200c55d8     LIBCMTD:mbstowcs.obj
 0002:00015600       ??_C@_1JA@JKDFMOPO@?$AA?$CI?$AAp?$AAw?$AAc?$AAs?$AA?5?$AA?$DN?$AA?$DN?$AA?5?$AAN?$AAU?$AAL?$AAL?$AA?5?$AA?$CG?$AA?$CG?$AA?5?$AAs?$AAi?$AAz?$AAe?$AAI?$AAn?$AAW?$AAo?$AAr?$AAd?$AAs?$AA?5?$AA?$DN?$AA?$DN?$AA?5@ 200c5600     LIBCMTD:mbstowcs.obj
 0002:00015690       ??_C@_1BM@PHENIGHD@?$AA_?$AAm?$AAb?$AAs?$AAt?$AAo?$AAw?$AAc?$AAs?$AA_?$AAs?$AA_?$AAl?$AA?$AA@ 200c5690     LIBCMTD:mbstowcs.obj
 0002:000156ac       ??_C@_1CM@LLECFMFH@?$AAb?$AAu?$AAf?$AAf?$AAe?$AAr?$AAS?$AAi?$AAz?$AAe?$AA?5?$AA?$DM?$AA?$DN?$AA?5?$AAI?$AAN?$AAT?$AA_?$AAM?$AAA?$AAX?$AA?$AA@ 200c56ac     LIBCMTD:mbstowcs.obj
 0002:000156d8       ??_C@_1CO@JNPEPJAL@?$AAr?$AAe?$AAt?$AAs?$AAi?$AAz?$AAe?$AA?5?$AA?$DM?$AA?$DN?$AA?5?$AAs?$AAi?$AAz?$AAe?$AAI?$AAn?$AAW?$AAo?$AAr?$AAd?$AAs?$AA?$AA@ 200c56d8     LIBCMTD:mbstowcs.obj
 0002:00015708       ??_C@_1BK@OIBENBPM@?$AAp?$AAw?$AAc?$AAs?$AA?5?$AA?$CB?$AA?$DN?$AA?5?$AAN?$AAU?$AAL?$AAL?$AA?$AA@ 200c5708     LIBCMTD:wcstombs.obj
 0002:00015728       ??_C@_1FI@GCFLNCOB@?$AAf?$AA?3?$AA?2?$AAd?$AAd?$AA?2?$AAv?$AAc?$AAt?$AAo?$AAo?$AAl?$AAs?$AA?2?$AAc?$AAr?$AAt?$AA?2?$AAc?$AAr?$AAt?$AAw?$AA3?$AA2?$AA?2?$AAc?$AAo?$AAn?$AAv?$AAe?$AAr?$AAt@ 200c5728     LIBCMTD:wcstombs.obj
 0002:00015780       ??_C@_1CG@LLJCAOHF@?$AA_?$AAw?$AAc?$AAs?$AAt?$AAo?$AAm?$AAb?$AAs?$AA_?$AAl?$AA_?$AAh?$AAe?$AAl?$AAp?$AAe?$AAr?$AA?$AA@ 200c5780     LIBCMTD:wcstombs.obj
 0002:000157a8       ??_C@_1IM@MFGKHGBP@?$AA?$CI?$AAd?$AAs?$AAt?$AA?5?$AA?$CB?$AA?$DN?$AA?5?$AAN?$AAU?$AAL?$AAL?$AA?5?$AA?$CG?$AA?$CG?$AA?5?$AAs?$AAi?$AAz?$AAe?$AAI?$AAn?$AAB?$AAy?$AAt?$AAe?$AAs?$AA?5?$AA?$DO?$AA?5?$AA0?$AA?$CJ@ 200c57a8     LIBCMTD:wcstombs.obj
 0002:00015834       ??_C@_1BM@BDMCLLDL@?$AA_?$AAw?$AAc?$AAs?$AAt?$AAo?$AAm?$AAb?$AAs?$AA_?$AAs?$AA_?$AAl?$AA?$AA@ 200c5834     LIBCMTD:wcstombs.obj
 0002:00015850       ??_C@_1CM@KEOGBFLI@?$AAs?$AAi?$AAz?$AAe?$AAI?$AAn?$AAB?$AAy?$AAt?$AAe?$AAs?$AA?5?$AA?$DO?$AA?5?$AAr?$AAe?$AAt?$AAs?$AAi?$AAz?$AAe?$AA?$AA@ 200c5850     LIBCMTD:wcstombs.obj
 0002:0001587c       ??_C@_1CE@PCFPEIFI@?$AA_?$AAv?$AAs?$AAn?$AAp?$AAr?$AAi?$AAn?$AAt?$AAf?$AA_?$AAh?$AAe?$AAl?$AAp?$AAe?$AAr?$AA?$AA@ 200c587c     LIBCMTD:vsnprnc.obj
 0002:000158a0       ??_C@_1BM@BLJALHEF@?$AA_?$AAv?$AAs?$AAp?$AAr?$AAi?$AAn?$AAt?$AAf?$AA_?$AAs?$AA_?$AAl?$AA?$AA@ 200c58a0     LIBCMTD:vsnprnc.obj
 0002:000158c0       ??_C@_1EE@OKCKIGFK@?$AAs?$AAt?$AAr?$AAi?$AAn?$AAg?$AA?5?$AA?$CB?$AA?$DN?$AA?5?$AAN?$AAU?$AAL?$AAL?$AA?5?$AA?$CG?$AA?$CG?$AA?5?$AAs?$AAi?$AAz?$AAe?$AAI?$AAn?$AAB?$AAy?$AAt?$AAe?$AAs?$AA?5?$AA?$DO?$AA?5@ 200c58c0     LIBCMTD:vsnprnc.obj
 0002:00015904       ??_C@_1BO@MMPELNIM@?$AA_?$AAv?$AAs?$AAn?$AAp?$AAr?$AAi?$AAn?$AAt?$AAf?$AA_?$AAs?$AA_?$AAl?$AA?$AA@ 200c5904     LIBCMTD:vsnprnc.obj
 0002:00015928       ??_C@_1EM@BALFJBIJ@?$AAf?$AA?3?$AA?2?$AAd?$AAd?$AA?2?$AAv?$AAc?$AAt?$AAo?$AAo?$AAl?$AAs?$AA?2?$AAc?$AAr?$AAt?$AA?2?$AAc?$AAr?$AAt?$AAw?$AA3?$AA2?$AA?2?$AAl?$AAo?$AAw?$AAi?$AAo?$AA?2?$AAr@ 200c5928     LIBCMTD:read.obj
 0002:00015974       ??_C@_1M@NHJOLLDM@?$AA_?$AAr?$AAe?$AAa?$AAd?$AA?$AA@ 200c5974     LIBCMTD:read.obj
 0002:00015980       ??_C@_1CC@HBLPFNKH@?$AA?$CI?$AAc?$AAn?$AAt?$AA?5?$AA?$DM?$AA?$DN?$AA?5?$AAI?$AAN?$AAT?$AA_?$AAM?$AAA?$AAX?$AA?$CJ?$AA?$AA@ 200c5980     LIBCMTD:read.obj
 0002:000159a4       ??_C@_1BK@JJBHNDKJ@?$AA_?$AAr?$AAe?$AAa?$AAd?$AA_?$AAn?$AAo?$AAl?$AAo?$AAc?$AAk?$AA?$AA@ 200c59a4     LIBCMTD:read.obj
 0002:000159c0       ??_C@_1CG@OHLJHGGK@?$AA?$CI?$AAi?$AAn?$AAp?$AAu?$AAt?$AAb?$AAu?$AAf?$AA?5?$AA?$CB?$AA?$DN?$AA?5?$AAN?$AAU?$AAL?$AAL?$AA?$CJ?$AA?$AA@ 200c59c0     LIBCMTD:read.obj
 0002:000159e8       ??_C@_0CG@JHNDLPLJ@f?3?2dd?2vctools?2crt?2crtw32?2lowio?2r@ 200c59e8     LIBCMTD:read.obj
 0002:00015a10       ??_C@_1FE@NDFDLJMJ@?$AAf?$AA?3?$AA?2?$AAd?$AAd?$AA?2?$AAv?$AAc?$AAt?$AAo?$AAo?$AAl?$AAs?$AA?2?$AAc?$AAr?$AAt?$AA?2?$AAc?$AAr?$AAt?$AAw?$AA3?$AA2?$AA?2?$AAs?$AAt?$AAr?$AAi?$AAn?$AAg?$AA?2@ 200c5a10     LIBCMTD:wcsicmp.obj
 0002:00015a64       ??_C@_1BG@EELGPCPD@?$AA_?$AAw?$AAc?$AAs?$AAi?$AAc?$AAm?$AAp?$AA_?$AAl?$AA?$AA@ 200c5a64     LIBCMTD:wcsicmp.obj
 0002:00015a7c       ??_C@_1BC@NHIBDOMC@?$AA_?$AAw?$AAc?$AAs?$AAi?$AAc?$AAm?$AAp?$AA?$AA@ 200c5a7c     LIBCMTD:wcsicmp.obj
 0002:00015a90       ??_C@_1BM@CBACDFHA@?$AAf?$AAi?$AAr?$AAs?$AAt?$AA?5?$AA?$CB?$AA?$DN?$AA?5?$AAN?$AAU?$AAL?$AAL?$AA?$AA@ 200c5a90     LIBCMTD:wcsnicmp.obj
 0002:00015ab0       ??_C@_1FG@GGNDOPHP@?$AAf?$AA?3?$AA?2?$AAd?$AAd?$AA?2?$AAv?$AAc?$AAt?$AAo?$AAo?$AAl?$AAs?$AA?2?$AAc?$AAr?$AAt?$AA?2?$AAc?$AAr?$AAt?$AAw?$AA3?$AA2?$AA?2?$AAs?$AAt?$AAr?$AAi?$AAn?$AAg?$AA?2@ 200c5ab0     LIBCMTD:wcsnicmp.obj
 0002:00015b08       ??_C@_1BI@KLMFNDBC@?$AA_?$AAw?$AAc?$AAs?$AAn?$AAi?$AAc?$AAm?$AAp?$AA_?$AAl?$AA?$AA@ 200c5b08     LIBCMTD:wcsnicmp.obj
 0002:00015b20       ??_C@_1BK@LKBOPAFJ@?$AAl?$AAa?$AAs?$AAt?$AA?5?$AA?$CB?$AA?$DN?$AA?5?$AAN?$AAU?$AAL?$AAL?$AA?$AA@ 200c5b20     LIBCMTD:wcsnicmp.obj
 0002:00015b3c       ??_C@_1BE@JKOKKFEL@?$AA_?$AAw?$AAc?$AAs?$AAn?$AAi?$AAc?$AAm?$AAp?$AA?$AA@ 200c5b3c     LIBCMTD:wcsnicmp.obj
 0002:00015b50       ??_C@_0CJ@IGOJMKM@f?3?2dd?2vctools?2crt?2crtw32?2lowio?2o@ 200c5b50     LIBCMTD:osfinfo.obj
 0002:00015b80       ??_C@_1FC@BEKMGBFL@?$AAf?$AA?3?$AA?2?$AAd?$AAd?$AA?2?$AAv?$AAc?$AAt?$AAo?$AAo?$AAl?$AAs?$AA?2?$AAc?$AAr?$AAt?$AA?2?$AAc?$AAr?$AAt?$AAw?$AA3?$AA2?$AA?2?$AAl?$AAo?$AAw?$AAi?$AAo?$AA?2?$AAo@ 200c5b80     LIBCMTD:osfinfo.obj
 0002:00015bd4       ??_C@_1BO@EMBOBGKE@?$AA_?$AAg?$AAe?$AAt?$AA_?$AAo?$AAs?$AAf?$AAh?$AAa?$AAn?$AAd?$AAl?$AAe?$AA?$AA@ 200c5bd4     LIBCMTD:osfinfo.obj
 0002:00015bf8       ??_C@_1FC@LLDAFLML@?$AAf?$AA?3?$AA?2?$AAd?$AAd?$AA?2?$AAv?$AAc?$AAt?$AAo?$AAo?$AAl?$AAs?$AA?2?$AAc?$AAr?$AAt?$AA?2?$AAc?$AAr?$AAt?$AAw?$AA3?$AA2?$AA?2?$AAs?$AAt?$AAd?$AAi?$AAo?$AA?2?$AAv@ 200c5bf8     LIBCMTD:vprintf.obj
 0002:00015c4c       ??_C@_1BO@JGFPDJCP@?$AAv?$AAp?$AAr?$AAi?$AAn?$AAt?$AAf?$AA_?$AAh?$AAe?$AAl?$AAp?$AAe?$AAr?$AA?$AA@ 200c5c4c     LIBCMTD:vprintf.obj
 0002:00015c6c       ??_C@_1BE@NDMJHJJG@?$AAs?$AAt?$AAr?$AAn?$AAc?$AAp?$AAy?$AA_?$AAs?$AA?$AA@ 200c5c6c     LIBCMTD:strncpy_s.obj
 0002:00015c80       ??_C@_1FA@HHFEGMDA@?$AAf?$AA?3?$AA?2?$AAd?$AAd?$AA?2?$AAv?$AAc?$AAt?$AAo?$AAo?$AAl?$AAs?$AA?2?$AAc?$AAr?$AAt?$AA?2?$AAc?$AAr?$AAt?$AAw?$AA3?$AA2?$AA?2?$AAs?$AAt?$AAd?$AAi?$AAo?$AA?2?$AAf@ 200c5c80     LIBCMTD:fclose.obj
 0002:00015cd0       ??_C@_1O@EGMJNCOI@?$AAf?$AAc?$AAl?$AAo?$AAs?$AAe?$AA?$AA@ 200c5cd0     LIBCMTD:fclose.obj
 0002:00015ce0       ??_C@_1BO@JINCABEC@?$AA_?$AAf?$AAc?$AAl?$AAo?$AAs?$AAe?$AA_?$AAn?$AAo?$AAl?$AAo?$AAc?$AAk?$AA?$AA@ 200c5ce0     LIBCMTD:fclose.obj
 0002:00015d00       ??_C@_1FA@MCFBMFHP@?$AAf?$AA?3?$AA?2?$AAd?$AAd?$AA?2?$AAv?$AAc?$AAt?$AAo?$AAo?$AAl?$AAs?$AA?2?$AAc?$AAr?$AAt?$AA?2?$AAc?$AAr?$AAt?$AAw?$AA3?$AA2?$AA?2?$AAs?$AAt?$AAd?$AAi?$AAo?$AA?2?$AAf@ 200c5d00     LIBCMTD:fputwc.obj
 0002:00015d50       ??_C@_1O@HJNPHHHB@?$AAf?$AAp?$AAu?$AAt?$AAw?$AAc?$AA?$AA@ 200c5d50     LIBCMTD:fputwc.obj
 0002:00015d60       ??_C@_1FE@GDPLAOMM@?$AAf?$AA?3?$AA?2?$AAd?$AAd?$AA?2?$AAv?$AAc?$AAt?$AAo?$AAo?$AAl?$AAs?$AA?2?$AAc?$AAr?$AAt?$AA?2?$AAc?$AAr?$AAt?$AAw?$AA3?$AA2?$AA?2?$AAc?$AAo?$AAn?$AAv?$AAe?$AAr?$AAt@ 200c5d60     LIBCMTD:wcstol.obj
 0002:00015db4       ??_C@_1BA@PCFLFGNC@?$AAw?$AAc?$AAs?$AAt?$AAo?$AAx?$AAl?$AA?$AA@ 200c5db4     LIBCMTD:wcstol.obj
 0002:00015dc8       ??_C@_1FC@BHNGAOAE@?$AAf?$AA?3?$AA?2?$AAd?$AAd?$AA?2?$AAv?$AAc?$AAt?$AAo?$AAo?$AAl?$AAs?$AA?2?$AAc?$AAr?$AAt?$AA?2?$AAc?$AAr?$AAt?$AAw?$AA3?$AA2?$AA?2?$AAm?$AAi?$AAs?$AAc?$AA?2?$AAd?$AAb@ 200c5dc8     LIBCMTD:dbgdel.obj
 0002:00015e20       ??_7type_info@@6B@         200c5e20     LIBCMTD:typinfo.obj
 0002:00015e28       ??_7exception@std@@6B@     200c5e28     LIBCMTD:stdexcpt.obj
 0002:00015e30       ??_C@_0BC@EOODALEL@Unknown?5exception?$AA@ 200c5e30     LIBCMTD:stdexcpt.obj
 0002:00015e48       ??_7bad_cast@std@@6B@      200c5e48     LIBCMTD:stdexcpt.obj
 0002:00015e54       ??_7bad_typeid@std@@6B@    200c5e54     LIBCMTD:stdexcpt.obj
 0002:00015e60       ??_7__non_rtti_object@std@@6B@ 200c5e60     LIBCMTD:stdexcpt.obj
 0002:00015e88       ??_C@_1FE@IEEFCKDG@?$AAf?$AA?3?$AA?2?$AAd?$AAd?$AA?2?$AAv?$AAc?$AAt?$AAo?$AAo?$AAl?$AAs?$AA?2?$AAc?$AAr?$AAt?$AA?2?$AAc?$AAr?$AAt?$AAw?$AA3?$AA2?$AA?2?$AAc?$AAo?$AAn?$AAv?$AAe?$AAr?$AAt@ 200c5e88     LIBCMTD:wcstoq.obj
 0002:00015edc       ??_C@_1BA@FACINJJA@?$AAw?$AAc?$AAs?$AAt?$AAo?$AAx?$AAq?$AA?$AA@ 200c5edc     LIBCMTD:wcstoq.obj
 0002:00015eec       ??_C@_0CK@CEJCOKEF@f?3?2dd?2vctools?2crt?2crtw32?2convert@ 200c5eec     LIBCMTD:wcstoq.obj
 0002:00015f18       ??_C@_1BA@BALFACEM@?$AAC?$AAO?$AAN?$AAO?$AAU?$AAT?$AA$?$AA?$AA@ 200c5f18     LIBCMTD:initcon.obj
 0002:00015f28       ??_C@_1EO@EJLBBGEB@?$AAf?$AA?3?$AA?2?$AAd?$AAd?$AA?2?$AAv?$AAc?$AAt?$AAo?$AAo?$AAl?$AAs?$AA?2?$AAc?$AAr?$AAt?$AA?2?$AAc?$AAr?$AAt?$AAw?$AA3?$AA2?$AA?2?$AAl?$AAo?$AAw?$AAi?$AAo?$AA?2?$AAc@ 200c5f28     LIBCMTD:close.obj
 0002:00015f78       ??_C@_1O@EDEJGJBM@?$AA_?$AAc?$AAl?$AAo?$AAs?$AAe?$AA?$AA@ 200c5f78     LIBCMTD:close.obj
 0002:00015f88       ??_C@_1CK@GELGGBDK@?$AAp?$AAN?$AAo?$AAd?$AAe?$AA?9?$AA?$DO?$AA_?$AAN?$AAe?$AAx?$AAt?$AA?5?$AA?$CB?$AA?$DN?$AA?5?$AAN?$AAU?$AAL?$AAL?$AA?$AA@ 200c5f88     LIBCMTD:typname.obj
 0002:00015fb8       ??_C@_1FA@KAJOMDBA@?$AAf?$AA?3?$AA?2?$AAd?$AAd?$AA?2?$AAv?$AAc?$AAt?$AAo?$AAo?$AAl?$AAs?$AA?2?$AAc?$AAr?$AAt?$AA?2?$AAc?$AAr?$AAt?$AAw?$AA3?$AA2?$AA?2?$AAe?$AAh?$AA?2?$AAt?$AAy?$AAp?$AAn@ 200c5fb8     LIBCMTD:typname.obj
 0002:00016008       ??_C@_1CM@OOICDMK@?$AAt?$AAy?$AAp?$AAe?$AA_?$AAi?$AAn?$AAf?$AAo?$AA?3?$AA?3?$AA_?$AAN?$AAa?$AAm?$AAe?$AA_?$AAb?$AAa?$AAs?$AAe?$AA?$AA@ 200c6008     LIBCMTD:typname.obj
 0002:00016038       ??_C@_1JK@NAFNEPGC@?$AAs?$AAt?$AAr?$AAc?$AAp?$AAy?$AA_?$AAs?$AA?5?$AA?$CI?$AA?$CI?$AAc?$AAh?$AAa?$AAr?$AA?5?$AA?$CK?$AA?$CJ?$AA?$CI?$AA?$CI?$AAt?$AAy?$AAp?$AAe?$AA_?$AAi?$AAn?$AAf?$AAo?$AA?5?$AA?$CK?$AA?$CJ@ 200c6038     LIBCMTD:typname.obj
 0002:000160d4       ??_C@_1DO@OJJLFJPE@?$AAt?$AAy?$AAp?$AAe?$AA_?$AAi?$AAn?$AAf?$AAo?$AA?3?$AA?3?$AA_?$AAN?$AAa?$AAm?$AAe?$AA_?$AAb?$AAa?$AAs?$AAe?$AA_?$AAi?$AAn?$AAt?$AAe?$AAr?$AAn?$AAa?$AAl?$AA?$AA@ 200c60d4     LIBCMTD:typname.obj
 0002:00016118       ??_C@_1GI@EAJKJPED@?$AAs?$AAt?$AAr?$AAc?$AAp?$AAy?$AA_?$AAs?$AA?5?$AA?$CI?$AAp?$AAT?$AAm?$AAp?$AAT?$AAy?$AAp?$AAe?$AAN?$AAa?$AAm?$AAe?$AA?0?$AA?5?$AAl?$AAe?$AAn?$AA?$CL?$AA2?$AA?0?$AA?5?$AA?$CI@ 200c6118     LIBCMTD:typname.obj
 0002:00016180       ??_C@_1FE@LABOBFHJ@?$AAf?$AA?3?$AA?2?$AAd?$AAd?$AA?2?$AAv?$AAc?$AAt?$AAo?$AAo?$AAl?$AAs?$AA?2?$AAc?$AAr?$AAt?$AA?2?$AAc?$AAr?$AAt?$AAw?$AA3?$AA2?$AA?2?$AAc?$AAo?$AAn?$AAv?$AAe?$AAr?$AAt@ 200c6180     LIBCMTD:wcstod.obj
 0002:000161d4       ??_C@_1BE@CIGDJHAJ@?$AA_?$AAw?$AAc?$AAs?$AAt?$AAo?$AAd?$AA_?$AAl?$AA?$AA@ 200c61d4     LIBCMTD:wcstod.obj
 0002:00016374       ??_C@_08EHJDFFNH@__based?$CI?$AA@ 200c6374     LIBCMTD:undname.obj
 0002:00016380       ??_C@_07KOLFKCDI@__cdecl?$AA@ 200c6380     LIBCMTD:undname.obj
 0002:00016388       ??_C@_08GHMPAG@__pascal?$AA@ 200c6388     LIBCMTD:undname.obj
 0002:00016394       ??_C@_09IFJBGAPI@__stdcall?$AA@ 200c6394     LIBCMTD:undname.obj
 0002:000163a0       ??_C@_0L@NPHFGOKO@__thiscall?$AA@ 200c63a0     LIBCMTD:undname.obj
 0002:000163ac       ??_C@_0L@JMKHOMEK@__fastcall?$AA@ 200c63ac     LIBCMTD:undname.obj
 0002:000163b8       ??_C@_0N@BCKKPABJ@__vectorcall?$AA@ 200c63b8     LIBCMTD:undname.obj
 0002:000163c8       ??_C@_09HIJEGCPM@__clrcall?$AA@ 200c63c8     LIBCMTD:undname.obj
 0002:000163d4       ??_C@_06GHPCKEAG@__eabi?$AA@ 200c63d4     LIBCMTD:undname.obj
 0002:000163dc       ??_C@_07JOMMBBKO@__ptr64?$AA@ 200c63dc     LIBCMTD:undname.obj
 0002:000163e4       ??_C@_0L@PILCLIHE@__restrict?$AA@ 200c63e4     LIBCMTD:undname.obj
 0002:000163f0       ??_C@_0M@GFIIJFMG@__unaligned?$AA@ 200c63f0     LIBCMTD:undname.obj
 0002:000163fc       ??_C@_09DHDLOLLB@restrict?$CI?$AA@ 200c63fc     LIBCMTD:undname.obj
 0002:00016408       ??_C@_04NIHEBCM@?5new?$AA@ 200c6408     LIBCMTD:undname.obj
 0002:00016410       ??_C@_07FPCDHGMM@?5delete?$AA@ 200c6410     LIBCMTD:undname.obj
 0002:00016418       ??_C@_01NEMOKFLO@?$DN?$AA@ 200c6418     LIBCMTD:undname.obj
 0002:0001641c       ??_C@_02GPIOPFAK@?$DO?$DO?$AA@ 200c641c     LIBCMTD:undname.obj
 0002:00016420       ??_C@_02FODMEDOG@?$DM?$DM?$AA@ 200c6420     LIBCMTD:undname.obj
 0002:00016424       ??_C@_01DCLJPIOD@?$CB?$AA@ 200c6424     LIBCMTD:undname.obj
 0002:00016428       ??_C@_02EGOFBIJA@?$DN?$DN?$AA@ 200c6428     LIBCMTD:undname.obj
 0002:0001642c       ??_C@_02FDNJECIE@?$CB?$DN?$AA@ 200c642c     LIBCMTD:undname.obj
 0002:00016430       ??_C@_02GPECMEKF@?$FL?$FN?$AA@ 200c6430     LIBCMTD:undname.obj
 0002:00016434       ??_C@_08LHJFAFGD@operator?$AA@ 200c6434     LIBCMTD:undname.obj
 0002:00016440       ??_C@_02HBOOOICD@?9?$DO?$AA@ 200c6440     LIBCMTD:undname.obj
 0002:00016444       ??_C@_02ECNGHCIF@?$CL?$CL?$AA@ 200c6444     LIBCMTD:undname.obj
 0002:00016448       ??_C@_02BAABKJLB@?9?9?$AA@ 200c6448     LIBCMTD:undname.obj
 0002:0001644c       ??_C@_01JOAMLHOP@?9?$AA@   200c644c     LIBCMTD:undname.obj
 0002:00016450       ??_C@_01MIFGBAGJ@?$CL?$AA@ 200c6450     LIBCMTD:undname.obj
 0002:00016454       ??_C@_01HNPIGOCE@?$CG?$AA@ 200c6454     LIBCMTD:undname.obj
 0002:00016458       ??_C@_03MNHNFDLC@?9?$DO?$CK?$AA@ 200c6458     LIBCMTD:undname.obj
 0002:0001645c       ??_C@_01KMDKNFGN@?1?$AA@   200c645c     LIBCMTD:undname.obj
 0002:00016460       ??_C@_01FGNFDNOH@?$CF?$AA@ 200c6460     LIBCMTD:undname.obj
 0002:00016464       ??_C@_01MNNFJEPP@?$DM?$AA@ 200c6464     LIBCMTD:undname.obj
 0002:00016468       ??_C@_02EHCHHCKH@?$DM?$DN?$AA@ 200c6468     LIBCMTD:undname.obj
 0002:0001646c       ??_C@_01PPODPGHN@?$DO?$AA@ 200c646c     LIBCMTD:undname.obj
 0002:00016470       ??_C@_02EEKDKGMJ@?$DO?$DN?$AA@ 200c6470     LIBCMTD:undname.obj
 0002:00016474       ??_C@_01IHBHIGKO@?0?$AA@   200c6474     LIBCMTD:undname.obj
 0002:00016478       ??_C@_02HCKGKOFO@?$CI?$CJ?$AA@ 200c6478     LIBCMTD:undname.obj
 0002:0001647c       ??_C@_01PJKLJHI@?$HO?$AA@  200c647c     LIBCMTD:undname.obj
 0002:00016480       ??_C@_01JKBOJNNK@?$FO?$AA@ 200c6480     LIBCMTD:undname.obj
 0002:00016484       ??_C@_01DNKMNLPK@?$HM?$AA@ 200c6484     LIBCMTD:undname.obj
 0002:00016488       ??_C@_02PPKAJPJL@?$CG?$CG?$AA@ 200c6488     LIBCMTD:undname.obj
 0002:0001648c       ??_C@_02NONPIBCD@?$HM?$HM?$AA@ 200c648c     LIBCMTD:undname.obj
 0002:00016490       ??_C@_02FPIMKNGF@?$CK?$DN?$AA@ 200c6490     LIBCMTD:undname.obj
 0002:00016494       ??_C@_02FOEOMHFC@?$CL?$DN?$AA@ 200c6494     LIBCMTD:undname.obj
 0002:00016498       ??_C@_02FKMDLLOA@?9?$DN?$AA@ 200c6498     LIBCMTD:undname.obj
 0002:0001649c       ??_C@_02FJEHGPIO@?1?$DN?$AA@ 200c649c     LIBCMTD:undname.obj
 0002:000164a0       ??_C@_02FENAOKFI@?$CF?$DN?$AA@ 200c64a0     LIBCMTD:undname.obj
 0002:000164a4       ??_C@_03IKFCCPFF@?$DO?$DO?$DN?$AA@ 200c64a4     LIBCMTD:undname.obj
 0002:000164a8       ??_C@_03CDNPDDLA@?$DM?$DM?$DN?$AA@ 200c64a8     LIBCMTD:undname.obj
 0002:000164ac       ??_C@_02FGJGFEAB@?$CG?$DN?$AA@ 200c64ac     LIBCMTD:undname.obj
 0002:000164b0       ??_C@_02DHLNPPGH@?$HM?$DN?$AA@ 200c64b0     LIBCMTD:undname.obj
 0002:000164b4       ??_C@_02MHEGNOJ@?$FO?$DN?$AA@ 200c64b4     LIBCMTD:undname.obj
 0002:000164b8       ??_C@_09IFPLHPGF@?$GAvftable?8?$AA@ 200c64b8     LIBCMTD:undname.obj
 0002:000164c4       ??_C@_09BLBHBJP@?$GAvbtable?8?$AA@ 200c64c4     LIBCMTD:undname.obj
 0002:000164d0       ??_C@_07FEEIOKP@?$GAvcall?8?$AA@ 200c64d0     LIBCMTD:undname.obj
 0002:000164d8       ??_C@_08LLFFHHDJ@?$GAtypeof?8?$AA@ 200c64d8     LIBCMTD:undname.obj
 0002:000164e4       ??_C@_0BF@KDPPACIK@?$GAlocal?5static?5guard?8?$AA@ 200c64e4     LIBCMTD:undname.obj
 0002:000164fc       ??_C@_08OBABFOLI@?$GAstring?8?$AA@ 200c64fc     LIBCMTD:undname.obj
 0002:00016508       ??_C@_0BD@JDLKDPAB@?$GAvbase?5destructor?8?$AA@ 200c6508     LIBCMTD:undname.obj
 0002:0001651c       ??_C@_0BN@DEGPLNFK@?$GAvector?5deleting?5destructor?8?$AA@ 200c651c     LIBCMTD:undname.obj
 0002:0001653c       ??_C@_0BO@OBMKPJIG@?$GAdefault?5constructor?5closure?8?$AA@ 200c653c     LIBCMTD:undname.obj
 0002:0001655c       ??_C@_0BN@IMDCHIKM@?$GAscalar?5deleting?5destructor?8?$AA@ 200c655c     LIBCMTD:undname.obj
 0002:0001657c       ??_C@_0BO@PFGOCPJJ@?$GAvector?5constructor?5iterator?8?$AA@ 200c657c     LIBCMTD:undname.obj
 0002:0001659c       ??_C@_0BN@LFPFMEDL@?$GAvector?5destructor?5iterator?8?$AA@ 200c659c     LIBCMTD:undname.obj
 0002:000165bc       ??_C@_0CE@IKBNEHA@?$GAvector?5vbase?5constructor?5iterat@ 200c65bc     LIBCMTD:undname.obj
 0002:000165e0       ??_C@_0BL@NILFHHPC@?$GAvirtual?5displacement?5map?8?$AA@ 200c65e0     LIBCMTD:undname.obj
 0002:000165fc       ??_C@_0CB@JONCMFFK@?$GAeh?5vector?5constructor?5iterator?8@ 200c65fc     LIBCMTD:undname.obj
 0002:00016620       ??_C@_0CA@GCEOPDGL@?$GAeh?5vector?5destructor?5iterator?8?$AA@ 200c6620     LIBCMTD:undname.obj
 0002:00016640       ??_C@_0CH@OOJPLCPH@?$GAeh?5vector?5vbase?5constructor?5ite@ 200c6640     LIBCMTD:undname.obj
 0002:00016668       ??_C@_0BL@LLKPOHJI@?$GAcopy?5constructor?5closure?8?$AA@ 200c6668     LIBCMTD:undname.obj
 0002:00016684       ??_C@_0BA@KBCDOMBN@?$GAudt?5returning?8?$AA@ 200c6684     LIBCMTD:undname.obj
 0002:00016694       ??_C@_03KLGMFNMG@?$GAEH?$AA@ 200c6694     LIBCMTD:undname.obj
 0002:00016698       ??_C@_05KHLCHHI@?$GARTTI?$AA@ 200c6698     LIBCMTD:undname.obj
 0002:000166a0       ??_C@_0BA@KKLDJDLB@?$GAlocal?5vftable?8?$AA@ 200c66a0     LIBCMTD:undname.obj
 0002:000166b0       ??_C@_0CE@IIHCMGGL@?$GAlocal?5vftable?5constructor?5closu@ 200c66b0     LIBCMTD:undname.obj
 0002:000166d4       ??_C@_06FHBGPFGH@?5new?$FL?$FN?$AA@ 200c66d4     LIBCMTD:undname.obj
 0002:000166dc       ??_C@_09LBNFPBCA@?5delete?$FL?$FN?$AA@ 200c66dc     LIBCMTD:undname.obj
 0002:000166e8       ??_C@_0P@HJKNJFNN@?$GAomni?5callsig?8?$AA@ 200c66e8     LIBCMTD:undname.obj
 0002:000166f8       ??_C@_0BL@CNOONJFP@?$GAplacement?5delete?5closure?8?$AA@ 200c66f8     LIBCMTD:undname.obj
 0002:00016714       ??_C@_0BN@CKNJLHMB@?$GAplacement?5delete?$FL?$FN?5closure?8?$AA@ 200c6714     LIBCMTD:undname.obj
 0002:00016734       ??_C@_0CG@CFDHKGGD@?$GAmanaged?5vector?5constructor?5iter@ 200c6734     LIBCMTD:undname.obj
 0002:0001675c       ??_C@_0CF@IMGKMJNO@?$GAmanaged?5vector?5destructor?5itera@ 200c675c     LIBCMTD:undname.obj
 0002:00016784       ??_C@_0CG@HLDDJMAG@?$GAeh?5vector?5copy?5constructor?5iter@ 200c6784     LIBCMTD:undname.obj
 0002:000167ac       ??_C@_0CM@FCBBDIGB@?$GAeh?5vector?5vbase?5copy?5constructo@ 200c67ac     LIBCMTD:undname.obj
 0002:000167d8       ??_C@_0BL@CLIPGLGB@?$GAdynamic?5initializer?5for?5?8?$AA@ 200c67d8     LIBCMTD:undname.obj
 0002:000167f4       ??_C@_0CB@PDBIFEP@?$GAdynamic?5atexit?5destructor?5for?5?8@ 200c67f4     LIBCMTD:undname.obj
 0002:00016818       ??_C@_0CD@CGAJBKEJ@?$GAvector?5copy?5constructor?5iterato@ 200c6818     LIBCMTD:undname.obj
 0002:0001683c       ??_C@_0CJ@GJELGAMM@?$GAvector?5vbase?5copy?5constructor?5i@ 200c683c     LIBCMTD:undname.obj
 0002:00016868       ??_C@_0CL@FGIJHLCE@?$GAmanaged?5vector?5copy?5constructor@ 200c6868     LIBCMTD:undname.obj
 0002:00016894       ??_C@_0BM@PMGGMLDN@?$GAlocal?5static?5thread?5guard?8?$AA@ 200c6894     LIBCMTD:undname.obj
 0002:000168b0       ??_C@_0BC@DAFEJGAK@?5Type?5Descriptor?8?$AA@ 200c68b0     LIBCMTD:undname.obj
 0002:000168c4       ??_C@_0BM@LDKODKLH@?5Base?5Class?5Descriptor?5at?5?$CI?$AA@ 200c68c4     LIBCMTD:undname.obj
 0002:000168e0       ??_C@_0BD@LGICGFMM@?5Base?5Class?5Array?8?$AA@ 200c68e0     LIBCMTD:undname.obj
 0002:000168f4       ??_C@_0BN@MECKDCOJ@?5Class?5Hierarchy?5Descriptor?8?$AA@ 200c68f4     LIBCMTD:undname.obj
 0002:00016914       ??_C@_0BK@CFCOFLF@?5Complete?5Object?5Locator?8?$AA@ 200c6914     LIBCMTD:undname.obj
 0002:00016930       ??_C@_04HEJADOOB@CV?3?5?$AA@ 200c6930     LIBCMTD:undname.obj
 0002:00016938       ??_C@_02MOLJINC@?3?3?$AA@  200c6938     LIBCMTD:undname.obj
 0002:0001693c       ??_C@_0BE@JAEOCHPE@template?9parameter?9?$AA@ 200c693c     LIBCMTD:undname.obj
 0002:00016950       ??_C@_0O@KHGCOMHP@generic?9type?9?$AA@ 200c6950     LIBCMTD:undname.obj
 0002:00016960       ??_C@_01NLNLIGKH@?$GA?$AA@ 200c6960     LIBCMTD:undname.obj
 0002:00016964       ??_C@_01GEODFPGF@?8?$AA@   200c6964     LIBCMTD:undname.obj
 0002:00016968       ??_C@_0BG@JNJLAMPM@?$GAanonymous?5namespace?8?$AA@ 200c6968     LIBCMTD:undname.obj
 0002:00016980       ??_C@_02OHHJMEON@?8?8?$AA@ 200c6980     LIBCMTD:undname.obj
 0002:00016984       ??_C@_0BN@IBLMMFAP@?$GAnon?9type?9template?9parameter?$AA@ 200c6984     LIBCMTD:undname.obj
 0002:000169a4       ??_C@_04GKJNKENE@void?$AA@ 200c69a4     LIBCMTD:undname.obj
 0002:000169ac       ??_C@_0BE@EODMJLIF@?$GAtemplate?9parameter?$AA@ 200c69ac     LIBCMTD:undname.obj
 0002:000169c0       ??_C@_04HIBGFPH@NULL?$AA@  200c69c0     LIBCMTD:undname.obj
 0002:000169c8       ??_C@_03OPGICMGF@?$HN?8?5?$AA@ 200c69c8     LIBCMTD:undname.obj
 0002:000169cc       ??_C@_02IGFCGPIL@?$HN?8?$AA@ 200c69cc     LIBCMTD:undname.obj
 0002:000169d0       ??_C@_0N@CBHHHENL@?$GAvtordispex?$HL?$AA@ 200c69d0     LIBCMTD:undname.obj
 0002:000169e0       ??_C@_0L@GHPFDFH@?$GAvtordisp?$HL?$AA@ 200c69e0     LIBCMTD:undname.obj
 0002:000169ec       ??_C@_0L@HNGCOGAE@?$GAadjustor?$HL?$AA@ 200c69ec     LIBCMTD:undname.obj
 0002:000169f8       ??_C@_0CB@KJDOOODE@?$GAlocal?5static?5destructor?5helper?8@ 200c69f8     LIBCMTD:undname.obj
 0002:00016a1c       ??_C@_0DB@ILEFOCIJ@?$GAtemplate?5static?5data?5member?5con@ 200c6a1c     LIBCMTD:undname.obj
 0002:00016a50       ??_C@_0DA@HGFJFBBE@?$GAtemplate?5static?5data?5member?5des@ 200c6a50     LIBCMTD:undname.obj
 0002:00016a80       ??_C@_07PGOEDBHP@static?5?$AA@ 200c6a80     LIBCMTD:undname.obj
 0002:00016a88       ??_C@_08NIEOINHE@virtual?5?$AA@ 200c6a88     LIBCMTD:undname.obj
 0002:00016a94       ??_C@_09LAPHOOG@private?3?5?$AA@ 200c6a94     LIBCMTD:undname.obj
 0002:00016aa0       ??_C@_0M@GAIFPFIP@protected?3?5?$AA@ 200c6aa0     LIBCMTD:undname.obj
 0002:00016aac       ??_C@_08GPDDCMKI@public?3?5?$AA@ 200c6aac     LIBCMTD:undname.obj
 0002:00016ab8       ??_C@_08KJLFOPNE@?$FLthunk?$FN?3?$AA@ 200c6ab8     LIBCMTD:undname.obj
 0002:00016ac4       ??_C@_0M@DHNBOJMP@extern?5?$CCC?$CC?5?$AA@ 200c6ac4     LIBCMTD:undname.obj
 0002:00016ad0       ??_C@_02KCKGHPCA@?$CJ?5?$AA@ 200c6ad0     LIBCMTD:undname.obj
 0002:00016ad4       ??_C@_05CIHEBHNO@char?5?$AA@ 200c6ad4     LIBCMTD:undname.obj
 0002:00016adc       ??_C@_06EHJMALKF@short?5?$AA@ 200c6adc     LIBCMTD:undname.obj
 0002:00016ae4       ??_C@_04LAHKHJMA@int?5?$AA@ 200c6ae4     LIBCMTD:undname.obj
 0002:00016aec       ??_C@_05CJIMAING@long?5?$AA@ 200c6aec     LIBCMTD:undname.obj
 0002:00016af4       ??_C@_09EBBEKKIH@unsigned?5?$AA@ 200c6af4     LIBCMTD:undname.obj
 0002:00016b00       ??_C@_05BEFAKPML@void?5?$AA@ 200c6b00     LIBCMTD:undname.obj
 0002:00016b08       ??_C@_08PABEKFH@volatile?$AA@ 200c6b08     LIBCMTD:undname.obj
 0002:00016b14       ??_C@_0P@GCOCNKDM@std?3?3nullptr_t?$AA@ 200c6b14     LIBCMTD:undname.obj
 0002:00016b24       ??_C@_0L@EGPHHEKN@?$DMellipsis?$DO?$AA@ 200c6b24     LIBCMTD:undname.obj
 0002:00016b30       ??_C@_04EENFHACM@?0?4?4?4?$AA@ 200c6b30     LIBCMTD:undname.obj
 0002:00016b38       ??_C@_0M@ELJOJFFH@?0?$DMellipsis?$DO?$AA@ 200c6b38     LIBCMTD:undname.obj
 0002:00016b44       ??_C@_07HDJPLPEK@?5throw?$CI?$AA@ 200c6b44     LIBCMTD:undname.obj
 0002:00016b4c       ??_C@_03PBJBJNON@cpu?$AA@  200c6b4c     LIBCMTD:undname.obj
 0002:00016b50       ??_C@_03DCBBJBAA@amp?$AA@  200c6b50     LIBCMTD:undname.obj
 0002:00016b54       ??_C@_02KEGNLNML@?0?5?$AA@ 200c6b54     LIBCMTD:undname.obj
 0002:00016b58       ??_C@_04ENMBGAPA@char?$AA@ 200c6b58     LIBCMTD:undname.obj
 0002:00016b60       ??_C@_05BFKKPKCG@short?$AA@ 200c6b60     LIBCMTD:undname.obj
 0002:00016b68       ??_C@_03JBIPMCLC@int?$AA@  200c6b68     LIBCMTD:undname.obj
 0002:00016b6c       ??_C@_04GOKPGOLB@long?$AA@ 200c6b6c     LIBCMTD:undname.obj
 0002:00016b74       ??_C@_05KNFBNCOH@float?$AA@ 200c6b74     LIBCMTD:undname.obj
 0002:00016b7c       ??_C@_06BNJCAIGJ@double?$AA@ 200c6b7c     LIBCMTD:undname.obj
 0002:00016b84       ??_C@_04DDKJGDCM@bool?$AA@ 200c6b84     LIBCMTD:undname.obj
 0002:00016b8c       ??_C@_06EBGKOKIG@__int8?$AA@ 200c6b8c     LIBCMTD:undname.obj
 0002:00016b94       ??_C@_07ICFHOGAF@__int16?$AA@ 200c6b94     LIBCMTD:undname.obj
 0002:00016b9c       ??_C@_07OFLPPHGP@__int32?$AA@ 200c6b9c     LIBCMTD:undname.obj
 0002:00016ba4       ??_C@_07LFCOJCAC@__int64?$AA@ 200c6ba4     LIBCMTD:undname.obj
 0002:00016bac       ??_C@_08GAHOLHEO@__int128?$AA@ 200c6bac     LIBCMTD:undname.obj
 0002:00016bb8       ??_C@_09EEKGDCPH@?$DMunknown?$DO?$AA@ 200c6bb8     LIBCMTD:undname.obj
 0002:00016bc4       ??_C@_07CLGGIAMF@wchar_t?$AA@ 200c6bc4     LIBCMTD:undname.obj
 0002:00016bcc       ??_C@_06GCICPBLB@__w64?5?$AA@ 200c6bcc     LIBCMTD:undname.obj
 0002:00016bd4       ??_C@_07NFANNNEC@UNKNOWN?$AA@ 200c6bd4     LIBCMTD:undname.obj
 0002:00016bdc       ??_C@_07EDHNAJHC@signed?5?$AA@ 200c6bdc     LIBCMTD:undname.obj
 0002:00016be4       ??_C@_05BNCCCJPP@const?$AA@ 200c6be4     LIBCMTD:undname.obj
 0002:00016bec       ??_C@_09EFNPDFFP@?5volatile?$AA@ 200c6bec     LIBCMTD:undname.obj
 0002:00016bf8       ??_C@_0P@GCIFDJCJ@?$GAunknown?5ecsu?8?$AA@ 200c6bf8     LIBCMTD:undname.obj
 0002:00016c08       ??_C@_06MOJHIBMG@union?5?$AA@ 200c6c08     LIBCMTD:undname.obj
 0002:00016c10       ??_C@_07DIBCDNGL@struct?5?$AA@ 200c6c10     LIBCMTD:undname.obj
 0002:00016c18       ??_C@_06LJBABKPM@class?5?$AA@ 200c6c18     LIBCMTD:undname.obj
 0002:00016c20       ??_C@_08KOFANOFK@coclass?5?$AA@ 200c6c20     LIBCMTD:undname.obj
 0002:00016c2c       ??_C@_0N@DLIEFKNA@cointerface?5?$AA@ 200c6c2c     LIBCMTD:undname.obj
 0002:00016c3c       ??_C@_05LJGMCFOG@enum?5?$AA@ 200c6c3c     LIBCMTD:undname.obj
 0002:00016c44       ??_C@_09GAIEOBLP@volatile?5?$AA@ 200c6c44     LIBCMTD:undname.obj
 0002:00016c50       ??_C@_06LIJLOJAG@const?5?$AA@ 200c6c50     LIBCMTD:undname.obj
 0002:00016c58       ??_C@_0M@EALIELKG@cli?3?3array?$DM?$AA@ 200c6c58     LIBCMTD:undname.obj
 0002:00016c64       ??_C@_0O@GKABPPIF@cli?3?3pin_ptr?$DM?$AA@ 200c6c64     LIBCMTD:undname.obj
 0002:00016c74       ??_C@_02GOGNNPBN@?$CJ?$FL?$AA@ 200c6c74     LIBCMTD:undname.obj
 0002:00016c78       ??_C@_06EEGAIFAK@?$HLflat?$HN?$AA@ 200c6c78     LIBCMTD:undname.obj
 0002:00016c80       ??_C@_05JIBOFOHK@?$HLfor?5?$AA@ 200c6c80     LIBCMTD:undname.obj
 0002:00016c88       ??_C@_02MDINNEEG@s?5?$AA@  200c6c88     LIBCMTD:undname.obj
 0002:00016c90       ??_7DNameNode@@6B@         200c6c90     LIBCMTD:undname.obj
 0002:00016ca0       ??_7charNode@@6B@          200c6ca0     LIBCMTD:undname.obj
 0002:00016cb0       ??_7pcharNode@@6B@         200c6cb0     LIBCMTD:undname.obj
 0002:00016cc0       ??_7pDNameNode@@6B@        200c6cc0     LIBCMTD:undname.obj
 0002:00016cd0       ??_7DNameStatusNode@@6B@   200c6cd0     LIBCMTD:undname.obj
 0002:00016ce0       ??_7pairNode@@6B@          200c6ce0     LIBCMTD:undname.obj
 0002:00016cec       ??_C@_04OKOHEJBO@?5?$DP?$DP?5?$AA@ 200c6cec     LIBCMTD:undname.obj
 0002:00016cf4       ??_C@_1CA@JGBKKNCE@?$AA_?$AA_?$AAw?$AAs?$AAt?$AAr?$AAg?$AAt?$AAo?$AAl?$AAd?$AA1?$AA2?$AA_?$AAl?$AA?$AA@ 200c6cf4     LIBCMTD:wstrgtold.obj
 0002:00016d18       __load_config_used         200c6d18     LIBCMTD:loadcfg.obj
 0002:00016dc4       ??_R4bad_exception@std@@6B@ 200c6dc4     LIBCMTD:frame.obj
 0002:00016dd8       ??_R3bad_exception@std@@8  200c6dd8     LIBCMTD:frame.obj
 0002:00016de8       ??_R2bad_exception@std@@8  200c6de8     LIBCMTD:frame.obj
 0002:00016df4       ??_R1A@?0A@EA@bad_exception@std@@8 200c6df4     LIBCMTD:frame.obj
 0002:00016e10       ??_R1A@?0A@EA@exception@std@@8 200c6e10     LIBCMTD:frame.obj
 0002:00016e2c       ??_R3exception@std@@8      200c6e2c     LIBCMTD:frame.obj
 0002:00016e3c       ??_R2exception@std@@8      200c6e3c     LIBCMTD:frame.obj
 0002:00016e44       ??_R4type_info@@6B@        200c6e44     LIBCMTD:typinfo.obj
 0002:00016e58       ??_R3type_info@@8          200c6e58     LIBCMTD:typinfo.obj
 0002:00016e68       ??_R2type_info@@8          200c6e68     LIBCMTD:typinfo.obj
 0002:00016e70       ??_R1A@?0A@EA@type_info@@8 200c6e70     LIBCMTD:typinfo.obj
 0002:00016e8c       ??_R4exception@std@@6B@    200c6e8c     LIBCMTD:stdexcpt.obj
 0002:00016ea0       ??_R4bad_cast@std@@6B@     200c6ea0     LIBCMTD:stdexcpt.obj
 0002:00016eb4       ??_R3bad_cast@std@@8       200c6eb4     LIBCMTD:stdexcpt.obj
 0002:00016ec4       ??_R2bad_cast@std@@8       200c6ec4     LIBCMTD:stdexcpt.obj
 0002:00016ed0       ??_R1A@?0A@EA@bad_cast@std@@8 200c6ed0     LIBCMTD:stdexcpt.obj
 0002:00016eec       ??_R4bad_typeid@std@@6B@   200c6eec     LIBCMTD:stdexcpt.obj
 0002:00016f00       ??_R3bad_typeid@std@@8     200c6f00     LIBCMTD:stdexcpt.obj
 0002:00016f10       ??_R2bad_typeid@std@@8     200c6f10     LIBCMTD:stdexcpt.obj
 0002:00016f1c       ??_R1A@?0A@EA@bad_typeid@std@@8 200c6f1c     LIBCMTD:stdexcpt.obj
 0002:00016f38       ??_R4__non_rtti_object@std@@6B@ 200c6f38     LIBCMTD:stdexcpt.obj
 0002:00016f4c       ??_R3__non_rtti_object@std@@8 200c6f4c     LIBCMTD:stdexcpt.obj
 0002:00016f5c       ??_R2__non_rtti_object@std@@8 200c6f5c     LIBCMTD:stdexcpt.obj
 0002:00016f6c       ??_R1A@?0A@EA@__non_rtti_object@std@@8 200c6f6c     LIBCMTD:stdexcpt.obj
 0002:00016f88       ??_R4DNameNode@@6B@        200c6f88     LIBCMTD:undname.obj
 0002:00016f9c       ??_R3DNameNode@@8          200c6f9c     LIBCMTD:undname.obj
 0002:00016fac       ??_R2DNameNode@@8          200c6fac     LIBCMTD:undname.obj
 0002:00016fb4       ??_R1A@?0A@EA@DNameNode@@8 200c6fb4     LIBCMTD:undname.obj
 0002:00016fd0       ??_R4charNode@@6B@         200c6fd0     LIBCMTD:undname.obj
 0002:00016fe4       ??_R3charNode@@8           200c6fe4     LIBCMTD:undname.obj
 0002:00016ff4       ??_R2charNode@@8           200c6ff4     LIBCMTD:undname.obj
 0002:00017000       ??_R1A@?0A@EA@charNode@@8  200c7000     LIBCMTD:undname.obj
 0002:0001701c       ??_R4pcharNode@@6B@        200c701c     LIBCMTD:undname.obj
 0002:00017030       ??_R3pcharNode@@8          200c7030     LIBCMTD:undname.obj
 0002:00017040       ??_R2pcharNode@@8          200c7040     LIBCMTD:undname.obj
 0002:0001704c       ??_R1A@?0A@EA@pcharNode@@8 200c704c     LIBCMTD:undname.obj
 0002:00017068       ??_R4pDNameNode@@6B@       200c7068     LIBCMTD:undname.obj
 0002:0001707c       ??_R3pDNameNode@@8         200c707c     LIBCMTD:undname.obj
 0002:0001708c       ??_R2pDNameNode@@8         200c708c     LIBCMTD:undname.obj
 0002:00017098       ??_R1A@?0A@EA@pDNameNode@@8 200c7098     LIBCMTD:undname.obj
 0002:000170b4       ??_R4DNameStatusNode@@6B@  200c70b4     LIBCMTD:undname.obj
 0002:000170c8       ??_R3DNameStatusNode@@8    200c70c8     LIBCMTD:undname.obj
 0002:000170d8       ??_R2DNameStatusNode@@8    200c70d8     LIBCMTD:undname.obj
 0002:000170e4       ??_R1A@?0A@EA@DNameStatusNode@@8 200c70e4     LIBCMTD:undname.obj
 0002:00017100       ??_R4pairNode@@6B@         200c7100     LIBCMTD:undname.obj
 0002:00017114       ??_R3pairNode@@8           200c7114     LIBCMTD:undname.obj
 0002:00017124       ??_R2pairNode@@8           200c7124     LIBCMTD:undname.obj
 0002:00017130       ??_R1A@?0A@EA@pairNode@@8  200c7130     LIBCMTD:undname.obj
 0002:00017150       ___safe_se_handler_table   200c7150     <linker-defined>
 0002:00017180       ___rtc_iaa                 200c7180     LIBCMTD:initsect.obj
 0002:00017184       ___rtc_izz                 200c7184     LIBCMTD:initsect.obj
 0002:00017188       ___rtc_taa                 200c7188     LIBCMTD:initsect.obj
 0002:0001718c       ___rtc_tzz                 200c718c     LIBCMTD:initsect.obj
 0002:000179cc       __TI2?AVbad_exception@std@@ 200c79cc     LIBCMTD:frame.obj
 0002:000179dc       __CTA2?AVbad_exception@std@@ 200c79dc     LIBCMTD:frame.obj
 0002:000179e8       __CT??_R0?AVbad_exception@std@@@8??0bad_exception@std@@QAE@ABV01@@Z12 200c79e8     LIBCMTD:frame.obj
 0002:00017a04       __CT??_R0?AVexception@std@@@8??0exception@std@@QAE@ABV01@@Z12 200c7a04     LIBCMTD:frame.obj
 0002:00017cfc       __IMPORT_DESCRIPTOR_KERNEL32 200c7cfc     kernel32:KERNEL32.dll
 0002:00017d10       __NULL_IMPORT_DESCRIPTOR   200c7d10     kernel32:KERNEL32.dll
 0003:00000030       _voiceCommands             200c9030     ai_vcmd.obj
 0003:000000a8       _eventnames                200c90a8     bg_misc.obj
 0003:000001d8       _bg_itemlist               200c91d8     bg_misc.obj
 0003:0000095c       _bg_numItems               200c995c     bg_misc.obj
 0003:00000960       _pm_stopspeed              200c9960     bg_pmove.obj
 0003:00000964       _pm_duckScale              200c9964     bg_pmove.obj
 0003:00000968       _pm_swimScale              200c9968     bg_pmove.obj
 0003:0000096c       _pm_wadeScale              200c996c     bg_pmove.obj
 0003:00000970       _pm_accelerate             200c9970     bg_pmove.obj
 0003:00000974       _pm_airaccelerate          200c9974     bg_pmove.obj
 0003:00000978       _pm_wateraccelerate        200c9978     bg_pmove.obj
 0003:0000097c       _pm_flyaccelerate          200c997c     bg_pmove.obj
 0003:00000980       _pm_friction               200c9980     bg_pmove.obj
 0003:00000984       _pm_waterfriction          200c9984     bg_pmove.obj
 0003:00000988       _pm_flightfriction         200c9988     bg_pmove.obj
 0003:0000098c       _pm_spectatorfriction      200c998c     bg_pmove.obj
 0003:00000a18       _modNames                  200c9a18     g_combat.obj
 0003:00000f88       _fields                    200c9f88     g_spawn.obj
 0003:000010d8       _spawns                    200ca0d8     g_spawn.obj
 0003:000012c8       _bytedirs                  200ca2c8     q_math.obj
 0003:00001a60       _colorBlack                200caa60     q_math.obj
 0003:00001a70       _colorRed                  200caa70     q_math.obj
 0003:00001a80       _colorGreen                200caa80     q_math.obj
 0003:00001a90       _colorBlue                 200caa90     q_math.obj
 0003:00001aa0       _colorYellow               200caaa0     q_math.obj
 0003:00001ab0       _colorMagenta              200caab0     q_math.obj
 0003:00001ac0       _colorCyan                 200caac0     q_math.obj
 0003:00001ad0       _colorWhite                200caad0     q_math.obj
 0003:00001ae0       _colorLtGrey               200caae0     q_math.obj
 0003:00001af0       _colorMdGrey               200caaf0     q_math.obj
 0003:00001b00       _colorDkGrey               200cab00     q_math.obj
 0003:00001b10       _g_color_table             200cab10     q_math.obj
 0003:00001b90       _axisDefault               200cab90     q_math.obj
 0003:00001bb4       ?__LINE__Var@?1??ProjectPointOnPlane@@9@9 200cabb4     q_math.obj
 0003:00001bc0       ___security_cookie         200cabc0     LIBCMTD:gs_cookie.obj
 0003:00001bc4       ___security_cookie_complement 200cabc4     LIBCMTD:gs_cookie.obj
 0003:00001bc8       __fltused                  200cabc8     LIBCMTD:fpinit.obj
 0003:00001bcc       __ldused                   200cabcc     LIBCMTD:fpinit.obj
 0003:00001c5c       __pfnAllocHook             200cac5c     LIBCMTD:dbghook.obj
 0003:00001c64       ___flsindex                200cac64     LIBCMTD:tidtable.obj
 0003:00001c68       __cfltcvt_tab              200cac68     LIBCMTD:cmiscdat.obj
 0003:00001e00       __mbctype                  200cae00     LIBCMTD:mbctype.obj
 0003:00001f08       __mbcasemap                200caf08     LIBCMTD:mbctype.obj
 0003:00002008       ___initialmbcinfo          200cb008     LIBCMTD:mbctype.obj
 0003:0000222c       ___ptmbcinfo               200cb22c     LIBCMTD:mbctype.obj
 0003:00002324       ___mb_cur_max              200cb324     LIBCMTD:nlsdata.obj
 0003:00002328       ___wclocalestr             200cb328     LIBCMTD:nlsdata.obj
 0003:00002330       ___lc_time_c               200cb330     LIBCMTD:nlsdata.obj
 0003:00002494       ___ptlocinfo               200cb494     LIBCMTD:nlsdata.obj
 0003:00002498       ___initiallocinfo          200cb498     LIBCMTD:nlsdata.obj
 0003:00002550       ___initiallocalestructinfo 200cb550     LIBCMTD:nlsdata.obj
 0003:00002558       ___globallocalestatus      200cb558     LIBCMTD:glstatus.obj
 0003:0000255c       ___isa_enabled             200cb55c     LIBCMTD:cpu_disp.obj
 0003:00002648       __d_inf                    200cb648     LIBCMTD:util.obj
 0003:00002650       __d_ind                    200cb650     LIBCMTD:util.obj
 0003:00002658       __d_max                    200cb658     LIBCMTD:util.obj
 0003:00002660       __d_min                    200cb660     LIBCMTD:util.obj
 0003:00002668       __d_mzero                  200cb668     LIBCMTD:util.obj
 0003:00002690       ___nullstring              200cb690     LIBCMTD:output.obj
 0003:00002694       ___wnullstring             200cb694     LIBCMTD:output.obj
 0003:000026b0       ___abort_behavior          200cb6b0     LIBCMTD:abort.obj
 0003:000026b8       __iob                      200cb6b8     LIBCMTD:_file.obj
 0003:00002938       ___badioinfo               200cb938     LIBCMTD:ioinit.obj
 0003:00002978       __crtBreakAlloc            200cb978     LIBCMTD:dbgheap.obj
 0003:0000297c       ___crtDebugFillThreshold   200cb97c     LIBCMTD:dbgheap.obj
 0003:00002980       __crtDbgFlag               200cb980     LIBCMTD:dbgheap.obj
 0003:00002ae0       __pow10pos                 200cbae0     LIBCMTD:constpow.obj
 0003:00002c40       __pow10neg                 200cbc40     LIBCMTD:constpow.obj
 0003:00002da0       ___lconv                   200cbda0     LIBCMTD:lconv.obj
 0003:00002da4       ___lconv_static_decimal    200cbda4     LIBCMTD:lconv.obj
 0003:00002da8       ___lconv_c                 200cbda8     LIBCMTD:lconv.obj
 0003:00002df8       ___lconv_static_W_decimal  200cbdf8     LIBCMTD:lconv.obj
 0003:00002dfc       __CrtDbgMode               200cbdfc     LIBCMTD:dbgrptt.obj
 0003:00002e08       __CrtDbgFile               200cbe08     LIBCMTD:dbgrptt.obj
 0003:00002e14       __crtAssertBusy            200cbe14     LIBCMTD:dbgrptt.obj
 0003:00002e18       __pctype                   200cbe18     LIBCMTD:ctype.obj
 0003:00002e1c       __pwctype                  200cbe1c     LIBCMTD:ctype.obj
 0003:00002e20       __matherr_flag             200cbe20     LIBCMTD:matherr.obj
 0003:00002e40       __HUGE                     200cbe40     LIBCMTD:huge.obj
 0003:00002e50       __lookuptrailbytes         200cbe50     LIBCMTD:read.obj
 0003:00002f50       __NLG_Destination          200cbf50     LIBCMTD:exsup.obj
 0003:00002f60       __confh                    200cbf60     LIBCMTD:initcon.obj
 0003:00002f64       ??_R0?AVbad_exception@std@@@8 200cbf64     LIBCMTD:frame.obj
 0003:00002f84       ??_R0?AVexception@std@@@8  200cbf84     LIBCMTD:frame.obj
 0003:00002fa0       ??_R0?AVtype_info@@@8      200cbfa0     LIBCMTD:typinfo.obj
 0003:00002fb8       ??_R0?AVbad_cast@std@@@8   200cbfb8     LIBCMTD:stdexcpt.obj
 0003:00002fd4       ??_R0?AVbad_typeid@std@@@8 200cbfd4     LIBCMTD:stdexcpt.obj
 0003:00002ff4       ??_R0?AV__non_rtti_object@std@@@8 200cbff4     LIBCMTD:stdexcpt.obj
 0003:00003018       ??_R0?AVDNameNode@@@8      200cc018     LIBCMTD:undname.obj
 0003:00003030       ??_R0?AVcharNode@@@8       200cc030     LIBCMTD:undname.obj
 0003:00003048       ??_R0?AVpcharNode@@@8      200cc048     LIBCMTD:undname.obj
 0003:00003060       ??_R0?AVpDNameNode@@@8     200cc060     LIBCMTD:undname.obj
 0003:0000307c       ??_R0?AVDNameStatusNode@@@8 200cc07c     LIBCMTD:undname.obj
 0003:0000309c       ??_R0?AVpairNode@@@8       200cc09c     LIBCMTD:undname.obj
 0003:000031e4       _c_pmove                   200cc1e4     bg_pmove.obj
 0003:00047688       _remapCount                20110688     g_utils.obj
 0003:0004882c       _vec3_origin               2011182c     q_math.obj
 0003:0005eda8       ___fastflag                20127da8     LIBCMTD:fpinit.obj
 0003:0005edb0       __aenvptr                  20127db0     LIBCMTD:dllcrt0.obj
 0003:0005edb4       __wenvptr                  20127db4     LIBCMTD:dllcrt0.obj
 0003:0005edb8       ___pInvalidArgHandler      20127db8     LIBCMTD:invarg.obj
 0003:0005edbc       ___mbcodepage              20127dbc     LIBCMTD:mbctype.obj
 0003:0005edc0       ___ismbcodepage            20127dc0     LIBCMTD:mbctype.obj
 0003:0005edc4       ___mbulinfo                20127dc4     LIBCMTD:mbctype.obj
 0003:0005edd0       ___mblocalename            20127dd0     LIBCMTD:mbctype.obj
 0003:0005edd8       ___isa_available           20127dd8     LIBCMTD:cpu_disp.obj
 0003:0005eddc       ___favor                   20127ddc     LIBCMTD:cpu_disp.obj
 0003:0005ede0       ___locale_changed          20127de0     LIBCMTD:wsetloca.obj
 0003:0005ede8       __umaskval                 20127de8     LIBCMTD:crt0dat.obj
 0003:0005edec       __exitflag                 20127dec     LIBCMTD:crt0dat.obj
 0003:0005edf0       __C_Termination_Done       20127df0     LIBCMTD:crt0dat.obj
 0003:0005edf4       ___winitenv                20127df4     LIBCMTD:crt0dat.obj
 0003:0005edf8       ___initenv                 20127df8     LIBCMTD:crt0dat.obj
 0003:0005edfc       ___argc                    20127dfc     LIBCMTD:crt0dat.obj
 0003:0005ee00       ___argv                    20127e00     LIBCMTD:crt0dat.obj
 0003:0005ee04       ___wargv                   20127e04     LIBCMTD:crt0dat.obj
 0003:0005ee08       __environ                  20127e08     LIBCMTD:crt0dat.obj
 0003:0005ee0c       __wenviron                 20127e0c     LIBCMTD:crt0dat.obj
 0003:0005ee10       __pgmptr                   20127e10     LIBCMTD:crt0dat.obj
 0003:0005ee14       __wpgmptr                  20127e14     LIBCMTD:crt0dat.obj
 0003:0005ee18       __C_Exit_Done              20127e18     LIBCMTD:crt0dat.obj
 0003:0005ee1c       ___error_mode              20127e1c     LIBCMTD:errmode.obj
 0003:0005ee20       __cflush                   20127e20     LIBCMTD:_file.obj
 0003:0005ee50       ___app_type                20127e50     LIBCMTD:crt0msg.obj
 0003:0005f480       __crtheap                  20128480     LIBCMTD:heapinit.obj
 0003:0005f488       ___pioinfo                 20128488     LIBCMTD:ioinit.obj
 0003:0005f690       ___crtDebugCheckCount      20128690     LIBCMTD:dbgheap.obj
 0003:0005f698       ?_pfnDumpClient@@3P6AXPAXI@ZA 20128698     LIBCMTD:dbgheap.obj
 0003:0005f820       __outputformat             20128820     LIBCMTD:outputformat.obj
 0003:0005f824       ___lconv_static_null       20128824     LIBCMTD:lconv.obj
 0003:0005f828       ___lconv_static_W_null     20128828     LIBCMTD:lconv.obj
 0003:0005f834       ?__pInconsistency@@3P6AXXZA 20128834     LIBCMTD:hooks.obj
 0003:0005f838       ?_pnhHeap@@3P6AHI@ZA       20128838     LIBCMTD:handler.obj
 0003:0005f83c       ___pPurecall               2012883c     LIBCMTD:inithelp.obj
 0003:0005f844       __stdbuf                   20128844     LIBCMTD:_sftbuf.obj
 0003:0005f84c       __newmode                  2012884c     LIBCMTD:_newmode.obj
 0003:0005f850       ?g_OutOfMemoryExceptionCallback@@3P6GPAXXZA 20128850     LIBCMTD:frame.obj
 0003:0005f85c       ?pArgList@UnDecorator@@0PAVReplicator@@A 2012885c     LIBCMTD:undname.obj
 0003:0005f860       ?pZNameList@UnDecorator@@0PAVReplicator@@A 20128860     LIBCMTD:undname.obj
 0003:0005f864       ?pTemplateArgList@UnDecorator@@0PAVReplicator@@A 20128864     LIBCMTD:undname.obj
 0003:0005f868       ?gName@UnDecorator@@0PBDB  20128868     LIBCMTD:undname.obj
 0003:0005f86c       ?name@UnDecorator@@0PBDB   2012886c     LIBCMTD:undname.obj
 0003:0005f870       ?outputString@UnDecorator@@0PADA 20128870     LIBCMTD:undname.obj
 0003:0005f874       ?maxStringLength@UnDecorator@@0HA 20128874     LIBCMTD:undname.obj
 0003:0005f878       ?disableFlags@UnDecorator@@0KA 20128878     LIBCMTD:undname.obj
 0003:0005f87c       ?fExplicitTemplateParams@UnDecorator@@0_NA 2012887c     LIBCMTD:undname.obj
 0003:0005f87d       ?fGetTemplateArgumentList@UnDecorator@@0_NA 2012887d     LIBCMTD:undname.obj
 0003:0005f880       ?m_pGetParameter@UnDecorator@@0P6APADJ@ZA 20128880     LIBCMTD:undname.obj
 0003:0005f8e8       ?nodes@?1??make@DNameStatusNode@@SAPAV2@W4DNameStatus@@@Z@4PAV2@A 201288e8     LIBCMTD:undname.obj
 0003:0005f918       ??_B?1??make@DNameStatusNode@@SAPAV1@W4DNameStatus@@@Z@51 20128918     LIBCMTD:undname.obj
 0003:0005f920       _remappedShaders           20128920     <common>
 0003:00063b20       _neutralObelisk            2012cb20     <common>
 0003:00063b40       _teamgame                  2012cb40     <common>
 0003:00063b64       _pushed_p                  2012cb64     <common>
 0003:00063b80       _pushed                    2012cb80     <common>
 0003:0006bb80       _g_listEntity              20134b80     <common>
 0003:0006bca0       _g_rankings                20134ca0     <common>
 0003:0006bdc0       _g_podiumDrop              20134dc0     <common>
 0003:0006bee0       _g_podiumDist              20134ee0     <common>
 0003:0006c000       _pmove_msec                20135000     <common>
 0003:0006c120       _pmove_fixed               20135120     <common>
 0003:0006c240       _g_logSync                 20135240     <common>
 0003:0006c360       _g_smoothClients           20135360     <common>
 0003:0006c480       _g_log                     20135480     <common>
 0003:0006c5a0       _g_clients                 201355a0     <common>
 0003:000787a0       _g_filterBan               201417a0     <common>
 0003:000788c0       _g_banIPs                  201418c0     <common>
 0003:000789e0       _g_teamForceBalance        201419e0     <common>
 0003:00078b00       _g_teamAutoJoin            20141b00     <common>
 0003:00078c20       _g_allowVote               20141c20     <common>
 0003:00078d40       _g_blood                   20141d40     <common>
 0003:00078e60       _g_doWarmup                20141e60     <common>
 0003:00078f80       _g_warmup                  20141f80     <common>
 0003:000790a0       _g_motd                    201420a0     <common>
 0003:000791c0       _g_synchronousClients      201421c0     <common>
 0003:000792e0       _g_weaponTeamRespawn       201422e0     <common>
 0003:00079400       _g_weaponRespawn           20142400     <common>
 0003:00079520       _g_debugDamage             20142520     <common>
 0003:00079640       _g_debugAlloc              20142640     <common>
 0003:00079760       _g_debugMove               20142760     <common>
 0003:00079880       _g_inactivity              20142880     <common>
 0003:000799a0       _g_forcerespawn            201429a0     <common>
 0003:00079ac0       _g_quadfactor              20142ac0     <common>
 0003:00079be0       _g_knockback               20142be0     <common>
 0003:00079d00       _g_speed                   20142d00     <common>
 0003:00079e20       _g_gravity                 20142e20     <common>
 0003:00079f40       _g_needpass                20142f40     <common>
 0003:0007a060       _g_password                20143060     <common>
 0003:0007a180       _g_friendlyFire            20143180     <common>
 0003:0007a2a0       _g_capturelimit            201432a0     <common>
 0003:0007a3c0       _g_timelimit               201433c0     <common>
 0003:0007a4e0       _g_fraglimit               201434e0     <common>
 0003:0007a600       _g_dmflags                 20143600     <common>
 0003:0007a720       _g_restarted               20143720     <common>
 0003:0007a840       _g_maxGameClients          20143840     <common>
 0003:0007a960       _g_maxclients              20143960     <common>
 0003:0007aa80       _g_cheats                  20143a80     <common>
 0003:0007aba0       _g_dedicated               20143ba0     <common>
 0003:0007acc0       _g_gametype                20143cc0     <common>
 0003:0007ade0       _g_entities                20143de0     <common>
 0003:00144e00       _level                     2020de00     <common>
 0003:00147200       _itemRegistered            20210200     <common>
 0003:00147600       _bot_minplayers            20210600     <common>
 0003:00147710       _g_numArenas               20210710     <common>
 0003:00147714       _podium3                   20210714     <common>
 0003:00147718       _podium2                   20210718     <common>
 0003:0014771c       _podium1                   2021071c     <common>
 0003:00147720       _pml                       20210720     <common>
 0003:001477ac       _pm                        202107ac     <common>
 0003:001477c0       _ctftaskpreferences        202107c0     <common>
 0003:001481c0       _bot_interbreedwrite       202111c0     <common>
 0003:001482e0       _bot_interbreedcycle       202112e0     <common>
 0003:00148400       _bot_interbreedbots        20211400     <common>
 0003:00148520       _bot_interbreedchar        20211520     <common>
 0003:00148640       _bot_developer             20211640     <common>
 0003:00148760       _bot_testclusters          20211760     <common>
 0003:00148880       _bot_testsolid             20211880     <common>
 0003:001489a0       _bot_report                202119a0     <common>
 0003:00148ac0       _bot_pause                 20211ac0     <common>
 0003:00148be0       _bot_saveroutingcache      20211be0     <common>
 0003:00148d00       _bot_memorydump            20211d00     <common>
 0003:00148e20       _bot_thinktime             20211e20     <common>
 0003:00148f30       _bot_interbreedmatchcount  20211f30     <common>
 0003:00148f34       _bot_interbreed            20211f34     <common>
 0003:00148f38       _regularupdate_time        20211f38     <common>
 0003:00148f3c       _numbots                   20211f3c     <common>
 0003:00148f40       _botstates                 20211f40     <common>
 0003:00149040       _floattime                 20212040     <common>
 0003:00149060       _ctf_blueflag              20212060     <common>
 0003:001490a0       _ctf_redflag               202120a0     <common>
 0003:001490e0       _bot_challenge             202120e0     <common>
 0003:00149200       _bot_testrchat             20212200     <common>
 0003:00149320       _bot_nochat                20212320     <common>
 0003:00149440       _bot_fastchat              20212440     <common>
 0003:00149560       _bot_rocketjump            20212560     <common>
 0003:00149680       _bot_grapple               20212680     <common>
 0003:00149790       _maxclients                20212790     <common>
 0003:00149794       _gametype                  20212794     <common>
 0003:00149798       _blue_numaltroutegoals     20212798     <common>
 0003:001497a0       _blue_altroutegoals        202127a0     <common>
 0003:00149aa0       _red_numaltroutegoals      20212aa0     <common>
 0003:00149ac0       _red_altroutegoals         20212ac0     <common>
 0003:00149dc0       _altroutegoals_setup       20212dc0     <common>
 0003:00149dc4       _max_bspmodelindex         20212dc4     <common>
 0003:00149dc8       _lastteleport_time         20212dc8     <common>
 0003:00149dd0       _lastteleport_origin       20212dd0     <common>
 0003:00149de0       _g_spSkill                 20212de0     <common>
 0003:00149f00       _bot_predictobstacles      20212f00     <common>
 0003:0014a010       _botai_freewaypoints       20213010     <common>
 0003:0014a020       _botai_waypoints           20213020     <common>
 0003:0014d220       _nodeswitch                20216220     <common>
 0003:0014eed0       _numnodeswitches           20217ed0     <common>
 0003:0014eee0       _notleader                 20217ee0     <common>
 0003:0014efe0       __pReportHookListW         20217fe0     <common>
 0003:0014efe4       __pReportHookList          20217fe4     <common>
 0003:0014efe8       __pfnReportHook            20217fe8     <common>
 0003:0014efec       __nhandle                  20217fec     <common>
 0003:0014f000       __bufin                    20218000     <common>
 0003:00150000       ___piob                    20219000     <common>
 0003:00150004       __nstream                  20219004     <common>
 0003:00150008       ___dyn_tls_init_callback   20219008     <common>
 0003:0015000c       ___onexitend               2021900c     <common>
 0003:00150010       ___onexitbegin             20219010     <common>
 0003:00150014       ___mbctype_initialized     20219014     <common>
 0003:00150018       ___env_initialized         20219018     <common>
 0003:0015001c       __pmatherr                 2021901c     <common>
 0003:00150020       ___use_sse2_mathfcns       20219020     <common>
 0003:00150024       ___unguarded_readlc_active 20219024     <common>
 0003:00150028       ___setlc_active            20219028     <common>
 0003:00150040       _encodedKERNEL32Functions  20219040     <common>
 0003:001500c4       __debugger_hook_dummy      202190c4     <common>
 0003:001500c8       __acmdln                   202190c8     <common>

 entry point at        0001:0005f480

 Static symbols

 0000:ffddc000       .debug$S                   20000000     kernel32:KERNEL32.dll
 0000:ffddc000       .debug$S                   20000000     kernel32:KERNEL32.dll
 0000:ffddc000       .debug$S                   20000000     kernel32:KERNEL32.dll
 0000:ffddc000       .debug$S                   20000000     kernel32:KERNEL32.dll
 0000:ffddc000       .debug$S                   20000000     kernel32:KERNEL32.dll
 0000:ffddc000       .debug$S                   20000000     kernel32:KERNEL32.dll
 0000:ffddc000       .debug$S                   20000000     kernel32:KERNEL32.dll
 0000:ffddc000       .debug$S                   20000000     kernel32:KERNEL32.dll
 0000:ffddc000       .debug$S                   20000000     kernel32:KERNEL32.dll
 0000:ffddc000       .debug$S                   20000000     kernel32:KERNEL32.dll
 0000:ffddc000       .debug$S                   20000000     kernel32:KERNEL32.dll
 0000:ffddc000       .debug$S                   20000000     kernel32:KERNEL32.dll
 0000:ffddc000       .debug$S                   20000000     kernel32:KERNEL32.dll
 0000:ffddc000       .debug$S                   20000000     kernel32:KERNEL32.dll
 0000:ffddc000       .debug$S                   20000000     kernel32:KERNEL32.dll
 0000:ffddc000       .debug$S                   20000000     kernel32:KERNEL32.dll
 0000:ffddc000       .debug$S                   20000000     kernel32:KERNEL32.dll
 0000:ffddc000       .debug$S                   20000000     kernel32:KERNEL32.dll
 0000:ffddc000       .debug$S                   20000000     kernel32:KERNEL32.dll
 0000:ffddc000       .debug$S                   20000000     kernel32:KERNEL32.dll
 0000:ffddc000       .debug$S                   20000000     kernel32:KERNEL32.dll
 0000:ffddc000       .debug$S                   20000000     kernel32:KERNEL32.dll
 0000:ffddc000       .debug$S                   20000000     kernel32:KERNEL32.dll
 0000:ffddc000       .debug$S                   20000000     kernel32:KERNEL32.dll
 0000:ffddc000       .debug$S                   20000000     kernel32:KERNEL32.dll
 0000:ffddc000       .debug$S                   20000000     kernel32:KERNEL32.dll
 0000:ffddc000       .debug$S                   20000000     kernel32:KERNEL32.dll
 0000:ffddc000       .debug$S                   20000000     kernel32:KERNEL32.dll
 0000:ffddc000       .debug$S                   20000000     kernel32:KERNEL32.dll
 0000:ffddc000       .debug$S                   20000000     kernel32:KERNEL32.dll
 0000:ffddc000       .debug$S                   20000000     kernel32:KERNEL32.dll
 0000:ffddc000       .debug$S                   20000000     kernel32:KERNEL32.dll
 0000:ffddc000       .debug$S                   20000000     kernel32:KERNEL32.dll
 0000:ffddc000       .debug$S                   20000000     kernel32:KERNEL32.dll
 0000:ffddc000       .debug$S                   20000000     kernel32:KERNEL32.dll
 0000:ffddc000       .debug$S                   20000000     kernel32:KERNEL32.dll
 0000:ffddc000       .debug$S                   20000000     kernel32:KERNEL32.dll
 0000:ffddc000       .debug$S                   20000000     kernel32:KERNEL32.dll
 0000:ffddc000       .debug$S                   20000000     kernel32:KERNEL32.dll
 0000:ffddc000       .debug$S                   20000000     kernel32:KERNEL32.dll
 0000:ffddc000       .debug$S                   20000000     kernel32:KERNEL32.dll
 0000:ffddc000       .debug$S                   20000000     kernel32:KERNEL32.dll
 0000:ffddc000       .debug$S                   20000000     kernel32:KERNEL32.dll
 0000:ffddc000       .debug$S                   20000000     kernel32:KERNEL32.dll
 0000:ffddc000       .debug$S                   20000000     kernel32:KERNEL32.dll
 0000:ffddc000       .debug$S                   20000000     kernel32:KERNEL32.dll
 0000:ffddc000       .debug$S                   20000000     kernel32:KERNEL32.dll
 0000:ffddc000       .debug$S                   20000000     kernel32:KERNEL32.dll
 0000:ffddc000       .debug$S                   20000000     kernel32:KERNEL32.dll
 0000:ffddc000       .debug$S                   20000000     kernel32:KERNEL32.dll
 0000:ffddc000       .debug$S                   20000000     kernel32:KERNEL32.dll
 0000:ffddc000       .debug$S                   20000000     kernel32:KERNEL32.dll
 0000:ffddc000       .debug$S                   20000000     kernel32:KERNEL32.dll
 0000:ffddc000       .debug$S                   20000000     kernel32:KERNEL32.dll
 0000:ffddc000       .debug$S                   20000000     kernel32:KERNEL32.dll
 0000:ffddc000       .debug$S                   20000000     kernel32:KERNEL32.dll
 0000:ffddc000       .debug$S                   20000000     kernel32:KERNEL32.dll
 0000:ffddc000       .debug$S                   20000000     kernel32:KERNEL32.dll
 0000:ffddc000       .debug$S                   20000000     kernel32:KERNEL32.dll
 0000:ffddc000       .debug$S                   20000000     kernel32:KERNEL32.dll
 0000:ffddc000       .debug$S                   20000000     kernel32:KERNEL32.dll
 0000:ffddc000       .debug$S                   20000000     kernel32:KERNEL32.dll
 0000:ffddc000       .debug$S                   20000000     kernel32:KERNEL32.dll
 0000:ffddc000       .debug$S                   20000000     kernel32:KERNEL32.dll
 0000:ffddc000       .debug$S                   20000000     kernel32:KERNEL32.dll
 0000:ffddc000       .debug$S                   20000000     kernel32:KERNEL32.dll
 0000:ffddc000       .debug$S                   20000000     kernel32:KERNEL32.dll
 0000:ffddc000       .debug$S                   20000000     kernel32:KERNEL32.dll
 0000:ffddc000       .debug$S                   20000000     kernel32:KERNEL32.dll
 0000:ffddc000       .debug$S                   20000000     kernel32:KERNEL32.dll
 0000:ffddc000       .debug$S                   20000000     kernel32:KERNEL32.dll
 0000:ffddc000       .debug$S                   20000000     kernel32:KERNEL32.dll
 0000:ffddc000       .debug$S                   20000000     kernel32:KERNEL32.dll
 0000:ffddc000       .debug$S                   20000000     kernel32:KERNEL32.dll
 0000:ffddc000       .debug$S                   20000000     kernel32:KERNEL32.dll
 0000:ffddc000       .debug$S                   20000000     kernel32:KERNEL32.dll
 0000:ffddc000       .debug$S                   20000000     kernel32:KERNEL32.dll
 0000:ffddc000       .debug$S                   20000000     kernel32:KERNEL32.dll
 0000:ffddc000       .debug$S                   20000000     kernel32:KERNEL32.dll
 0000:ffddc000       .debug$S                   20000000     kernel32:KERNEL32.dll
 0000:ffddc000       .debug$S                   20000000     kernel32:KERNEL32.dll
 0000:ffddc000       .debug$S                   20000000     kernel32:KERNEL32.dll
 0000:ffddc000       .debug$S                   20000000     kernel32:KERNEL32.dll
 0000:ffddc000       .debug$S                   20000000     kernel32:KERNEL32.dll
 0001:00002fcc       $LN14                      20003fcc     ai_chat.obj
 0001:000034d4       $LN17                      200044d4     ai_chat.obj
 0001:00003500       $LN16                      20004500     ai_chat.obj
 0001:00004178       $LN39                      20005178     ai_cmd.obj
 0001:00006c3c       $LN17                      20007c3c     ai_cmd.obj
 0001:000074fc       $LN18                      200084fc     ai_cmd.obj
 0001:00007830       _VectorLength              20008830 f   ai_cmd.obj
 0001:0000f4c0       _VectorCompare             200104c0 f   ai_dmnet.obj
 0001:0000f550       _VectorLength              20010550 f   ai_dmnet.obj
 0001:0000f5e0       _VectorLengthSquared       200105e0 f   ai_dmnet.obj
 0001:00014f44       $LN41                      20015f44     ai_dmq3.obj
 0001:00014f5c       $LN40                      20015f5c     ai_dmq3.obj
 0001:00014f70       $LN42                      20015f70     ai_dmq3.obj
 0001:0001d7f0       _CrossProduct              2001e7f0 f   ai_dmq3.obj
 0001:0001dec0       _VectorCompare             2001eec0 f   ai_dmq3.obj
 0001:0001df50       _VectorLength              2001ef50 f   ai_dmq3.obj
 0001:0001dfe0       _VectorLengthSquared       2001efe0 f   ai_dmq3.obj
 0001:0001fb40       $LN11                      20020b40     ai_main.obj
 0001:00021564       $LN24                      20022564     ai_main.obj
 0001:00021c00       $LN22                      20022c00     ai_main.obj
 0001:000225c0       $LN11                      200235c0     ai_team.obj
 0001:000251c0       $LN23                      200261c0     ai_team.obj
 0001:0002665c       $LN33                      2002765c     bg_misc.obj
 0001:00026b08       $LN13                      20027b08     bg_misc.obj
 0001:00026e44       $LN12                      20027e44     bg_misc.obj
 0001:00027b90       _PM_Accelerate             20028b90 f   bg_pmove.obj
 0001:00027d70       _PM_AirMove                20028d70 f   bg_pmove.obj
 0001:00027f80       _PM_Animate                20028f80 f   bg_pmove.obj
 0001:00027fd0       _PM_BeginWeaponChange      20028fd0 f   bg_pmove.obj
 0001:00028070       _PM_CheckDuck              20029070 f   bg_pmove.obj
 0001:000284a0       _PM_CheckJump              200294a0 f   bg_pmove.obj
 0001:000285c0       _PM_CheckWaterJump         200295c0 f   bg_pmove.obj
 0001:000289b0       _PM_CmdScale               200299b0 f   bg_pmove.obj
 0001:00028ac0       _PM_ContinueLegsAnim       20029ac0 f   bg_pmove.obj
 0001:00028b10       _PM_ContinueTorsoAnim      20029b10 f   bg_pmove.obj
 0001:00028b60       _PM_CorrectAllSolid        20029b60 f   bg_pmove.obj
 0001:00028e20       _PM_CrashLand              20029e20 f   bg_pmove.obj
 0001:000290c0       _PM_DeadMove               2002a0c0 f   bg_pmove.obj
 0001:00029220       _PM_DropTimers             2002a220 f   bg_pmove.obj
 0001:00029320       _PM_FinishWeaponChange     2002a320 f   bg_pmove.obj
 0001:000293c0       _PM_FlyMove                2002a3c0 f   bg_pmove.obj
 0001:00029580       _PM_FootstepForSurface     2002a580 f   bg_pmove.obj
 0001:000295c0       _PM_Footsteps              2002a5c0 f   bg_pmove.obj
 0001:00029880       _PM_ForceLegsAnim          2002a880 f   bg_pmove.obj
 0001:000298b0       _PM_Friction               2002a8b0 f   bg_pmove.obj
 0001:00029b80       _PM_GrappleMove            2002ab80 f   bg_pmove.obj
 0001:00029ef0       _PM_GroundTrace            2002aef0 f   bg_pmove.obj
 0001:0002a2a0       _PM_GroundTraceMissed      2002b2a0 f   bg_pmove.obj
 0001:0002a460       _PM_NoclipMove             2002b460 f   bg_pmove.obj
 0001:0002a8a0       _PM_SetMovementDir         2002b8a0 f   bg_pmove.obj
 0001:0002aa70       _PM_SetWaterLevel          2002ba70 f   bg_pmove.obj
 0001:0002ac70       _PM_StartLegsAnim          2002bc70 f   bg_pmove.obj
 0001:0002acd0       _PM_StartTorsoAnim         2002bcd0 f   bg_pmove.obj
 0001:0002ad20       _PM_TorsoAnimation         2002bd20 f   bg_pmove.obj
 0001:0002ae80       _PM_WalkMove               2002be80 f   bg_pmove.obj
 0001:0002b3e0       _PM_WaterEvents            2002c3e0 f   bg_pmove.obj
 0001:0002b480       _PM_WaterJumpMove          2002c480 f   bg_pmove.obj
 0001:0002b520       _PM_WaterMove              2002c520 f   bg_pmove.obj
 0001:0002b8b0       _PM_Weapon                 2002c8b0 f   bg_pmove.obj
 0001:0002bd0c       $LN39                      2002cd0c     bg_pmove.obj
 0001:0002c3a0       _VectorLength              2002d3a0 f   bg_pmove.obj
 0001:0002c430       _CrossProduct              2002d430 f   bg_slidemove.obj
 0001:0002e00c       $LN26                      2002f00c     g_active.obj
 0001:0002e020       $LN25                      2002f020     g_active.obj
 0001:0002fcc0       _CelebrateStart            20030cc0 f   g_arenas.obj
 0001:0002fd30       _CelebrateStop             20030d30 f   g_arenas.obj
 0001:0002fd80       _PodiumPlacementThink      20030d80 f   g_arenas.obj
 0001:00030940       _SpawnModelOnVictoryPad    20031940 f   g_arenas.obj
 0001:000311a0       _SpawnPodium               200321a0 f   g_arenas.obj
 0001:00031760       _AddBotToSpawnQueue        20032760 f   g_bot.obj
 0001:000317e0       _G_AddBot                  200327e0 f   g_bot.obj
 0001:00032820       _G_LoadArenas              20033820 f   g_bot.obj
 0001:000329d0       _G_LoadArenasFromFile      200339d0 f   g_bot.obj
 0001:00032b00       _G_LoadBots                20033b00 f   g_bot.obj
 0001:00032c80       _G_LoadBotsFromFile        20033c80 f   g_bot.obj
 0001:00033100       _G_SpawnBots               20034100 f   g_bot.obj
 0001:000332a0       _PlayerIntroSound          200342a0 f   g_bot.obj
 0001:000338e0       _ClientCleanName           200348e0 f   g_client.obj
 0001:000352cc       $LN14                      200362cc     g_client.obj
 0001:000361f0       _VectorLength              200371f0 f   g_client.obj
 0001:000382d0       _Cmd_Say_f                 200392d0 f   g_cmds.obj
 0001:00038974       $LN12                      20039974     g_cmds.obj
 0001:00038990       _Cmd_Tell_f                20039990 f   g_cmds.obj
 0001:00038ac0       _Cmd_VoiceTaunt_f          20039ac0 f   g_cmds.obj
 0001:00038db0       _Cmd_VoiceTell_f           20039db0 f   g_cmds.obj
 0001:00038ee0       _Cmd_Voice_f               20039ee0 f   g_cmds.obj
 0001:00039860       _G_SayTo                   2003a860 f   g_cmds.obj
 0001:00039a10       _G_VoiceTo                 2003aa10 f   g_cmds.obj
 0001:0003c150       _VectorLength              2003d150 f   g_combat.obj
 0001:0003e8d4       $LN30                      2003f8d4     g_items.obj
 0001:00041568       $LN16                      20042568     g_main.obj
 0001:00041680       _CrossProduct              20042680 f   g_misc.obj
 0001:00041890       _InitShooter_Finish        20042890 f   g_misc.obj
 0001:00043340       _VectorLength              20044340 f   g_missile.obj
 0001:00048670       $LN9                       20049670     g_mover.obj
 0001:00048fe0       _Touch_DoorTriggerSpectator 20049fe0 f   g_mover.obj
 0001:00049460       _VectorInverse             2004a460 f   g_mover.obj
 0001:000494f0       _VectorLength              2004a4f0 f   g_mover.obj
 0001:00049d38       $LN15                      2004ad38     g_spawn.obj
 0001:0004a500       _AddIP                     2004b500 f   g_svcmds.obj
 0001:0004aad0       _StringToFilter            2004bad0 f   g_svcmds.obj
 0001:0004aecc       $LN23                      2004becc     g_svcmds.obj
 0001:0004b090       _UpdateIPBans              2004c090 f   g_svcmds.obj
 0001:0004e4d0       _target_location_linkup    2004f4d0 f   g_target.obj
 0001:0004eee0       _SortClients               2004fee0 f   g_team.obj
 0001:00050ec0       _VectorLength              20051ec0 f   g_team.obj
 0001:00051a30       _VectorCompare             20052a30 f   g_trigger.obj
 0001:00052170       _CrossProduct              20053170 f   g_utils.obj
 0001:00053800       _VectorCompare             20054800 f   g_utils.obj
 0001:000545c0       _CrossProduct              200555c0 f   g_weapon.obj
 0001:000548a0       $LN21                      200558a0     g_weapon.obj
 0001:00056ee0       _CrossProduct              20057ee0 f   q_math.obj
 0001:00058a00       _VectorLength              20059a00 f   q_math.obj
 0001:0005af80       _SkipWhitespace            2005bf80 f   q_shared.obj
 0001:0005b3c0       $$000000                   2005c3c0     LIBCMTD:strcat.obj
 0001:0005b4c0       $$000000                   2005c4c0     LIBCMTD:strlen.obj
 0001:0005b550       $$000000                   2005c550     LIBCMTD:strncpy.obj
 0001:0005b8e0       $$000000                   2005c8e0     LIBCMTD:sqrt.obj
 0001:0005bd90       _vscan_fn                  2005cd90 f   LIBCMTD:sscanf.obj
 0001:0005bf60       $$000000                   2005cf60     LIBCMTD:memcpy.obj
 0001:0005c1b0       LeadUpVec                  2005d1b0     LIBCMTD:memcpy.obj
 0001:0005c22c       UnwindUpVec                2005d22c     LIBCMTD:memcpy.obj
 0001:0005c298       TrailUpVec                 2005d298     LIBCMTD:memcpy.obj
 0001:0005c33c       LeadDownVec                2005d33c     LIBCMTD:memcpy.obj
 0001:0005c3c8       UnwindDownVec              2005d3c8     LIBCMTD:memcpy.obj
 0001:0005c434       TrailDownVec               2005d434     LIBCMTD:memcpy.obj
 0001:0005c5b0       $$000000                   2005d5b0     LIBCMTD:memset.obj
 0001:0005c740       $$000000                   2005d740     LIBCMTD:strcmp.obj
 0001:0005c7d0       $$000000                   2005d7d0     LIBCMTD:memmove.obj
 0001:0005ca20       LeadUpVec                  2005da20     LIBCMTD:memmove.obj
 0001:0005ca9c       UnwindUpVec                2005da9c     LIBCMTD:memmove.obj
 0001:0005cb08       TrailUpVec                 2005db08     LIBCMTD:memmove.obj
 0001:0005cbac       LeadDownVec                2005dbac     LIBCMTD:memmove.obj
 0001:0005cc38       UnwindDownVec              2005dc38     LIBCMTD:memmove.obj
 0001:0005cca4       TrailDownVec               2005dca4     LIBCMTD:memmove.obj
 0001:0005ce20       $$000000                   2005de20     LIBCMTD:strstr.obj
 0001:0005d330       $$000000                   2005e330     LIBCMTD:ftol2.obj
 0001:0005d7a0       $$000000                   2005e7a0     LIBCMTD:strchr.obj
 0001:0005d8d0       $$000000                   2005e8d0     LIBCMTD:cos.obj
 0001:0005da00       $$000000                   2005ea00     LIBCMTD:sin.obj
 0001:0005db30       $$000000                   2005eb30     LIBCMTD:chkstk.obj
 0001:0005de00       $$000000                   2005ee00     LIBCMTD:ceil_pentium4.obj
 0001:0005e4d0       _shortsort                 2005f4d0 f   LIBCMTD:qsort.obj
 0001:0005e540       _swap                      2005f540 f   LIBCMTD:qsort.obj
 0001:0005e5a0       $$000000                   2005f5a0     LIBCMTD:87ctriga.obj
 0001:0005f1f0       _swprintf                  200601f0 f   LIBCMTD:wassert.obj
 0001:0005f4b0       ___DllMainCRTStartup       200604b0 f   LIBCMTD:dllcrt0.obj
 0001:0005f6c0       ___IsPackagedAppHelper     200606c0 f   LIBCMTD:winapisupp.obj
 0001:000601f0       ?strtoxq@@YA_KPAUlocaleinfo_struct@@PBDPAPBDHH@Z 200611f0 f   LIBCMTD:strtoq.obj
 0001:000609a0       ?strtoxl@@YAKPAUlocaleinfo_struct@@PBDPAPBDHH@Z 200619a0 f   LIBCMTD:strtol.obj
 0001:00061ed0       __cftoe2_l                 20062ed0 f   LIBCMTD:cvt.obj
 0001:00062530       __cftof2_l                 20063530 f   LIBCMTD:cvt.obj
 0001:00062f50       __shift                    20063f50 f   LIBCMTD:cvt.obj
 0001:00063000       $$000000                   20064000     LIBCMTD:87disp.obj
 0001:000631d0       $$000000                   200641d0     LIBCMTD:genexcep.obj
 0001:00063230       $$000000                   20064230     LIBCMTD:common.obj
 0001:00064a78       $LN137                     20065a78     LIBCMTD:strgtold.obj
 0001:00064aa8       $LN138                     20065aa8     LIBCMTD:strgtold.obj
 0001:00064ab8       $LN134                     20065ab8     LIBCMTD:strgtold.obj
 0001:00064af4       $LN139                     20065af4     LIBCMTD:strgtold.obj
 0001:00064b00       $LN135                     20065b00     LIBCMTD:strgtold.obj
 0001:00064b3c       $LN140                     20065b3c     LIBCMTD:strgtold.obj
 0001:00064b48       $LN136                     20065b48     LIBCMTD:strgtold.obj
 0001:00065240       ?CPtoLocaleName@@YAPB_WH@Z 20066240 f   LIBCMTD:mbctype.obj
 0001:000652b4       $LN10                      200662b4     LIBCMTD:mbctype.obj
 0001:000652c8       $LN9                       200662c8     LIBCMTD:mbctype.obj
 0001:000652e0       ?getSystemCP@@YAHH@Z       200662e0 f   LIBCMTD:mbctype.obj
 0001:000653f0       ?setSBCS@@YAXPAUthreadmbcinfostruct@@@Z 200663f0 f   LIBCMTD:mbctype.obj
 0001:000654d0       ?setSBUpLow@@YAXPAUthreadmbcinfostruct@@@Z 200664d0 f   LIBCMTD:mbctype.obj
 0001:00066bb0       ___check_float_string      20067bb0 f   LIBCMTD:input.obj
 0001:00066cb0       __hextodec                 20067cb0 f   LIBCMTD:input.obj
 0001:00066cf0       __inc                      20067cf0 f   LIBCMTD:input.obj
 0001:000689a8       $LN253                     200699a8     LIBCMTD:input.obj
 0001:000689c8       $LN251                     200699c8     LIBCMTD:input.obj
 0001:00068a18       $LN254                     20069a18     LIBCMTD:input.obj
 0001:00068a40       $LN252                     20069a40     LIBCMTD:input.obj
 0001:00068a60       __un_inc                   20069a60 f   LIBCMTD:input.obj
 0001:00068a80       __whiteout                 20069a80 f   LIBCMTD:input.obj
 0001:00068ac0       ___check_float_string      20069ac0 f   LIBCMTD:inputs.obj
 0001:00068bc0       __hextodec                 20069bc0 f   LIBCMTD:inputs.obj
 0001:00068c00       __inc                      20069c00 f   LIBCMTD:inputs.obj
 0001:0006ad24       $LN282                     2006bd24     LIBCMTD:inputs.obj
 0001:0006ad44       $LN280                     2006bd44     LIBCMTD:inputs.obj
 0001:0006ad94       $LN283                     2006bd94     LIBCMTD:inputs.obj
 0001:0006adbc       $LN281                     2006bdbc     LIBCMTD:inputs.obj
 0001:0006ade0       __un_inc                   2006bde0 f   LIBCMTD:inputs.obj
 0001:0006ae00       __whiteout                 2006be00 f   LIBCMTD:inputs.obj
 0001:0006b440       __get_fname                2006c440 f   LIBCMTD:fpexcept.obj
 0001:0006be04       $LN55                      2006ce04     LIBCMTD:fpexcept.obj
 0001:0006c960       ?__crtLCMapStringA_stat@@YAHPAUlocaleinfo_struct@@PB_WKPBDHPADHHH@Z 2006d960 f   LIBCMTD:a_map.obj
 0001:0006cc40       ?strncnt@@YAHPBDH@Z        2006dc40 f   LIBCMTD:a_map.obj
 0001:0006d338       $LN16                      2006e338     LIBCMTD:wsetloca.obj
 0001:0006d350       __copytlocinfo_nolock      2006e350 f   LIBCMTD:wsetloca.obj
 0001:0006e010       __wsetlocale_get_all       2006f010 f   LIBCMTD:wsetloca.obj
 0001:0006e3d0       __wsetlocale_nolock        2006f3d0 f   LIBCMTD:wsetloca.obj
 0001:0006e820       __wsetlocale_set_cat       2006f820 f   LIBCMTD:wsetloca.obj
 0001:0006ee00       _sync_legacy_variables_lk  2006fe00 f   LIBCMTD:wsetloca.obj
 0001:000706b0       $LN171                     200716b0     LIBCMTD:output.obj
 0001:000706d0       $LN172                     200716d0     LIBCMTD:output.obj
 0001:000706e8       $LN167                     200716e8     LIBCMTD:output.obj
 0001:000706fc       $LN173                     200716fc     LIBCMTD:output.obj
 0001:00070710       $LN168                     20071710     LIBCMTD:output.obj
 0001:00070740       $LN174                     20071740     LIBCMTD:output.obj
 0001:0007077c       $LN169                     2007177c     LIBCMTD:output.obj
 0001:00070820       _write_char                20071820 f   LIBCMTD:output.obj
 0001:000708c0       _write_multi_char          200718c0 f   LIBCMTD:output.obj
 0001:00070900       _write_string              20071900 f   LIBCMTD:output.obj
 0001:00074694       $LN424                     20075694     LIBCMTD:outputp.obj
 0001:000746b4       $LN425                     200756b4     LIBCMTD:outputp.obj
 0001:000746cc       $LN420                     200756cc     LIBCMTD:outputp.obj
 0001:000746e0       $LN426                     200756e0     LIBCMTD:outputp.obj
 0001:000746f4       $LN421                     200756f4     LIBCMTD:outputp.obj
 0001:00074724       $LN427                     20075724     LIBCMTD:outputp.obj
 0001:00074760       $LN422                     20075760     LIBCMTD:outputp.obj
 0001:00074798       $LN428                     20075798     LIBCMTD:outputp.obj
 0001:00074ad0       _write_char                20075ad0 f   LIBCMTD:outputp.obj
 0001:00074b70       _write_multi_char          20075b70 f   LIBCMTD:outputp.obj
 0001:00074bb0       _write_string              20075bb0 f   LIBCMTD:outputp.obj
 0001:00074ce0       $$000000                   20075ce0     LIBCMTD:cos_pentium4.obj
 0001:00074e90       $$000000                   20075e90     LIBCMTD:sin_pentium4.obj
 0001:00075b10       $LN68                      20076b10     LIBCMTD:libm_error.obj
 0001:00075b54       $LN67                      20076b54     LIBCMTD:libm_error.obj
 0001:00075bfc       $LN69                      20076bfc     LIBCMTD:libm_error.obj
 0001:00075da0       $$000000                   20076da0     LIBCMTD:87triga.obj
 0001:00075e50       $$000000                   20076e50     LIBCMTD:87cdisp.obj
 0001:000778e0       __initterm                 200788e0 f   LIBCMTD:crt0dat.obj
 0001:00077970       _doexit                    20078970 f   LIBCMTD:crt0dat.obj
 0001:00077cf0       @x64tow_s@24               20078cf0 f   LIBCMTD:xtows.obj
 0001:00078260       _xtow_s@20                 20079260 f   LIBCMTD:xtows.obj
 0001:00078aa0       _flsall                    20079aa0 f   LIBCMTD:fflush.obj
 0001:00079cb0       _ctrlevent_capture@4       2007acb0 f   LIBCMTD:winsig.obj
 0001:0007a0ac       $LN41                      2007b0ac     LIBCMTD:winsig.obj
 0001:0007a0c4       $LN39                      2007b0c4     LIBCMTD:winsig.obj
 0001:0007a0e0       _siglookup                 2007b0e0 f   LIBCMTD:winsig.obj
 0001:0007a4a4       $LN49                      2007b4a4     LIBCMTD:winsig.obj
 0001:0007a4b8       $LN46                      2007b4b8     LIBCMTD:winsig.obj
 0001:0007a4d0       $LN50                      2007b4d0     LIBCMTD:winsig.obj
 0001:0007a4d8       $LN47                      2007b4d8     LIBCMTD:winsig.obj
 0001:0007aec0       _xcptlookup                2007bec0 f   LIBCMTD:winxfltr.obj
 0001:0007b670       _parse_cmdline             2007c670 f   LIBCMTD:stdargv.obj
 0001:0007bba0       ?_CrtMemDumpAllObjectsSince_stat@@YAXPBU_CrtMemState@@PAUlocaleinfo_struct@@@Z 2007cba0 f   LIBCMTD:dbgheap.obj
 0001:0007beb0       ?__crtIsBadReadPtr@@YAHPBXI@Z 2007ceb0 f   LIBCMTD:dbgheap.obj
 0001:0007bfe0       _CheckBytes                2007cfe0 f   LIBCMTD:dbgheap.obj
 0001:0007c474       $LN51                      2007d474     LIBCMTD:dbgheap.obj
 0001:0007e310       __heap_alloc_dbg_impl      2007f310 f   LIBCMTD:dbgheap.obj
 0001:0007e9b0       __nh_malloc_dbg_impl       2007f9b0 f   LIBCMTD:dbgheap.obj
 0001:0007ea30       __printMemBlockData        2007fa30 f   LIBCMTD:dbgheap.obj
 0001:0007ed60       _realloc_help              2007fd60 f   LIBCMTD:dbgheap.obj
 0001:0007f5c0       _ValidateLocalCookies      200805c0 f   LIBCMTD:chandler4.obj
 0001:0007fda0       ?CatchGuardHandler@@YA?AW4_EXCEPTION_DISPOSITION@@PAUEHExceptionRecord@@PAUCatchGuardRN@@PAX2@Z 20080da0 f   LIBCMTD:_trnsctrl_.obj
 0001:0007fdf0       ?TranslatorGuardHandler@@YA?AW4_EXCEPTION_DISPOSITION@@PAUEHExceptionRecord@@PAUTranslatorGuardRN@@PAX2@Z 20080df0 f   LIBCMTD:_trnsctrl_.obj
 0001:00080310       $$000000                   20081310     LIBCMTD:llmul.obj
 0001:00080350       $$000000                   20081350     LIBCMTD:ulldiv.obj
 0001:000803c0       $$000000                   200813c0     LIBCMTD:ullrem.obj
 0001:00081430       $$000000                   20082430     LIBCMTD:strrchr.obj
 0001:00081aa0       $$000000                   20082aa0     LIBCMTD:lldiv.obj
 0001:00081b50       $$000000                   20082b50     LIBCMTD:llrem.obj
 0001:00081c10       $$000000                   20082c10     LIBCMTD:llshl.obj
 0001:00081c30       $$000000                   20082c30     LIBCMTD:ullshr.obj
 0001:00081fd4       $LN19                      20082fd4     LIBCMTD:87except.obj
 0001:00083110       _fix_grouping              20084110 f   LIBCMTD:initmon.obj
 0001:00083590       _fix_grouping              20084590 f   LIBCMTD:initnum.obj
 0001:00084050       __get_lc_time              20085050 f   LIBCMTD:inittime.obj
 0001:00084f90       ?__crtGetStringTypeA_stat@@YAHPAUlocaleinfo_struct@@KPBDHPAGHH@Z 20085f90 f   LIBCMTD:a_str.obj
 0001:00087620       ___crtEnumLocalesProc@4    20088620 f   LIBCMTD:winapinls.obj
 0001:00088180       _cmpBYTE                   20089180 f   LIBCMTD:memcmp.obj
 0001:000881b0       _cmpDWORD                  200891b0 f   LIBCMTD:memcmp.obj
 0001:00088280       _cmpResult                 20089280 f   LIBCMTD:memcmp.obj
 0001:000882b0       _cmpWORD                   200892b0 f   LIBCMTD:memcmp.obj
 0001:000884d4       $LN22                      200894d4     LIBCMTD:memcmp.obj
 0001:000884f0       _unaligned_memcmp          200894f0 f   LIBCMTD:memcmp.obj
 0001:00088b74       $LN79                      20089b74     LIBCMTD:memcmp.obj
 0001:00089200       _GetLocaleNameFromDefault  2008a200 f   LIBCMTD:getqloc.obj
 0001:000892a0       _GetLocaleNameFromLangCountry 2008a2a0 f   LIBCMTD:getqloc.obj
 0001:00089380       _GetLocaleNameFromLanguage 2008a380 f   LIBCMTD:getqloc.obj
 0001:00089410       _GetPrimaryLen             2008a410 f   LIBCMTD:getqloc.obj
 0001:00089490       _LangCountryEnumProcEx@12  2008a490 f   LIBCMTD:getqloc.obj
 0001:000899f0       _LanguageEnumProcEx@12     2008a9f0 f   LIBCMTD:getqloc.obj
 0001:00089b30       _ProcessCodePage           2008ab30 f   LIBCMTD:getqloc.obj
 0001:00089be0       _TestDefaultCountry        2008abe0 f   LIBCMTD:getqloc.obj
 0001:00089c40       _TestDefaultLanguage       2008ac40 f   LIBCMTD:getqloc.obj
 0001:00089c90       _TranslateName             2008ac90 f   LIBCMTD:getqloc.obj
 0001:00089ff0       _CountryEnumProc@4         2008aff0 f   LIBCMTD:getqloc_downlevel.obj
 0001:0008a130       _GetLcidFromCountry        2008b130 f   LIBCMTD:getqloc_downlevel.obj
 0001:0008a1a0       _GetLcidFromDefault        2008b1a0 f   LIBCMTD:getqloc_downlevel.obj
 0001:0008a1e0       _GetLcidFromLangCountry    2008b1e0 f   LIBCMTD:getqloc_downlevel.obj
 0001:0008a2c0       _GetLcidFromLanguage       2008b2c0 f   LIBCMTD:getqloc_downlevel.obj
 0001:0008a350       _GetPrimaryLen             2008b350 f   LIBCMTD:getqloc_downlevel.obj
 0001:0008a3c0       _LangCountryEnumProc@4     2008b3c0 f   LIBCMTD:getqloc_downlevel.obj
 0001:0008a860       _LanguageEnumProc@4        2008b860 f   LIBCMTD:getqloc_downlevel.obj
 0001:0008aa40       _LcidFromHexString         2008ba40 f   LIBCMTD:getqloc_downlevel.obj
 0001:0008aad0       _ProcessCodePage           2008bad0 f   LIBCMTD:getqloc_downlevel.obj
 0001:0008ab80       _TestDefaultCountry        2008bb80 f   LIBCMTD:getqloc_downlevel.obj
 0001:0008abd0       _TestDefaultLanguage       2008bbd0 f   LIBCMTD:getqloc_downlevel.obj
 0001:0008ac60       _TranslateName             2008bc60 f   LIBCMTD:getqloc_downlevel.obj
 0001:0008e2c8       $LN180                     2008f2c8     LIBCMTD:outputs.obj
 0001:0008e2e8       $LN181                     2008f2e8     LIBCMTD:outputs.obj
 0001:0008e300       $LN176                     2008f300     LIBCMTD:outputs.obj
 0001:0008e314       $LN182                     2008f314     LIBCMTD:outputs.obj
 0001:0008e328       $LN177                     2008f328     LIBCMTD:outputs.obj
 0001:0008e358       $LN183                     2008f358     LIBCMTD:outputs.obj
 0001:0008e394       $LN178                     2008f394     LIBCMTD:outputs.obj
 0001:0008e3d0       _write_char                2008f3d0 f   LIBCMTD:outputs.obj
 0001:0008e470       _write_multi_char          2008f470 f   LIBCMTD:outputs.obj
 0001:0008e4b0       _write_string              2008f4b0 f   LIBCMTD:outputs.obj
 0001:0008e880       __onexit_nolock            2008f880 f   LIBCMTD:onexit.obj
 0001:00090de0       $LN160                     20091de0     LIBCMTD:woutput.obj
 0001:00090e00       $LN161                     20091e00     LIBCMTD:woutput.obj
 0001:00090e18       $LN156                     20091e18     LIBCMTD:woutput.obj
 0001:00090e2c       $LN162                     20091e2c     LIBCMTD:woutput.obj
 0001:00090e40       $LN157                     20091e40     LIBCMTD:woutput.obj
 0001:00090e70       $LN163                     20091e70     LIBCMTD:woutput.obj
 0001:00090eac       $LN158                     20091eac     LIBCMTD:woutput.obj
 0001:00090ef0       _write_char                20091ef0 f   LIBCMTD:woutput.obj
 0001:00090f50       _write_multi_char          20091f50 f   LIBCMTD:woutput.obj
 0001:00090f90       _write_string              20091f90 f   LIBCMTD:woutput.obj
 0001:00092538       $LN169                     20093538     LIBCMTD:woutputs.obj
 0001:00092558       $LN170                     20093558     LIBCMTD:woutputs.obj
 0001:00092570       $LN165                     20093570     LIBCMTD:woutputs.obj
 0001:00092584       $LN171                     20093584     LIBCMTD:woutputs.obj
 0001:00092598       $LN166                     20093598     LIBCMTD:woutputs.obj
 0001:000925c8       $LN172                     200935c8     LIBCMTD:woutputs.obj
 0001:00092604       $LN167                     20093604     LIBCMTD:woutputs.obj
 0001:00092640       _write_char                20093640 f   LIBCMTD:woutputs.obj
 0001:000926a0       _write_multi_char          200936a0 f   LIBCMTD:woutputs.obj
 0001:000926e0       _write_string              200936e0 f   LIBCMTD:woutputs.obj
 0001:000962fc       $LN398                     200972fc     LIBCMTD:woutputp.obj
 0001:0009631c       $LN399                     2009731c     LIBCMTD:woutputp.obj
 0001:00096334       $LN394                     20097334     LIBCMTD:woutputp.obj
 0001:00096348       $LN400                     20097348     LIBCMTD:woutputp.obj
 0001:0009635c       $LN395                     2009735c     LIBCMTD:woutputp.obj
 0001:0009638c       $LN401                     2009738c     LIBCMTD:woutputp.obj
 0001:000963c8       $LN396                     200973c8     LIBCMTD:woutputp.obj
 0001:00096400       $LN402                     20097400     LIBCMTD:woutputp.obj
 0001:00096420       _write_char                20097420 f   LIBCMTD:woutputp.obj
 0001:00096480       _write_multi_char          20097480 f   LIBCMTD:woutputp.obj
 0001:000964c0       _write_string              200974c0 f   LIBCMTD:woutputp.obj
 0001:00096580       $$000000                   20097580     LIBCMTD:exsup4.obj
 0001:00096610       __unwind_handler4          20097610 f   LIBCMTD:exsup4.obj
 0001:000966e0       ?x_ismbbtype_l@@YAHPAUlocaleinfo_struct@@IHH@Z 200976e0 f   LIBCMTD:ismbbyte.obj
 0001:00096d90       __is_LFH_enabled           20097d90 f   LIBCMTD:expand.obj
 0001:00097b40       $$000000                   20098b40     LIBCMTD:lowhelpr.obj
 0001:00097d60       ?CallCatchBlock@@YAPAXPAUEHExceptionRecord@@PAUEHRegistrationNode@@PAU_CONTEXT@@PBU_s_FuncInfo@@PAXHK@Z 20098d60 f   LIBCMTD:frame.obj
 0001:00097ff0       ?CallUnexpected@@YAXPBU_s_ESTypeList@@@Z 20098ff0 f   LIBCMTD:frame.obj
 0001:0009803a       __catch$?CallUnexpected@@YAXPBU_s_ESTypeList@@@Z$0 2009903a f   LIBCMTD:frame.obj
 0001:00098080       ?CatchIt@@YAXPAUEHExceptionRecord@@PAUEHRegistrationNode@@PAU_CONTEXT@@PAXPBU_s_FuncInfo@@PBU_s_HandlerType@@PBU_s_CatchableType@@PBU_s_TryBlockMapEntry@@H1E@Z 20099080 f   LIBCMTD:frame.obj
 0001:00098140       ?ExFilterRethrow@@YAHPAU_EXCEPTION_POINTERS@@@Z 20099140 f   LIBCMTD:frame.obj
 0001:000981b0       ?FindHandler@@YAXPAUEHExceptionRecord@@PAUEHRegistrationNode@@PAU_CONTEXT@@PAXPBU_s_FuncInfo@@EH1@Z 200991b0 f   LIBCMTD:frame.obj
 0001:00098680       ?FindHandlerForForeignException@@YAXPAUEHExceptionRecord@@PAUEHRegistrationNode@@PAU_CONTEXT@@PAXPBU_s_FuncInfo@@HH1@Z 20099680 f   LIBCMTD:frame.obj
 0001:00098810       ?IsInExceptionSpec@@YAEPAUEHExceptionRecord@@PBU_s_ESTypeList@@@Z 20099810 f   LIBCMTD:frame.obj
 0001:000988d0       ?Is_bad_exception_allowed@@YAEPBU_s_ESTypeList@@@Z 200998d0 f   LIBCMTD:frame.obj
 0001:00099f10       ___abstract_cw_sse2        2009af10 f   LIBCMTD:ieee87.obj
 0001:0009a060       ___abstract_sw_sse2        2009b060 f   LIBCMTD:ieee87.obj
 0001:0009a0f0       ___clearfp_sse2            2009b0f0 f   LIBCMTD:ieee87.obj
 0001:0009a1c0       ___control87_sse2          2009b1c0 f   LIBCMTD:ieee87.obj
 0001:0009a240       ___fpreset_sse2            2009b240 f   LIBCMTD:ieee87.obj
 0001:0009a260       ___hw_cw_sse2              2009b260 f   LIBCMTD:ieee87.obj
 0001:0009a3b0       ___statusfp_sse2           2009b3b0 f   LIBCMTD:ieee87.obj
 0001:0009a3d0       __abstract_cw              2009b3d0 f   LIBCMTD:ieee87.obj
 0001:0009a520       __abstract_sw              2009b520 f   LIBCMTD:ieee87.obj
 0001:0009a720       __hw_cw                    2009b720 f   LIBCMTD:ieee87.obj
 0001:0009b160       @x64toa_s@24               2009c160 f   LIBCMTD:xtoas.obj
 0001:0009b6c0       _xtoa_s@20                 2009c6c0 f   LIBCMTD:xtoas.obj
 0001:0009c290       ?wcsncnt@@YAIPB_WI@Z       2009d290 f   LIBCMTD:wcstombs.obj
 0001:000a0610       ?__crtGetLocaleInfoA_stat@@YAHPAUlocaleinfo_struct@@PB_WKPADH@Z 200a1610 f   LIBCMTD:a_loc.obj
 0001:000a0de0       ?wcstoxl@@YAKPB_WPAPB_WHH@Z 200a1de0 f   LIBCMTD:wcstol.obj
 0001:000a1220       $$000000                   200a2220     LIBCMTD:exsup.obj
 0001:000a1240       __unwind_handler           200a2240 f   LIBCMTD:exsup.obj
 0001:000a1b70       ?wcstoxq@@YA_KPAUlocaleinfo_struct@@PB_WPAPB_WHH@Z 200a2b70 f   LIBCMTD:wcstoq.obj
 0001:000a7dcc       $LN57                      200a8dcc     LIBCMTD:undname.obj
 0001:000a7df8       $LN53                      200a8df8     LIBCMTD:undname.obj
 0001:000a7e18       $LN58                      200a8e18     LIBCMTD:undname.obj
 0001:000a7e4c       $LN54                      200a8e4c     LIBCMTD:undname.obj
 0001:000a7ea8       $LN59                      200a8ea8     LIBCMTD:undname.obj
 0001:000a7eb8       $LN55                      200a8eb8     LIBCMTD:undname.obj
 0001:000a7ed8       $LN60                      200a8ed8     LIBCMTD:undname.obj
 0001:000a7ee0       $LN56                      200a8ee0     LIBCMTD:undname.obj
 0001:000a8068       $LN19                      200a9068     LIBCMTD:undname.obj
 0001:000a808c       $LN18                      200a908c     LIBCMTD:undname.obj
 0001:000a9100       $LN16                      200aa100     LIBCMTD:undname.obj
 0001:000a9120       $LN15                      200aa120     LIBCMTD:undname.obj
 0001:000a92b4       $LN17                      200aa2b4     LIBCMTD:undname.obj
 0001:000a92d4       $LN18                      200aa2d4     LIBCMTD:undname.obj
 0001:000a92dc       $LN16                      200aa2dc     LIBCMTD:undname.obj
 0001:000aa644       $LN62                      200ab644     LIBCMTD:undname.obj
 0001:000aa660       $LN59                      200ab660     LIBCMTD:undname.obj
 0001:000aa6c0       $LN63                      200ab6c0     LIBCMTD:undname.obj
 0001:000aa6f4       $LN60                      200ab6f4     LIBCMTD:undname.obj
 0001:000aa754       $LN64                      200ab754     LIBCMTD:undname.obj
 0001:000aa768       $LN65                      200ab768     LIBCMTD:undname.obj
 0001:000aa770       $LN61                      200ab770     LIBCMTD:undname.obj
 0001:000aaaa8       $LN28                      200abaa8     LIBCMTD:undname.obj
 0001:000aaabc       $LN26                      200ababc     LIBCMTD:undname.obj
 0001:000aab00       $LN29                      200abb00     LIBCMTD:undname.obj
 0001:000aab24       $LN27                      200abb24     LIBCMTD:undname.obj
 0001:000ab494       $LN40                      200ac494     LIBCMTD:undname.obj
 0001:000ab4ac       $LN39                      200ac4ac     LIBCMTD:undname.obj
 0001:000ac204       $LN35                      200ad204     LIBCMTD:undname.obj
 0001:000ac22c       $LN34                      200ad22c     LIBCMTD:undname.obj
 0001:000ac284       $LN36                      200ad284     LIBCMTD:undname.obj
 0001:000ace74       $LN118                     200ade74     LIBCMTD:undname.obj
 0001:000ace90       $LN119                     200ade90     LIBCMTD:undname.obj
 0001:000aceb8       $LN116                     200adeb8     LIBCMTD:undname.obj
 0001:000acf0c       $LN120                     200adf0c     LIBCMTD:undname.obj
 0001:000acf20       $LN117                     200adf20     LIBCMTD:undname.obj
 0001:000acf74       $LN121                     200adf74     LIBCMTD:undname.obj
 0001:000ad9b0       ?und_memcpy@@YAXPADPBDI@Z  200ae9b0 f   LIBCMTD:undname.obj
 0001:000ad9f0       ?und_strlen@@YAIPBD@Z      200ae9f0 f   LIBCMTD:undname.obj
 0001:000ada30       ?und_strncmp@@YAIPBD0I@Z   200aea30 f   LIBCMTD:undname.obj
 0001:000ae81c       $LN137                     200af81c     LIBCMTD:wstrgtold.obj
 0001:000ae84c       $LN138                     200af84c     LIBCMTD:wstrgtold.obj
 0001:000ae85c       $LN134                     200af85c     LIBCMTD:wstrgtold.obj
 0001:000ae898       $LN139                     200af898     LIBCMTD:wstrgtold.obj
 0001:000ae8a4       $LN135                     200af8a4     LIBCMTD:wstrgtold.obj
 0001:000ae8e0       $LN140                     200af8e0     LIBCMTD:wstrgtold.obj
 0001:000ae8ec       $LN136                     200af8ec     LIBCMTD:wstrgtold.obj
 0001:000aeb20       __unwindfunclet$?strtoxq@@YA_KPAUlocaleinfo_struct@@PBDPAPBDHH@Z$0 200afb20 f   LIBCMTD:strtoq.obj
 0001:000aeb28       __ehhandler$?strtoxq@@YA_KPAUlocaleinfo_struct@@PBDPAPBDHH@Z 200afb28 f   LIBCMTD:strtoq.obj
 0001:000aeb50       __unwindfunclet$?strtoxl@@YAKPAUlocaleinfo_struct@@PBDPAPBDHH@Z$0 200afb50 f   LIBCMTD:strtol.obj
 0001:000aeb58       __ehhandler$?strtoxl@@YAKPAUlocaleinfo_struct@@PBDPAPBDHH@Z 200afb58 f   LIBCMTD:strtol.obj
 0001:000aeb80       __unwindfunclet$?getSystemCP@@YAHH@Z$0 200afb80 f   LIBCMTD:mbctype.obj
 0001:000aeb88       __ehhandler$?getSystemCP@@YAHH@Z 200afb88 f   LIBCMTD:mbctype.obj
 0001:000aebb0       __unwindfunclet$?x_ismbbtype_l@@YAHPAUlocaleinfo_struct@@IHH@Z$0 200afbb0 f   LIBCMTD:ismbbyte.obj
 0001:000aebb8       __ehhandler$?x_ismbbtype_l@@YAHPAUlocaleinfo_struct@@IHH@Z 200afbb8 f   LIBCMTD:ismbbyte.obj
 0001:000aebe0       __ehhandler$?CallUnexpected@@YAXPBU_s_ESTypeList@@@Z 200afbe0 f   LIBCMTD:frame.obj
 0001:000aec00       __unwindfunclet$?wcstoxq@@YA_KPAUlocaleinfo_struct@@PB_WPAPB_WHH@Z$0 200afc00 f   LIBCMTD:wcstoq.obj
 0001:000aec08       __ehhandler$?wcstoxq@@YA_KPAUlocaleinfo_struct@@PB_WPAPB_WHH@Z 200afc08 f   LIBCMTD:wcstoq.obj
 0001:000aec30       __unwindfunclet$?make@DNameStatusNode@@SAPAV1@W4DNameStatus@@@Z$0 200afc30 f   LIBCMTD:undname.obj
 0001:000aec3e       __ehhandler$?make@DNameStatusNode@@SAPAV1@W4DNameStatus@@@Z 200afc3e f   LIBCMTD:undname.obj
 0002:00000160       _pinit                     200b0160     LIBCMTD:mbctype.obj
 0002:00000164       _pinit                     200b0164     LIBCMTD:cpu_disp.obj
 0002:00000168       _pinit                     200b0168     LIBCMTD:mathfcns.obj
 0002:0000016c       _pinit                     200b016c     LIBCMTD:_file.obj
 0002:00000170       _pinit                     200b0170     LIBCMTD:onexit.obj
 0002:0000017c       _pterm                     200b017c     LIBCMTD:wsetloca.obj
 0002:00000180       _pterm                     200b0180     LIBCMTD:initcon.obj
 0002:00000184       _pterm                     200b0184     LIBCMTD:_file.obj
 0002:000067b0       _GS_ExceptionPointers      200b67b0     LIBCMTD:gs_report.obj
 0002:000069a0       _One                       200b69a0     LIBCMTD:ceil_pentium4.obj
 0002:000069b0       _Bns                       200b69b0     LIBCMTD:ceil_pentium4.obj
 0002:000069c0       _Zero                      200b69c0     LIBCMTD:ceil_pentium4.obj
 0002:000069d0       _S                         200b69d0     LIBCMTD:ceil_pentium4.obj
 0002:000069e0       _NegZero                   200b69e0     LIBCMTD:ceil_pentium4.obj
 0002:00008224       One                        200b8224     LIBCMTD:87disp.obj
 0002:0000822c       XAMtoTagTab                200b822c     LIBCMTD:87disp.obj
 0002:00008240       One                        200b8240     LIBCMTD:common.obj
 0002:00008254       DblMax                     200b8254     LIBCMTD:common.obj
 0002:0000825c       DblMin                     200b825c     LIBCMTD:common.obj
 0002:00008264       IeeeAdjO                   200b8264     LIBCMTD:common.obj
 0002:0000826c       IeeeAdjU                   200b826c     LIBCMTD:common.obj
 0002:00008274       _infinity                  200b8274     LIBCMTD:common.obj
 0002:0000827c       _zero                      200b827c     LIBCMTD:common.obj
 0002:000085bc       __mb_locale_names          200b85bc     LIBCMTD:mbctype.obj
 0002:000086a8       __CrtDbgModeMsg            200b86a8     LIBCMTD:dbgrptw.obj
 0002:000094a8       __first_127char            200b94a8     LIBCMTD:wsetloca.obj
 0002:0000b000       Ctable                     200bb000     LIBCMTD:cos_pentium4.obj
 0002:0000b800       SC_1                       200bb800     LIBCMTD:cos_pentium4.obj
 0002:0000b810       SC_2                       200bb810     LIBCMTD:cos_pentium4.obj
 0002:0000b820       SC_3                       200bb820     LIBCMTD:cos_pentium4.obj
 0002:0000b830       SC_4                       200bb830     LIBCMTD:cos_pentium4.obj
 0002:0000b840       PI32INV                    200bb840     LIBCMTD:cos_pentium4.obj
 0002:0000b848       SHIFTER                    200bb848     LIBCMTD:cos_pentium4.obj
 0002:0000b850       P_2                        200bb850     LIBCMTD:cos_pentium4.obj
 0002:0000b860       P_1                        200bb860     LIBCMTD:cos_pentium4.obj
 0002:0000b868       P_3                        200bb868     LIBCMTD:cos_pentium4.obj
 0002:0000b870       TWO_POW_55                 200bb870     LIBCMTD:cos_pentium4.obj
 0002:0000b878       TWO_POW_M55                200bb878     LIBCMTD:cos_pentium4.obj
 0002:0000b880       ALL_ONES                   200bb880     LIBCMTD:cos_pentium4.obj
 0002:0000b888       NEG_ZERO                   200bb888     LIBCMTD:cos_pentium4.obj
 0002:0000b890       ONE                        200bb890     LIBCMTD:cos_pentium4.obj
 0002:0000b8a0       SIGN_MASK                  200bb8a0     LIBCMTD:cos_pentium4.obj
 0002:0000b8b0       Ctable                     200bb8b0     LIBCMTD:sin_pentium4.obj
 0002:0000c0b0       SC_1                       200bc0b0     LIBCMTD:sin_pentium4.obj
 0002:0000c0c0       SC_2                       200bc0c0     LIBCMTD:sin_pentium4.obj
 0002:0000c0d0       SC_3                       200bc0d0     LIBCMTD:sin_pentium4.obj
 0002:0000c0e0       SC_4                       200bc0e0     LIBCMTD:sin_pentium4.obj
 0002:0000c0f0       PI32INV                    200bc0f0     LIBCMTD:sin_pentium4.obj
 0002:0000c0f8       SHIFTER                    200bc0f8     LIBCMTD:sin_pentium4.obj
 0002:0000c100       P_2                        200bc100     LIBCMTD:sin_pentium4.obj
 0002:0000c110       P_1                        200bc110     LIBCMTD:sin_pentium4.obj
 0002:0000c118       P_3                        200bc118     LIBCMTD:sin_pentium4.obj
 0002:0000c120       TWO_POW_55                 200bc120     LIBCMTD:sin_pentium4.obj
 0002:0000c128       TWO_POW_M55                200bc128     LIBCMTD:sin_pentium4.obj
 0002:0000c130       ALL_ONES                   200bc130     LIBCMTD:sin_pentium4.obj
 0002:0000c138       NEG_ZERO                   200bc138     LIBCMTD:sin_pentium4.obj
 0002:0000c140       ONE                        200bc140     LIBCMTD:sin_pentium4.obj
 0002:0000c150       _INF                       200bc150     LIBCMTD:libm_error.obj
 0002:0000c160       _BIG                       200bc160     LIBCMTD:libm_error.obj
 0002:0000c170       _ZERO                      200bc170     LIBCMTD:libm_error.obj
 0002:0000c180       _INF_32                    200bc180     LIBCMTD:libm_error.obj
 0002:0000c188       _NAN_32                    200bc188     LIBCMTD:libm_error.obj
 0002:0000c190       _ZERO_32                   200bc190     LIBCMTD:libm_error.obj
 0002:0000c198       _libm_largef               200bc198     LIBCMTD:libm_error.obj
 0002:0000c1a0       _libm_smallf               200bc1a0     LIBCMTD:libm_error.obj
 0002:0000c1a8       _libm_small                200bc1a8     LIBCMTD:libm_error.obj
 0002:0000c210       DblMax                     200bc210     LIBCMTD:87cdisp.obj
 0002:0000c218       DblMin                     200bc218     LIBCMTD:87cdisp.obj
 0002:0000c220       IeeeAdjO                   200bc220     LIBCMTD:87cdisp.obj
 0002:0000c228       IeeeAdjU                   200bc228     LIBCMTD:87cdisp.obj
 0002:0000c230       _infinity                  200bc230     LIBCMTD:87cdisp.obj
 0002:0000c238       _zero                      200bc238     LIBCMTD:87cdisp.obj
 0002:0000ce90       _rterrs                    200bce90     LIBCMTD:crt0msg.obj
 0002:0000ddb8       _szBlockUseName            200bddb8     LIBCMTD:dbgheap.obj
 0002:00015034       __CrtDbgModeMsg            200c5034     LIBCMTD:dbgrpt.obj
 0002:00015e68       ?ExceptionTemplate@?1??_CxxThrowException@@9@8@4UEHExceptionRecord@@B 200c5e68     LIBCMTD:throw.obj
 0002:000161e8       _tokenTable                200c61e8     LIBCMTD:undname.obj
 0002:00016220       _nameTable                 200c6220     LIBCMTD:undname.obj
 0002:00016360       _rttiTable                 200c6360     LIBCMTD:undname.obj
 0002:00017190       __sehtable$__CRT_INIT@12   200c7190     LIBCMTD:dllcrt0.obj
 0002:000171b0       __sehtable$___DllMainCRTStartup 200c71b0     LIBCMTD:dllcrt0.obj
 0002:000171cc       __unwindtable$?strtoxq@@YA_KPAUlocaleinfo_struct@@PBDPAPBDHH@Z 200c71cc     LIBCMTD:strtoq.obj
 0002:000171d4       __ehfuncinfo$?strtoxq@@YA_KPAUlocaleinfo_struct@@PBDPAPBDHH@Z 200c71d4     LIBCMTD:strtoq.obj
 0002:000171f8       __unwindtable$?strtoxl@@YAKPAUlocaleinfo_struct@@PBDPAPBDHH@Z 200c71f8     LIBCMTD:strtol.obj
 0002:00017200       __ehfuncinfo$?strtoxl@@YAKPAUlocaleinfo_struct@@PBDPAPBDHH@Z 200c7200     LIBCMTD:strtol.obj
 0002:00017228       __sehtable$__freefls@4     200c7228     LIBCMTD:tidtable.obj
 0002:00017250       __sehtable$__initptd       200c7250     LIBCMTD:tidtable.obj
 0002:00017278       __sehtable$___updatetlocinfo 200c7278     LIBCMTD:localref.obj
 0002:00017298       __sehtable$___updatetmbcinfo 200c7298     LIBCMTD:mbctype.obj
 0002:000172b8       __sehtable$__setmbcp       200c72b8     LIBCMTD:mbctype.obj
 0002:000172d4       __unwindtable$?getSystemCP@@YAHH@Z 200c72d4     LIBCMTD:mbctype.obj
 0002:000172dc       __ehfuncinfo$?getSystemCP@@YAHH@Z 200c72dc     LIBCMTD:mbctype.obj
 0002:00017300       __sehtable$__CrtSetReportHookW2 200c7300     LIBCMTD:dbgrptw.obj
 0002:00017320       __sehtable$___set_fpsr_sse2 200c7320     LIBCMTD:fpctrl.obj
 0002:00017340       __sehtable$__get_current_locale 200c7340     LIBCMTD:wsetloca.obj
 0002:00017368       __sehtable$__free_locale   200c7368     LIBCMTD:wsetloca.obj
 0002:00017390       __sehtable$__wsetlocale    200c7390     LIBCMTD:wsetloca.obj
 0002:000173c8       __sehtable$__locterm       200c73c8     LIBCMTD:wsetloca.obj
 0002:000173e8       __sehtable$_doexit         200c73e8     LIBCMTD:crt0dat.obj
 0002:00017408       __sehtable$_fflush         200c7408     LIBCMTD:fflush.obj
 0002:00017428       __sehtable$_flsall         200c7428     LIBCMTD:fflush.obj
 0002:00017450       __sehtable$_setvbuf        200c7450     LIBCMTD:setvbuf.obj
 0002:00017470       __sehtable$_fwprintf       200c7470     LIBCMTD:fwprintf.obj
 0002:00017490       __sehtable$_signal         200c7490     LIBCMTD:winsig.obj
 0002:000174b0       __sehtable$_raise          200c74b0     LIBCMTD:winsig.obj
 0002:000174d0       __sehtable$_ctrlevent_capture@4 200c74d0     LIBCMTD:winsig.obj
 0002:000174f0       __sehtable$__ioinit        200c74f0     LIBCMTD:ioinit.obj
 0002:00017510       __sehtable$__realloc_dbg   200c7510     LIBCMTD:dbgheap.obj
 0002:00017530       __sehtable$__expand_dbg    200c7530     LIBCMTD:dbgheap.obj
 0002:00017550       __sehtable$__free_dbg      200c7550     LIBCMTD:dbgheap.obj
 0002:00017570       __sehtable$__msize_dbg     200c7570     LIBCMTD:dbgheap.obj
 0002:00017590       __sehtable$__CrtCheckMemory 200c7590     LIBCMTD:dbgheap.obj
 0002:000175b0       __sehtable$__CrtSetDbgFlag 200c75b0     LIBCMTD:dbgheap.obj
 0002:000175d0       __sehtable$__CrtDoForAllClientObjects 200c75d0     LIBCMTD:dbgheap.obj
 0002:000175f0       __sehtable$__CrtIsMemoryBlock 200c75f0     LIBCMTD:dbgheap.obj
 0002:00017610       __sehtable$__CrtMemCheckpoint 200c7610     LIBCMTD:dbgheap.obj
 0002:00017630       __sehtable$__CrtSetDbgBlockType 200c7630     LIBCMTD:dbgheap.obj
 0002:00017650       __sehtable$__heap_alloc_dbg_impl 200c7650     LIBCMTD:dbgheap.obj
 0002:00017670       __sehtable$?__crtIsBadReadPtr@@YAHPBXI@Z 200c7670     LIBCMTD:dbgheap.obj
 0002:00017690       __sehtable$?_CrtMemDumpAllObjectsSince_stat@@YAXPBU_CrtMemState@@PAUlocaleinfo_struct@@@Z 200c7690     LIBCMTD:dbgheap.obj
 0002:000176b0       __sehtable$__mtinitlocknum 200c76b0     LIBCMTD:mlock.obj
 0002:000176d0       __sehtable$__VCrtDbgReportA 200c76d0     LIBCMTD:dbgrptt.obj
 0002:000176f8       __sehtable$__VCrtDbgReportW 200c76f8     LIBCMTD:dbgrptt.obj
 0002:00017720       __sehtable$_ungetc         200c7720     LIBCMTD:ungetc.obj
 0002:00017740       __sehtable$__write         200c7740     LIBCMTD:write.obj
 0002:00017760       __sehtable$__lseeki64      200c7760     LIBCMTD:lseeki64.obj
 0002:00017780       __sehtable$_printf         200c7780     LIBCMTD:printf.obj
 0002:000177a0       __sehtable$__IsNonwritableInCurrentImage 200c77a0     LIBCMTD:pesect.obj
 0002:000177c0       __sehtable$__onexit        200c77c0     LIBCMTD:onexit.obj
 0002:000177e0       __sehtable$?terminate@@YAXXZ 200c77e0     LIBCMTD:hooks.obj
 0002:00017800       __sehtable$?_inconsistency@@YAXXZ 200c7800     LIBCMTD:hooks.obj
 0002:00017820       __sehtable$__fcloseall     200c7820     LIBCMTD:closeall.obj
 0002:00017840       __sehtable$__commit        200c7840     LIBCMTD:commit.obj
 0002:00017860       __sehtable$_vfwprintf_helper 200c7860     LIBCMTD:vfwprint.obj
 0002:0001787c       __unwindtable$?x_ismbbtype_l@@YAHPAUlocaleinfo_struct@@IHH@Z 200c787c     LIBCMTD:ismbbyte.obj
 0002:00017884       __ehfuncinfo$?x_ismbbtype_l@@YAHPAUlocaleinfo_struct@@IHH@Z 200c7884     LIBCMTD:ismbbyte.obj
 0002:000178a8       __sehtable$__CrtSetReportHook2 200c78a8     LIBCMTD:dbgrpt.obj
 0002:000178c8       __sehtable$___FrameUnwindToState 200c78c8     LIBCMTD:frame.obj
 0002:000178f0       __sehtable$?CallCatchBlock@@YAPAXPAUEHExceptionRecord@@PAUEHRegistrationNode@@PAU_CONTEXT@@PBU_s_FuncInfo@@PAXHK@Z 200c78f0     LIBCMTD:frame.obj
 0002:00017918       __sehtable$___BuildCatchObject 200c7918     LIBCMTD:frame.obj
 0002:00017938       __sehtable$___DestructExceptionObject 200c7938     LIBCMTD:frame.obj
 0002:00017954       __catchsym$?CallUnexpected@@YAXPBU_s_ESTypeList@@@Z$2 200c7954     LIBCMTD:frame.obj
 0002:00017964       __unwindtable$?CallUnexpected@@YAXPBU_s_ESTypeList@@@Z 200c7964     LIBCMTD:frame.obj
 0002:00017974       __tryblocktable$?CallUnexpected@@YAXPBU_s_ESTypeList@@@Z 200c7974     LIBCMTD:frame.obj
 0002:00017988       __ehfuncinfo$?CallUnexpected@@YAXPBU_s_ESTypeList@@@Z 200c7988     LIBCMTD:frame.obj
 0002:000179b0       __sehtable$___BuildCatchObjectHelper 200c79b0     LIBCMTD:frame.obj
 0002:00017a20       __sehtable$__read          200c7a20     LIBCMTD:read.obj
 0002:00017a40       __sehtable$__alloc_osfhnd  200c7a40     LIBCMTD:osfinfo.obj
 0002:00017a68       __sehtable$___lock_fhandle 200c7a68     LIBCMTD:osfinfo.obj
 0002:00017a88       __sehtable$__open_osfhandle 200c7a88     LIBCMTD:osfinfo.obj
 0002:00017aa8       __sehtable$__putwch        200c7aa8     LIBCMTD:putwch.obj
 0002:00017ac8       __sehtable$_vprintf_helper 200c7ac8     LIBCMTD:vprintf.obj
 0002:00017ae8       __sehtable$_fclose         200c7ae8     LIBCMTD:fclose.obj
 0002:00017b08       __sehtable$_fputwc         200c7b08     LIBCMTD:fputwc.obj
 0002:00017b28       __sehtable$??3@YAXPAX@Z    200c7b28     LIBCMTD:dbgdel.obj
 0002:00017b44       __unwindtable$?wcstoxq@@YA_KPAUlocaleinfo_struct@@PB_WPAPB_WHH@Z 200c7b44     LIBCMTD:wcstoq.obj
 0002:00017b4c       __ehfuncinfo$?wcstoxq@@YA_KPAUlocaleinfo_struct@@PB_WPAPB_WHH@Z 200c7b4c     LIBCMTD:wcstoq.obj
 0002:00017b70       __sehtable$__close         200c7b70     LIBCMTD:close.obj
 0002:00017b90       __sehtable$?_Name_base@type_info@@CAPBDPBV1@PAU__type_info_node@@@Z 200c7b90     LIBCMTD:typname.obj
 0002:00017bb0       __sehtable$?_Type_info_dtor@type_info@@CAXPAV1@@Z 200c7bb0     LIBCMTD:typname.obj
 0002:00017bd0       __sehtable$?_Name_base_internal@type_info@@CAPBDPBV1@PAU__type_info_node@@@Z 200c7bd0     LIBCMTD:typname.obj
 0002:00017bf0       __sehtable$?_Type_info_dtor_internal@type_info@@CAXPAV1@@Z 200c7bf0     LIBCMTD:typname.obj
 0002:00017c10       __sehtable$___clean_type_info_names_internal 200c7c10     LIBCMTD:typname.obj
 0002:00017c30       __sehtable$___unDName      200c7c30     LIBCMTD:undname.obj
 0002:00017c50       __sehtable$___unDNameEx    200c7c50     LIBCMTD:undname.obj
 0002:00017c6c       __unwindtable$?make@DNameStatusNode@@SAPAV1@W4DNameStatus@@@Z 200c7c6c     LIBCMTD:undname.obj
 0002:00017c74       __ehfuncinfo$?make@DNameStatusNode@@SAPAV1@W4DNameStatus@@@Z 200c7c74     LIBCMTD:undname.obj
 0002:00017ca0       .edata                     200c7ca0     qagamex86.exp
 0002:00017cc8       rgpv                       200c7cc8     qagamex86.exp
 0002:00017cd0       rgszName                   200c7cd0     qagamex86.exp
 0002:00017cd8       rgwOrd                     200c7cd8     qagamex86.exp
 0002:00017cdc       szName                     200c7cdc     qagamex86.exp
 0002:00017cea       $N00001                    200c7cea     qagamex86.exp
 0002:00017cf3       $N00002                    200c7cf3     qagamex86.exp
 0002:00018484       .idata$6                   200c8484     kernel32:KERNEL32.dll
 0003:00000000       _VEC_UP                    200c9000     ai_dmq3.obj
 0003:0000000c       _MOVEDIR_UP                200c900c     ai_dmq3.obj
 0003:00000018       _VEC_DOWN                  200c9018     ai_dmq3.obj
 0003:00000024       _MOVEDIR_DOWN              200c9024     ai_dmq3.obj
 0003:00000990       ?range@?1??G_TouchTriggers@@9@9 200c9990     g_active.obj
 0003:0000099c       _offsetFirst               200c999c     g_arenas.obj
 0003:000009a8       _offsetSecond              200c99a8     g_arenas.obj
 0003:000009b4       _offsetThird               200c99b4     g_arenas.obj
 0003:000009c0       _playerMins                200c99c0     g_client.obj
 0003:000009cc       _playerMaxs                200c99cc     g_client.obj
 0003:000009d8       _gc_orders                 200c99d8     g_cmds.obj
 0003:000009f4       _gameNames                 200c99f4     g_cmds.obj
 0003:00000a78       _gameCvarTable             200c9a78     g_main.obj
 0003:00000f80       _gameCvarTableSize         200c9f80     g_main.obj
 0003:00000f84       ?lastMod@?1??CheckCvars@@9@9 200c9f84     g_main.obj
 0003:00001260       ?gametypeNames@?1??G_SpawnGEntityFromSpawnVars@@9@9 200ca260     g_spawn.obj
 0003:00001284       _syscall                   200ca284     g_syscalls.obj
 0003:00001288       _ctfFlagStatusRemap        200ca288     g_team.obj
 0003:00001290       _oneFlagStatusRemap        200ca290     g_team.obj
 0003:00001298       ?VEC_UP@?1??G_SetMovedir@@9@9 200ca298     g_utils.obj
 0003:000012a4       ?MOVEDIR_UP@?1??G_SetMovedir@@9@9 200ca2a4     g_utils.obj
 0003:000012b0       ?VEC_DOWN@?1??G_SetMovedir@@9@9 200ca2b0     g_utils.obj
 0003:000012bc       ?MOVEDIR_DOWN@?1??G_SetMovedir@@9@9 200ca2bc     g_utils.obj
 0003:00001bd0       _NAME_                     200cabd0     LIBCMTD:sqrt.obj
 0003:00001be0       _NAME_                     200cabe0     LIBCMTD:cos.obj
 0003:00001bf0       _NAME_                     200cabf0     LIBCMTD:sin.obj
 0003:00001c00       __assertstring             200cac00     LIBCMTD:wassert.obj
 0003:00001c50       _dotdotdot                 200cac50     LIBCMTD:wassert.obj
 0003:00001c54       _newline                   200cac54     LIBCMTD:wassert.obj
 0003:00001c58       _dblnewline                200cac58     LIBCMTD:wassert.obj
 0003:00001c60       ?isPackaged@?1??__crtIsPackagedApp@@9@9 200cac60     LIBCMTD:winapisupp.obj
 0003:00001c90       _errtable                  200cac90     LIBCMTD:dosmap.obj
 0003:00001df8       _ErrnoNoMem                200cadf8     LIBCMTD:dosmap.obj
 0003:00001dfc       _DoserrorNoMem             200cadfc     LIBCMTD:dosmap.obj
 0003:00002228       ___rgctypeflag             200cb228     LIBCMTD:mbctype.obj
 0003:00002230       ___rgcode_page_info        200cb230     LIBCMTD:mbctype.obj
 0003:00002320       _dotdotdot                 200cb320     LIBCMTD:dbgrptw.obj
 0003:00002560       ?_names@?1??_get_fname@@9@9 200cb560     LIBCMTD:fpexcept.obj
 0003:00002670       _over                      200cb670     LIBCMTD:fpctrl.obj
 0003:0000267c       _under                     200cb67c     LIBCMTD:fpctrl.obj
 0003:00002688       ?__DAZ_ENABLED@?1??__set_fpsr_sse2@@9@9 200cb688     LIBCMTD:fpctrl.obj
 0003:0000268c       __ctype_loc_style          200cb68c     LIBCMTD:wsetloca.obj
 0003:000026a0       _newcw                     200cb6a0     LIBCMTD:ceil.obj
 0003:00002984       __lRequestCurr             200cb984     LIBCMTD:dbgheap.obj
 0003:00002988       __bNoMansLandFill          200cb988     LIBCMTD:dbgheap.obj
 0003:00002989       __bAlignLandFill           200cb989     LIBCMTD:dbgheap.obj
 0003:0000298a       __bDeadLandFill            200cb98a     LIBCMTD:dbgheap.obj
 0003:0000298b       __bCleanLandFill           200cb98b     LIBCMTD:dbgheap.obj
 0003:00002990       __locktable                200cb990     LIBCMTD:mlock.obj
 0003:00002ab0       _DoubleFormat              200cbab0     LIBCMTD:intrncvt.obj
 0003:00002ac8       _FloatFormat               200cbac8     LIBCMTD:intrncvt.obj
 0003:00002e30       _dotdotdot                 200cbe30     LIBCMTD:dbgrpt.obj
 0003:000030c0       ?maxclients@?1??BotNumActivePlayers@@9@9 200cc0c0     ai_chat.obj
 0003:000030c4       ?maxclients@?1??BotIsFirstInRankings@@9@9 200cc0c4     ai_chat.obj
 0003:000030c8       ?maxclients@?1??BotIsLastInRankings@@9@9 200cc0c8     ai_chat.obj
 0003:000030cc       ?name@?1??BotFirstClientInRankings@@9@9 200cc0cc     ai_chat.obj
 0003:000030ec       ?maxclients@?1??BotFirstClientInRankings@@9@9 200cc0ec     ai_chat.obj
 0003:000030f0       ?name@?1??BotLastClientInRankings@@9@9 200cc0f0     ai_chat.obj
 0003:00003110       ?maxclients@?1??BotLastClientInRankings@@9@9 200cc110     ai_chat.obj
 0003:00003114       ?maxclients@?1??BotRandomOpponentName@@9@9 200cc114     ai_chat.obj
 0003:00003118       ?name@?1??BotRandomOpponentName@@9@9 200cc118     ai_chat.obj
 0003:00003138       ?mapname@?1??BotMapTitle@@9@9 200cc138     ai_chat.obj
 0003:000031b8       ?maxclients@?1??FindClientByName@@9@9 200cc1b8     ai_cmd.obj
 0003:000031bc       ?maxclients@?1??FindEnemyByName@@9@9 200cc1bc     ai_cmd.obj
 0003:000031c0       ?maxclients@?1??NumPlayersOnSameTeam@@9@9 200cc1c0     ai_cmd.obj
 0003:000031c4       ?maxclients@?1??ClientFromName@@9@9 200cc1c4     ai_dmq3.obj
 0003:000031c8       ?maxclients@?1??ClientOnSameTeamFromName@@9@9 200cc1c8     ai_dmq3.obj
 0003:000031cc       ?local_time@?1??BotAIStartFrame@@9@9 200cc1cc     ai_main.obj
 0003:000031d0       ?botlib_residual@?1??BotAIStartFrame@@9@9 200cc1d0     ai_main.obj
 0003:000031d4       ?lastbotthink_time@?1??BotAIStartFrame@@9@9 200cc1d4     ai_main.obj
 0003:000031d8       ?maxclients@?1??BotNumTeamMates@@9@9 200cc1d8     ai_team.obj
 0003:000031dc       ?maxclients@?1??BotSortTeamMatesByBaseTravelTime@@9@9 200cc1dc     ai_team.obj
 0003:000031e0       ?maxclients@?1??BotTeamOrders@@9@9 200cc1e0     ai_team.obj
 0003:000031e8       _g_numBots                 200cc1e8     g_bot.obj
 0003:000031ec       ?checkminimumplayers_time@?1??G_CheckMinimumPlayers@@9@9 200cc1ec     g_bot.obj
 0003:000031f0       _g_botInfos                200cc1f0     g_bot.obj
 0003:000041f0       _g_arenaInfos              200cd1f0     g_bot.obj
 0003:000051f0       _botSpawnQueue             200ce1f0     g_bot.obj
 0003:00005270       ?line@?1??ConcatArgs@@9@9  200ce270     g_cmds.obj
 0003:00005670       ?i@?CC@??player_die@@9@9   200ce670     g_combat.obj
 0003:00005678       _memoryPool                200ce678     g_mem.obj
 0003:00045678       _allocPoint                2010e678     g_mem.obj
 0003:00045680       _ipFilters                 2010e680     g_svcmds.obj
 0003:00047680       _numIPFilters              20110680     g_svcmds.obj
 0003:0004768c       ?index@?1??tv@@9@9         2011068c     g_utils.obj
 0003:00047690       ?buff@?1??BuildShaderStateConfig@@9@9 20110690     g_utils.obj
 0003:00048690       ?vecs@?1??tv@@9@9          20111690     g_utils.obj
 0003:000486f0       ?index@?1??vtos@@9@9       201116f0     g_utils.obj
 0003:000486f8       ?str@?1??vtos@@9@9         201116f8     g_utils.obj
 0003:000487f8       _s_quadFactor              201117f8     g_weapon.obj
 0003:000487fc       _forward                   201117fc     g_weapon.obj
 0003:00048808       _right                     20111808     g_weapon.obj
 0003:00048814       _up                        20111814     g_weapon.obj
 0003:00048820       _muzzle                    20111820     g_weapon.obj
 0003:00048838       ?bops_initialized@?1??BoxOnPlaneSide@@9@9 20111838     q_math.obj
 0003:0004883c       ?Ljmptab@?1??BoxOnPlaneSide@@9@9 2011183c     q_math.obj
 0003:0004885c       ?sr@?1??AngleVectors@@9@9  2011185c     q_math.obj
 0003:00048860       ?sp@?1??AngleVectors@@9@9  20111860     q_math.obj
 0003:00048864       ?sy@?1??AngleVectors@@9@9  20111864     q_math.obj
 0003:00048868       ?cr@?1??AngleVectors@@9@9  20111868     q_math.obj
 0003:0004886c       ?cp@?1??AngleVectors@@9@9  2011186c     q_math.obj
 0003:00048870       ?cy@?1??AngleVectors@@9@9  20111870     q_math.obj
 0003:00048878       ?index@?1??va@@9@9         20111878     q_shared.obj
 0003:0004887c       ?valueindex@?1??Info_ValueForKey@@9@9 2011187c     q_shared.obj
 0003:00048880       _com_token                 20111880     q_shared.obj
 0003:00048c80       _com_parsename             20111c80     q_shared.obj
 0003:00049080       _com_lines                 20112080     q_shared.obj
 0003:00049088       ?string@?1??COM_ParseError@@9@9 20112088     q_shared.obj
 0003:0004a088       ?string@?1??COM_ParseWarning@@9@9 20113088     q_shared.obj
 0003:0004b088       ?string@?1??va@@9@9        20114088     q_shared.obj
 0003:0005aa88       ?value@?1??Info_ValueForKey@@9@9 20123a88     q_shared.obj
 0003:0005ea88       _GS_ExceptionRecord        20127a88     LIBCMTD:gs_report.obj
 0003:0005ead8       _GS_ContextRecord          20127ad8     LIBCMTD:gs_report.obj
 0003:0005eda4       _DebuggerWasPresent        20127da4     LIBCMTD:gs_report.obj
 0003:0005edac       ___proc_attached           20127dac     LIBCMTD:dllcrt0.obj
 0003:0005edd4       _fSystemSet                20127dd4     LIBCMTD:mbctype.obj
 0003:0005ede4       __pmatherr_set             20127de4     LIBCMTD:libm_error.obj
 0003:0005ee24       _ctrlc_action              20127e24     LIBCMTD:winsig.obj
 0003:0005ee28       _ctrlbreak_action          20127e28     LIBCMTD:winsig.obj
 0003:0005ee2c       _abort_action              20127e2c     LIBCMTD:winsig.obj
 0003:0005ee30       _term_action               20127e30     LIBCMTD:winsig.obj
 0003:0005ee34       _ConsoleCtrlHandler_Installed 20127e34     LIBCMTD:winsig.obj
 0003:0005ee38       ?pfnGetLastActivePopup@?1??__crtMessageBoxW@@9@9 20127e38     LIBCMTD:crtmboxw.obj
 0003:0005ee3c       ?pfnGetProcessWindowStation@?1??__crtMessageBoxW@@9@9 20127e3c     LIBCMTD:crtmboxw.obj
 0003:0005ee40       ?pfnGetUserObjectInformation@?1??__crtMessageBoxW@@9@9 20127e40     LIBCMTD:crtmboxw.obj
 0003:0005ee44       ?pfnMessageBox@?1??__crtMessageBoxW@@9@9 20127e44     LIBCMTD:crtmboxw.obj
 0003:0005ee48       ?pfnGetActiveWindow@?1??__crtMessageBoxW@@9@9 20127e48     LIBCMTD:crtmboxw.obj
 0003:0005ee58       ?outmsg@?M@??_NMSG_WRITE@@9@9 20127e58     LIBCMTD:crt0msg.obj
 0003:0005f588       ?_pgmname@?1??_setargv@@9@9 20128588     LIBCMTD:stdargv.obj
 0003:0005f694       _check_frequency           20128694     LIBCMTD:dbgheap.obj
 0003:0005f69c       _check_counter             2012869c     LIBCMTD:dbgheap.obj
 0003:0005f6a0       __lTotalAlloc              201286a0     LIBCMTD:dbgheap.obj
 0003:0005f6a4       __lCurAlloc                201286a4     LIBCMTD:dbgheap.obj
 0003:0005f6a8       __lMaxAlloc                201286a8     LIBCMTD:dbgheap.obj
 0003:0005f6ac       __pFirstBlock              201286ac     LIBCMTD:dbgheap.obj
 0003:0005f6b0       __pLastBlock               201286b0     LIBCMTD:dbgheap.obj
 0003:0005f6b8       _lclcritsects              201286b8     LIBCMTD:mlock.obj
 0003:0005f82c       ___crtCallProc             2012882c     LIBCMTD:winapinls.obj
 0003:0005f830       ___enable_percent_n        20128830     LIBCMTD:printf.obj
 0003:0005f840       _g_pfnRtlGenRandom         20128840     LIBCMTD:rand_s.obj
 0003:0005f854       ___type_info_root_node     20128854     LIBCMTD:typname.obj
 0003:0005f884       _heap                      20128884     LIBCMTD:undname.obj
 0003:0005f898       ?buf@?1??dbGetString@DName@@QBEPADXZ@4PADA 20128898     LIBCMTD:undname.obj
 0004:00000060       $R000000                   2021a060     * linker generated manifest res *
