 quake3

 Timestamp is 54d5269c (Fri Feb 06 21:39:56 2015)

 Preferred load address is 00400000

 Start         Length     Name                   Class
 0001:00000000 000c501aH .text$mn                CODE
 0002:00000000 000002fcH .idata$5                DATA
 0002:000002fc 00000004H .CRT$XCA                DATA
 0002:00000300 00000004H .CRT$XCZ                DATA
 0002:00000304 00000004H .CRT$XIA                DATA
 0002:00000308 00000018H .CRT$XIC                DATA
 0002:00000320 00000004H .CRT$XIY                DATA
 0002:00000324 00000004H .CRT$XIZ                DATA
 0002:00000328 00000004H .CRT$XPA                DATA
 0002:0000032c 00000008H .CRT$XPX                DATA
 0002:00000334 00000004H .CRT$XPXA               DATA
 0002:00000338 00000004H .CRT$XPZ                DATA
 0002:0000033c 00000004H .CRT$XTA                DATA
 0002:00000340 00000004H .CRT$XTZ                DATA
 0002:00000350 0002f960H .rdata                  DATA
 0002:0002fcb0 0000000cH .rdata$sxdata           DATA
 0002:0002fcbc 00000004H .rtc$IAA                DATA
 0002:0002fcc0 00000004H .rtc$IZZ                DATA
 0002:0002fcc4 00000004H .rtc$TAA                DATA
 0002:0002fcc8 00000004H .rtc$TZZ                DATA
 0002:0002fcd0 0000059cH .xdata$x                DATA
 0002:0003026c 00000000H .edata                  DATA
 0002:0003026c 0000008cH .idata$2                DATA
 0002:000302f8 00000014H .idata$3                DATA
 0002:0003030c 000002fcH .idata$4                DATA
 0002:00030608 00000beeH .idata$6                DATA
 0003:00000000 00005740H .data                   DATA
 0003:00005740 00791148H .bss                    DATA
 0004:00000000 00000020H _RDATA                  DATA
 0005:00000000 00000130H .rsrc$01                DATA
 0005:00000130 000004b0H .rsrc$02                DATA

  Address         Publics by Value              Rva+Base       Lib:Object

 0000:00000000       __except_list              00000000     <absolute>
 0000:00000000       ___guard_flags             00000000     <absolute>
 0000:00000000       ___guard_fids_table        00000000     <absolute>
 0000:00000000       ___guard_fids_count        00000000     <absolute>
 0000:00000003       ___safe_se_handler_count   00000003     <absolute>
 0000:00000000       ___ImageBase               00400000     <linker-defined>
 0001:00000000       _CL_AdjustTimeDelta        00401000 f   cl_cgame.obj
 0001:00000100       _CL_CGameRendering         00401100 f   cl_cgame.obj
 0001:00000130       _CL_CM_LoadMap             00401130 f   cl_cgame.obj
 0001:00000150       _CL_CgameSystemCalls       00401150 f   cl_cgame.obj
 0001:00001010       _CL_ConfigstringModified   00402010 f   cl_cgame.obj
 0001:00001190       _CL_FirstSnapshot          00402190 f   cl_cgame.obj
 0001:000011f0       _CL_GameCommand            004021f0 f   cl_cgame.obj
 0001:00001210       _CL_GetServerCommand       00402210 f   cl_cgame.obj
 0001:000015e0       _CL_GetSnapshot            004025e0 f   cl_cgame.obj
 0001:00001710       _CL_GetUserCmd             00402710 f   cl_cgame.obj
 0001:00001770       _CL_InitCGame              00402770 f   cl_cgame.obj
 0001:00001880       _CL_SetCGameTime           00402880 f   cl_cgame.obj
 0001:00001a50       _CL_ShutdownCGame          00402a50 f   cl_cgame.obj
 0001:00001a90       _CIN_CloseAllVideos        00402a90 f   cl_cin.obj
 0001:00001b10       _CIN_DrawCinematic         00402b10 f   cl_cin.obj
 0001:00001dd0       _CIN_PlayCinematic         00402dd0 f   cl_cin.obj
 0001:00002170       _CIN_RunCinematic          00403170 f   cl_cin.obj
 0001:000023b0       _CIN_SetExtents            004033b0 f   cl_cin.obj
 0001:00002400       _CIN_StopCinematic         00403400 f   cl_cin.obj
 0001:00002480       _CIN_UploadCinematic       00403480 f   cl_cin.obj
 0001:00002530       _CL_PlayCinematic_f        00403530 f   cl_cin.obj
 0001:00002710       _RllDecodeMonoToStereo     00403710 f   cl_cin.obj
 0001:00002770       _RllDecodeStereoToStereo   00403770 f   cl_cin.obj
 0001:00003020       _SCR_DrawCinematic         00404020 f   cl_cin.obj
 0001:00003040       _SCR_RunCinematic          00404040 f   cl_cin.obj
 0001:00003060       _SCR_StopCinematic         00404060 f   cl_cin.obj
 0001:00004ab0       _CL_ConsolePrint           00405ab0 f   cl_console.obj
 0001:00004ca0       _Con_Bottom                00405ca0 f   cl_console.obj
 0001:00004cb0       _Con_CheckResize           00405cb0 f   cl_console.obj
 0001:00004de0       _Con_ClearNotify           00405de0 f   cl_console.obj
 0001:00004df0       _Con_Clear_f               00405df0 f   cl_console.obj
 0001:00004e10       _Con_Close                 00405e10 f   cl_console.obj
 0001:00004e50       _Con_DrawConsole           00405e50 f   cl_console.obj
 0001:00004eb0       _Con_DrawNotify            00405eb0 f   cl_console.obj
 0001:00005080       _Con_DrawSolidConsole      00406080 f   cl_console.obj
 0001:000053c0       _Con_Dump_f                004063c0 f   cl_console.obj
 0001:00005570       _Con_Init                  00406570 f   cl_console.obj
 0001:00005650       _Con_Linefeed              00406650 f   cl_console.obj
 0001:00005700       _Con_MessageMode2_f        00406700 f   cl_console.obj
 0001:00005740       _Con_MessageMode3_f        00406740 f   cl_console.obj
 0001:00005790       _Con_MessageMode4_f        00406790 f   cl_console.obj
 0001:000057e0       _Con_MessageMode_f         004067e0 f   cl_console.obj
 0001:00005820       _Con_PageDown              00406820 f   cl_console.obj
 0001:00005840       _Con_PageUp                00406840 f   cl_console.obj
 0001:00005870       _Con_RunConsole            00406870 f   cl_console.obj
 0001:00005920       _Con_ToggleConsole_f       00406920 f   cl_console.obj
 0001:00005960       _Con_Top                   00406960 f   cl_console.obj
 0001:00005980       _CL_AdjustAngles           00406980 f   cl_input.obj
 0001:00005aa0       _CL_CmdButtons             00406aa0 f   cl_input.obj
 0001:00005b00       _CL_CreateCmd              00406b00 f   cl_input.obj
 0001:00005c20       _CL_CreateNewCommands      00406c20 f   cl_input.obj
 0001:00005ca0       _CL_FinishMove             00406ca0 f   cl_input.obj
 0001:00005d00       _CL_InitInput              00406d00 f   cl_input.obj
 0001:000060c0       _CL_JoystickEvent          004070c0 f   cl_input.obj
 0001:000060f0       _CL_JoystickMove           004070f0 f   cl_input.obj
 0001:00006220       _CL_KeyMove                00407220 f   cl_input.obj
 0001:000063a0       _CL_KeyState               004073a0 f   cl_input.obj
 0001:00006430       _CL_MouseEvent             00407430 f   cl_input.obj
 0001:000064a0       _CL_MouseMove              004074a0 f   cl_input.obj
 0001:00006700       _CL_ReadyToSendPacket      00407700 f   cl_input.obj
 0001:00006800       _CL_SendCmd                00407800 f   cl_input.obj
 0001:00006860       _CL_WritePacket            00407860 f   cl_input.obj
 0001:00006b60       _IN_BackDown               00407b60 f   cl_input.obj
 0001:00006b70       _IN_BackUp                 00407b70 f   cl_input.obj
 0001:00006b80       _IN_Button0Down            00407b80 f   cl_input.obj
 0001:00006b90       _IN_Button0Up              00407b90 f   cl_input.obj
 0001:00006ba0       _IN_Button10Down           00407ba0 f   cl_input.obj
 0001:00006bb0       _IN_Button10Up             00407bb0 f   cl_input.obj
 0001:00006bc0       _IN_Button11Down           00407bc0 f   cl_input.obj
 0001:00006bd0       _IN_Button11Up             00407bd0 f   cl_input.obj
 0001:00006be0       _IN_Button12Down           00407be0 f   cl_input.obj
 0001:00006bf0       _IN_Button12Up             00407bf0 f   cl_input.obj
 0001:00006c00       _IN_Button13Down           00407c00 f   cl_input.obj
 0001:00006c10       _IN_Button13Up             00407c10 f   cl_input.obj
 0001:00006c20       _IN_Button14Down           00407c20 f   cl_input.obj
 0001:00006c30       _IN_Button14Up             00407c30 f   cl_input.obj
 0001:00006c40       _IN_Button1Down            00407c40 f   cl_input.obj
 0001:00006c50       _IN_Button1Up              00407c50 f   cl_input.obj
 0001:00006c60       _IN_Button2Down            00407c60 f   cl_input.obj
 0001:00006c70       _IN_Button2Up              00407c70 f   cl_input.obj
 0001:00006c80       _IN_Button3Down            00407c80 f   cl_input.obj
 0001:00006c90       _IN_Button3Up              00407c90 f   cl_input.obj
 0001:00006ca0       _IN_Button4Down            00407ca0 f   cl_input.obj
 0001:00006cb0       _IN_Button4Up              00407cb0 f   cl_input.obj
 0001:00006cc0       _IN_Button5Down            00407cc0 f   cl_input.obj
 0001:00006cd0       _IN_Button5Up              00407cd0 f   cl_input.obj
 0001:00006ce0       _IN_Button6Down            00407ce0 f   cl_input.obj
 0001:00006cf0       _IN_Button6Up              00407cf0 f   cl_input.obj
 0001:00006d00       _IN_Button7Down            00407d00 f   cl_input.obj
 0001:00006d10       _IN_Button7Up              00407d10 f   cl_input.obj
 0001:00006d20       _IN_Button8Down            00407d20 f   cl_input.obj
 0001:00006d30       _IN_Button8Up              00407d30 f   cl_input.obj
 0001:00006d40       _IN_Button9Down            00407d40 f   cl_input.obj
 0001:00006d50       _IN_Button9Up              00407d50 f   cl_input.obj
 0001:00006d60       _IN_CenterView             00407d60 f   cl_input.obj
 0001:00006d90       _IN_DownDown               00407d90 f   cl_input.obj
 0001:00006da0       _IN_DownUp                 00407da0 f   cl_input.obj
 0001:00006db0       _IN_ForwardDown            00407db0 f   cl_input.obj
 0001:00006dc0       _IN_ForwardUp              00407dc0 f   cl_input.obj
 0001:00006dd0       _IN_KeyDown                00407dd0 f   cl_input.obj
 0001:00006e50       _IN_KeyUp                  00407e50 f   cl_input.obj
 0001:00006ef0       _IN_LeftDown               00407ef0 f   cl_input.obj
 0001:00006f00       _IN_LeftUp                 00407f00 f   cl_input.obj
 0001:00006f10       _IN_LookdownDown           00407f10 f   cl_input.obj
 0001:00006f20       _IN_LookdownUp             00407f20 f   cl_input.obj
 0001:00006f30       _IN_LookupDown             00407f30 f   cl_input.obj
 0001:00006f40       _IN_LookupUp               00407f40 f   cl_input.obj
 0001:00006f50       _IN_MLookDown              00407f50 f   cl_input.obj
 0001:00006f60       _IN_MLookUp                00407f60 f   cl_input.obj
 0001:00006fa0       _IN_MoveleftDown           00407fa0 f   cl_input.obj
 0001:00006fb0       _IN_MoveleftUp             00407fb0 f   cl_input.obj
 0001:00006fc0       _IN_MoverightDown          00407fc0 f   cl_input.obj
 0001:00006fd0       _IN_MoverightUp            00407fd0 f   cl_input.obj
 0001:00006fe0       _IN_RightDown              00407fe0 f   cl_input.obj
 0001:00006ff0       _IN_RightUp                00407ff0 f   cl_input.obj
 0001:00007000       _IN_SpeedDown              00408000 f   cl_input.obj
 0001:00007010       _IN_SpeedUp                00408010 f   cl_input.obj
 0001:00007020       _IN_StrafeDown             00408020 f   cl_input.obj
 0001:00007030       _IN_StrafeUp               00408030 f   cl_input.obj
 0001:00007040       _IN_UpDown                 00408040 f   cl_input.obj
 0001:00007050       _IN_UpUp                   00408050 f   cl_input.obj
 0001:00007060       _CL_AddKeyUpCommands       00408060 f   cl_keys.obj
 0001:00007140       _CL_CharEvent              00408140 f   cl_keys.obj
 0001:000071b0       _CL_InitKeyCommands        004081b0 f   cl_keys.obj
 0001:000071f0       _CL_KeyEvent               004081f0 f   cl_keys.obj
 0001:000075a0       _Console_Key               004085a0 f   cl_keys.obj
 0001:00007910       _Field_BigDraw             00408910 f   cl_keys.obj
 0001:00007930       _Field_CharEvent           00408930 f   cl_keys.obj
 0001:00007a40       _Field_Draw                00408a40 f   cl_keys.obj
 0001:00007a60       _Field_KeyDownEvent        00408a60 f   cl_keys.obj
 0001:00007ba0       _Field_Paste               00408ba0 f   cl_keys.obj
 0001:00007d10       _Field_VariableSizeDraw    00408d10 f   cl_keys.obj
 0001:00007ee0       _Key_Bind_f                00408ee0 f   cl_keys.obj
 0001:00008090       _Key_Bindlist_f            00409090 f   cl_keys.obj
 0001:00008180       _Key_ClearStates           00409180 f   cl_keys.obj
 0001:00008240       _Key_GetBinding            00409240 f   cl_keys.obj
 0001:00008260       _Key_GetKey                00409260 f   cl_keys.obj
 0001:000082b0       _Key_GetOverstrikeMode     004092b0 f   cl_keys.obj
 0001:000082c0       _Key_IsDown                004092c0 f   cl_keys.obj
 0001:000082e0       _Key_KeynumToString        004092e0 f   cl_keys.obj
 0001:00008390       _Key_SetBinding            00409390 f   cl_keys.obj
 0001:000083d0       _Key_SetOverstrikeMode     004093d0 f   cl_keys.obj
 0001:000083e0       _Key_StringToKeynum        004093e0 f   cl_keys.obj
 0001:000084b0       _Key_Unbind_f              004094b0 f   cl_keys.obj
 0001:00008530       _Key_Unbindall_f           00409530 f   cl_keys.obj
 0001:00008580       _Key_WriteBindings         00409580 f   cl_keys.obj
 0001:00008690       _Message_Key               00409690 f   cl_keys.obj
 0001:00008780       _CL_AddReliableCommand     00409780 f   cl_main.obj
 0001:000087e0       _CL_BeginDownload          004097e0 f   cl_main.obj
 0001:000088e0       _CL_CDDialog               004098e0 f   cl_main.obj
 0001:000088f0       _CL_CDKeyValidate          004098f0 f   cl_main.obj
 0001:000089e0       _CL_CheckForResend         004099e0 f   cl_main.obj
 0001:00008c20       _CL_CheckTimeout           00409c20 f   cl_main.obj
 0001:00008ca0       _CL_ClearPing              00409ca0 f   cl_main.obj
 0001:00008cc0       _CL_ClearState             00409cc0 f   cl_main.obj
 0001:00008ce0       _CL_Clientinfo_f           00409ce0 f   cl_main.obj
 0001:00008d30       _CL_Configstrings_f        00409d30 f   cl_main.obj
 0001:00008d80       _CL_Connect_f              00409d80 f   cl_main.obj
 0001:00008f40       _CL_ConnectionlessPacket   00409f40 f   cl_main.obj
 0001:000092f0       _CL_DemoCompleted          0040a2f0 f   cl_main.obj
 0001:00009370       _CL_DemoFilename           0040a370 f   cl_main.obj
 0001:00009400       _CL_Disconnect             0040a400 f   cl_main.obj
 0001:00009530       _CL_DisconnectPacket       0040a530 f   cl_main.obj
 0001:000095b0       _CL_Disconnect_f           0040a5b0 f   cl_main.obj
 0001:000095f0       _CL_DownloadsComplete      0040a5f0 f   cl_main.obj
 0001:000096c0       _CL_FlushMemory            0040a6c0 f   cl_main.obj
 0001:00009730       _CL_ForwardCommandToServer 0040a730 f   cl_main.obj
 0001:00009790       _CL_ForwardToServer_f      0040a790 f   cl_main.obj
 0001:000097d0       _CL_Frame                  0040a7d0 f   cl_main.obj
 0001:00009950       _CL_GetFreePing            0040a950 f   cl_main.obj
 0001:00009a10       _CL_GetPing                0040aa10 f   cl_main.obj
 0001:00009ae0       _CL_GetPingInfo            0040aae0 f   cl_main.obj
 0001:00009b20       _CL_GetPingQueueCount      0040ab20 f   cl_main.obj
 0001:00009b70       _CL_GetServerStatus        0040ab70 f   cl_main.obj
 0001:00009cb0       _CL_GlobalServers_f        0040acb0 f   cl_main.obj
 0001:00009e50       _CL_Init                   0040ae50 f   cl_main.obj
 0001:0000a480       _CL_InitDownloads          0040b480 f   cl_main.obj
 0001:0000a530       _CL_InitRef                0040b530 f   cl_main.obj
 0001:0000a650       _CL_InitRenderer           0040b650 f   cl_main.obj
 0001:0000a6b0       _CL_InitServerInfo         0040b6b0 f   cl_main.obj
 0001:0000a730       _CL_LocalServers_f         0040b730 f   cl_main.obj
 0001:0000a830       _CL_MapLoading             0040b830 f   cl_main.obj
 0001:0000a920       _CL_MotdPacket             0040b920 f   cl_main.obj
 0001:0000a9e0       _CL_NextDemo               0040b9e0 f   cl_main.obj
 0001:0000aa70       _CL_NextDownload           0040ba70 f   cl_main.obj
 0001:0000ab10       _CL_OpenedPK3List_f        0040bb10 f   cl_main.obj
 0001:0000ab30       _CL_PacketEvent            0040bb30 f   cl_main.obj
 0001:0000ac70       _CL_Ping_f                 0040bc70 f   cl_main.obj
 0001:0000ad40       _CL_PlayDemo_f             0040bd40 f   cl_main.obj
 0001:0000af90       _CL_Rcon_f                 0040bf90 f   cl_main.obj
 0001:0000b160       _CL_ReadDemoMessage        0040c160 f   cl_main.obj
 0001:0000b280       _CL_Reconnect_f            0040c280 f   cl_main.obj
 0001:0000b300       _CL_Record_f               0040c300 f   cl_main.obj
 0001:0000b6b0       _CL_RefMalloc              0040c6b0 f   cl_main.obj
 0001:0000b6d0       _CL_RefPrintf              0040c6d0 f   cl_main.obj
 0001:0000b780       _CL_ReferencedPK3List_f    0040c780 f   cl_main.obj
 0001:0000b7a0       _CL_RequestAuthorization   0040c7a0 f   cl_main.obj
 0001:0000b950       _CL_RequestMotd            0040c950 f   cl_main.obj
 0001:0000bad0       _CL_ResetPureClientAtServer 0040cad0 f   cl_main.obj
 0001:0000bb30       _CL_ScaledMilliseconds     0040cb30 f   cl_main.obj
 0001:0000bb50       _CL_SendPureChecksums      0040cb50 f   cl_main.obj
 0001:0000bc30       _CL_ServerInfoPacket       0040cc30 f   cl_main.obj
 0001:0000bfa0       _CL_ServerStatus           0040cfa0 f   cl_main.obj
 0001:0000c190       _CL_ServerStatusResponse   0040d190 f   cl_main.obj
 0001:0000c490       _CL_ServerStatus_f         0040d490 f   cl_main.obj
 0001:0000c590       _CL_ServersResponsePacket  0040d590 f   cl_main.obj
 0001:0000c820       _CL_SetModel_f             0040d820 f   cl_main.obj
 0001:0000cb30       _CL_Setenv_f               0040db30 f   cl_main.obj
 0001:0000cc70       _CL_ShowIP_f               0040dc70 f   cl_main.obj
 0001:0000cc80       _CL_Shutdown               0040dc80 f   cl_main.obj
 0001:0000cde0       _CL_ShutdownAll            0040dde0 f   cl_main.obj
 0001:0000ce30       _CL_Snd_Restart_f          0040de30 f   cl_main.obj
 0001:0000ce40       _CL_StartDemoLoop          0040de40 f   cl_main.obj
 0001:0000ce60       _CL_StartHunkUsers         0040de60 f   cl_main.obj
 0001:0000ced0       _CL_StopRecord_f           0040ded0 f   cl_main.obj
 0001:0000cf60       _CL_UpdateVisiblePings_f   0040df60 f   cl_main.obj
 0001:0000d260       _CL_Vid_Restart_f          0040e260 f   cl_main.obj
 0001:0000d3b0       _CL_WriteDemoMessage       0040e3b0 f   cl_main.obj
 0001:0000d580       _CL_Netchan_Process        0040e580 f   cl_net_chan.obj
 0001:0000d5c0       _CL_Netchan_Transmit       0040e5c0 f   cl_net_chan.obj
 0001:0000d5f0       _CL_Netchan_TransmitNextFragment 0040e5f0 f   cl_net_chan.obj
 0001:0000d600       _CL_ParseDownload          0040e600 f   cl_parse.obj
 0001:0000d800       _CL_ParseGamestate         0040e800 f   cl_parse.obj
 0001:0000d9d0       _CL_ParsePacketEntities    0040e9d0 f   cl_parse.obj
 0001:0000dce0       _CL_ParseServerMessage     0040ece0 f   cl_parse.obj
 0001:0000de70       _CL_ParseSnapshot          0040ee70 f   cl_parse.obj
 0001:0000e110       _CL_SystemInfoChanged      0040f110 f   cl_parse.obj
 0001:0000e2a0       _SCR_AdjustFrom640         0040f2a0 f   cl_scrn.obj
 0001:0000e330       _SCR_DebugGraph            0040f330 f   cl_scrn.obj
 0001:0000e370       _SCR_DrawBigString         0040f370 f   cl_scrn.obj
 0001:0000e4e0       _SCR_DrawDebugGraph        0040f4e0 f   cl_scrn.obj
 0001:0000e690       _SCR_DrawDemoRecording     0040f690 f   cl_scrn.obj
 0001:0000e740       _SCR_DrawPic               0040f740 f   cl_scrn.obj
 0001:0000e7e0       _SCR_DrawScreenField       0040f7e0 f   cl_scrn.obj
 0001:0000e9e0       _SCR_DrawSmallChar         0040f9e0 f   cl_scrn.obj
 0001:0000eaa0       _SCR_DrawSmallStringExt    0040faa0 f   cl_scrn.obj
 0001:0000ec20       _SCR_DrawStringExt         0040fc20 f   cl_scrn.obj
 0001:0000ed80       _SCR_FillRect              0040fd80 f   cl_scrn.obj
 0001:0000ee30       _SCR_Init                  0040fe30 f   cl_scrn.obj
 0001:0000eec0       _SCR_UpdateScreen          0040fec0 f   cl_scrn.obj
 0001:0000f070       _CL_InitUI                 00410070 f   cl_ui.obj
 0001:0000f130       _CL_ShutdownUI             00410130 f   cl_ui.obj
 0001:0000f170       _CL_UISystemCalls          00410170 f   cl_ui.obj
 0001:0000fff0       _Key_GetCatcher            00410ff0 f   cl_ui.obj
 0001:00010000       _Key_SetCatcher            00411000 f   cl_ui.obj
 0001:000106c0       _LAN_LoadCachedServers     004116c0 f   cl_ui.obj
 0001:00010a50       _LAN_SaveServersToCache    00411a50 f   cl_ui.obj
 0001:00010b60       _UI_GameCommand            00411b60 f   cl_ui.obj
 0001:00010b80       _UI_usesUniqueCDKey        00411b80 f   cl_ui.obj
 0001:00010ba0       _S_AdpcmDecode             00411ba0 f   snd_adpcm.obj
 0001:00010cb0       _S_AdpcmEncodeSound        00411cb0 f   snd_adpcm.obj
 0001:00010e60       _S_AdpcmGetSamples         00411e60 f   snd_adpcm.obj
 0001:00010eb0       _S_AddLoopSounds           00411eb0 f   snd_dma.obj
 0001:00011060       _S_AddLoopingSound         00412060 f   snd_dma.obj
 0001:000112c0       _S_AddRealLoopingSound     004122c0 f   snd_dma.obj
 0001:000113c0       _S_BeginRegistration       004123c0 f   snd_dma.obj
 0001:00011420       _S_ChannelSetup            00412420 f   snd_dma.obj
 0001:00011470       _S_ClearLoopingSounds      00412470 f   snd_dma.obj
 0001:000114c0       _S_ClearSoundBuffer        004124c0 f   snd_dma.obj
 0001:00011560       _S_DisableSounds           00412560 f   snd_dma.obj
 0001:000116d0       _S_FindWavChunk            004126d0 f   snd_dma.obj
 0001:00011770       _S_FreeOldestSound         00412770 f   snd_dma.obj
 0001:00011800       _S_GetSoundtime            00412800 f   snd_dma.obj
 0001:00011910       _S_Init                    00412910 f   snd_dma.obj
 0001:00011ad0       _S_Music_f                 00412ad0 f   snd_dma.obj
 0001:00011b30       _S_Play_f                  00412b30 f   snd_dma.obj
 0001:00011c30       _S_RawSamples              00412c30 f   snd_dma.obj
 0001:00011ef0       _S_RegisterSound           00412ef0 f   snd_dma.obj
 0001:00011fb0       _S_Respatialize            00412fb0 f   snd_dma.obj
 0001:00012130       _S_ScanChannelStarts       00413130 f   snd_dma.obj
 0001:000121b0       _S_Shutdown                004131b0 f   snd_dma.obj
 0001:00012200       _S_SoundInfo_f             00413200 f   snd_dma.obj
 0001:000122f0       _S_SoundList_f             004132f0 f   snd_dma.obj
 0001:000123f0       _S_SpatializeOrigin        004133f0 f   snd_dma.obj
 0001:00012560       _S_StartBackgroundTrack    00413560 f   snd_dma.obj
 0001:00012820       _S_StartLocalSound         00413820 f   snd_dma.obj
 0001:00012870       _S_StartSound              00413870 f   snd_dma.obj
 0001:00012b20       _S_StopAllSounds           00413b20 f   snd_dma.obj
 0001:00012b60       _S_StopBackgroundTrack     00413b60 f   snd_dma.obj
 0001:00012ba0       _S_StopLoopingSound        00413ba0 f   snd_dma.obj
 0001:00012bd0       _S_Update                  00413bd0 f   snd_dma.obj
 0001:00012c60       _S_UpdateBackgroundTrack   00413c60 f   snd_dma.obj
 0001:00012e50       _S_UpdateEntityPosition    00413e50 f   snd_dma.obj
 0001:00012ea0       _S_Update_                 00413ea0 f   snd_dma.obj
 0001:00012fc0       _S_memoryLoad              00413fc0 f   snd_dma.obj
 0001:000133d0       _SND_free                  004143d0 f   snd_mem.obj
 0001:000133f0       _SND_malloc                004143f0 f   snd_mem.obj
 0001:00013440       _SND_setup                 00414440 f   snd_mem.obj
 0001:000134d0       _S_DisplayFreeMemory       004144d0 f   snd_mem.obj
 0001:000134f0       _S_LoadSound               004144f0 f   snd_mem.obj
 0001:00013840       _S_PaintChannelFromADPCM   00414840 f   snd_mix.obj
 0001:00013960       _S_PaintChannelFromMuLaw   00414960 f   snd_mix.obj
 0001:00013ab0       _S_PaintChannelFromWavelet 00414ab0 f   snd_mix.obj
 0001:00013bb0       _S_PaintChannels           00414bb0 f   snd_mix.obj
 0001:00013e60       _S_TransferPaintBuffer     00414e60 f   snd_mix.obj
 0001:00013fc0       _S_TransferStereo16        00414fc0 f   snd_mix.obj
 0001:00014030       _S_WriteLinearBlastStereo16 00415030 f   snd_mix.obj
 0001:000140b0       _daub4                     004150b0 f   snd_wavelet.obj
 0001:00014410       _decodeWavelet             00415410 f   snd_wavelet.obj
 0001:00014540       _AddPointToBounds          00415540 f   q_math.obj
 0001:000145c0       _AngleVectors              004155c0 f   q_math.obj
 0001:00014780       _AxisClear                 00415780 f   q_math.obj
 0001:000147d0       _AxisCopy                  004157d0 f   q_math.obj
 0001:00014810       _BoxOnPlaneSide            00415810 f   q_math.obj
 0001:00014a50       _ClampChar                 00415a50 f   q_math.obj
 0001:00014a70       _ClearBounds               00415a70 f   q_math.obj
 0001:00014ab0       _ColorBytes4               00415ab0 f   q_math.obj
 0001:00014b00       _MakeNormalVectors         00415b00 f   q_math.obj
 0001:00014c70       _MatrixMultiply            00415c70 f   q_math.obj
 0001:00014e00       _PerpendicularVector       00415e00 f   q_math.obj
 0001:00014fd0       _PlaneFromPoints           00415fd0 f   q_math.obj
 0001:00015120       _Q_fabs                    00416120 f   q_math.obj
 0001:00015130       _Q_random                  00416130 f   q_math.obj
 0001:00015160       _Q_rsqrt                   00416160 f   q_math.obj
 0001:000151b0       _RadiusFromBounds          004161b0 f   q_math.obj
 0001:00015270       _RotatePointAroundVector   00416270 f   q_math.obj
 0001:00015690       _SetPlaneSignbits          00416690 f   q_math.obj
 0001:000156c0       _VectorNormalize           004166c0 f   q_math.obj
 0001:00015780       _VectorNormalize2          00416780 f   q_math.obj
 0001:00015830       _VectorRotate              00416830 f   q_math.obj
 0001:000158c0       _vectoangles               004168c0 f   q_math.obj
 0001:00015a40       _COM_Compress              00416a40 f   q_shared.obj
 0001:00015b50       _COM_DefaultExtension      00416b50 f   q_shared.obj
 0001:00015be0       _COM_Parse                 00416be0 f   q_shared.obj
 0001:00015c00       _COM_ParseExt              00416c00 f   q_shared.obj
 0001:00015d90       _COM_SkipPath              00416d90 f   q_shared.obj
 0001:00015dc0       _COM_StripExtension        00416dc0 f   q_shared.obj
 0001:00015df0       _Com_sprintf               00416df0 f   q_shared.obj
 0001:00015eb0       _Info_NextPair             00416eb0 f   q_shared.obj
 0001:00015f20       _Info_RemoveKey            00416f20 f   q_shared.obj
 0001:00016030       _Info_RemoveKey_Big        00417030 f   q_shared.obj
 0001:00016150       _Info_SetValueForKey       00417150 f   q_shared.obj
 0001:00016300       _Info_SetValueForKey_Big   00417300 f   q_shared.obj
 0001:000164a0       _Info_ValueForKey          004174a0 f   q_shared.obj
 0001:000165c0       _Q_CleanStr                004175c0 f   q_shared.obj
 0001:00016610       _Q_PrintStrlen             00417610 f   q_shared.obj
 0001:00016650       _Q_strcat                  00417650 f   q_shared.obj
 0001:000166e0       _Q_stricmp                 004176e0 f   q_shared.obj
 0001:00016710       _Q_stricmpn                00417710 f   q_shared.obj
 0001:00016790       _Q_strlwr                  00417790 f   q_shared.obj
 0001:000167c0       _Q_strncmp                 004177c0 f   q_shared.obj
 0001:00016810       _Q_strncpyz                00417810 f   q_shared.obj
 0001:00016870       _Q_strrchr                 00417870 f   q_shared.obj
 0001:000168a0       _ShortSwap                 004178a0 f   q_shared.obj
 0001:000168c0       _SkipBracedSection         004178c0 f   q_shared.obj
 0001:00016a30       _SkipRestOfLine            00417a30 f   q_shared.obj
 0001:00016a60       _va                        00417a60 f   q_shared.obj
 0001:00016aa0       _Cbuf_AddText              00417aa0 f   cmd.obj
 0001:00016b00       _Cbuf_Execute              00417b00 f   cmd.obj
 0001:00016ce0       _Cbuf_ExecuteText          00417ce0 f   cmd.obj
 0001:00016d50       _Cbuf_Init                 00417d50 f   cmd.obj
 0001:00016d70       _Cbuf_InsertText           00417d70 f   cmd.obj
 0001:00016df0       _Cmd_AddCommand            00417df0 f   cmd.obj
 0001:00016e80       _Cmd_Argc                  00417e80 f   cmd.obj
 0001:00016e90       _Cmd_Args                  00417e90 f   cmd.obj
 0001:00016f30       _Cmd_ArgsBuffer            00417f30 f   cmd.obj
 0001:00016f50       _Cmd_ArgsFrom              00417f50 f   cmd.obj
 0001:00017000       _Cmd_Argv                  00418000 f   cmd.obj
 0001:00017020       _Cmd_ArgvBuffer            00418020 f   cmd.obj
 0001:00017060       _Cmd_Cmd                   00418060 f   cmd.obj
 0001:00017070       _Cmd_CommandCompletion     00418070 f   cmd.obj
 0001:000170a0       _Cmd_Echo_f                004180a0 f   cmd.obj
 0001:000170f0       _Cmd_Exec_f                004180f0 f   cmd.obj
 0001:000171d0       _Cmd_ExecuteString         004181d0 f   cmd.obj
 0001:000172a0       _Cmd_Init                  004182a0 f   cmd.obj
 0001:000172f0       _Cmd_List_f                004182f0 f   cmd.obj
 0001:00017360       _Cmd_RemoveCommand         00418360 f   cmd.obj
 0001:000173e0       _Cmd_TokenizeString        004183e0 f   cmd.obj
 0001:00017500       _Cmd_Vstr_f                00418500 f   cmd.obj
 0001:00017540       _Cmd_Wait_f                00418540 f   cmd.obj
 0001:00017570       _CM_ClearMap               00418570 f   cm_load.obj
 0001:00017590       _CM_ClipHandleToModel      00418590 f   cm_load.obj
 0001:00017610       _CM_EntityString           00418610 f   cm_load.obj
 0001:00017620       _CM_InitBoxHull            00418620 f   cm_load.obj
 0001:00017760       _CM_InlineModel            00418760 f   cm_load.obj
 0001:00017790       _CM_LeafArea               00418790 f   cm_load.obj
 0001:000177d0       _CM_LeafCluster            004187d0 f   cm_load.obj
 0001:00017800       _CM_LoadMap                00418800 f   cm_load.obj
 0001:00017aa0       _CM_ModelBounds            00418aa0 f   cm_load.obj
 0001:00017ae0       _CM_NumInlineModels        00418ae0 f   cm_load.obj
 0001:00017af0       _CM_TempBoxModel           00418af0 f   cm_load.obj
 0001:00017c60       _CMod_LoadBrushSides       00418c60 f   cm_load.obj
 0001:00017d10       _CMod_LoadBrushes          00418d10 f   cm_load.obj
 0001:00017e60       _CMod_LoadLeafBrushes      00418e60 f   cm_load.obj
 0001:00017ed0       _CMod_LoadLeafSurfaces     00418ed0 f   cm_load.obj
 0001:00017f40       _CMod_LoadLeafs            00418f40 f   cm_load.obj
 0001:00018050       _CMod_LoadNodes            00419050 f   cm_load.obj
 0001:00018100       _CMod_LoadPatches          00419100 f   cm_load.obj
 0001:00018350       _CMod_LoadPlanes           00419350 f   cm_load.obj
 0001:00018460       _CMod_LoadShaders          00419460 f   cm_load.obj
 0001:000184f0       _CMod_LoadSubmodels        004194f0 f   cm_load.obj
 0001:000186b0       _CMod_LoadVisibility       004196b0 f   cm_load.obj
 0001:00018740       _CM_AddFacetBevels         00419740 f   cm_patch.obj
 0001:00019220       _CM_ClearLevelPatches      0041a220 f   cm_patch.obj
 0001:00019240       _CM_DrawDebugSurface       0041a240 f   cm_patch.obj
 0001:00019a00       _CM_FindPlane2             0041aa00 f   cm_patch.obj
 0001:00019be0       _CM_GeneratePatchCollide   0041abe0 f   cm_patch.obj
 0001:0001a820       _CM_PositionTestInPatchCollide 0041b820 f   cm_patch.obj
 0001:0001b060       _CM_SnapVector             0041c060 f   cm_patch.obj
 0001:0001b510       _CM_TracePointThroughPatchCollide 0041c510 f   cm_patch.obj
 0001:0001b870       _CM_TraceThroughPatchCollide 0041c870 f   cm_patch.obj
 0001:0001c1f0       _BaseWindingForPlane       0041d1f0 f   cm_polylib.obj
 0001:0001c530       _ChopWindingInPlace        0041d530 f   cm_polylib.obj
 0001:0001c960       _CopyWinding               0041d960 f   cm_polylib.obj
 0001:0001c9d0       _FreeWinding               0041d9d0 f   cm_polylib.obj
 0001:0001ca10       _WindingBounds             0041da10 f   cm_polylib.obj
 0001:0001cac0       _CM_AdjustAreaPortalState  0041dac0 f   cm_test.obj
 0001:0001cb80       _CM_AreasConnected         0041db80 f   cm_test.obj
 0001:0001cbe0       _CM_BoxLeafnums            0041dbe0 f   cm_test.obj
 0001:0001cc90       _CM_BoxLeafnums_r          0041dc90 f   cm_test.obj
 0001:0001cd00       _CM_ClusterPVS             0041dd00 f   cm_test.obj
 0001:0001cd40       _CM_FloodAreaConnections   0041dd40 f   cm_test.obj
 0001:0001ce00       _CM_FloodArea_r            0041de00 f   cm_test.obj
 0001:0001ce80       _CM_PointContents          0041de80 f   cm_test.obj
 0001:0001cf70       _CM_PointLeafnum           0041df70 f   cm_test.obj
 0001:0001cf90       _CM_PointLeafnum_r         0041df90 f   cm_test.obj
 0001:0001d020       _CM_StoreLeafs             0041e020 f   cm_test.obj
 0001:0001d060       _CM_TransformedPointContents 0041e060 f   cm_test.obj
 0001:0001d1b0       _CM_WriteAreaBits          0041e1b0 f   cm_test.obj
 0001:0001d240       _CM_BoxTrace               0041e240 f   cm_trace.obj
 0001:0001d270       _CM_PositionTest           0041e270 f   cm_trace.obj
 0001:0001d3c0       _CM_TestBoundingBoxInCapsule 0041e3c0 f   cm_trace.obj
 0001:0001d510       _CM_TestBoxInBrush         0041e510 f   cm_trace.obj
 0001:0001d750       _CM_TestCapsuleInCapsule   0041e750 f   cm_trace.obj
 0001:0001da20       _CM_TestInLeaf             0041ea20 f   cm_trace.obj
 0001:0001db20       _CM_Trace                  0041eb20 f   cm_trace.obj
 0001:0001e300       _CM_TraceBoundingBoxThroughCapsule 0041f300 f   cm_trace.obj
 0001:0001e450       _CM_TraceCapsuleThroughCapsule 0041f450 f   cm_trace.obj
 0001:0001e720       _CM_TraceThroughBrush      0041f720 f   cm_trace.obj
 0001:0001eb90       _CM_TraceThroughLeaf       0041fb90 f   cm_trace.obj
 0001:0001ecc0       _CM_TraceThroughSphere     0041fcc0 f   cm_trace.obj
 0001:0001f200       _CM_TraceThroughTree       00420200 f   cm_trace.obj
 0001:0001f5a0       _CM_TraceThroughVerticalCylinder 004205a0 f   cm_trace.obj
 0001:0001fac0       _CM_TransformedBoxTrace    00420ac0 f   cm_trace.obj
 0001:0001ffd0       _Com_AddStartupCommands    00420fd0 f   common.obj
 0001:00020030       _Com_AppendCDKey           00421030 f   common.obj
 0001:00020120       _Com_BeginRedirect         00421120 f   common.obj
 0001:00020160       _Com_DPrintf               00421160 f   common.obj
 0001:000201c0       _Com_EndRedirect           004211c0 f   common.obj
 0001:00020200       _Com_Error                 00421200 f   common.obj
 0001:000203f0       _Com_EventLoop             004213f0 f   common.obj
 0001:00020790       _Com_Filter                00421790 f   common.obj
 0001:00020a10       _Com_FilterPath            00421a10 f   common.obj
 0001:00020d10       _Com_Frame                 00421d10 f   common.obj
 0001:00021050       _Com_GetRealEvent          00422050 f   common.obj
 0001:00021160       _Com_HashKey               00422160 f   common.obj
 0001:000211b0       _Com_Init                  004221b0 f   common.obj
 0001:00021600       _Com_InitHunkMemory        00422600 f   common.obj
 0001:00021740       _Com_InitJournaling        00422740 f   common.obj
 0001:00021820       _Com_InitSmallZoneMemory   00422820 f   common.obj
 0001:000218c0       _Com_InitZoneMemory        004228c0 f   common.obj
 0001:00021980       _Com_Memcpy                00422980 f   common.obj
 0001:00021a90       _Com_Meminfo_f             00422a90 f   common.obj
 0001:00021cf0       _Com_Memset                00422cf0 f   common.obj
 0001:00021da0       _Com_Milliseconds          00422da0 f   common.obj
 0001:00021e10       _Com_ModifyMsec            00422e10 f   common.obj
 0001:00021ec0       _Com_ParseCommandLine      00422ec0 f   common.obj
 0001:00021f30       _Com_Prefetch              00422f30 f   common.obj
 0001:00021f70       _Com_Printf                00422f70 f   common.obj
 0001:00022130       _Com_PushEvent             00423130 f   common.obj
 0001:000221d0       _Com_Quit_f                004231d0 f   common.obj
 0001:00022240       _Com_ReadCDKey             00423240 f   common.obj
 0001:000222f0       _Com_RealTime              004232f0 f   common.obj
 0001:00022360       _Com_RunAndTimeServerPacket 00423360 f   common.obj
 0001:000223d0       _Com_SafeMode              004233d0 f   common.obj
 0001:00022450       _Com_Shutdown              00423450 f   common.obj
 0001:00022490       _Com_StartupVariable       00423490 f   common.obj
 0001:00022570       _Com_StringContains        00423570 f   common.obj
 0001:00022630       _Com_TouchMemory           00423630 f   common.obj
 0001:00022740       _Com_WriteConfigToFile     00423740 f   common.obj
 0001:00022790       _Com_WriteConfig_f         00423790 f   common.obj
 0001:00022860       _Com_WriteConfiguration    00423860 f   common.obj
 0001:00022930       _CopyString                00423930 f   common.obj
 0001:000229a0       _Field_Clear               004239a0 f   common.obj
 0001:000229d0       _Field_CompleteCommand     004239d0 f   common.obj
 0001:00022c30       _Hunk_Alloc                00423c30 f   common.obj
 0001:00022d50       _Hunk_AllocateTempMemory   00423d50 f   common.obj
 0001:00022e30       _Hunk_CheckMark            00423e30 f   common.obj
 0001:00022e50       _Hunk_Clear                00423e50 f   common.obj
 0001:00022ea0       _Hunk_ClearTempMemory      00423ea0 f   common.obj
 0001:00022ec0       _Hunk_ClearToMark          00423ec0 f   common.obj
 0001:00022ee0       _Hunk_FreeTempMemory       00423ee0 f   common.obj
 0001:00022f60       _Hunk_MemoryRemaining      00423f60 f   common.obj
 0001:00022f90       _Hunk_SetMark              00423f90 f   common.obj
 0001:00022ff0       _Info_Print                00423ff0 f   common.obj
 0001:00023140       _Q_acos                    00424140 f   common.obj
 0001:00023180       _S_Malloc                  00424180 f   common.obj
 0001:000231a0       _Z_AvailableMemory         004241a0 f   common.obj
 0001:000231b0       _Z_CheckHeap               004241b0 f   common.obj
 0001:00023230       _Z_Free                    00424230 f   common.obj
 0001:00023320       _Z_Malloc                  00424320 f   common.obj
 0001:00023350       _Z_TagMalloc               00424350 f   common.obj
 0001:00023440       __copyDWord                00424440 f   common.obj
 0001:000235a0       _Cvar_Command              004245a0 f   cvar.obj
 0001:00023620       _Cvar_CommandCompletion    00424620 f   cvar.obj
 0001:000236a0       _Cvar_Get                  004246a0 f   cvar.obj
 0001:00023880       _Cvar_InfoString           00424880 f   cvar.obj
 0001:000238d0       _Cvar_InfoStringBuffer     004248d0 f   cvar.obj
 0001:000238f0       _Cvar_InfoString_Big       004248f0 f   cvar.obj
 0001:00023940       _Cvar_Init                 00424940 f   cvar.obj
 0001:000239e0       _Cvar_List_f               004249e0 f   cvar.obj
 0001:00023b30       _Cvar_Register             00424b30 f   cvar.obj
 0001:00023b80       _Cvar_Reset                00424b80 f   cvar.obj
 0001:00023ba0       _Cvar_Reset_f              00424ba0 f   cvar.obj
 0001:00023bd0       _Cvar_Restart_f            00424bd0 f   cvar.obj
 0001:00023c60       _Cvar_Set                  00424c60 f   cvar.obj
 0001:00023c80       _Cvar_Set2                 00424c80 f   cvar.obj
 0001:00023f00       _Cvar_SetA_f               00424f00 f   cvar.obj
 0001:00023f40       _Cvar_SetCheatState        00424f40 f   cvar.obj
 0001:00023fc0       _Cvar_SetLatched           00424fc0 f   cvar.obj
 0001:00023fe0       _Cvar_SetS_f               00424fe0 f   cvar.obj
 0001:00024020       _Cvar_SetU_f               00425020 f   cvar.obj
 0001:00024060       _Cvar_SetValue             00425060 f   cvar.obj
 0001:000240e0       _Cvar_Set_f                004250e0 f   cvar.obj
 0001:000244d0       _Cvar_Toggle_f             004254d0 f   cvar.obj
 0001:00024540       _Cvar_Update               00425540 f   cvar.obj
 0001:000245f0       _Cvar_VariableIntegerValue 004255f0 f   cvar.obj
 0001:00024610       _Cvar_VariableString       00425610 f   cvar.obj
 0001:00024630       _Cvar_VariableStringBuffer 00425630 f   cvar.obj
 0001:00024660       _Cvar_VariableValue        00425660 f   cvar.obj
 0001:00024680       _Cvar_WriteVariables       00425680 f   cvar.obj
 0001:000249b0       _FS_BuildOSPath            004259b0 f   files.obj
 0001:00024a70       _FS_ClearPakReferences     00425a70 f   files.obj
 0001:00024ab0       _FS_ComparePaks            00425ab0 f   files.obj
 0001:00024cb0       _FS_ConditionalRestart     00425cb0 f   files.obj
 0001:00024e70       _FS_Dir_f                  00425e70 f   files.obj
 0001:00024f40       _FS_FCloseFile             00425f40 f   files.obj
 0001:00025000       _FS_FOpenFileAppend        00426000 f   files.obj
 0001:000250f0       _FS_FOpenFileByMode        004260f0 f   files.obj
 0001:00025230       _FS_FOpenFileRead          00426230 f   files.obj
 0001:00025950       _FS_FOpenFileWrite         00426950 f   files.obj
 0001:00025a40       _FS_FTell                  00426a40 f   files.obj
 0001:00025a70       _FS_FileExists             00426a70 f   files.obj
 0001:00025b10       _FS_FileIsInPAK            00426b10 f   files.obj
 0001:00025c30       _FS_FilenameCompare        00426c30 f   files.obj
 0001:00025ca0       _FS_Flush                  00426ca0 f   files.obj
 0001:00025cc0       _FS_ForceFlush             00426cc0 f   files.obj
 0001:00025ce0       _FS_FreeFile               00426ce0 f   files.obj
 0001:00025d40       _FS_FreeFileList           00426d40 f   files.obj
 0001:00025da0       _FS_GetFileList            00426da0 f   files.obj
 0001:00025eb0       _FS_GetModList             00426eb0 f   files.obj
 0001:00026340       _FS_InitFilesystem         00427340 f   files.obj
 0001:000263e0       _FS_Initialized            004273e0 f   files.obj
 0001:000263f0       _FS_ListFiles              004273f0 f   files.obj
 0001:00026410       _FS_ListFilteredFiles      00427410 f   files.obj
 0001:000267a0       _FS_LoadStack              004277a0 f   files.obj
 0001:00026bd0       _FS_LoadedPakChecksums     00427bd0 f   files.obj
 0001:00026c20       _FS_LoadedPakNames         00427c20 f   files.obj
 0001:00026c80       _FS_LoadedPakPureChecksums 00427c80 f   files.obj
 0001:00026cd0       _FS_NewDir_f               00427cd0 f   files.obj
 0001:00026dd0       _FS_PakIsPure              00427dd0 f   files.obj
 0001:00026e10       _FS_PathCmp                00427e10 f   files.obj
 0001:00026e80       _FS_Path_f                 00427e80 f   files.obj
 0001:00026f60       _FS_Printf                 00427f60 f   files.obj
 0001:00026fd0       _FS_PureServerSetLoadedPaks 00427fd0 f   files.obj
 0001:000270e0       _FS_PureServerSetReferencedPaks 004280e0 f   files.obj
 0001:000271a0       _FS_Read                   004281a0 f   files.obj
 0001:00027270       _FS_Read2                  00428270 f   files.obj
 0001:000272e0       _FS_ReadFile               004282e0 f   files.obj
 0001:00027560       _FS_ReferencedPakChecksums 00428560 f   files.obj
 0001:000275d0       _FS_ReferencedPakNames     004285d0 f   files.obj
 0001:00027690       _FS_ReferencedPakPureChecksums 00428690 f   files.obj
 0001:00027880       _FS_Restart                00428880 f   files.obj
 0001:00027a20       _FS_SV_FOpenFileRead       00428a20 f   files.obj
 0001:00027c50       _FS_SV_FOpenFileWrite      00428c50 f   files.obj
 0001:00027d60       _FS_SV_FileExists          00428d60 f   files.obj
 0001:00027dc0       _FS_SV_Rename              00428dc0 f   files.obj
 0001:00027e80       _FS_Seek                   00428e80 f   files.obj
 0001:000281c0       _FS_ShiftedStrStr          004291c0 f   files.obj
 0001:00028240       _FS_Shutdown               00429240 f   files.obj
 0001:00028360       _FS_SortFileList           00429360 f   files.obj
 0001:000287c0       _FS_TouchFile_f            004297c0 f   files.obj
 0001:00028810       _FS_Write                  00429810 f   files.obj
 0001:000288e0       _FS_WriteFile              004298e0 f   files.obj
 0001:00028960       _FS_filelength             00429960 f   files.obj
 0001:000289a0       _FS_idPak                  004299a0 f   files.obj
 0001:00028b70       _Huff_Compress             00429b70 f   huffman.obj
 0001:00028cf0       _Huff_Decompress           00429cf0 f   huffman.obj
 0001:00028fc0       _Huff_Init                 00429fc0 f   huffman.obj
 0001:000290d0       _Huff_Receive              0042a0d0 f   huffman.obj
 0001:00029130       _Huff_addRef               0042a130 f   huffman.obj
 0001:000292e0       _Huff_getBit               0042a2e0 f   huffman.obj
 0001:00029310       _Huff_offsetReceive        0042a310 f   huffman.obj
 0001:00029380       _Huff_offsetTransmit       0042a380 f   huffman.obj
 0001:000293c0       _Huff_putBit               0042a3c0 f   huffman.obj
 0001:00029400       _Huff_transmit             0042a400 f   huffman.obj
 0001:00029790       _Com_BlockChecksum         0042a790 f   md4.obj
 0001:00029810       _Com_BlockChecksumKey      0042a810 f   md4.obj
 0001:000298a0       _MD4Final                  0042a8a0 f   md4.obj
 0001:00029e60       _MD4Update                 0042ae60 f   md4.obj
 0001:00029f10       _MSG_BeginReadingOOB       0042af10 f   msg.obj
 0001:00029f30       _MSG_Bitstream             0042af30 f   msg.obj
 0001:00029f40       _MSG_Clear                 0042af40 f   msg.obj
 0001:00029f60       _MSG_Copy                  0042af60 f   msg.obj
 0001:00029fb0       _MSG_Init                  0042afb0 f   msg.obj
 0001:00029ff0       _MSG_InitOOB               0042aff0 f   msg.obj
 0001:0002a030       _MSG_ReadBigString         0042b030 f   msg.obj
 0001:0002a0a0       _MSG_ReadBits              0042b0a0 f   msg.obj
 0001:0002a1e0       _MSG_ReadByte              0042b1e0 f   msg.obj
 0001:0002a210       _MSG_ReadData              0042b210 f   msg.obj
 0001:0002a250       _MSG_ReadDeltaEntity       0042b250 f   msg.obj
 0001:0002a4e0       _MSG_ReadDeltaPlayerstate  0042b4e0 f   msg.obj
 0001:0002a9d0       _MSG_ReadDeltaUsercmdKey   0042b9d0 f   msg.obj
 0001:0002ac00       _MSG_ReadLong              0042bc00 f   msg.obj
 0001:0002ac30       _MSG_ReadShort             0042bc30 f   msg.obj
 0001:0002ac60       _MSG_ReadString            0042bc60 f   msg.obj
 0001:0002ace0       _MSG_ReadStringLine        0042bce0 f   msg.obj
 0001:0002ad50       _MSG_ReportChangeVectors_f 0042bd50 f   msg.obj
 0001:0002ad80       _MSG_WriteBigString        0042bd80 f   msg.obj
 0001:0002ae70       _MSG_WriteBits             0042be70 f   msg.obj
 0001:0002aff0       _MSG_WriteByte             0042bff0 f   msg.obj
 0001:0002b010       _MSG_WriteData             0042c010 f   msg.obj
 0001:0002b040       _MSG_WriteDeltaEntity      0042c040 f   msg.obj
 0001:0002b310       _MSG_WriteDeltaPlayerstate 0042c310 f   msg.obj
 0001:0002bd20       _MSG_WriteDeltaUsercmdKey  0042cd20 f   msg.obj
 0001:0002bf90       _MSG_WriteLong             0042cf90 f   msg.obj
 0001:0002bfb0       _MSG_WriteShort            0042cfb0 f   msg.obj
 0001:0002bfd0       _MSG_WriteString           0042cfd0 f   msg.obj
 0001:0002c0b0       _MSG_initHuffman           0042d0b0 f   msg.obj
 0001:0002c120       _NET_AdrToString           0042d120 f   net_chan.obj
 0001:0002c250       _NET_CompareAdr            0042d250 f   net_chan.obj
 0001:0002c370       _NET_CompareBaseAdr        0042d370 f   net_chan.obj
 0001:0002c470       _NET_GetLoopPacket         0042d470 f   net_chan.obj
 0001:0002c500       _NET_IsLocalAddress        0042d500 f   net_chan.obj
 0001:0002c510       _NET_OutOfBandData         0042d510 f   net_chan.obj
 0001:0002c630       _NET_OutOfBandPrint        0042d630 f   net_chan.obj
 0001:0002c6b0       _NET_SendPacket            0042d6b0 f   net_chan.obj
 0001:0002c750       _NET_StringToAdr           0042d750 f   net_chan.obj
 0001:0002c870       _Netchan_Init              0042d870 f   net_chan.obj
 0001:0002c8e0       _Netchan_Process           0042d8e0 f   net_chan.obj
 0001:0002cbd0       _Netchan_Setup             0042dbd0 f   net_chan.obj
 0001:0002cc20       _Netchan_Transmit          0042dc20 f   net_chan.obj
 0001:0002cd70       _Netchan_TransmitNextFragment 0042dd70 f   net_chan.obj
 0001:0002f380       _unzClose                  00430380 f   unzip.obj
 0001:0002f3c0       _unzCloseCurrentFile       004303c0 f   unzip.obj
 0001:0002f430       _unzGetCurrentFileInfo     00430430 f   unzip.obj
 0001:0002f460       _unzGetCurrentFileInfoPosition 00430460 f   unzip.obj
 0001:0002f480       _unzGetGlobalInfo          00430480 f   unzip.obj
 0001:0002f4b0       _unzGoToFirstFile          004304b0 f   unzip.obj
 0001:0002f500       _unzGoToNextFile           00430500 f   unzip.obj
 0001:0002f570       _unzOpen                   00430570 f   unzip.obj
 0001:0002f6d0       _unzOpenCurrentFile        004306d0 f   unzip.obj
 0001:0002f800       _unzReOpen                 00430800 f   unzip.obj
 0001:0002f850       _unzReadCurrentFile        00430850 f   unzip.obj
 0001:0002f9b0       _unzSetCurrentFileInfoPosition 004309b0 f   unzip.obj
 0001:0002ff10       _unzlocal_SearchCentralDir 00430f10 f   unzip.obj
 0001:00030020       _unztell                   00431020 f   unzip.obj
 0001:00030070       _ParseHex                  00431070 f   vm.obj
 0001:000300c0       _VM_ArgPtr                 004310c0 f   vm.obj
 0001:000300f0       _VM_Call                   004310f0 f   vm.obj
 0001:000301e0       _VM_Clear                  004311e0 f   vm.obj
 0001:00030230       _VM_Create                 00431230 f   vm.obj
 0001:00030560       _VM_Debug                  00431560 f   vm.obj
 0001:00030570       _VM_DllSyscall             00431570 f   vm.obj
 0001:00030590       _VM_ExplicitArgPtr         00431590 f   vm.obj
 0001:000305d0       _VM_Free                   004315d0 f   vm.obj
 0001:00030620       _VM_Init                   00431620 f   vm.obj
 0001:00030690       _VM_LoadSymbols            00431690 f   vm.obj
 0001:000308c0       _VM_Restart                004318c0 f   vm.obj
 0001:00030aa0       _VM_VmInfo_f               00431aa0 f   vm.obj
 0001:00030b40       _VM_VmProfile_f            00431b40 f   vm.obj
 0001:00030c40       _VM_CallInterpreted        00431c40 f   vm_interpreted.obj
 0001:00031430       _VM_PrepareInterpreter     00432430 f   vm_interpreted.obj
 0001:00031590       _AsmCall                   00432590 f   vm_x86.obj
 0001:000317f0       _EmitMovEBXEDI             004327f0 f   vm_x86.obj
 0001:000319a0       _VM_CallCompiled           004329a0 f   vm_x86.obj
 0001:00031b40       _VM_Compile                00432b40 f   vm_x86.obj
 0001:00033250       _BotClientCommand          00434250 f   sv_bot.obj
 0001:00033270       _BotDrawDebugPolygons      00434270 f   sv_bot.obj
 0001:000333f0       _BotImport_BSPEntityData   004343f0 f   sv_bot.obj
 0001:00033400       _BotImport_BSPModelMinsMaxsOrigin 00434400 f   sv_bot.obj
 0001:00033510       _BotImport_DebugLineCreate 00434510 f   sv_bot.obj
 0001:00033540       _BotImport_DebugLineDelete 00434540 f   sv_bot.obj
 0001:00033540       _BotImport_DebugPolygonDelete 00434540 f   sv_bot.obj
 0001:00033560       _BotImport_DebugLineShow   00434560 f   sv_bot.obj
 0001:00033790       _BotImport_DebugPolygonCreate 00434790 f   sv_bot.obj
 0001:00033810       _BotImport_EntityTrace     00434810 f   sv_bot.obj
 0001:000338b0       _BotImport_FreeMemory      004348b0 f   sv_bot.obj
 0001:000338c0       _BotImport_GetMemory       004348c0 f   sv_bot.obj
 0001:000338e0       _BotImport_HunkAlloc       004348e0 f   sv_bot.obj
 0001:00033910       _BotImport_PointContents   00434910 f   sv_bot.obj
 0001:00033930       _BotImport_Print           00434930 f   sv_bot.obj
 0001:00033a50       _BotImport_Trace           00434a50 f   sv_bot.obj
 0001:00033af0       _BotImport_inPVS           00434af0 f   sv_bot.obj
 0001:00033b00       _SV_BotAllocateClient      00434b00 f   sv_bot.obj
 0001:00033b70       _SV_BotFrame               00434b70 f   sv_bot.obj
 0001:00033ba0       _SV_BotFreeClient          00434ba0 f   sv_bot.obj
 0001:00033c00       _SV_BotGetConsoleMessage   00434c00 f   sv_bot.obj
 0001:00033c60       _SV_BotGetSnapshotEntity   00434c60 f   sv_bot.obj
 0001:00033cc0       _SV_BotInitBotLib          00434cc0 f   sv_bot.obj
 0001:00033df0       _SV_BotInitCvars           00434df0 f   sv_bot.obj
 0001:00034030       _SV_BotLibSetup            00435030 f   sv_bot.obj
 0001:00034060       _SV_BotLibShutdown         00435060 f   sv_bot.obj
 0001:00034080       _SV_AddOperatorCommands    00435080 f   sv_ccmds.obj
 0001:000347a0       _SV_Heartbeat_f            004357a0 f   sv_ccmds.obj
 0001:00035020       _SV_StopDownload_f         00436020 f   sv_client.obj
 0001:00035070       _SV_DoneDownload_f         00436070 f   sv_client.obj
 0001:000350a0       _SV_NextDownload_f         004360a0 f   sv_client.obj
 0001:00035170       _SV_BeginDownload_f        00436170 f   sv_client.obj
 0001:00035520       _SV_AuthorizeIpPacket      00436520 f   sv_client.obj
 0001:00035890       _SV_ClientEnterWorld       00436890 f   sv_client.obj
 0001:00035940       _SV_ClientThink            00436940 f   sv_client.obj
 0001:00035a00       _SV_DirectConnect          00436a00 f   sv_client.obj
 0001:00036220       _SV_DropClient             00437220 f   sv_client.obj
 0001:000363b0       _SV_ExecuteClientCommand   004373b0 f   sv_client.obj
 0001:00036490       _SV_ExecuteClientMessage   00437490 f   sv_client.obj
 0001:00036600       _SV_GetChallenge           00437600 f   sv_client.obj
 0001:000369e0       _SV_SendClientGameState    004379e0 f   sv_client.obj
 0001:00036e40       _SV_UserinfoChanged        00437e40 f   sv_client.obj
 0001:00037050       _SV_WriteDownloadToClient  00438050 f   sv_client.obj
 0001:00037530       _SV_AdjustAreaPortalState  00438530 f   sv_game.obj
 0001:00037590       _SV_EntityContact          00438590 f   sv_game.obj
 0001:00037600       _SV_GEntityForSvEntity     00438600 f   sv_game.obj
 0001:00037630       _SV_GameClientNum          00438630 f   sv_game.obj
 0001:00037650       _SV_GameCommand            00438650 f   sv_game.obj
 0001:00037670       _SV_GameDropClient         00438670 f   sv_game.obj
 0001:000376a0       _SV_GameSendServerCommand  004386a0 f   sv_game.obj
 0001:000376f0       _SV_GameSystemCalls        004386f0 f   sv_game.obj
 0001:000398f0       _SV_GentityNum             0043a8f0 f   sv_game.obj
 0001:00039910       _SV_GetServerinfo          0043a910 f   sv_game.obj
 0001:00039950       _SV_GetUsercmd             0043a950 f   sv_game.obj
 0001:000399a0       _SV_InitGameProgs          0043a9a0 f   sv_game.obj
 0001:00039a80       _SV_LocateGameData         0043aa80 f   sv_game.obj
 0001:00039ab0       _SV_RestartGameProgs       0043aab0 f   sv_game.obj
 0001:00039b00       _SV_SetBrushModel          0043ab00 f   sv_game.obj
 0001:00039be0       _SV_ShutdownGameProgs      0043abe0 f   sv_game.obj
 0001:00039c10       _SV_SvEntityForGentity     0043ac10 f   sv_game.obj
 0001:00039c50       _SV_inPVS                  0043ac50 f   sv_game.obj
 0001:00039cd0       _SV_inPVSIgnorePortals     0043acd0 f   sv_game.obj
 0001:00039d40       _SV_ChangeMaxClients       0043ad40 f   sv_init.obj
 0001:00039ee0       _SV_ClearServer            0043aee0 f   sv_init.obj
 0001:00039f20       _SV_CreateBaseline         0043af20 f   sv_init.obj
 0001:00039f80       _SV_FinalMessage           0043af80 f   sv_init.obj
 0001:0003a010       _SV_GetConfigstring        0043b010 f   sv_init.obj
 0001:0003a080       _SV_GetUserinfo            0043b080 f   sv_init.obj
 0001:0003a0e0       _SV_Init                   0043b0e0 f   sv_init.obj
 0001:0003a460       _SV_SetConfigstring        0043b460 f   sv_init.obj
 0001:0003a650       _SV_SetUserinfo            0043b650 f   sv_init.obj
 0001:0003a6d0       _SV_Shutdown               0043b6d0 f   sv_init.obj
 0001:0003a790       _SV_SpawnServer            0043b790 f   sv_init.obj
 0001:0003ac10       _SV_Startup                0043bc10 f   sv_init.obj
 0001:0003acd0       _SVC_Info                  0043bcd0 f   sv_main.obj
 0001:0003af30       _SVC_RemoteCommand         0043bf30 f   sv_main.obj
 0001:0003b100       _SVC_Status                0043c100 f   sv_main.obj
 0001:0003b310       _SV_AddServerCommand       0043c310 f   sv_main.obj
 0001:0003b3c0       _SV_CalcPings              0043c3c0 f   sv_main.obj
 0001:0003b4c0       _SV_CheckPaused            0043c4c0 f   sv_main.obj
 0001:0003b540       _SV_CheckTimeouts          0043c540 f   sv_main.obj
 0001:0003b620       _SV_ConnectionlessPacket   0043c620 f   sv_main.obj
 0001:0003b820       _SV_ExpandNewlines         0043c820 f   sv_main.obj
 0001:0003b880       _SV_FlushRedirect          0043c880 f   sv_main.obj
 0001:0003b8b0       _SV_Frame                  0043c8b0 f   sv_main.obj
 0001:0003bac0       _SV_MasterHeartbeat        0043cac0 f   sv_main.obj
 0001:0003bc20       _SV_MasterShutdown         0043cc20 f   sv_main.obj
 0001:0003bc40       _SV_PacketEvent            0043cc40 f   sv_main.obj
 0001:0003bd90       _SV_SendServerCommand      0043cd90 f   sv_main.obj
 0001:0003bfe0       _SV_Netchan_Process        0043cfe0 f   sv_net_chan.obj
 0001:0003c020       _SV_Netchan_Transmit       0043d020 f   sv_net_chan.obj
 0001:0003c0c0       _SV_Netchan_TransmitNextFragment 0043d0c0 f   sv_net_chan.obj
 0001:0003c830       _SV_SendClientMessages     0043d830 f   sv_snapshot.obj
 0001:0003c8b0       _SV_SendClientSnapshot     0043d8b0 f   sv_snapshot.obj
 0001:0003c9a0       _SV_SendMessageToClient    0043d9a0 f   sv_snapshot.obj
 0001:0003cac0       _SV_UpdateServerCommandsToClient 0043dac0 f   sv_snapshot.obj
 0001:0003cc70       _SV_AreaEntities           0043dc70 f   sv_world.obj
 0001:0003ccb0       _SV_AreaEntities_r         0043dcb0 f   sv_world.obj
 0001:0003cdc0       _SV_ClearWorld             0043ddc0 f   sv_world.obj
 0001:0003ce20       _SV_ClipHandleForEntity    0043de20 f   sv_world.obj
 0001:0003ce80       _SV_ClipMoveToEntities     0043de80 f   sv_world.obj
 0001:0003d080       _SV_ClipToEntity           0043e080 f   sv_world.obj
 0001:0003d110       _SV_CreateworldSector      0043e110 f   sv_world.obj
 0001:0003d250       _SV_LinkEntity             0043e250 f   sv_world.obj
 0001:0003d750       _SV_PointContents          0043e750 f   sv_world.obj
 0001:0003d860       _SV_SectorList_f           0043e860 f   sv_world.obj
 0001:0003d8a0       _SV_Trace                  0043e8a0 f   sv_world.obj
 0001:0003da90       _SV_UnlinkEntity           0043ea90 f   sv_world.obj
 0001:0003db00       _IN_Activate               0043eb00 f   win_input.obj
 0001:0003db20       _IN_ActivateDIMouse        0043eb20 f   win_input.obj
 0001:0003db60       _IN_ActivateMouse          0043eb60 f   win_input.obj
 0001:0003dba0       _IN_ActivateWin32Mouse     0043eba0 f   win_input.obj
 0001:0003dc70       _IN_DIMouse                0043ec70 f   win_input.obj
 0001:0003ded0       _IN_DeactivateMouse        0043eed0 f   win_input.obj
 0001:0003df20       _IN_Frame                  0043ef20 f   win_input.obj
 0001:0003e000       _IN_Init                   0043f000 f   win_input.obj
 0001:0003e140       _IN_InitDIMouse            0043f140 f   win_input.obj
 0001:0003e340       _IN_JoyMove                0043f340 f   win_input.obj
 0001:0003e660       _IN_MouseEvent             0043f660 f   win_input.obj
 0001:0003e6f0       _IN_MouseMove              0043f6f0 f   win_input.obj
 0001:0003e770       _IN_Shutdown               0043f770 f   win_input.obj
 0001:0003e7e0       _IN_StartupJoystick        0043f7e0 f   win_input.obj
 0001:0003ea70       _IN_StartupMouse           0043fa70 f   win_input.obj
 0001:0003eb30       _JoyToF                    0043fb30 f   win_input.obj
 0001:0003edb0       _Sys_Cwd                   0043fdb0 f   win_main.obj
 0001:0003edd0       _Sys_DefaultCDPath         0043fdd0 f   win_main.obj
 0001:0003ede0       _Sys_Error                 0043fde0 f   win_main.obj
 0001:0003ee90       _Sys_FreeFileList          0043fe90 f   win_main.obj
 0001:0003eed0       _Sys_GetClipboardData      0043fed0 f   win_main.obj
 0001:0003ef60       _Sys_GetEvent              0043ff60 f   win_main.obj
 0001:0003f130       _Sys_In_Restart_f          00440130 f   win_main.obj
 0001:0003f140       _Sys_Init                  00440140 f   win_main.obj
 0001:0003f510       _Sys_ListFiles             00440510 f   win_main.obj
 0001:0003f810       _Sys_ListFilteredFiles     00440810 f   win_main.obj
 0001:0003fa00       _Sys_LoadDll               00440a00 f   win_main.obj
 0001:0003fb90       _Sys_LowPhysicalMemory     00440b90 f   win_main.obj
 0001:0003fbd0       _Sys_Mkdir                 00440bd0 f   win_main.obj
 0001:0003fbe0       _Sys_Net_Restart_f         00440be0 f   win_main.obj
 0001:0003fbf0       _Sys_Print                 00440bf0 f   win_main.obj
 0001:0003fc00       _Sys_QueEvent              00440c00 f   win_main.obj
 0001:0003fca0       _Sys_Quit                  00440ca0 f   win_main.obj
 0001:0003fcc0       _Sys_StreamSeek            00440cc0 f   win_main.obj
 0001:0003fcd0       _Sys_StreamedRead          00440cd0 f   win_main.obj
 0001:0003fcf0       _Sys_UnloadDll             00440cf0 f   win_main.obj
 0001:0003fd20       _WinMain@16                00440d20 f   win_main.obj
 0001:0003fe30       _NET_Config                00440e30 f   win_net.obj
 0001:0003ff50       _NET_ErrorString           00440f50 f   win_net.obj
 0001:000402e0       _NET_GetLocalAddress       004412e0 f   win_net.obj
 0001:00040440       _NET_IPSocket              00441440 f   win_net.obj
 0001:000405f0       _NET_IPXSocket             004415f0 f   win_net.obj
 0001:00040740       _NET_Init                  00441740 f   win_net.obj
 0001:00040790       _NET_OpenIP                00441790 f   win_net.obj
 0001:00040840       _NET_OpenSocks             00441840 f   win_net.obj
 0001:00040c40       _NET_Restart               00441c40 f   win_net.obj
 0001:00040c50       _NetadrToSockadr           00441c50 f   win_net.obj
 0001:00040cf0       _Sys_GetPacket             00441cf0 f   win_net.obj
 0001:00040f50       _Sys_IsLANAddress          00441f50 f   win_net.obj
 0001:000410e0       _Sys_SendPacket            004420e0 f   win_net.obj
 0001:00041220       _Sys_ShowIP                00442220 f   win_net.obj
 0001:00041270       _Sys_StringToAdr           00442270 f   win_net.obj
 0001:000412f0       _Sys_StringToSockaddr      004422f0 f   win_net.obj
 0001:000418c0       _Sys_DefaultInstallPath    004428c0 f   win_shared.obj
 0001:000418d0       _Sys_GetCurrentUser        004428d0 f   win_shared.obj
 0001:00041940       _Sys_GetProcessorId        00442940 f   win_shared.obj
 0001:00041990       _Sys_Milliseconds          00442990 f   win_shared.obj
 0001:000419c0       _Sys_SnapVector            004429c0 f   win_shared.obj
 0001:00041a70       _SNDDMA_Activate           00442a70 f   win_snd.obj
 0001:00041ab0       _SNDDMA_BeginPainting      00442ab0 f   win_snd.obj
 0001:00041bc0       _SNDDMA_GetDMAPos          00442bc0 f   win_snd.obj
 0001:00041c30       _SNDDMA_Init               00442c30 f   win_snd.obj
 0001:00041c80       _SNDDMA_InitDS             00442c80 f   win_snd.obj
 0001:00041f90       _SNDDMA_Shutdown           00442f90 f   win_snd.obj
 0001:000420f0       _SNDDMA_Submit             004430f0 f   win_snd.obj
 0001:000424a0       _Conbuf_AppendText         004434a0 f   win_syscon.obj
 0001:00042600       _InputLineWndProc@16       00443600 f   win_syscon.obj
 0001:00042730       _Sys_ConsoleInput          00443730 f   win_syscon.obj
 0001:00042760       _Sys_CreateConsole         00443760 f   win_syscon.obj
 0001:00042ad0       _Sys_DestroyConsole        00443ad0 f   win_syscon.obj
 0001:00042b10       _Sys_SetErrorText          00443b10 f   win_syscon.obj
 0001:00042ba0       _Sys_ShowConsole           00443ba0 f   win_syscon.obj
 0001:00042c20       _MainWndProc@16            00443c20 f   win_wndproc.obj
 0001:00043410       _bind@12                   00444410 f   wsock32:WSOCK32.dll
 0001:00043416       _closesocket@4             00444416 f   wsock32:WSOCK32.dll
 0001:0004341c       _connect@12                0044441c f   wsock32:WSOCK32.dll
 0001:00043422       _ioctlsocket@12            00444422 f   wsock32:WSOCK32.dll
 0001:00043428       _htons@4                   00444428 f   wsock32:WSOCK32.dll
 0001:0004342e       _inet_addr@4               0044442e f   wsock32:WSOCK32.dll
 0001:00043434       _ntohl@4                   00444434 f   wsock32:WSOCK32.dll
 0001:0004343a       _recv@16                   0044443a f   wsock32:WSOCK32.dll
 0001:00043440       _recvfrom@24               00444440 f   wsock32:WSOCK32.dll
 0001:00043446       _send@16                   00444446 f   wsock32:WSOCK32.dll
 0001:0004344c       _sendto@24                 0044444c f   wsock32:WSOCK32.dll
 0001:00043452       _setsockopt@20             00444452 f   wsock32:WSOCK32.dll
 0001:00043458       _socket@12                 00444458 f   wsock32:WSOCK32.dll
 0001:0004345e       _gethostbyname@4           0044445e f   wsock32:WSOCK32.dll
 0001:00043464       _gethostname@8             00444464 f   wsock32:WSOCK32.dll
 0001:0004346a       _WSAStartup@8              0044446a f   wsock32:WSOCK32.dll
 0001:00043470       _WSAGetLastError@0         00444470 f   wsock32:WSOCK32.dll
 0001:00043480       _BotLibSetup               00444480 f   botlib:be_interface.obj
 0001:000434b0       _Export_BotLibLoadMap      004444b0 f   botlib:be_interface.obj
 0001:00043510       _Export_BotLibSetup        00444510 f   botlib:be_interface.obj
 0001:000435e0       _Export_BotLibShutdown     004445e0 f   botlib:be_interface.obj
 0001:00043650       _Export_BotLibStartFrame   00444650 f   botlib:be_interface.obj
 0001:00043680       _Export_BotLibUpdateEntity 00444680 f   botlib:be_interface.obj
 0001:000436c0       _Export_BotLibVarGet       004446c0 f   botlib:be_interface.obj
 0001:000436f0       _Export_BotLibVarSet       004446f0 f   botlib:be_interface.obj
 0001:00043710       _GetBotLibAPI              00444710 f   botlib:be_interface.obj
 0001:00043c40       _Sys_MilliSeconds          00444c40 f   botlib:be_interface.obj
 0001:00043c60       _ValidEntityNumber         00444c60 f   botlib:be_interface.obj
 0001:00043ca0       _Log_Close                 00444ca0 f   botlib:l_log.obj
 0001:00043cf0       _Log_Open                  00444cf0 f   botlib:l_log.obj
 0001:00043dd0       _Log_Shutdown              00444dd0 f   botlib:l_log.obj
 0001:00043de0       _Log_Write                 00444de0 f   botlib:l_log.obj
 0001:00043e10       _LibVar                    00444e10 f   botlib:l_libvar.obj
 0001:00043e80       _LibVarAlloc               00444e80 f   botlib:l_libvar.obj
 0001:00043ef0       _LibVarDeAlloc             00444ef0 f   botlib:l_libvar.obj
 0001:00043f20       _LibVarDeAllocAll          00444f20 f   botlib:l_libvar.obj
 0001:00043f60       _LibVarGet                 00444f60 f   botlib:l_libvar.obj
 0001:00043fa0       _LibVarGetString           00444fa0 f   botlib:l_libvar.obj
 0001:00043fc0       _LibVarGetValue            00444fc0 f   botlib:l_libvar.obj
 0001:00043fe0       _LibVarSet                 00444fe0 f   botlib:l_libvar.obj
 0001:00044060       _LibVarString              00445060 f   botlib:l_libvar.obj
 0001:00044080       _LibVarStringValue         00445080 f   botlib:l_libvar.obj
 0001:00044120       _LibVarValue               00445120 f   botlib:l_libvar.obj
 0001:00044140       _PC_DollarDirective_evalfloat 00445140 f   botlib:l_precomp.obj
 0001:00044240       _PC_Directive_include      00445240 f   botlib:l_precomp.obj
 0001:00044460       _PC_Directive_undef        00445460 f   botlib:l_precomp.obj
 0001:000445b0       _PC_Directive_define       004455b0 f   botlib:l_precomp.obj
 0001:00044ad0       _PC_Directive_ifdef        00445ad0 f   botlib:l_precomp.obj
 0001:00044af0       _PC_Directive_ifndef       00445af0 f   botlib:l_precomp.obj
 0001:00044b10       _PC_Directive_else         00445b10 f   botlib:l_precomp.obj
 0001:00044b80       _PC_Directive_endif        00445b80 f   botlib:l_precomp.obj
 0001:00044bc0       _PC_Directive_elif         00445bc0 f   botlib:l_precomp.obj
 0001:00044c30       _PC_Directive_if           00445c30 f   botlib:l_precomp.obj
 0001:00044c70       _PC_Directive_line         00445c70 f   botlib:l_precomp.obj
 0001:00044c90       _PC_Directive_error        00445c90 f   botlib:l_precomp.obj
 0001:00044cf0       _PC_Directive_pragma       00445cf0 f   botlib:l_precomp.obj
 0001:00044d40       _PC_Directive_eval         00445d40 f   botlib:l_precomp.obj
 0001:00044e10       _PC_Directive_evalfloat    00445e10 f   botlib:l_precomp.obj
 0001:00044ef0       _PC_DollarDirective_evalint 00445ef0 f   botlib:l_precomp.obj
 0001:00044fd0       _FreeSource                00445fd0 f   botlib:l_precomp.obj
 0001:000450d0       _LoadSourceFile            004460d0 f   botlib:l_precomp.obj
 0001:00045170       _PC_AddDefineToHash        00446170 f   botlib:l_precomp.obj
 0001:000451a0       _PC_AddGlobalDefine        004461a0 f   botlib:l_precomp.obj
 0001:000451d0       _PC_AddGlobalDefinesToSource 004461d0 f   botlib:l_precomp.obj
 0001:00045210       _PC_CheckOpenSourceHandles 00446210 f   botlib:l_precomp.obj
 0001:00045240       _PC_CheckTokenString       00446240 f   botlib:l_precomp.obj
 0001:000452e0       _PC_ClearTokenWhiteSpace   004462e0 f   botlib:l_precomp.obj
 0001:00045310       _PC_ConvertPath            00446310 f   botlib:l_precomp.obj
 0001:00045370       _PC_CopyDefine             00446370 f   botlib:l_precomp.obj
 0001:00045460       _PC_CopyToken              00446460 f   botlib:l_precomp.obj
 0001:000454b0       _PC_DefineFromString       004464b0 f   botlib:l_precomp.obj
 0001:000455d0       _PC_Directive_if_def       004465d0 f   botlib:l_precomp.obj
 0001:000456a0       _PC_DollarEvaluate         004466a0 f   botlib:l_precomp.obj
 0001:00045930       _PC_Evaluate               00446930 f   botlib:l_precomp.obj
 0001:00045b40       _PC_EvaluateTokens         00446b40 f   botlib:l_precomp.obj
 0001:00046710       _PC_ExpandBuiltinDefine    00447710 f   botlib:l_precomp.obj
 0001:00046900       _PC_ExpandDefine           00447900 f   botlib:l_precomp.obj
 0001:00046be0       _PC_ExpandDefineIntoSource 00447be0 f   botlib:l_precomp.obj
 0001:00046c40       _PC_ExpectAnyToken         00447c40 f   botlib:l_precomp.obj
 0001:00046c70       _PC_ExpectTokenString      00447c70 f   botlib:l_precomp.obj
 0001:00046d40       _PC_ExpectTokenType        00447d40 f   botlib:l_precomp.obj
 0001:00047050       _PC_FindDefineParm         00448050 f   botlib:l_precomp.obj
 0001:000470c0       _PC_FindHashedDefine       004480c0 f   botlib:l_precomp.obj
 0001:00047120       _PC_FreeDefine             00448120 f   botlib:l_precomp.obj
 0001:00047180       _PC_FreeSourceHandle       00448180 f   botlib:l_precomp.obj
 0001:000471c0       _PC_FreeToken              004481c0 f   botlib:l_precomp.obj
 0001:000471e0       _PC_LoadSourceHandle       004481e0 f   botlib:l_precomp.obj
 0001:00047250       _PC_MergeTokens            00448250 f   botlib:l_precomp.obj
 0001:000472e0       _PC_NameHash               004482e0 f   botlib:l_precomp.obj
 0001:00047320       _PC_OperatorPriority       00448320 f   botlib:l_precomp.obj
 0001:000473f0       _PC_PopIndent              004483f0 f   botlib:l_precomp.obj
 0001:00047450       _PC_PushIndent             00448450 f   botlib:l_precomp.obj
 0001:000474a0       _PC_PushScript             004484a0 f   botlib:l_precomp.obj
 0001:00047500       _PC_ReadDefineParms        00448500 f   botlib:l_precomp.obj
 0001:00047850       _PC_ReadDirective          00448850 f   botlib:l_precomp.obj
 0001:00047960       _PC_ReadDollarDirective    00448960 f   botlib:l_precomp.obj
 0001:00047a80       _PC_ReadLine               00448a80 f   botlib:l_precomp.obj
 0001:00047b00       _PC_ReadSourceToken        00448b00 f   botlib:l_precomp.obj
 0001:00047c10       _PC_ReadToken              00448c10 f   botlib:l_precomp.obj
 0001:00047dd0       _PC_ReadTokenHandle        00448dd0 f   botlib:l_precomp.obj
 0001:00047ea0       _PC_RemoveAllGlobalDefines 00448ea0 f   botlib:l_precomp.obj
 0001:00047ed0       _PC_SetBaseFolder          00448ed0 f   botlib:l_precomp.obj
 0001:00047ee0       _PC_SourceFileAndLine      00448ee0 f   botlib:l_precomp.obj
 0001:00047f50       _PC_StringizeTokens        00448f50 f   botlib:l_precomp.obj
 0001:00048000       _PC_UnreadLastToken        00449000 f   botlib:l_precomp.obj
 0001:00048020       _PC_UnreadSourceToken      00449020 f   botlib:l_precomp.obj
 0001:00048050       _PC_UnreadToken            00449050 f   botlib:l_precomp.obj
 0001:00048060       _PC_WhiteSpaceBeforeToken  00449060 f   botlib:l_precomp.obj
 0001:00048080       _SourceError               00449080 f   botlib:l_precomp.obj
 0001:000480e0       _SourceWarning             004490e0 f   botlib:l_precomp.obj
 0001:00048140       _UnreadSignToken           00449140 f   botlib:l_precomp.obj
 0001:000481c0       _AAS_ContinueInit          004491c0 f   botlib:be_aas_main.obj
 0001:00048280       _AAS_Error                 00449280 f   botlib:be_aas_main.obj
 0001:000482d0       _AAS_Initialized           004492d0 f   botlib:be_aas_main.obj
 0001:000482e0       _AAS_LoadFiles             004492e0 f   botlib:be_aas_main.obj
 0001:00048370       _AAS_LoadMap               00449370 f   botlib:be_aas_main.obj
 0001:000483c0       _AAS_Loaded                004493c0 f   botlib:be_aas_main.obj
 0001:000483d0       _AAS_ProjectPointOntoVector 004493d0 f   botlib:be_aas_main.obj
 0001:000484c0       _AAS_SetInitialized        004494c0 f   botlib:be_aas_main.obj
 0001:000484e0       _AAS_Setup                 004494e0 f   botlib:be_aas_main.obj
 0001:00048580       _AAS_Shutdown              00449580 f   botlib:be_aas_main.obj
 0001:000485e0       _AAS_StartFrame            004495e0 f   botlib:be_aas_main.obj
 0001:00048710       _AAS_Time                  00449710 f   botlib:be_aas_main.obj
 0001:00048720       _AAS_EntityInfo            00449720 f   botlib:be_aas_entity.obj
 0001:000487a0       _AAS_EntityModelNum        004497a0 f   botlib:be_aas_entity.obj
 0001:000487f0       _AAS_EntityModelindex      004497f0 f   botlib:be_aas_entity.obj
 0001:00048830       _AAS_EntityType            00449830 f   botlib:be_aas_entity.obj
 0001:00048880       _AAS_InvalidateEntities    00449880 f   botlib:be_aas_entity.obj
 0001:000488c0       _AAS_NextEntity            004498c0 f   botlib:be_aas_entity.obj
 0001:00048910       _AAS_OriginOfMoverWithModelNum 00449910 f   botlib:be_aas_entity.obj
 0001:00048970       _AAS_ResetEntityLinks      00449970 f   botlib:be_aas_entity.obj
 0001:000489b0       _AAS_UnlinkInvalidEntities 004499b0 f   botlib:be_aas_entity.obj
 0001:00048a20       _AAS_UpdateEntity          00449a20 f   botlib:be_aas_entity.obj
 0001:00048d80       _AAS_AASLinkEntity         00449d80 f   botlib:be_aas_sample.obj
 0001:00048f20       _AAS_AllocAASLink          00449f20 f   botlib:be_aas_sample.obj
 0001:00048f60       _AAS_AreaEntityCollision   00449f60 f   botlib:be_aas_sample.obj
 0001:00049060       _AAS_AreaInfo              0044a060 f   botlib:be_aas_sample.obj
 0001:00049150       _AAS_AreaPresenceType      0044a150 f   botlib:be_aas_sample.obj
 0001:000491a0       _AAS_BBoxAreas             0044a1a0 f   botlib:be_aas_sample.obj
 0001:000491f0       _AAS_BoxOnPlaneSide2       0044a1f0 f   botlib:be_aas_sample.obj
 0001:000492e0       _AAS_DeAllocAASLink        0044a2e0 f   botlib:be_aas_sample.obj
 0001:00049320       _AAS_FreeAASLinkHeap       0044a320 f   botlib:be_aas_sample.obj
 0001:00049350       _AAS_FreeAASLinkedEntities 0044a350 f   botlib:be_aas_sample.obj
 0001:00049370       _AAS_InitAASLinkHeap       0044a370 f   botlib:be_aas_sample.obj
 0001:00049440       _AAS_InitAASLinkedEntities 0044a440 f   botlib:be_aas_sample.obj
 0001:00049480       _AAS_LinkEntityClientBBox  0044a480 f   botlib:be_aas_sample.obj
 0001:00049520       _AAS_PlaneFromNum          0044a520 f   botlib:be_aas_sample.obj
 0001:00049540       _AAS_PointAreaNum          0044a540 f   botlib:be_aas_sample.obj
 0001:000495e0       _AAS_PointInsideFace       0044a5e0 f   botlib:be_aas_sample.obj
 0001:00049770       _AAS_PointPresenceType     0044a770 f   botlib:be_aas_sample.obj
 0001:000497b0       _AAS_PointReachabilityAreaIndex 0044a7b0 f   botlib:be_aas_sample.obj
 0001:00049a80       _AAS_PresenceTypeBoundingBox 0044aa80 f   botlib:be_aas_sample.obj
 0001:00049b40       _AAS_TraceAreas            0044ab40 f   botlib:be_aas_sample.obj
 0001:00049e50       _AAS_TraceClientBBox       0044ae50 f   botlib:be_aas_sample.obj
 0001:0004a5e0       _AAS_UnlinkFromAreas       0044b5e0 f   botlib:be_aas_sample.obj
 0001:0004a640       _AAS_AllocReachability     0044b640 f   botlib:be_aas_reach.obj
 0001:0004a680       _AAS_AreaClusterPortal     0044b680 f   botlib:be_aas_reach.obj
 0001:0004a6a0       _AAS_AreaCrouch            0044b6a0 f   botlib:be_aas_reach.obj
 0001:0004a6d0       _AAS_AreaDoNotEnter        0044b6d0 f   botlib:be_aas_reach.obj
 0001:0004a6f0       _AAS_AreaGrounded          0044b6f0 f   botlib:be_aas_reach.obj
 0001:0004a710       _AAS_AreaJumpPad           0044b710 f   botlib:be_aas_reach.obj
 0001:0004a730       _AAS_AreaLadder            0044b730 f   botlib:be_aas_reach.obj
 0001:0004a750       _AAS_AreaReachability      0044b750 f   botlib:be_aas_reach.obj
 0001:0004a790       _AAS_AreaSwim              0044b790 f   botlib:be_aas_reach.obj
 0001:0004a7c0       _AAS_AreaTeleporter        0044b7c0 f   botlib:be_aas_reach.obj
 0001:0004a7e0       _AAS_AreaVolume            0044b7e0 f   botlib:be_aas_reach.obj
 0001:0004a900       _AAS_BestReachableArea     0044b900 f   botlib:be_aas_reach.obj
 0001:0004abe0       _AAS_BestReachableFromJumpPadArea 0044bbe0 f   botlib:be_aas_reach.obj
 0001:0004aea0       _AAS_BestReachableLinkArea 0044bea0 f   botlib:be_aas_reach.obj
 0001:0004af10       _AAS_ClosestEdgePoints     0044bf10 f   botlib:be_aas_reach.obj
 0001:0004bb80       _AAS_ContinueInitReachability 0044cb80 f   botlib:be_aas_reach.obj
 0001:0004be90       _AAS_FaceArea              0044ce90 f   botlib:be_aas_reach.obj
 0001:0004c030       _AAS_FaceCenter            0044d030 f   botlib:be_aas_reach.obj
 0001:0004c190       _AAS_FallDamageDistance    0044d190 f   botlib:be_aas_reach.obj
 0001:0004c1e0       _AAS_FallDelta             0044d1e0 f   botlib:be_aas_reach.obj
 0001:0004c250       _AAS_FindFaceReachabilities 0044d250 f   botlib:be_aas_reach.obj
 0001:0004c7c0       _AAS_FreeReachability      0044d7c0 f   botlib:be_aas_reach.obj
 0001:0004c7f0       _AAS_GetJumpPadInfo        0044d7f0 f   botlib:be_aas_reach.obj
 0001:0004cc30       _AAS_InitReachability      0044dc30 f   botlib:be_aas_reach.obj
 0001:0004ccc0       _AAS_MaxJumpDistance       0044dcc0 f   botlib:be_aas_reach.obj
 0001:0004cd20       _AAS_MaxJumpHeight         0044dd20 f   botlib:be_aas_reach.obj
 0001:0004cd60       _AAS_ReachabilityExists    0044dd60 f   botlib:be_aas_reach.obj
 0001:0004cd90       _AAS_Reachability_Elevator 0044dd90 f   botlib:be_aas_reach.obj
 0001:0004d8a0       _AAS_Reachability_EqualFloorHeight 0044e8a0 f   botlib:be_aas_reach.obj
 0001:0004df20       _AAS_Reachability_FuncBobbing 0044ef20 f   botlib:be_aas_reach.obj
 0001:0004e960       _AAS_Reachability_Grapple  0044f960 f   botlib:be_aas_reach.obj
 0001:0004f360       _AAS_Reachability_Jump     00450360 f   botlib:be_aas_reach.obj
 0001:000500c0       _AAS_Reachability_JumpPad  004510c0 f   botlib:be_aas_reach.obj
 0001:000508e0       _AAS_Reachability_Ladder   004518e0 f   botlib:be_aas_reach.obj
 0001:00051530       _AAS_Reachability_Step_Barrier_WaterJump_WalkOffLedge 00452530 f   botlib:be_aas_reach.obj
 0001:00052ec0       _AAS_Reachability_Swim     00453ec0 f   botlib:be_aas_reach.obj
 0001:00053120       _AAS_Reachability_Teleport 00454120 f   botlib:be_aas_reach.obj
 0001:00053a50       _AAS_Reachability_WalkOffLedge 00454a50 f   botlib:be_aas_reach.obj
 0001:00054130       _AAS_Reachability_WeaponJump 00455130 f   botlib:be_aas_reach.obj
 0001:00054550       _AAS_SetWeaponJumpAreaFlags 00455550 f   botlib:be_aas_reach.obj
 0001:000549f0       _AAS_SetupReachabilityHeap 004559f0 f   botlib:be_aas_reach.obj
 0001:00054a50       _AAS_ShutDownReachabilityHeap 00455a50 f   botlib:be_aas_reach.obj
 0001:00054a70       _AAS_StoreReachability     00455a70 f   botlib:be_aas_reach.obj
 0001:00054b60       _AAS_TravelFlagsForTeam    00455b60 f   botlib:be_aas_reach.obj
 0001:00054bb0       _VectorBetweenVectors      00455bb0 f   botlib:be_aas_reach.obj
 0001:00054c10       _VectorDistance            00455c10 f   botlib:be_aas_reach.obj
 0001:00054c70       _VectorMiddle              00455c70 f   botlib:be_aas_reach.obj
 0001:00054cf0       _AAS_AllocRoutingCache     00455cf0 f   botlib:be_aas_route.obj
 0001:00054d20       _AAS_AreaContentsTravelFlags 00455d20 f   botlib:be_aas_route.obj
 0001:00054d30       _AAS_AreaReachabilityToGoalArea 00455d30 f   botlib:be_aas_route.obj
 0001:00054d60       _AAS_AreaRouteToGoalArea   00455d60 f   botlib:be_aas_route.obj
 0001:00055150       _AAS_AreaTravelTime        00456150 f   botlib:be_aas_route.obj
 0001:00055200       _AAS_AreaTravelTimeToGoalArea 00456200 f   botlib:be_aas_route.obj
 0001:00055230       _AAS_CalculateAreaTravelTimes 00456230 f   botlib:be_aas_route.obj
 0001:00055410       _AAS_ClusterAreaNum        00456410 f i botlib:be_aas_route.obj
 0001:00055460       _AAS_CreateReversedReachability 00456460 f   botlib:be_aas_route.obj
 0001:00055570       _AAS_EnableRoutingArea     00456570 f   botlib:be_aas_route.obj
 0001:00055600       _AAS_FreeAllClusterAreaCache 00456600 f   botlib:be_aas_route.obj
 0001:000556b0       _AAS_FreeAllPortalCache    004566b0 f   botlib:be_aas_route.obj
 0001:00055720       _AAS_FreeOldestCache       00456720 f   botlib:be_aas_route.obj
 0001:00055800       _AAS_FreeRoutingCache      00456800 f   botlib:be_aas_route.obj
 0001:00055830       _AAS_FreeRoutingCaches     00456830 f   botlib:be_aas_route.obj
 0001:00055920       _AAS_GetAreaContentsTravelFlags 00456920 f   botlib:be_aas_route.obj
 0001:000559a0       _AAS_GetAreaRoutingCache   004569a0 f   botlib:be_aas_route.obj
 0001:00055ac0       _AAS_GetPortalRoutingCache 00456ac0 f   botlib:be_aas_route.obj
 0001:00055ba0       _AAS_InitAreaContentsTravelFlags 00456ba0 f   botlib:be_aas_route.obj
 0001:00055c00       _AAS_InitClusterAreaCache  00456c00 f   botlib:be_aas_route.obj
 0001:00055d80       _AAS_InitPortalCache       00456d80 f   botlib:be_aas_route.obj
 0001:00055da0       _AAS_InitPortalMaxTravelTimes 00456da0 f   botlib:be_aas_route.obj
 0001:00055e00       _AAS_InitReachabilityAreas 00456e00 f   botlib:be_aas_route.obj
 0001:00055fd0       _AAS_InitRouting           00456fd0 f   botlib:be_aas_route.obj
 0001:00056050       _AAS_InitRoutingUpdate     00457050 f   botlib:be_aas_route.obj
 0001:000561a0       _AAS_InitTravelFlagFromType 004571a0 f   botlib:be_aas_route.obj
 0001:00056250       _AAS_LinkCache             00457250 f   botlib:be_aas_route.obj
 0001:000562a0       _AAS_NextAreaReachability  004572a0 f   botlib:be_aas_route.obj
 0001:00056320       _AAS_NextModelReachability 00457320 f   botlib:be_aas_route.obj
 0001:00056390       _AAS_PortalMaxTravelTime   00457390 f   botlib:be_aas_route.obj
 0001:00056410       _AAS_PredictRoute          00457410 f   botlib:be_aas_route.obj
 0001:00056750       _AAS_ReachabilityFromNum   00457750 f   botlib:be_aas_route.obj
 0001:000567a0       _AAS_ReadCache             004577a0 f   botlib:be_aas_route.obj
 0001:00056800       _AAS_ReadRouteCache        00457800 f   botlib:be_aas_route.obj
 0001:000569d0       _AAS_RemoveRoutingCacheInCluster 004579d0 f   botlib:be_aas_route.obj
 0001:00056a40       _AAS_RemoveRoutingCacheUsingArea 00457a40 f   botlib:be_aas_route.obj
 0001:00056ae0       _AAS_RoutingInfo           00457ae0 f   botlib:be_aas_route.obj
 0001:00056b20       _AAS_TravelFlagForType     00457b20 f   botlib:be_aas_route.obj
 0001:00056b40       _AAS_UnlinkCache           00457b40 f   botlib:be_aas_route.obj
 0001:00056b90       _AAS_UpdateAreaRoutingCache 00457b90 f   botlib:be_aas_route.obj
 0001:00056ee0       _AAS_UpdatePortalRoutingCache 00457ee0 f   botlib:be_aas_route.obj
 0001:000570f0       _AAS_WriteRouteCache       004580f0 f   botlib:be_aas_route.obj
 0001:00057340       _AAS_AltRoutingFloodCluster_r 00458340 f   botlib:be_aas_routealt.obj
 0001:000573d0       _AAS_AlternativeRouteGoals 004583d0 f   botlib:be_aas_routealt.obj
 0001:00057770       _AAS_InitAlternativeRouting 00458770 f   botlib:be_aas_routealt.obj
 0001:000577d0       _AAS_ShutdownAlternativeRouting 004587d0 f   botlib:be_aas_routealt.obj
 0001:00057820       _AAS_BSPEntityInRange      00458820 f   botlib:be_aas_bspq3.obj
 0001:00057850       _Sys_DefaultHomePath       00458850 f   win_shared.obj
 0001:00057850       _jpeg_mem_init             00458850 f   renderer:jmemnobs.obj
 0001:00057850       __matherr                  00458850 f   LIBCMT:matherr.obj
 0001:00057850       _BotExportTest             00458850 f   botlib:be_interface.obj
 0001:00057850       _AAS_BSPLinkEntity         00458850 f   botlib:be_aas_bspq3.obj
 0001:00057860       _AAS_BSPModelMinsMaxsOrigin 00458860 f   botlib:be_aas_bspq3.obj
 0001:00057870       _AAS_DumpBSPData           00458870 f   botlib:be_aas_bspq3.obj
 0001:000578c0       _AAS_EntityCollision       004588c0 f   botlib:be_aas_bspq3.obj
 0001:00057940       _AAS_FloatForBSPEpairKey   00458940 f   botlib:be_aas_bspq3.obj
 0001:000579b0       _AAS_FreeBSPEntities       004589b0 f   botlib:be_aas_bspq3.obj
 0001:00057a20       _AAS_IntForBSPEpairKey     00458a20 f   botlib:be_aas_bspq3.obj
 0001:00057a90       _AAS_LoadBSPFile           00458a90 f   botlib:be_aas_bspq3.obj
 0001:00057af0       _AAS_NextBSPEntity         00458af0 f   botlib:be_aas_bspq3.obj
 0001:00057b10       _AAS_ParseBSPEntities      00458b10 f   botlib:be_aas_bspq3.obj
 0001:00057de0       _AAS_PointContents         00458de0 f   botlib:be_aas_bspq3.obj
 0001:00057df0       _AAS_Trace                 00458df0 f   botlib:be_aas_bspq3.obj
 0001:00057e20       _AAS_ValueForBSPEpairKey   00458e20 f   botlib:be_aas_bspq3.obj
 0001:00057eb0       _AAS_VectorForBSPEpairKey  00458eb0 f   botlib:be_aas_bspq3.obj
 0001:00057fa0       _AAS_Accelerate            00458fa0 f   botlib:be_aas_move.obj
 0001:00058030       _AAS_AgainstLadder         00459030 f   botlib:be_aas_move.obj
 0001:00058210       _AAS_ApplyFriction         00459210 f   botlib:be_aas_move.obj
 0001:000582b0       _AAS_ClientMovementHitBBox 004592b0 f   botlib:be_aas_move.obj
 0001:00058300       _AAS_ClientMovementPrediction 00459300 f   botlib:be_aas_move.obj
 0001:00059870       _AAS_ClipToBBox            0045a870 f   botlib:be_aas_move.obj
 0001:00059ac0       _AAS_DropToFloor           0045aac0 f   botlib:be_aas_move.obj
 0001:00059bb0       _AAS_HorizontalVelocityForJump 0045abb0 f   botlib:be_aas_move.obj
 0001:00059cc0       _AAS_InitSettings          0045acc0 f   botlib:be_aas_move.obj
 0001:00059ff0       _AAS_JumpReachRunStart     0045aff0 f   botlib:be_aas_move.obj
 0001:0005a130       _AAS_OnGround              0045b130 f   botlib:be_aas_move.obj
 0001:0005a220       _AAS_PredictClientMovement 0045b220 f   botlib:be_aas_move.obj
 0001:0005a270       _AAS_RocketJumpZVelocity   0045b270 f   botlib:be_aas_move.obj
 0001:0005a270       _AAS_BFGJumpZVelocity      0045b270 f   botlib:be_aas_move.obj
 0001:0005a290       _AAS_Swimming              0045b290 f   botlib:be_aas_move.obj
 0001:0005a2f0       _AAS_WeaponJumpZVelocity   0045b2f0 f   botlib:be_aas_move.obj
 0001:0005a630       _EA_Action                 0045b630 f   botlib:be_ea.obj
 0001:0005a650       _EA_Attack                 0045b650 f   botlib:be_ea.obj
 0001:0005a670       _EA_Command                0045b670 f   botlib:be_ea.obj
 0001:0005a680       _EA_Crouch                 0045b680 f   botlib:be_ea.obj
 0001:0005a6a0       _EA_DelayedJump            0045b6a0 f   botlib:be_ea.obj
 0001:0005a6d0       _EA_Gesture                0045b6d0 f   botlib:be_ea.obj
 0001:0005a6f0       _EA_GetInput               0045b6f0 f   botlib:be_ea.obj
 0001:0005a720       _EA_Jump                   0045b720 f   botlib:be_ea.obj
 0001:0005a750       _EA_Move                   0045b750 f   botlib:be_ea.obj
 0001:0005a7b0       _EA_MoveBack               0045b7b0 f   botlib:be_ea.obj
 0001:0005a7d0       _EA_MoveDown               0045b7d0 f   botlib:be_ea.obj
 0001:0005a7f0       _EA_MoveForward            0045b7f0 f   botlib:be_ea.obj
 0001:0005a810       _EA_MoveLeft               0045b810 f   botlib:be_ea.obj
 0001:0005a830       _EA_MoveRight              0045b830 f   botlib:be_ea.obj
 0001:0005a850       _EA_MoveUp                 0045b850 f   botlib:be_ea.obj
 0001:0005a870       _EA_ResetInput             0045b870 f   botlib:be_ea.obj
 0001:0005a8d0       _EA_Respawn                0045b8d0 f   botlib:be_ea.obj
 0001:0005a8f0       _EA_Say                    0045b8f0 f   botlib:be_ea.obj
 0001:0005a910       _EA_SayTeam                0045b910 f   botlib:be_ea.obj
 0001:0005a930       _EA_SelectWeapon           0045b930 f   botlib:be_ea.obj
 0001:0005a950       _EA_Setup                  0045b950 f   botlib:be_ea.obj
 0001:0005a970       _EA_Shutdown               0045b970 f   botlib:be_ea.obj
 0001:0005a990       _EA_Talk                   0045b990 f   botlib:be_ea.obj
 0001:0005a9b0       _EA_Use                    0045b9b0 f   botlib:be_ea.obj
 0001:0005a9d0       _EA_View                   0045b9d0 f   botlib:be_ea.obj
 0001:0005aa00       _EA_Walk                   0045ba00 f   botlib:be_ea.obj
 0001:0005aa20       _BotShutdownWeights        0045ba20 f   botlib:be_ai_weight.obj
 0001:0005aa50       _EvolveFuzzySeperator_r    0045ba50 f   botlib:be_ai_weight.obj
 0001:0005ab90       _EvolveWeightConfig        0045bb90 f   botlib:be_ai_weight.obj
 0001:0005abc0       _FindFuzzyWeight           0045bbc0 f   botlib:be_ai_weight.obj
 0001:0005ac20       _FreeFuzzySeperators_r     0045bc20 f   botlib:be_ai_weight.obj
 0001:0005ac60       _FreeWeightConfig          0045bc60 f   botlib:be_ai_weight.obj
 0001:0005aca0       _FreeWeightConfig2         0045bca0 f   botlib:be_ai_weight.obj
 0001:0005acf0       _FuzzyWeight               0045bcf0 f   botlib:be_ai_weight.obj
 0001:0005ad10       _FuzzyWeightUndecided      0045bd10 f   botlib:be_ai_weight.obj
 0001:0005ad30       _FuzzyWeightUndecided_r    0045bd30 f   botlib:be_ai_weight.obj
 0001:0005aeb0       _FuzzyWeight_r             0045beb0 f   botlib:be_ai_weight.obj
 0001:0005af80       _InterbreedFuzzySeperator_r 0045bf80 f   botlib:be_ai_weight.obj
 0001:0005b080       _InterbreedWeightConfigs   0045c080 f   botlib:be_ai_weight.obj
 0001:0005b0f0       _ReadFuzzySeperators_r     0045c0f0 f   botlib:be_ai_weight.obj
 0001:0005b540       _ReadFuzzyWeight           0045c540 f   botlib:be_ai_weight.obj
 0001:0005b630       _ReadValue                 0045c630 f   botlib:be_ai_weight.obj
 0001:0005b710       _ReadWeightConfig          0045c710 f   botlib:be_ai_weight.obj
 0001:0005bb90       _AddLevelItemToList        0045cb90 f   botlib:be_ai_goal.obj
 0001:0005bbc0       _AllocLevelItem            0045cbc0 f   botlib:be_ai_goal.obj
 0001:0005bc00       _BotAddToAvoidGoals        0045cc00 f   botlib:be_ai_goal.obj
 0001:0005bc80       _BotAllocGoalState         0045cc80 f   botlib:be_ai_goal.obj
 0001:0005bcd0       _BotAvoidGoalTime          0045ccd0 f   botlib:be_ai_goal.obj
 0001:0005bd50       _BotChooseLTGItem          0045cd50 f   botlib:be_ai_goal.obj
 0001:0005c0b0       _BotChooseNBGItem          0045d0b0 f   botlib:be_ai_goal.obj
 0001:0005c490       _BotDumpAvoidGoals         0045d490 f   botlib:be_ai_goal.obj
 0001:0005c530       _BotDumpGoalStack          0045d530 f   botlib:be_ai_goal.obj
 0001:0005c5b0       _BotEmptyGoalStack         0045d5b0 f   botlib:be_ai_goal.obj
 0001:0005c5d0       _BotFreeGoalState          0045d5d0 f   botlib:be_ai_goal.obj
 0001:0005c640       _BotFreeInfoEntities       0045d640 f   botlib:be_ai_goal.obj
 0001:0005c6b0       _BotFreeItemWeights        0045d6b0 f   botlib:be_ai_goal.obj
 0001:0005c6f0       _BotGetLevelItemGoal       0045d6f0 f   botlib:be_ai_goal.obj
 0001:0005c870       _BotGetMapLocationGoal     0045d870 f   botlib:be_ai_goal.obj
 0001:0005c900       _BotGetNextCampSpotGoal    0045d900 f   botlib:be_ai_goal.obj
 0001:0005c990       _BotGetSecondGoal          0045d990 f   botlib:be_ai_goal.obj
 0001:0005c9e0       _BotGetTopGoal             0045d9e0 f   botlib:be_ai_goal.obj
 0001:0005ca30       _BotGoalName               0045da30 f   botlib:be_ai_goal.obj
 0001:0005caa0       _BotGoalStateFromHandle    0045daa0 f   botlib:be_ai_goal.obj
 0001:0005caf0       _BotInitInfoEntities       0045daf0 f   botlib:be_ai_goal.obj
 0001:0005cd50       _BotInitLevelItems         0045dd50 f   botlib:be_ai_goal.obj
 0001:0005d350       _BotInterbreedGoalFuzzyLogic 0045e350 f   botlib:be_ai_goal.obj
 0001:0005d390       _BotItemGoalInVisButNotVisible 0045e390 f   botlib:be_ai_goal.obj
 0001:0005d4f0       _BotLoadItemWeights        0045e4f0 f   botlib:be_ai_goal.obj
 0001:0005d550       _BotMutateGoalFuzzyLogic   0045e550 f   botlib:be_ai_goal.obj
 0001:0005d570       _BotPopGoal                0045e570 f   botlib:be_ai_goal.obj
 0001:0005d5a0       _BotPushGoal               0045e5a0 f   botlib:be_ai_goal.obj
 0001:0005d600       _BotRemoveFromAvoidGoals   0045e600 f   botlib:be_ai_goal.obj
 0001:0005d670       _BotResetAvoidGoals        0045e670 f   botlib:be_ai_goal.obj
 0001:0005d6c0       _BotResetGoalState         0045e6c0 f   botlib:be_ai_goal.obj
 0001:0005d700       _BotSaveGoalFuzzyLogic     0045e700 f   botlib:be_ai_goal.obj
 0001:0005d710       _BotSetAvoidGoalTime       0045e710 f   botlib:be_ai_goal.obj
 0001:0005d7c0       _BotSetupGoalAI            0045e7c0 f   botlib:be_ai_goal.obj
 0001:0005d840       _BotShutdownGoalAI         0045e840 f   botlib:be_ai_goal.obj
 0001:0005d8c0       _BotTouchingGoal           0045e8c0 f   botlib:be_ai_goal.obj
 0001:0005da10       _BotUpdateEntityItems      0045ea10 f   botlib:be_ai_goal.obj
 0001:0005de50       _FreeLevelItem             0045ee50 f   botlib:be_ai_goal.obj
 0001:0005de70       _InitLevelItemHeap         0045ee70 f   botlib:be_ai_goal.obj
 0001:0005df10       _ItemWeightIndex           0045ef10 f   botlib:be_ai_goal.obj
 0001:0005df80       _LoadItemConfig            0045ef80 f   botlib:be_ai_goal.obj
 0001:0005e220       _RemoveLevelItemFromList   0045f220 f   botlib:be_ai_goal.obj
 0001:0005e250       _AngleDiff                 0045f250 f   botlib:be_ai_move.obj
 0001:0005e2c0       _BotAddAvoidSpot           0045f2c0 f   botlib:be_ai_move.obj
 0001:0005e360       _BotAddToAvoidReach        0045f360 f   botlib:be_ai_move.obj
 0001:0005e410       _BotAddToTarget            0045f410 f   botlib:be_ai_move.obj
 0001:0005e510       _BotAirControl             0045f510 f   botlib:be_ai_move.obj
 0001:0005e690       _BotAllocMoveState         0045f690 f   botlib:be_ai_move.obj
 0001:0005e6d0       _BotAvoidSpots             0045f6d0 f   botlib:be_ai_move.obj
 0001:0005e840       _BotCheckBarrierJump       0045f840 f   botlib:be_ai_move.obj
 0001:0005eaa0       _BotCheckBlocked           0045faa0 f   botlib:be_ai_move.obj
 0001:0005ecd0       _BotClearMoveResult        0045fcd0 f   botlib:be_ai_move.obj
 0001:0005ed10       _BotFinishTravel_BarrierJump 0045fd10 f   botlib:be_ai_move.obj
 0001:0005edd0       _BotFinishTravel_Elevator  0045fdd0 f   botlib:be_ai_move.obj
 0001:0005eec0       _BotFinishTravel_FuncBobbing 0045fec0 f   botlib:be_ai_move.obj
 0001:0005f130       _BotFinishTravel_Jump      00460130 f   botlib:be_ai_move.obj
 0001:0005f250       _BotFinishTravel_JumpPad   00460250 f   botlib:be_ai_move.obj
 0001:0005f330       _BotFinishTravel_WalkOffLedge 00460330 f   botlib:be_ai_move.obj
 0001:0005f4d0       _BotFinishTravel_WaterJump 004604d0 f   botlib:be_ai_move.obj
 0001:0005f6b0       _BotFinishTravel_WeaponJump 004606b0 f   botlib:be_ai_move.obj
 0001:0005f780       _BotFreeMoveState          00460780 f   botlib:be_ai_move.obj
 0001:0005f7e0       _BotFuncBobStartEnd        004607e0 f   botlib:be_ai_move.obj
 0001:0005f9b0       _BotFuzzyPointReachabilityArea 004609b0 f   botlib:be_ai_move.obj
 0001:0005fc30       _BotGapDistance            00460c30 f   botlib:be_ai_move.obj
 0001:0005fe30       _BotGetReachabilityToGoal  00460e30 f   botlib:be_ai_move.obj
 0001:0005fff0       _BotInitMoveState          00460ff0 f   botlib:be_ai_move.obj
 0001:000600c0       _BotMoveInDirection        004610c0 f   botlib:be_ai_move.obj
 0001:00060110       _BotMoveInGoalArea         00461110 f   botlib:be_ai_move.obj
 0001:00060270       _BotMoveStateFromHandle    00461270 f   botlib:be_ai_move.obj
 0001:000602c0       _BotMoveToGoal             004612c0 f   botlib:be_ai_move.obj
 0001:00060d40       _BotMovementViewTarget     00461d40 f   botlib:be_ai_move.obj
 0001:00060f00       _BotOnMover                00461f00 f   botlib:be_ai_move.obj
 0001:00061110       _BotOnTopOfEntity          00462110 f   botlib:be_ai_move.obj
 0001:000611f0       _BotPredictVisiblePosition 004621f0 f   botlib:be_ai_move.obj
 0001:000613a0       _BotReachabilityArea       004623a0 f   botlib:be_ai_move.obj
 0001:000615e0       _BotReachabilityTime       004625e0 f   botlib:be_ai_move.obj
 0001:00061680       _BotResetAvoidReach        00462680 f   botlib:be_ai_move.obj
 0001:000616d0       _BotResetGrapple           004626d0 f   botlib:be_ai_move.obj
 0001:00061760       _BotResetLastAvoidReach    00462760 f   botlib:be_ai_move.obj
 0001:000617b0       _BotResetMoveState         004627b0 f   botlib:be_ai_move.obj
 0001:000617e0       _BotSetBrushModelTypes     004627e0 f   botlib:be_ai_move.obj
 0001:00061960       _BotSetupMoveAI            00462960 f   botlib:be_ai_move.obj
 0001:00061a40       _BotShutdownMoveAI         00462a40 f   botlib:be_ai_move.obj
 0001:00061a70       _BotSwimInDirection        00462a70 f   botlib:be_ai_move.obj
 0001:00061ae0       _BotTravel_BFGJump         00462ae0 f   botlib:be_ai_move.obj
 0001:00061cf0       _BotTravel_BarrierJump     00462cf0 f   botlib:be_ai_move.obj
 0001:00061de0       _BotTravel_Crouch          00462de0 f   botlib:be_ai_move.obj
 0001:00061ec0       _BotTravel_Elevator        00462ec0 f   botlib:be_ai_move.obj
 0001:00062510       _BotTravel_FuncBobbing     00463510 f   botlib:be_ai_move.obj
 0001:00062c00       _BotTravel_Grapple         00463c00 f   botlib:be_ai_move.obj
 0001:000631e0       _BotTravel_Jump            004641e0 f   botlib:be_ai_move.obj
 0001:00063580       _BotTravel_JumpPad         00464580 f   botlib:be_ai_move.obj
 0001:00063630       _BotTravel_Ladder          00464630 f   botlib:be_ai_move.obj
 0001:00063730       _BotTravel_RocketJump      00464730 f   botlib:be_ai_move.obj
 0001:00063950       _BotTravel_Swim            00464950 f   botlib:be_ai_move.obj
 0001:00063a10       _BotTravel_Teleport        00464a10 f   botlib:be_ai_move.obj
 0001:00063b00       _BotTravel_Walk            00464b00 f   botlib:be_ai_move.obj
 0001:00063cb0       _BotTravel_WalkOffLedge    00464cb0 f   botlib:be_ai_move.obj
 0001:00063f00       _BotTravel_WaterJump       00464f00 f   botlib:be_ai_move.obj
 0001:00064030       _BotValidTravel            00465030 f   botlib:be_ai_move.obj
 0001:00064070       _BotVisible                00465070 f   botlib:be_ai_move.obj
 0001:000640e0       _BotWalkInDirection        004650e0 f   botlib:be_ai_move.obj
 0001:00064450       _DistanceFromLineSquared   00465450 f   botlib:be_ai_move.obj
 0001:000645b0       _GrappleState              004655b0 f   botlib:be_ai_move.obj
 0001:00064660       _MoverBottomCenter         00465660 f   botlib:be_ai_move.obj
 0001:00064760       _MoverDown                 00465760 f   botlib:be_ai_move.obj
 0001:00064800       _VectorDistanceSquared     00465800 f   botlib:be_ai_move.obj
 0001:00064850       _BotAllocWeaponState       00465850 f   botlib:be_ai_weap.obj
 0001:00064880       _BotChooseBestFightWeapon  00465880 f   botlib:be_ai_weap.obj
 0001:00064930       _BotFreeWeaponState        00465930 f   botlib:be_ai_weap.obj
 0001:000649a0       _BotFreeWeaponWeights      004659a0 f   botlib:be_ai_weap.obj
 0001:000649e0       _BotGetWeaponInfo          004659e0 f   botlib:be_ai_weap.obj
 0001:00064a30       _BotLoadWeaponWeights      00465a30 f   botlib:be_ai_weap.obj
 0001:00064aa0       _BotResetWeaponState       00465aa0 f   botlib:be_ai_weap.obj
 0001:00064ab0       _BotSetupWeaponAI          00465ab0 f   botlib:be_ai_weap.obj
 0001:00064af0       _BotShutdownWeaponAI       00465af0 f   botlib:be_ai_weap.obj
 0001:00064b30       _BotValidWeaponNumber      00465b30 f   botlib:be_ai_weap.obj
 0001:00064b60       _BotWeaponStateFromHandle  00465b60 f   botlib:be_ai_weap.obj
 0001:00064bb0       _LoadWeaponConfig          00465bb0 f   botlib:be_ai_weap.obj
 0001:000650e0       _WeaponWeightIndex         004660e0 f   botlib:be_ai_weap.obj
 0001:00065130       _AllocConsoleMessage       00466130 f   botlib:be_ai_chat.obj
 0001:00065160       _BotAllocChatState         00466160 f   botlib:be_ai_chat.obj
 0001:000651a0       _BotChatLength             004661a0 f   botlib:be_ai_chat.obj
 0001:000651d0       _BotChatStateFromHandle    004661d0 f   botlib:be_ai_chat.obj
 0001:00065220       _BotCheckChatMessageIntegrety 00466220 f   botlib:be_ai_chat.obj
 0001:00065390       _BotCheckInitialChatIntegrety 00466390 f   botlib:be_ai_chat.obj
 0001:000653e0       _BotCheckReplyChatIntegrety 004663e0 f   botlib:be_ai_chat.obj
 0001:00065430       _BotCheckValidReplyChatKeySet 00466430 f   botlib:be_ai_chat.obj
 0001:00065650       _BotChooseInitialChatMessage 00466650 f   botlib:be_ai_chat.obj
 0001:00065750       _BotConstructChatMessage   00466750 f   botlib:be_ai_chat.obj
 0001:00065810       _BotEnterChat              00466810 f   botlib:be_ai_chat.obj
 0001:000658e0       _BotExpandChatMessage      004668e0 f   botlib:be_ai_chat.obj
 0001:00065c20       _BotFindMatch              00466c20 f   botlib:be_ai_chat.obj
 0001:00065d20       _BotFindStringInList       00466d20 f   botlib:be_ai_chat.obj
 0001:00065d70       _BotFreeChatFile           00466d70 f   botlib:be_ai_chat.obj
 0001:00065db0       _BotFreeChatState          00466db0 f   botlib:be_ai_chat.obj
 0001:00065ea0       _BotFreeMatchPieces        00466ea0 f   botlib:be_ai_chat.obj
 0001:00065ef0       _BotFreeMatchTemplates     00466ef0 f   botlib:be_ai_chat.obj
 0001:00065f20       _BotFreeReplyChat          00466f20 f   botlib:be_ai_chat.obj
 0001:00065fb0       _BotGetChatMessage         00466fb0 f   botlib:be_ai_chat.obj
 0001:00065ff0       _BotInitialChat            00466ff0 f   botlib:be_ai_chat.obj
 0001:000663e0       _BotLoadChatFile           004673e0 f   botlib:be_ai_chat.obj
 0001:000665a0       _BotLoadChatMessage        004675a0 f   botlib:be_ai_chat.obj
 0001:000667b0       _BotLoadInitialChat        004677b0 f   botlib:be_ai_chat.obj
 0001:00066ce0       _BotLoadMatchPieces        00467ce0 f   botlib:be_ai_chat.obj
 0001:00067000       _BotLoadMatchTemplates     00468000 f   botlib:be_ai_chat.obj
 0001:000672f0       _BotLoadRandomStrings      004682f0 f   botlib:be_ai_chat.obj
 0001:00067600       _BotLoadReplyChat          00468600 f   botlib:be_ai_chat.obj
 0001:00067b60       _BotLoadSynonyms           00468b60 f   botlib:be_ai_chat.obj
 0001:00068090       _BotMatchVariable          00469090 f   botlib:be_ai_chat.obj
 0001:00068100       _BotNextConsoleMessage     00469100 f   botlib:be_ai_chat.obj
 0001:00068150       _BotNumConsoleMessages     00469150 f   botlib:be_ai_chat.obj
 0001:00068170       _BotNumInitialChats        00469170 f   botlib:be_ai_chat.obj
 0001:00068210       _BotQueueConsoleMessage    00469210 f   botlib:be_ai_chat.obj
 0001:000682f0       _BotRemoveConsoleMessage   004692f0 f   botlib:be_ai_chat.obj
 0001:00068390       _BotRemoveTildes           00469390 f   botlib:be_ai_chat.obj
 0001:000683e0       _BotReplaceReplySynonyms   004693e0 f   botlib:be_ai_chat.obj
 0001:00068520       _BotReplaceSynonyms        00469520 f   botlib:be_ai_chat.obj
 0001:00068570       _BotReplaceWeightedSynonyms 00469570 f   botlib:be_ai_chat.obj
 0001:00068600       _BotReplyChat              00469600 f   botlib:be_ai_chat.obj
 0001:00068cf0       _BotSetChatGender          00469cf0 f   botlib:be_ai_chat.obj
 0001:00068d30       _BotSetChatName            00469d30 f   botlib:be_ai_chat.obj
 0001:00068d70       _BotSetupChatAI            00469d70 f   botlib:be_ai_chat.obj
 0001:00068e20       _BotShutdownChatAI         00469e20 f   botlib:be_ai_chat.obj
 0001:00068f00       _FreeConsoleMessage        00469f00 f   botlib:be_ai_chat.obj
 0001:00068f40       _InitConsoleMessageHeap    00469f40 f   botlib:be_ai_chat.obj
 0001:00069020       _IsWhiteSpace              0046a020 f   botlib:be_ai_chat.obj
 0001:00069090       _RandomString              0046a090 f   botlib:be_ai_chat.obj
 0001:00069130       _StringContains            0046a130 f   botlib:be_ai_chat.obj
 0001:00069210       _StringContainsWord        0046a210 f   botlib:be_ai_chat.obj
 0001:00069320       _StringReplaceWords        0046a320 f   botlib:be_ai_chat.obj
 0001:00069440       _StringsMatch              0046a440 f   botlib:be_ai_chat.obj
 0001:00069570       _UnifyWhiteSpaces          0046a570 f   botlib:be_ai_chat.obj
 0001:00069600       _BotCharacterFromHandle    0046a600 f   botlib:be_ai_char.obj
 0001:00069650       _BotDefaultCharacteristics 0046a650 f   botlib:be_ai_char.obj
 0001:000696e0       _BotDumpCharacter          0046a6e0 f   botlib:be_ai_char.obj
 0001:00069780       _BotFindCachedCharacter    0046a780 f   botlib:be_ai_char.obj
 0001:00069810       _BotFreeCharacter          0046a810 f   botlib:be_ai_char.obj
 0001:00069850       _BotFreeCharacter2         0046a850 f   botlib:be_ai_char.obj
 0001:000698c0       _BotFreeCharacterStrings   0046a8c0 f   botlib:be_ai_char.obj
 0001:000698f0       _BotInterpolateCharacters  0046a8f0 f   botlib:be_ai_char.obj
 0001:00069aa0       _BotLoadCachedCharacter    0046aaa0 f   botlib:be_ai_char.obj
 0001:00069d60       _BotLoadCharacter          0046ad60 f   botlib:be_ai_char.obj
 0001:00069ea0       _BotLoadCharacterFromFile  0046aea0 f   botlib:be_ai_char.obj
 0001:0006a2e0       _BotLoadCharacterSkill     0046b2e0 f   botlib:be_ai_char.obj
 0001:0006a350       _BotShutdownCharacters     0046b350 f   botlib:be_ai_char.obj
 0001:0006a380       _Characteristic_BFloat     0046b380 f   botlib:be_ai_char.obj
 0001:0006a410       _Characteristic_BInteger   0046b410 f   botlib:be_ai_char.obj
 0001:0006a470       _Characteristic_Float      0046b470 f   botlib:be_ai_char.obj
 0001:0006a4e0       _Characteristic_Integer    0046b4e0 f   botlib:be_ai_char.obj
 0001:0006a550       _Characteristic_String     0046b550 f   botlib:be_ai_char.obj
 0001:0006a5c0       _CheckCharacteristicIndex  0046b5c0 f   botlib:be_ai_char.obj
 0001:0006a620       _GeneticParentsAndChildSelection 0046b620 f   botlib:be_ai_gen.obj
 0001:0006a940       _GeneticSelection          0046b940 f   botlib:be_ai_gen.obj
 0001:0006aa60       _AvailableMemory           0046ba60 f   botlib:l_memory.obj
 0001:0006aa70       _FreeMemory                0046ba70 f   botlib:l_memory.obj
 0001:0006aa90       _GetClearedHunkMemory      0046ba90 f   botlib:l_memory.obj
 0001:0006aac0       _GetClearedMemory          0046bac0 f   botlib:l_memory.obj
 0001:0006aaf0       _GetHunkMemory             0046baf0 f   botlib:l_memory.obj
 0001:0006ab20       _GetMemory                 0046bb20 f   botlib:l_memory.obj
 0001:0006ab50       _EndOfScript               0046bb50 f   botlib:l_script.obj
 0001:0006ab70       _FreeScript                0046bb70 f   botlib:l_script.obj
 0001:0006aba0       _LoadScriptFile            0046bba0 f   botlib:l_script.obj
 0001:0006acf0       _LoadScriptMemory          0046bcf0 f   botlib:l_script.obj
 0001:0006ada0       _NumberValue               0046bda0 f   botlib:l_script.obj
 0001:0006af50       _PS_CreatePunctuationTable 0046bf50 f   botlib:l_script.obj
 0001:0006b040       _PS_ExpectTokenType        0046c040 f   botlib:l_script.obj
 0001:0006b390       _PS_ReadEscapeCharacter    0046c390 f   botlib:l_script.obj
 0001:0006b650       _PS_ReadName               0046c650 f   botlib:l_script.obj
 0001:0006b6e0       _PS_ReadNumber             0046c6e0 f   botlib:l_script.obj
 0001:0006b960       _PS_ReadPrimitive          0046c960 f   botlib:l_script.obj
 0001:0006b9f0       _PS_ReadPunctuation        0046c9f0 f   botlib:l_script.obj
 0001:0006ba90       _PS_ReadString             0046ca90 f   botlib:l_script.obj
 0001:0006bbf0       _PS_ReadToken              0046cbf0 f   botlib:l_script.obj
 0001:0006bd90       _PS_ReadWhiteSpace         0046cd90 f   botlib:l_script.obj
 0001:0006be70       _PS_SetBaseFolder          0046ce70 f   botlib:l_script.obj
 0001:0006be90       _ScriptError               0046ce90 f   botlib:l_script.obj
 0001:0006bef0       _ScriptWarning             0046cef0 f   botlib:l_script.obj
 0001:0006bf50       _SetScriptFlags            0046cf50 f   botlib:l_script.obj
 0001:0006bf70       _SetScriptPunctuations     0046cf70 f   botlib:l_script.obj
 0001:0006bfb0       _StripDoubleQuotes         0046cfb0 f   botlib:l_script.obj
 0001:0006c000       _StripSingleQuotes         0046d000 f   botlib:l_script.obj
 0001:0006c050       _Sys_CheckCD               0046d050 f   win_main.obj
 0001:0006c050       _AAS_KeepEdge              0046d050 f   botlib:be_aas_optimize.obj
 0001:0006c060       _AAS_KeepFace              0046d060 f   botlib:be_aas_optimize.obj
 0001:0006c080       _AAS_Optimize              0046d080 f   botlib:be_aas_optimize.obj
 0001:0006c180       _AAS_OptimizeAlloc         0046d180 f   botlib:be_aas_optimize.obj
 0001:0006c260       _AAS_OptimizeArea          0046d260 f   botlib:be_aas_optimize.obj
 0001:0006c2e0       _AAS_OptimizeEdge          0046d2e0 f   botlib:be_aas_optimize.obj
 0001:0006c460       _AAS_OptimizeFace          0046d460 f   botlib:be_aas_optimize.obj
 0001:0006c540       _AAS_OptimizeStore         0046d540 f   botlib:be_aas_optimize.obj
 0001:0006c630       _AAS_CheckAreaForPossiblePortals 0046d630 f   botlib:be_aas_cluster.obj
 0001:0006caf0       _AAS_ConnectedAreas        0046daf0 f   botlib:be_aas_cluster.obj
 0001:0006cb90       _AAS_ConnectedAreas_r      0046db90 f   botlib:be_aas_cluster.obj
 0001:0006cc40       _AAS_CountForcedClusterPortals 0046dc40 f   botlib:be_aas_cluster.obj
 0001:0006cca0       _AAS_CreatePortals         0046dca0 f   botlib:be_aas_cluster.obj
 0001:0006cd20       _AAS_CreateViewPortals     0046dd20 f   botlib:be_aas_cluster.obj
 0001:0006cd70       _AAS_FindClusters          0046dd70 f   botlib:be_aas_cluster.obj
 0001:0006ce60       _AAS_FindPossiblePortals   0046de60 f   botlib:be_aas_cluster.obj
 0001:0006cea0       _AAS_FloodClusterAreasUsingReachabilities 0046dea0 f   botlib:be_aas_cluster.obj
 0001:0006cf50       _AAS_FloodClusterAreas_r   0046df50 f   botlib:be_aas_cluster.obj
 0001:0006d0c0       _AAS_GetAdjacentAreasWithLessPresenceTypes_r 0046e0c0 f   botlib:be_aas_cluster.obj
 0001:0006d1b0       _AAS_InitClustering        0046e1b0 f   botlib:be_aas_cluster.obj
 0001:0006d450       _AAS_NumberClusterAreas    0046e450 f   botlib:be_aas_cluster.obj
 0001:0006d600       _AAS_RemoveClusterAreas    0046e600 f   botlib:be_aas_cluster.obj
 0001:0006d630       _AAS_SetViewPortalsAsClusterPortals 0046e630 f   botlib:be_aas_cluster.obj
 0001:0006d680       _AAS_TestPortals           0046e680 f   botlib:be_aas_cluster.obj
 0001:0006d710       _AAS_UpdatePortal          0046e710 f   botlib:be_aas_cluster.obj
 0001:0006d810       _AAS_DData                 0046e810 f   botlib:be_aas_file.obj
 0001:0006d840       _AAS_DumpAASData           0046e840 f   botlib:be_aas_file.obj
 0001:0006da80       _AAS_LoadAASFile           0046ea80 f   botlib:be_aas_file.obj
 0001:0006df80       _AAS_LoadAASLump           0046ef80 f   botlib:be_aas_file.obj
 0001:0006e010       _AAS_SwapAASData           0046f010 f   botlib:be_aas_file.obj
 0001:0006e170       _AAS_WriteAASFile          0046f170 f   botlib:be_aas_file.obj
 0001:0006e4d0       _AAS_WriteAASLump          0046f4d0 f   botlib:be_aas_file.obj
 0001:0006e520       _AAS_DebugLine             0046f520 f   botlib:be_aas_debug.obj
 0001:0006e590       _AAS_PermanentLine         0046f590 f   botlib:be_aas_debug.obj
 0001:0006e5b0       _CRC_Init                  0046f5b0 f   botlib:l_crc.obj
 0001:0006e5c0       _CRC_ProcessString         0046f5c0 f   botlib:l_crc.obj
 0001:0006e620       _CRC_Value                 0046f620 f   botlib:l_crc.obj
 0001:0006e630       _FindField                 0046f630 f   botlib:l_struct.obj
 0001:0006e6a0       _ReadChar                  0046f6a0 f   botlib:l_struct.obj
 0001:0006e730       _ReadNumber                0046f730 f   botlib:l_struct.obj
 0001:0006eb20       _ReadString                0046fb20 f   botlib:l_struct.obj
 0001:0006eba0       _ReadStructure             0046fba0 f   botlib:l_struct.obj
 0001:0006eea0       _GL_CheckErrors            0046fea0 f   renderer:tr_init.obj
 0001:0006efd0       _GL_SetDefaultState        0046ffd0 f   renderer:tr_init.obj
 0001:0006f0f0       _GetRefAPI                 004700f0 f   renderer:tr_init.obj
 0001:0006f610       _RB_TakeScreenshot         00470610 f   renderer:tr_init.obj
 0001:0006f700       _RB_TakeScreenshotCmd      00470700 f   renderer:tr_init.obj
 0001:0006f740       _RB_TakeScreenshotJPEG     00470740 f   renderer:tr_init.obj
 0001:0006f7e0       _RE_EndRegistration        004707e0 f   renderer:tr_init.obj
 0001:0006f800       _RE_Shutdown               00470800 f   renderer:tr_init.obj
 0001:0006f8b0       _R_GetModeInfo             004708b0 f   renderer:tr_init.obj
 0001:0006f940       _R_Init                    00470940 f   renderer:tr_init.obj
 0001:0006fbf0       _R_LevelShot               00470bf0 f   renderer:tr_init.obj
 0001:0006ff00       _R_Register                00470f00 f   renderer:tr_init.obj
 0001:00070b30       _R_ScreenShotJPEG_f        00471b30 f   renderer:tr_init.obj
 0001:00070d20       _R_ScreenShot_f            00471d20 f   renderer:tr_init.obj
 0001:00070f10       _R_ScreenshotFilename      00471f10 f   renderer:tr_init.obj
 0001:00070fb0       _R_ScreenshotFilenameJPEG  00471fb0 f   renderer:tr_init.obj
 0001:00071040       _RE_BeginRegistration      00472040 f   renderer:tr_model.obj
 0001:000710d0       _RE_RegisterModel          004720d0 f   renderer:tr_model.obj
 0001:000713d0       _R_AllocModel              004723d0 f   renderer:tr_model.obj
 0001:00071410       _R_GetModelByHandle        00472410 f   renderer:tr_model.obj
 0001:000714c0       _R_LerpTag                 004724c0 f   renderer:tr_model.obj
 0001:00071b50       _R_ModelBounds             00472b50 f   renderer:tr_model.obj
 0001:00071c20       _R_ModelInit               00472c20 f   renderer:tr_model.obj
 0001:00071c60       _R_Modellist_f             00472c60 f   renderer:tr_model.obj
 0001:00071ce0       _R_NoiseGet4f              00472ce0 f   renderer:tr_noise.obj
 0001:00071fd0       _R_NoiseInit               00472fd0 f   renderer:tr_noise.obj
 0001:00072050       _GL_Bind                   00473050 f   renderer:tr_backend.obj
 0001:000720c0       _GL_Cull                   004730c0 f   renderer:tr_backend.obj
 0001:00072130       _GL_SelectTexture          00473130 f   renderer:tr_backend.obj
 0001:000721e0       _GL_State                  004731e0 f   renderer:tr_backend.obj
 0001:00072510       _GL_TexEnv                 00473510 f   renderer:tr_backend.obj
 0001:000725d0       _RB_BeginDrawingView       004735d0 f   renderer:tr_backend.obj
 0001:00072870       _RB_ExecuteRenderCommands  00473870 f   renderer:tr_backend.obj
 0001:00072a00       _RB_RenderDrawSurfList     00473a00 f   renderer:tr_backend.obj
 0001:00072ca0       _RB_RenderThread           00473ca0 f   renderer:tr_backend.obj
 0001:00072e50       _RB_SetGL2D                00473e50 f   renderer:tr_backend.obj
 0001:00072f50       _RB_ShowImages             00473f50 f   renderer:tr_backend.obj
 0001:00073200       _RB_StretchPic             00474200 f   renderer:tr_backend.obj
 0001:000733d0       _RB_SwapBuffers            004743d0 f   renderer:tr_backend.obj
 0001:000734f0       _RE_StretchRaw             004744f0 f   renderer:tr_backend.obj
 0001:000738b0       _RE_UploadCinematic        004748b0 f   renderer:tr_backend.obj
 0001:00073b50       _GL_TextureMode            00474b50 f   renderer:tr_image.obj
 0001:00074820       _RE_RegisterSkin           00475820 f   renderer:tr_image.obj
 0001:00074b30       _R_CreateBuiltinImages     00475b30 f   renderer:tr_image.obj
 0001:00075070       _R_CreateImage             00476070 f   renderer:tr_image.obj
 0001:00075210       _R_DeleteTextures          00476210 f   renderer:tr_image.obj
 0001:000752c0       _R_FindImageFile           004762c0 f   renderer:tr_image.obj
 0001:000754c0       _R_FogFactor               004764c0 f   renderer:tr_image.obj
 0001:00075550       _R_GammaCorrect            00476550 f   renderer:tr_image.obj
 0001:00075580       _R_GetSkinByHandle         00476580 f   renderer:tr_image.obj
 0001:000755b0       _R_ImageList_f             004765b0 f   renderer:tr_image.obj
 0001:00075750       _R_InitFogTable            00476750 f   renderer:tr_image.obj
 0001:000757b0       _R_InitImages              004767b0 f   renderer:tr_image.obj
 0001:000757d0       _R_InitSkins               004767d0 f   renderer:tr_image.obj
 0001:00075820       _R_LightScaleTexture       00476820 f   renderer:tr_image.obj
 0001:00075930       _R_LoadImage               00476930 f   renderer:tr_image.obj
 0001:00075f30       _R_SetColorMappings        00476f30 f   renderer:tr_image.obj
 0001:00076110       _R_SkinList_f              00477110 f   renderer:tr_image.obj
 0001:000761a0       _R_SumOfUsedImages         004771a0 f   renderer:tr_image.obj
 0001:00076430       _SaveJPG                   00477430 f   renderer:tr_image.obj
 0001:00076a40       _empty_output_buffer       00477a40 f   renderer:tr_image.obj
 0001:00076ab0       _init_destination          00477ab0 f   renderer:tr_image.obj
 0001:00076ad0       _jpeg_write_scanlines      00477ad0 f   renderer:tr_image.obj
 0001:00076b90       _term_destination          00477b90 f   renderer:tr_image.obj
 0001:00076bb0       _RE_BeginFrame             00477bb0 f   renderer:tr_cmds.obj
 0001:00076e60       _RE_EndFrame               00477e60 f   renderer:tr_cmds.obj
 0001:00076ef0       _RE_SetColor               00477ef0 f   renderer:tr_cmds.obj
 0001:00076f60       _RE_StretchPic             00477f60 f   renderer:tr_cmds.obj
 0001:00077010       _R_AddDrawSurfCmd          00478010 f   renderer:tr_cmds.obj
 0001:00077090       _R_GetCommandBuffer        00478090 f   renderer:tr_cmds.obj
 0001:000770f0       _R_InitCommandBuffers      004780f0 f   renderer:tr_cmds.obj
 0001:00077150       _R_IssueRenderCommands     00478150 f   renderer:tr_cmds.obj
 0001:00077200       _R_PerformanceCounters     00478200 f   renderer:tr_cmds.obj
 0001:00077400       _R_ShutdownCommandBuffers  00478400 f   renderer:tr_cmds.obj
 0001:00077420       _R_SyncRenderThread        00478420 f   renderer:tr_cmds.obj
 0001:00077e70       _RE_LoadWorldMap           00478e70 f   renderer:tr_bsp.obj
 0001:00078030       _RE_SetWorldVisData        00479030 f   renderer:tr_bsp.obj
 0001:000780d0       _R_FixSharedVertexLodError 004790d0 f   renderer:tr_bsp.obj
 0001:00078120       _R_FixSharedVertexLodError_r 00479120 f   renderer:tr_bsp.obj
 0001:00078670       _R_GetEntityToken          00479670 f   renderer:tr_bsp.obj
 0001:000786c0       _R_LoadEntities            004796c0 f   renderer:tr_bsp.obj
 0001:00078c20       _R_LoadLightGrid           00479c20 f   renderer:tr_bsp.obj
 0001:000797e0       _R_MergedHeightPoints      0047a7e0 f   renderer:tr_bsp.obj
 0001:000798e0       _R_MergedWidthPoints       0047a8e0 f   renderer:tr_bsp.obj
 0001:00079990       _R_MovePatchSurfacesToHunk 0047a990 f   renderer:tr_bsp.obj
 0001:00079aa0       _R_StitchAllPatches        0047aaa0 f   renderer:tr_bsp.obj
 0001:00079bf0       _R_StitchPatches           0047abf0 f   renderer:tr_bsp.obj
 0001:0007c460       _ParseSort                 0047d460 f   renderer:tr_shader.obj
 0001:0007d8f0       _RE_RegisterShader         0047e8f0 f   renderer:tr_shader.obj
 0001:0007d940       _RE_RegisterShaderLightMap 0047e940 f   renderer:tr_shader.obj
 0001:0007d990       _RE_RegisterShaderNoMip    0047e990 f   renderer:tr_shader.obj
 0001:0007d9e0       _R_FindShader              0047e9e0 f   renderer:tr_shader.obj
 0001:0007dd00       _R_FindShaderByName        0047ed00 f   renderer:tr_shader.obj
 0001:0007dda0       _R_GetShaderByHandle       0047eda0 f   renderer:tr_shader.obj
 0001:0007dde0       _R_InitShaders             0047ede0 f   renderer:tr_shader.obj
 0001:0007de50       _R_RemapShader             0047ee50 f   renderer:tr_shader.obj
 0001:0007e030       _R_ShaderList_f            0047f030 f   renderer:tr_shader.obj
 0001:0007fec0       _GLimp_EndFrame            00480ec0 f   renderer:win_glimp.obj
 0001:0007ff60       _GLimp_FrontEndSleep       00480f60 f   renderer:win_glimp.obj
 0001:0007ff90       _GLimp_Init                00480f90 f   renderer:win_glimp.obj
 0001:00080370       _GLimp_LogComment          00481370 f   renderer:win_glimp.obj
 0001:00080390       _GLimp_RenderThreadWrapper 00481390 f   renderer:win_glimp.obj
 0001:000803b0       _GLimp_RendererSleep       004813b0 f   renderer:win_glimp.obj
 0001:00080440       _GLimp_Shutdown            00481440 f   renderer:win_glimp.obj
 0001:000805d0       _GLimp_SpawnRenderThread   004815d0 f   renderer:win_glimp.obj
 0001:00080640       _GLimp_WakeRenderer        00481640 f   renderer:win_glimp.obj
 0001:00080730       _R_AddBrushModelSurfaces   00481730 f   renderer:tr_world.obj
 0001:000807e0       _R_AddWorldSurfaces        004817e0 f   renderer:tr_world.obj
 0001:00081150       _R_inPVS                   00482150 f   renderer:tr_world.obj
 0001:00081190       _R_DlightBmodel            00482190 f   renderer:tr_light.obj
 0001:00081270       _R_LightForPoint           00482270 f   renderer:tr_light.obj
 0001:00081360       _R_SetupEntityLighting     00482360 f   renderer:tr_light.obj
 0001:00081d10       _R_TransformDlights        00482d10 f   renderer:tr_light.obj
 0001:00081dd0       _R_AddMarkFragments        00482dd0 f   renderer:tr_marks.obj
 0001:00082150       _R_BoxSurfaces_r           00483150 f   renderer:tr_marks.obj
 0001:00082290       _R_MarkFragments           00483290 f   renderer:tr_marks.obj
 0001:00083000       _RE_AddAdditiveLightToScene 00484000 f   renderer:tr_scene.obj
 0001:00083040       _RE_AddDynamicLightToScene 00484040 f   renderer:tr_scene.obj
 0001:00083100       _RE_AddLightToScene        00484100 f   renderer:tr_scene.obj
 0001:00083140       _RE_AddPolyToScene         00484140 f   renderer:tr_scene.obj
 0001:000833e0       _RE_AddRefEntityToScene    004843e0 f   renderer:tr_scene.obj
 0001:00083480       _RE_ClearScene             00484480 f   renderer:tr_scene.obj
 0001:000834a0       _RE_RenderScene            004844a0 f   renderer:tr_scene.obj
 0001:000838c0       _R_AddPolygonSurfaces      004848c0 f   renderer:tr_scene.obj
 0001:00083910       _R_ToggleSmpFrame          00484910 f   renderer:tr_scene.obj
 0001:00083990       _RE_RegisterFont           00484990 f   renderer:tr_font.obj
 0001:00083df0       _R_InitFreeType            00484df0 f   renderer:tr_font.obj
 0001:00083df0       _R_DoneFreeType            00484df0 f   renderer:tr_font.obj
 0001:00084340       _QGL_EnableLogging         00485340 f   renderer:win_qgl.obj
 0001:00085ef0       _QGL_Init                  00486ef0 f   renderer:win_qgl.obj
 0001:00088000       _QGL_Shutdown              00489000 f   renderer:win_qgl.obj
 0001:0008c710       _R_AddDrawSurf             0048d710 f   renderer:tr_main.obj
 0001:0008c760       _R_AddEntitySurfaces       0048d760 f   renderer:tr_main.obj
 0001:0008c970       _R_CullLocalBox            0048d970 f   renderer:tr_main.obj
 0001:0008cfe0       _R_CullLocalPointAndRadius 0048dfe0 f   renderer:tr_main.obj
 0001:0008d0b0       _R_CullPointAndRadius      0048e0b0 f   renderer:tr_main.obj
 0001:0008d140       _R_DebugPolygon            0048e140 f   renderer:tr_main.obj
 0001:0008d250       _R_DecomposeSort           0048e250 f   renderer:tr_main.obj
 0001:0008d2a0       _R_GetPortalOrientations   0048e2a0 f   renderer:tr_main.obj
 0001:0008d990       _R_MirrorPoint             0048e990 f   renderer:tr_main.obj
 0001:0008dae0       _R_MirrorVector            0048eae0 f   renderer:tr_main.obj
 0001:0008dc20       _R_MirrorViewBySurface     0048ec20 f   renderer:tr_main.obj
 0001:0008de00       _R_PlaneForSurface         0048ee00 f   renderer:tr_main.obj
 0001:0008dec0       _R_RenderView              0048eec0 f   renderer:tr_main.obj
 0001:0008df90       _R_RotateForEntity         0048ef90 f   renderer:tr_main.obj
 0001:0008e200       _R_RotateForViewer         0048f200 f   renderer:tr_main.obj
 0001:0008e4c0       _R_SetupFrustum            0048f4c0 f   renderer:tr_main.obj
 0001:0008e730       _R_SetupProjection         0048f730 f   renderer:tr_main.obj
 0001:0008e8e0       _R_SortDrawSurfs           0048f8e0 f   renderer:tr_main.obj
 0001:0008e9c0       _R_SpriteFogNum            0048f9c0 f   renderer:tr_main.obj
 0001:0008ee50       _myGlMultMatrix            0048fe50 f   renderer:tr_main.obj
 0001:0008ef60       _qsortFast                 0048ff60 f   renderer:tr_main.obj
 0001:000900c0       _RB_BeginSurface           004910c0 f   renderer:tr_shade.obj
 0001:00090160       _RB_EndSurface             00491160 f   renderer:tr_shade.obj
 0001:000904b0       _RB_StageIteratorGeneric   004914b0 f   renderer:tr_shade.obj
 0001:00090690       _RB_StageIteratorLightmappedMultitexture 00491690 f   renderer:tr_shade.obj
 0001:00090850       _RB_StageIteratorVertexLitTexture 00491850 f   renderer:tr_shade.obj
 0001:00090c30       _RB_RenderFlare            00491c30 f   renderer:tr_flares.obj
 0001:00090fd0       _RB_RenderFlares           00491fd0 f   renderer:tr_flares.obj
 0001:00091170       _RB_TestFlare              00492170 f   renderer:tr_flares.obj
 0001:000912b0       _R_ClearFlares             004922b0 f   renderer:tr_flares.obj
 0001:000912f0       _RB_SurfacePolychain       004922f0 f   renderer:tr_surface.obj
 0001:00091420       _RB_SurfaceTriangles       00492420 f   renderer:tr_surface.obj
 0001:000915f0       _RB_SurfaceMesh            004925f0 f   renderer:tr_surface.obj
 0001:000917f0       _RB_SurfaceFace            004927f0 f   renderer:tr_surface.obj
 0001:000919e0       _RB_SurfaceGrid            004929e0 f   renderer:tr_surface.obj
 0001:00091ea0       _RB_SurfaceEntity          00492ea0 f   renderer:tr_surface.obj
 0001:00091ef0       _RB_SurfaceBad             00492ef0 f   renderer:tr_surface.obj
 0001:00091f10       _RB_SurfaceDisplayList     00492f10 f   renderer:tr_surface.obj
 0001:00092dd0       _RB_AddQuadStamp           00493dd0 f   renderer:tr_surface.obj
 0001:00092e10       _RB_AddQuadStampExt        00493e10 f   renderer:tr_surface.obj
 0001:00093130       _RB_CheckOverflow          00494130 f   renderer:tr_surface.obj
 0001:000931b0       _RB_SurfaceAxis            004941b0 f   renderer:tr_surface.obj
 0001:00093310       _RB_SurfaceBeam            00494310 f   renderer:tr_surface.obj
 0001:00093500       _RB_SurfaceLightningBolt   00494500 f   renderer:tr_surface.obj
 0001:00093720       _RB_SurfaceRailCore        00494720 f   renderer:tr_surface.obj
 0001:000938f0       _RB_SurfaceRailRings       004948f0 f   renderer:tr_surface.obj
 0001:00093c50       _RB_ProjectionShadowDeform 00494c50 f   renderer:tr_shadows.obj
 0001:00093de0       _RB_ShadowFinish           00494de0 f   renderer:tr_shadows.obj
 0001:00093f40       _RB_ShadowTessEnd          00494f40 f   renderer:tr_shadows.obj
 0001:000942d0       _R_RenderShadowEdges       004952d0 f   renderer:tr_shadows.obj
 0001:000943f0       _GLimp_SetGamma            004953f0 f   renderer:win_gamma.obj
 0001:000945c0       _WG_CheckHardwareGamma     004955c0 f   renderer:win_gamma.obj
 0001:000946f0       _WG_RestoreGamma           004956f0 f   renderer:win_gamma.obj
 0001:00094880       _jpeg_std_error            00495880 f   renderer:jerror.obj
 0001:00094960       _jpeg_create_compress      00495960 f   renderer:jcapimin.obj
 0001:00094a10       _jpeg_destroy_compress     00495a10 f   renderer:jcapimin.obj
 0001:00094a10       _jpeg_destroy_decompress   00495a10 f   renderer:jdapimin.obj
 0001:00094a20       _jpeg_finish_compress      00495a20 f   renderer:jcapimin.obj
 0001:00094b40       _jpeg_suppress_tables      00495b40 f   renderer:jcapimin.obj
 0001:00094dc0       _jpeg_consume_input        00495dc0 f   renderer:jdapimin.obj
 0001:00094e90       _jpeg_create_decompress    00495e90 f   renderer:jdapimin.obj
 0001:00094f60       _jpeg_finish_decompress    00495f60 f   renderer:jdapimin.obj
 0001:00095030       _jpeg_read_header          00496030 f   renderer:jdapimin.obj
 0001:00095100       _jpeg_stdio_src            00496100 f   renderer:jdatasrc.obj
 0001:000951f0       _PrintUsedMemorySize       004961f0 f   botlib:l_memory.obj
 0001:000951f0       _Sys_EndStreamedFile       004961f0 f   win_main.obj
 0001:000951f0       _Sys_BeginStreamedFile     004961f0 f   win_main.obj
 0001:000951f0       _jpeg_mem_term             004961f0 f   renderer:jmemnobs.obj
 0001:000951f0       _RB_SurfaceSkip            004961f0 f   renderer:tr_surface.obj
 0001:000951f0       _NET_Sleep                 004961f0 f   win_net.obj
 0001:000951f0       _RB_SurfaceFlare           004961f0 f   renderer:tr_surface.obj
 0001:000951f0       _EA_EndRegular             004961f0 f   botlib:be_ea.obj
 0001:000951f0       _PrintMemoryLabels         004961f0 f   botlib:l_memory.obj
 0001:000951f0       _SV_RemoveOperatorCommands 004961f0 f   sv_ccmds.obj
 0001:000951f0       _Sys_BeginProfiling        004961f0 f   win_main.obj
 0001:000951f0       _AAS_UnlinkFromBSPLeaves   004961f0 f   botlib:be_aas_bspq3.obj
 0001:00095200       _jpeg_add_quant_table      00496200 f   renderer:jcparam.obj
 0001:000952c0       _jpeg_default_colorspace   004962c0 f   renderer:jcparam.obj
 0001:00095350       _jpeg_set_colorspace       00496350 f   renderer:jcparam.obj
 0001:00095700       _jpeg_set_defaults         00496700 f   renderer:jcparam.obj
 0001:00095810       _jpeg_set_quality          00496810 f   renderer:jcparam.obj
 0001:000959b0       _jpeg_read_scanlines       004969b0 f   renderer:jdapistd.obj
 0001:00095a50       _jpeg_start_decompress     00496a50 f   renderer:jdapistd.obj
 0001:00095b70       _jinit_compress_master     00496b70 f   renderer:jcinit.obj
 0001:00096860       _R_CreateSurfaceGridMesh   00497860 f   renderer:tr_curve.obj
 0001:00096a50       _R_FreeSurfaceGridMesh     00497a50 f   renderer:tr_curve.obj
 0001:00096a80       _R_GridInsertColumn        00497a80 f   renderer:tr_curve.obj
 0001:00096eb0       _R_GridInsertRow           00497eb0 f   renderer:tr_curve.obj
 0001:00097280       _R_SubdividePatchToGrid    00498280 f   renderer:tr_curve.obj
 0001:00098ed0       _RB_ClipSkyPolygons        00499ed0 f   renderer:tr_sky.obj
 0001:00099010       _RB_StageIteratorSky       0049a010 f   renderer:tr_sky.obj
 0001:00099120       _R_BuildCloudData          0049a120 f   renderer:tr_sky.obj
 0001:00099520       _R_InitSkyTexCoords        0049a520 f   renderer:tr_sky.obj
 0001:0009a400       _DeformText                0049b400 f   renderer:tr_shade_calc.obj
 0001:0009a710       _RB_CalcAlphaFromEntity    0049b710 f   renderer:tr_shade_calc.obj
 0001:0009a750       _RB_CalcAlphaFromOneMinusEntity 0049b750 f   renderer:tr_shade_calc.obj
 0001:0009a790       _RB_CalcBulgeVertexes      0049b790 f   renderer:tr_shade_calc.obj
 0001:0009a860       _RB_CalcColorFromEntity    0049b860 f   renderer:tr_shade_calc.obj
 0001:0009a890       _RB_CalcColorFromOneMinusEntity 0049b890 f   renderer:tr_shade_calc.obj
 0001:0009a8f0       _RB_CalcDeformNormals      0049b8f0 f   renderer:tr_shade_calc.obj
 0001:0009ab00       _RB_CalcDeformVertexes     0049bb00 f   renderer:tr_shade_calc.obj
 0001:0009acc0       _RB_CalcDiffuseColor       0049bcc0 f   renderer:tr_shade_calc.obj
 0001:0009ae20       _RB_CalcEnvironmentTexCoords 0049be20 f   renderer:tr_shade_calc.obj
 0001:0009af60       _RB_CalcFogTexCoords       0049bf60 f   renderer:tr_shade_calc.obj
 0001:0009b270       _RB_CalcModulateAlphasByFog 0049c270 f   renderer:tr_shade_calc.obj
 0001:0009b320       _RB_CalcModulateColorsByFog 0049c320 f   renderer:tr_shade_calc.obj
 0001:0009b400       _RB_CalcModulateRGBAsByFog 0049c400 f   renderer:tr_shade_calc.obj
 0001:0009b500       _RB_CalcMoveVertexes       0049c500 f   renderer:tr_shade_calc.obj
 0001:0009b5c0       _RB_CalcRotateTexCoords    0049c5c0 f   renderer:tr_shade_calc.obj
 0001:0009b6b0       _RB_CalcScaleTexCoords     0049c6b0 f   renderer:tr_shade_calc.obj
 0001:0009b6f0       _RB_CalcScrollTexCoords    0049c6f0 f   renderer:tr_shade_calc.obj
 0001:0009b7c0       _RB_CalcSpecularAlpha      0049c7c0 f   renderer:tr_shade_calc.obj
 0001:0009b9d0       _RB_CalcStretchTexCoords   0049c9d0 f   renderer:tr_shade_calc.obj
 0001:0009baa0       _RB_CalcTransformTexCoords 0049caa0 f   renderer:tr_shade_calc.obj
 0001:0009bb10       _RB_CalcTurbulentTexCoords 0049cb10 f   renderer:tr_shade_calc.obj
 0001:0009bc00       _RB_CalcWaveAlpha          0049cc00 f   renderer:tr_shade_calc.obj
 0001:0009bca0       _RB_CalcWaveColor          0049cca0 f   renderer:tr_shade_calc.obj
 0001:0009bdc0       _RB_DeformTessGeometry     0049cdc0 f   renderer:tr_shade_calc.obj
 0001:0009bf10       _myftol                    0049cf10 f   renderer:tr_shade_calc.obj
 0001:0009c050       _R_AddMD3Surfaces          0049d050 f   renderer:tr_mesh.obj
 0001:0009c320       _R_ComputeFogNum           0049d320 f   renderer:tr_mesh.obj
 0001:0009c420       _R_ComputeLOD              0049d420 f   renderer:tr_mesh.obj
 0001:0009c6e0       _RB_SurfaceAnim            0049d6e0 f   renderer:tr_animation.obj
 0001:0009ccc0       _R_AddAnimSurfaces         0049dcc0 f   renderer:tr_animation.obj
 0001:0009cd10       _jpeg_abort                0049dd10 f   renderer:jcomapi.obj
 0001:0009cd40       _jpeg_alloc_huff_table     0049dd40 f   renderer:jcomapi.obj
 0001:0009cd70       _jpeg_alloc_quant_table    0049dd70 f   renderer:jcomapi.obj
 0001:0009cda0       _jpeg_destroy              0049dda0 f   renderer:jcomapi.obj
 0001:0009d970       _jinit_marker_writer       0049e970 f   renderer:jcmarker.obj
 0001:0009e680       _jinit_memory_mgr          0049f680 f   renderer:jmemmgr.obj
 0001:0009ee70       _jinit_input_controller    0049fe70 f   renderer:jdinput.obj
 0001:000a0520       _jinit_marker_reader       004a1520 f   renderer:jdmarker.obj
 0001:000a05e0       _jpeg_resync_to_restart    004a15e0 f   renderer:jdmarker.obj
 0001:000a0cc0       _jinit_master_decompress   004a1cc0 f   renderer:jdmaster.obj
 0001:000a0d00       _jpeg_calc_output_dimensions 004a1d00 f   renderer:jdmaster.obj
 0001:000a1380       _jinit_c_master_control    004a2380 f   renderer:jcmaster.obj
 0001:000a1d40       _jinit_c_main_controller   004a2d40 f   renderer:jcmainct.obj
 0001:000a2000       _jinit_c_prep_controller   004a3000 f   renderer:jcprepct.obj
 0001:000a2bc0       _jinit_c_coef_controller   004a3bc0 f   renderer:jccoefct.obj
 0001:000a2fb0       _jinit_color_converter     004a3fb0 f   renderer:jccolor.obj
 0001:000a3d40       _jinit_downsampler         004a4d40 f   renderer:jcsample.obj
 0001:000a4640       _jinit_forward_dct         004a5640 f   renderer:jcdctmgr.obj
 0001:000a5300       _jinit_huff_encoder        004a6300 f   renderer:jchuff.obj
 0001:000a53a0       _jpeg_gen_optimal_table    004a63a0 f   renderer:jchuff.obj
 0001:000a55e0       _jpeg_make_c_derived_tbl   004a65e0 f   renderer:jchuff.obj
 0001:000a64c0       _jinit_phuff_encoder       004a74c0 f   renderer:jcphuff.obj
 0001:000a66f0       _jcopy_sample_rows         004a76f0 f   renderer:jutils.obj
 0001:000a6740       _jdiv_round_up             004a7740 f   renderer:jutils.obj
 0001:000a6750       _jround_up                 004a7750 f   renderer:jutils.obj
 0001:000a6770       _jzero_far                 004a7770 f   renderer:jutils.obj
 0001:000a6790       _jpeg_free_small           004a7790 f   renderer:jmemnobs.obj
 0001:000a6790       _jpeg_free_large           004a7790 f   renderer:jmemnobs.obj
 0001:000a67b0       _jpeg_get_small            004a77b0 f   renderer:jmemnobs.obj
 0001:000a67b0       _jpeg_get_large            004a77b0 f   renderer:jmemnobs.obj
 0001:000a67d0       _jpeg_mem_available        004a77d0 f   renderer:jmemnobs.obj
 0001:000a67e0       _jpeg_open_backing_store   004a77e0 f   renderer:jmemnobs.obj
 0001:000a68c0       _jinit_d_main_controller   004a78c0 f   renderer:jdmainct.obj
 0001:000a70c0       _jinit_d_coef_controller   004a80c0 f   renderer:jdcoefct.obj
 0001:000a7240       _jinit_d_post_controller   004a8240 f   renderer:jdpostct.obj
 0001:000a7800       _jinit_huff_decoder        004a8800 f   renderer:jdhuff.obj
 0001:000a7870       _jpeg_fill_bit_buffer      004a8870 f   renderer:jdhuff.obj
 0001:000a7980       _jpeg_huff_decode          004a8980 f   renderer:jdhuff.obj
 0001:000a7a70       _jpeg_make_d_derived_tbl   004a8a70 f   renderer:jdhuff.obj
 0001:000a7e90       _jinit_inverse_dct         004a8e90 f   renderer:jddctmgr.obj
 0001:000a85c0       _jinit_upsampler           004a95c0 f   renderer:jdsample.obj
 0001:000a89c0       _jinit_color_deconverter   004a99c0 f   renderer:jdcolor.obj
 0001:000a8e70       _jpeg_fdct_float           004a9e70 f   renderer:jfdctflt.obj
 0001:000aa220       _jpeg_idct_float           004ab220 f   renderer:jidctflt.obj
 0001:000aa6f0       _strncpy                   004ab6f0 f   LIBCMT:strncpy.obj
 0001:000aa814       _atoi                      004ab814 f   LIBCMT:atox.obj
 0001:000aa81d       _atol                      004ab81d f   LIBCMT:atox.obj
 0001:000aa831       @__security_check_cookie@4 004ab831 f   LIBCMT:secchk.obj
 0001:000aa840       _atan2                     004ab840 f   LIBCMT:87ctriga.obj
 0001:000aa84a       __CIatan2                  004ab84a f   LIBCMT:87ctriga.obj
 0001:000aa860       __chkstk                   004ab860 f   LIBCMT:chkstk.obj
 0001:000aa860       __alloca_probe             004ab860 f   LIBCMT:chkstk.obj
 0001:000aa890       __libm_sse2_cos_precise    004ab890 f   LIBCMT:cos_sse2_precise.obj
 0001:000aaa50       __libm_sse2_sin_precise    004aba50 f   LIBCMT:sin_sse2_precise.obj
 0001:000aac20       __libm_sse2_sqrt_precise   004abc20 f   LIBCMT:sqrt_sse2_precise.obj
 0001:000aad20       _ceil                      004abd20 f   LIBCMT:ceil_pentium4.obj
 0001:000aad60       __ceil_pentium4            004abd60 f   LIBCMT:ceil_pentium4.obj
 0001:000aae40       _floor                     004abe40 f   LIBCMT:floor_pentium4.obj
 0001:000aae80       __floor_pentium4           004abe80 f   LIBCMT:floor_pentium4.obj
 0001:000aaf70       _memcpy                    004abf70 f   LIBCMT:memcpy.obj
 0001:000ab5b4       __fpmath                   004ac5b4 f   LIBCMT:fpinit.obj
 0001:000ab5cb       __cfltcvt_init             004ac5cb f   LIBCMT:fpinit.obj
 0001:000ab630       _strstr                    004ac630 f   LIBCMT:strstr.obj
 0001:000ab8a0       __ftoui3                   004ac8a0 f   LIBCMT:ftol3.obj
 0001:000ab8af       __ftoul3                   004ac8af f   LIBCMT:ftol3.obj
 0001:000ab8be       __ftol3                    004ac8be f   LIBCMT:ftol3.obj
 0001:000ab8cb       __ftol3_NaN                004ac8cb f   LIBCMT:ftol3.obj
 0001:000ab8e3       __ftol3_work               004ac8e3 f   LIBCMT:ftol3.obj
 0001:000ab969       __ftol3_common             004ac969 f   LIBCMT:ftol3.obj
 0001:000aba2b       __ftol3_arg_error          004aca2b f   LIBCMT:ftol3.obj
 0001:000aba3d       __ftol3_except             004aca3d f   LIBCMT:ftol3.obj
 0001:000aba81       __dtoui3                   004aca81 f   LIBCMT:ftol3.obj
 0001:000aba90       __dtoul3                   004aca90 f   LIBCMT:ftol3.obj
 0001:000aba9f       __dtol3                    004aca9f f   LIBCMT:ftol3.obj
 0001:000abaac       __dtol3_NaN                004acaac f   LIBCMT:ftol3.obj
 0001:000abac9       __dtol3_work               004acac9 f   LIBCMT:ftol3.obj
 0001:000abbae       __ultod3                   004acbae f   LIBCMT:ftol3.obj
 0001:000abc3f       __ltod3                    004acc3f f   LIBCMT:ftol3.obj
 0001:000abc6d       ___raise_securityfailure   004acc6d f   LIBCMT:gs_report.obj
 0001:000abcaa       ___report_gsfailure        004accaa f   LIBCMT:gs_report.obj
 0001:000abda5       ___report_rangecheckfailure 004acda5 f   LIBCMT:gs_report.obj
 0001:000abdb1       ___report_securityfailure  004acdb1 f   LIBCMT:gs_report.obj
 0001:000abe90       _memmove                   004ace90 f   LIBCMT:memmove.obj
 0001:000ac4d4       __time64                   004ad4d4 f   LIBCMT:time64.obj
 0001:000ac525       ??0_LocaleUpdate@@QAE@PAUlocaleinfo_struct@@@Z 004ad525 f i LIBCMT:tolower.obj
 0001:000ac5ad       __tolower_l                004ad5ad f   LIBCMT:tolower.obj
 0001:000ac6f0       _tolower                   004ad6f0 f   LIBCMT:tolower.obj
 0001:000ac71c       __get_printf_count_output  004ad71c f   LIBCMT:printf.obj
 0001:000ac731       _printf                    004ad731 f   LIBCMT:printf.obj
 0001:000ac7e0       _sscanf                    004ad7e0 f   LIBCMT:sscanf.obj
 0001:000ac871       __vsnprintf                004ad871 f   LIBCMT:vsnprint.obj
 0001:000ac88c       __vsnprintf_l              004ad88c f   LIBCMT:vsnprint.obj
 0001:000ac938       _sprintf                   004ad938 f   LIBCMT:sprintf.obj
 0001:000ac9c0       _strchr                    004ad9c0 f   LIBCMT:strchr.obj
 0001:000aca2e       ___from_strstr_to_strchr   004ada2e     LIBCMT:strchr.obj
 0001:000acaf0       _strncat                   004adaf0 f   LIBCMT:strncat.obj
 0001:000acc25       __getenv_helper_nolock     004adc25 f   LIBCMT:getenv.obj
 0001:000acca9       _getenv                    004adca9 f   LIBCMT:getenv.obj
 0001:000acd29       _rand                      004add29 f   LIBCMT:rand.obj
 0001:000acd4a       _srand                     004add4a f   LIBCMT:rand.obj
 0001:000acd60       __ftol2_sse                004add60 f   LIBCMT:ftol2.obj
 0001:000acd69       __ftol2_pentium4           004add69 f   LIBCMT:ftol2.obj
 0001:000acd7c       __ftol2_sse_excpt          004add7c f   LIBCMT:ftol2.obj
 0001:000acd96       __ftol2                    004add96 f   LIBCMT:ftol2.obj
 0001:000ace10       _strncmp                   004ade10 f   LIBCMT:strncmp.obj
 0001:000ace88       _malloc                    004ade88 f   LIBCMT:malloc.obj
 0001:000acf1a       __atof_l                   004adf1a f   LIBCMT:atof.obj
 0001:000acfb8       _atof                      004adfb8 f   LIBCMT:atof.obj
 0001:000acfc9       __vsprintf_l               004adfc9 f   LIBCMT:vsprintf.obj
 0001:000ad04d       _vsprintf                  004ae04d f   LIBCMT:vsprintf.obj
 0001:000ad065       __toupper_l                004ae065 f   LIBCMT:toupper.obj
 0001:000ad1a9       _toupper                   004ae1a9 f   LIBCMT:toupper.obj
 0001:000ad1d5       _calloc                    004ae1d5 f   LIBCMT:calloc.obj
 0001:000ad215       _asctime                   004ae215 f   LIBCMT:asctime.obj
 0001:000ad422       __localtime64              004ae422 f   LIBCMT:loctim64.obj
 0001:000ad447       __localtime64_s            004ae447 f   LIBCMT:loctim64.obj
 0001:000ad6d0       _longjmp                   004ae6d0 f   LIBCMT:longjmp.obj
 0001:000ad790       __libm_sse2_acos_precise   004ae790 f   LIBCMT:acos_sse2_precise.obj
 0001:000adcb0       __setjmp3                  004aecb0 f   LIBCMT:setjmp3.obj
 0001:000add30       _memset                    004aed30 f   LIBCMT:memset.obj
 0001:000addc0       __fclose_nolock            004aedc0 f   LIBCMT:fclose.obj
 0001:000ade2c       _fclose                    004aee2c f   LIBCMT:fclose.obj
 0001:000adea3       __fflush_nolock            004aeea3 f   LIBCMT:fflush.obj
 0001:000adee9       __flush                    004aeee9 f   LIBCMT:fflush.obj
 0001:000adf4d       __flushall                 004aef4d f   LIBCMT:fflush.obj
 0001:000adf56       _fflush                    004aef56 f   LIBCMT:fflush.obj
 0001:000ae093       __fsopen                   004af093 f   LIBCMT:fopen.obj
 0001:000ae157       _fopen                     004af157 f   LIBCMT:fopen.obj
 0001:000ae16c       __fread_nolock_s           004af16c f   LIBCMT:fread.obj
 0001:000ae331       _fread                     004af331 f   LIBCMT:fread.obj
 0001:000ae34c       _fread_s                   004af34c f   LIBCMT:fread.obj
 0001:000ae3dd       __fseek_nolock             004af3dd f   LIBCMT:fseek.obj
 0001:000ae46c       _fseek                     004af46c f   LIBCMT:fseek.obj
 0001:000ae4ef       __ftell_nolock             004af4ef f   LIBCMT:ftell.obj
 0001:000ae87f       _ftell                     004af87f f   LIBCMT:ftell.obj
 0001:000ae8eb       __fwrite_nolock            004af8eb f   LIBCMT:fwrite.obj
 0001:000aea44       _fwrite                    004afa44 f   LIBCMT:fwrite.obj
 0001:000aeac6       _remove                    004afac6 f   LIBCMT:unlink.obj
 0001:000aeb08       _rename                    004afb08 f   LIBCMT:rename.obj
 0001:000aebcb       _setvbuf                   004afbcb f   LIBCMT:setvbuf.obj
 0001:000aece0       _qsort                     004afce0 f   LIBCMT:qsort.obj
 0001:000af0e7       _free                      004b00e7 f   LIBCMT:free.obj
 0001:000af11f       _fprintf                   004b011f f   LIBCMT:fprintf.obj
 0001:000af240       __ftol                     004b0240 f   LIBCMT:ftol.obj
 0001:000af267       _strtok                    004b0267 f   LIBCMT:strtok.obj
 0001:000af32e       ___copy_path_to_wide_string 004b032e f   LIBCMT:crt0dat.obj
 0001:000af3e0       ___copy_to_char            004b03e0 f   LIBCMT:crt0dat.obj
 0001:000af495       ___crtCorExitProcess       004b0495 f   LIBCMT:crt0dat.obj
 0001:000af4c9       ___crtExitProcess          004b04c9 f   LIBCMT:crt0dat.obj
 0001:000af4df       __amsg_exit                004b04df f   LIBCMT:crt0dat.obj
 0001:000af4fb       __c_exit                   004b04fb f   LIBCMT:crt0dat.obj
 0001:000af50a       __cexit                    004b050a f   LIBCMT:crt0dat.obj
 0001:000af519       __cinit                    004b0519 f   LIBCMT:crt0dat.obj
 0001:000af59d       __exit                     004b059d f   LIBCMT:crt0dat.obj
 0001:000af5b1       __init_pointers            004b05b1 f   LIBCMT:crt0dat.obj
 0001:000af61f       __initterm_e               004b061f f   LIBCMT:crt0dat.obj
 0001:000af641       __lockexit                 004b0641 f   LIBCMT:crt0dat.obj
 0001:000af64a       __unlockexit               004b064a f   LIBCMT:crt0dat.obj
 0001:000af782       _exit                      004b0782 f   LIBCMT:crt0dat.obj
 0001:000af796       __getcwd                   004b0796 f   LIBCMT:getcwd.obj
 0001:000af7ab       __getdcwd                  004b07ab f   LIBCMT:getcwd.obj
 0001:000af8c7       __validdrive               004b08c7 f   LIBCMT:getcwd.obj
 0001:000af943       __mkdir                    004b0943 f   LIBCMT:mkdir.obj
 0001:000af985       __commit                   004b0985 f   LIBCMT:commit.obj
 0001:000afa6e       __findclose                004b0a6e f   LIBCMT:findfile.obj
 0001:000afa92       ___time64_t_from_ft        004b0a92 f   LIBCMT:findfi32.obj
 0001:000afb10       __copyfinddata64i32        004b0b10 f   LIBCMT:findfi32.obj
 0001:000afb9b       __findfirst64i32           004b0b9b f   LIBCMT:findfi32.obj
 0001:000afc26       __findnext64i32            004b0c26 f   LIBCMT:findfi32.obj
 0001:000afc80       _WinMainCRTStartup         004b0c80 f   LIBCMT:wincrt0.obj
 0001:000afe01       ___inittime                004b0e01 f   LIBCMT:clock.obj
 0001:000afe2c       _clock                     004b0e2c f   LIBCMT:clock.obj
 0001:000afe64       _vfprintf                  004b0e64 f   LIBCMT:vfprintf.obj
 0001:000afe81       _vfprintf_helper           004b0e81 f   LIBCMT:vfprintf.obj
 0001:000aff92       __ctime64                  004b0f92 f   LIBCMT:ctime64.obj
 0001:000b0000       __libm_sse2_tan_precise    004b1000 f   LIBCMT:tan_sse2_precise.obj
 0001:000b0270       ___isa_available_init      004b1270 f   LIBCMT:cpu_disp.obj
 0001:000b03f0       _strrchr                   004b13f0 f   LIBCMT:strrchr.obj
 0001:000b0530       ___vdecl_pow2              004b1530 f   LIBCMT:svml_dpow2_dispatch.obj
 0001:000b0540       __libm_sse2_pow_precise    004b1540 f   LIBCMT:pow_sse2_precise.obj
 0001:000b10b0       _putenv                    004b20b0 f   LIBCMT:putenv.obj
 0001:000b10b0       __putenv                   004b20b0 f   LIBCMT:putenv.obj
 0001:000b1533       _strtol                    004b2533 f   LIBCMT:strtol.obj
 0001:000b157c       __fFATN2                   004b257c     LIBCMT:87triga.obj
 0001:000b15cc       __rtpiby2                  004b25cc     LIBCMT:87triga.obj
 0001:000b1610       __cintrindisp2             004b2610 f   LIBCMT:87cdisp.obj
 0001:000b164e       __cintrindisp1             004b264e f   LIBCMT:87cdisp.obj
 0001:000b168b       __ctrandisp2               004b268b f   LIBCMT:87cdisp.obj
 0001:000b181a       __ctrandisp1               004b281a f   LIBCMT:87cdisp.obj
 0001:000b184d       __fload                    004b284d f   LIBCMT:87cdisp.obj
 0001:000b1890       _cos                       004b2890 f   LIBCMT:cos.obj
 0001:000b18d0       __CIcos                    004b28d0 f   LIBCMT:cos.obj
 0001:000b190b       __CIcos_default            004b290b f   LIBCMT:cos.obj
 0001:000b191f       __cos_default              004b291f     LIBCMT:cos.obj
 0001:000b19c0       _sin                       004b29c0 f   LIBCMT:sin.obj
 0001:000b1a00       __CIsin                    004b2a00 f   LIBCMT:sin.obj
 0001:000b1a3b       __CIsin_default            004b2a3b f   LIBCMT:sin.obj
 0001:000b1a4f       __sin_default              004b2a4f     LIBCMT:sin.obj
 0001:000b1ae9       ___libm_error_support      004b2ae9 f   LIBCMT:libm_error.obj
 0001:000b1de0       __CIsqrt                   004b2de0 f   LIBCMT:sqrt.obj
 0001:000b1df4       _sqrt                      004b2df4     LIBCMT:sqrt.obj
 0001:000b1e9a       __sse2_mathfcns_init       004b2e9a f   LIBCMT:mathfcns.obj
 0001:000b1ea9       __ceil_default             004b2ea9 f   LIBCMT:ceil.obj
 0001:000b1f80       __floor_default            004b2f80 f   LIBCMT:floor.obj
 0001:000b2057       __cfltcvt                  004b3057 f   LIBCMT:cvt.obj
 0001:000b2078       __cfltcvt_l                004b3078 f   LIBCMT:cvt.obj
 0001:000b20fe       __cftoa_l                  004b30fe f   LIBCMT:cvt.obj
 0001:000b245a       __cftoe                    004b345a f   LIBCMT:cvt.obj
 0001:000b25c9       __cftoe_l                  004b35c9 f   LIBCMT:cvt.obj
 0001:000b2783       __cftof_l                  004b3783 f   LIBCMT:cvt.obj
 0001:000b2844       __cftog_l                  004b3844 f   LIBCMT:cvt.obj
 0001:000b2943       __cropzeros                004b3943 f   LIBCMT:cvt.obj
 0001:000b2954       __cropzeros_l              004b3954 f   LIBCMT:cvt.obj
 0001:000b29d4       __fassign                  004b39d4 f   LIBCMT:cvt.obj
 0001:000b29ec       __fassign_l                004b39ec f   LIBCMT:cvt.obj
 0001:000b2a2e       __forcdecpt                004b3a2e f   LIBCMT:cvt.obj
 0001:000b2a3f       __forcdecpt_l              004b3a3f f   LIBCMT:cvt.obj
 0001:000b2ab3       __positive                 004b3ab3 f   LIBCMT:cvt.obj
 0001:000b2af5       __setdefaultprecision      004b3af5 f   LIBCMT:fp8.obj
 0001:000b2b1c       __initp_misc_cfltcvt_tab   004b3b1c f   LIBCMT:cmiscdat.obj
 0001:000b2b3b       __errcode                  004b3b3b f   LIBCMT:fpexcept.obj
 0001:000b2b6d       __except1                  004b3b6d f   LIBCMT:fpexcept.obj
 0001:000b2c35       __handle_exc               004b3c35 f   LIBCMT:fpexcept.obj
 0001:000b2e13       __handle_qnan1             004b3e13 f   LIBCMT:fpexcept.obj
 0001:000b2e63       __raise_exc                004b3e63 f   LIBCMT:fpexcept.obj
 0001:000b2e84       __raise_exc_ex             004b3e84 f   LIBCMT:fpexcept.obj
 0001:000b3169       __set_errno_from_matherr   004b4169 f   LIBCMT:fpexcept.obj
 0001:000b3196       __umatherr                 004b4196 f   LIBCMT:fpexcept.obj
 0001:000b3236       __crt_debugger_hook        004b4236 f   LIBCMT:dbghook.obj
 0001:000b323e       ___crtFlsAlloc             004b423e f   LIBCMT:winapisupp.obj
 0001:000b325c       ___crtFlsFree              004b425c f   LIBCMT:winapisupp.obj
 0001:000b327b       ___crtFlsGetValue          004b427b f   LIBCMT:winapisupp.obj
 0001:000b329a       ___crtFlsSetValue          004b429a f   LIBCMT:winapisupp.obj
 0001:000b32bc       ___crtGetShowWindowMode    004b42bc f   LIBCMT:winapisupp.obj
 0001:000b32df       ___crtInitializeCriticalSectionEx 004b42df f   LIBCMT:winapisupp.obj
 0001:000b330d       ___crtIsPackagedApp        004b430d f   LIBCMT:winapisupp.obj
 0001:000b334d       ___crtLoadWinApiPointers   004b434d f   LIBCMT:winapisupp.obj
 0001:000b35d8       ___crtSetUnhandledExceptionFilter 004b45d8 f   LIBCMT:winapisupp.obj
 0001:000b35e6       ___crtSleep                004b45e6 f   LIBCMT:winapisupp.obj
 0001:000b35f4       ___crtTerminateProcess     004b45f4 f   LIBCMT:winapisupp.obj
 0001:000b3609       ___crtUnhandledException   004b4609 f   LIBCMT:winapisupp.obj
 0001:000b3620       __aulldiv                  004b4620 f   LIBCMT:ulldiv.obj
 0001:000b3688       ___doserrno                004b4688 f   LIBCMT:dosmap.obj
 0001:000b369b       __dosmaperr                004b469b f   LIBCMT:dosmap.obj
 0001:000b36bc       __errno                    004b46bc f   LIBCMT:dosmap.obj
 0001:000b36cf       __get_errno_from_oserr     004b46cf f   LIBCMT:dosmap.obj
 0001:000b3710       ___addlocaleref            004b4710 f   LIBCMT:localref.obj
 0001:000b37a5       ___freetlocinfo            004b47a5 f   LIBCMT:localref.obj
 0001:000b38ff       ___removelocaleref         004b48ff f   LIBCMT:localref.obj
 0001:000b399f       ___updatetlocinfo          004b499f f   LIBCMT:localref.obj
 0001:000b3a1f       __updatetlocinfoEx_nolock  004b4a1f f   LIBCMT:localref.obj
 0001:000b3a6a       ___initmbctable            004b4a6a f   LIBCMT:mbctype.obj
 0001:000b3d21       ___updatetmbcinfo          004b4d21 f   LIBCMT:mbctype.obj
 0001:000b3dc7       __setmbcp                  004b4dc7 f   LIBCMT:mbctype.obj
 0001:000b3f6f       __setmbcp_nolock           004b4f6f f   LIBCMT:mbctype.obj
 0001:000b415a       __isctype_l                004b515a f   LIBCMT:isctype.obj
 0001:000b420b       __isleadbyte_l             004b520b f i LIBCMT:_wctype.obj
 0001:000b4245       _isleadbyte                004b5245 f i LIBCMT:_wctype.obj
 0001:000b445a       ___crtLCMapStringA         004b545a f   LIBCMT:a_map.obj
 0001:000b44a0       __freea                    004b54a0 f i LIBCMT:a_map.obj
 0001:000b44be       __freefls@4                004b54be f   LIBCMT:tidtable.obj
 0001:000b45f3       __getptd                   004b55f3 f   LIBCMT:tidtable.obj
 0001:000b460b       __getptd_noexit            004b560b f   LIBCMT:tidtable.obj
 0001:000b467a       __initptd                  004b567a f   LIBCMT:tidtable.obj
 0001:000b472d       __mtinit                   004b572d f   LIBCMT:tidtable.obj
 0001:000b47a3       __mtterm                   004b57a3 f   LIBCMT:tidtable.obj
 0001:000b47c0       __locterm                  004b57c0 f   LIBCMT:wsetloca.obj
 0001:000b4812       __call_reportfault         004b5812 f   LIBCMT:invarg.obj
 0001:000b4937       __initp_misc_invarg        004b5937 f   LIBCMT:invarg.obj
 0001:000b4944       __invalid_parameter        004b5944 f   LIBCMT:invarg.obj
 0001:000b496f       __invalid_parameter_noinfo 004b596f f   LIBCMT:invarg.obj
 0001:000b497f       __invoke_watson            004b597f f   LIBCMT:invarg.obj
 0001:000b49aa       ___initstdio               004b59aa f   LIBCMT:_file.obj
 0001:000b4a1d       ___endstdio                004b5a1d f   LIBCMT:_file.obj
 0001:000b4a44       ___iob_func                004b5a44 f   LIBCMT:_file.obj
 0001:000b4a4a       __lock_file                004b5a4a f   LIBCMT:_file.obj
 0001:000b4a89       __lock_file2               004b5a89 f   LIBCMT:_file.obj
 0001:000b4ab9       __unlock_file              004b5ab9 f   LIBCMT:_file.obj
 0001:000b4af3       __unlock_file2             004b5af3 f   LIBCMT:_file.obj
 0001:000b4b20       __ftbuf                    004b5b20 f   LIBCMT:_sftbuf.obj
 0001:000b4b51       __stbuf                    004b5b51 f   LIBCMT:_sftbuf.obj
 0001:000b4bf7       __output_l                 004b5bf7 f   LIBCMT:output.obj
 0001:000b5870       __SEH_prolog4              004b6870 f   LIBCMT:sehprolg4.obj
 0001:000b58b5       __SEH_epilog4              004b68b5 f   LIBCMT:sehprolg4.obj
 0001:000b58d0       __except_handler4          004b68d0 f   LIBCMT:chandler4.obj
 0001:000b5a70       _strlen                    004b6a70 f   LIBCMT:strlen.obj
 0001:000b5b9d       __input_l                  004b6b9d f   LIBCMT:input.obj
 0001:000b6d1a       __flsbuf                   004b7d1a f   LIBCMT:_flsbuf.obj
 0001:000b6e69       _strcpy_s                  004b7e69 f   LIBCMT:strcpy_s.obj
 0001:000b6ebe       _strnlen                   004b7ebe f   LIBCMT:strlen_s.obj
 0001:000b6ed9       __lock                     004b7ed9 f   LIBCMT:mlock.obj
 0001:000b6f0d       __mtdeletelocks            004b7f0d f   LIBCMT:mlock.obj
 0001:000b6f61       __mtinitlocknum            004b7f61 f   LIBCMT:mlock.obj
 0001:000b700a       __mtinitlocks              004b800a f   LIBCMT:mlock.obj
 0001:000b7043       __unlock                   004b8043 f   LIBCMT:mlock.obj
 0001:000b7058       ___wtomb_environ           004b8058 f   LIBCMT:wtombenv.obj
 0001:000b70e7       __mbsnbicoll               004b80e7 f   LIBCMT:mbsnbico.obj
 0001:000b70ff       __mbsnbicoll_l             004b80ff f   LIBCMT:mbsnbico.obj
 0001:000b71b5       __callnewh                 004b81b5 f   LIBCMT:handler.obj
 0001:000b71db       __initp_heap_handler       004b81db f   LIBCMT:handler.obj
 0001:000b71e8       __FF_MSGBANNER             004b81e8 f   LIBCMT:crt0msg.obj
 0001:000b7221       __GET_RTERRMSG             004b8221 f   LIBCMT:crt0msg.obj
 0001:000b7245       __NMSG_WRITE               004b8245 f   LIBCMT:crt0msg.obj
 0001:000b7402       __heap_init                004b8402 f   LIBCMT:heapinit.obj
 0001:000b7417       __fltin2                   004b8417 f   LIBCMT:cfin.obj
 0001:000b74be       ___strgtold12_l            004b84be f   LIBCMT:strgtold.obj
 0001:000b7c66       __calloc_impl              004b8c66 f   LIBCMT:calloc_impl.obj
 0001:000b7ce0       __calloc_crt               004b8ce0 f   LIBCMT:crtheap.obj
 0001:000b7d28       __malloc_crt               004b8d28 f   LIBCMT:crtheap.obj
 0001:000b7d6f       __realloc_crt              004b8d6f f   LIBCMT:crtheap.obj
 0001:000b7db9       __recalloc_crt             004b8db9 f   LIBCMT:crtheap.obj
 0001:000b7e07       ___daylight                004b8e07 f   LIBCMT:timeset.obj
 0001:000b7e0d       ___dstbias                 004b8e0d f   LIBCMT:timeset.obj
 0001:000b7e13       ___timezone                004b8e13 f   LIBCMT:timeset.obj
 0001:000b7e19       ___tzname                  004b8e19 f   LIBCMT:timeset.obj
 0001:000b7e1f       __get_daylight             004b8e1f f   LIBCMT:timeset.obj
 0001:000b7e49       __get_dstbias              004b8e49 f   LIBCMT:timeset.obj
 0001:000b7e73       __get_timezone             004b8e73 f   LIBCMT:timeset.obj
 0001:000b7e9d       __gmtime64_s               004b8e9d f   LIBCMT:gmtime64.obj
 0001:000b80c8       ___tzset                   004b90c8 f   LIBCMT:tzset.obj
 0001:000b8118       __isindst                  004b9118 f   LIBCMT:tzset.obj
 0001:000b885c       ___getgmtimebuf            004b985c f   LIBCMT:gmtime.obj
 0001:000b88a0       __alldiv                   004b98a0 f   LIBCMT:lldiv.obj
 0001:000b8950       __allrem                   004b9950 f   LIBCMT:llrem.obj
 0001:000b8a10       __global_unwind2           004b9a10 f   LIBCMT:exsup.obj
 0001:000b8a75       __local_unwind2            004b9a75 f   LIBCMT:exsup.obj
 0001:000b8af9       __abnormal_termination     004b9af9 f   LIBCMT:exsup.obj
 0001:000b8b1c       __NLG_Notify1              004b9b1c f   LIBCMT:exsup.obj
 0001:000b8b25       __NLG_Notify               004b9b25 f   LIBCMT:exsup.obj
 0001:000b8b3c       __NLG_Dispatch2            004b9b3c     LIBCMT:exsup.obj
 0001:000b8b3c       __NLG_Dispatch             004b9b3c     LIBCMT:exsup.obj
 0001:000b8b44       __NLG_Call                 004b9b44 f   LIBCMT:exsup.obj
 0001:000b8b46       __NLG_Return2              004b9b46     LIBCMT:exsup.obj
 0001:000b8b47       __rt_probe_read4@4         004b9b47 f   LIBCMT:sehsupp.obj
 0001:000b8b90       _acos                      004b9b90 f   LIBCMT:acos.obj
 0001:000b8bd0       __CIacos                   004b9bd0 f   LIBCMT:acos.obj
 0001:000b8c0b       __CIacos_default           004b9c0b f   LIBCMT:acos.obj
 0001:000b8c1f       __acos_default             004b9c1f     LIBCMT:acos.obj
 0001:000b8cd6       __VEC_memset               004b9cd6 f   LIBCMT:p4_memset.obj
 0001:000b8d9e       __fileno                   004b9d9e f   LIBCMT:fileno.obj
 0001:000b8dc2       _close                     004b9dc2 f   LIBCMT:close.obj
 0001:000b8dc2       __close                    004b9dc2 f   LIBCMT:close.obj
 0001:000b8e9d       __close_nolock             004b9e9d f   LIBCMT:close.obj
 0001:000b8f37       __freebuf                  004b9f37 f   LIBCMT:_freebuf.obj
 0001:000b8f67       _write                     004b9f67 f   LIBCMT:write.obj
 0001:000b8f67       __write                    004b9f67 f   LIBCMT:write.obj
 0001:000b9056       __write_nolock             004ba056 f   LIBCMT:write.obj
 0001:000b98bb       __getstream                004ba8bb f   LIBCMT:stream.obj
 0001:000b99da       __openfile                 004ba9da f   LIBCMT:_open.obj
 0001:000b9c60       __local_unwind4            004bac60 f   LIBCMT:exsup4.obj
 0001:000b9d36       __seh_longjmp_unwind4@4    004bad36 f   LIBCMT:exsup4.obj
 0001:000b9d52       @_EH4_CallFilterFunc@8     004bad52 f   LIBCMT:exsup4.obj
 0001:000b9d69       @_EH4_TransferToHandler@8  004bad69 f   LIBCMT:exsup4.obj
 0001:000b9d82       @_EH4_GlobalUnwind2@8      004bad82 f   LIBCMT:exsup4.obj
 0001:000b9d9b       @_EH4_LocalUnwind@16       004bad9b f   LIBCMT:exsup4.obj
 0001:000b9db2       __filbuf                   004badb2 f   LIBCMT:_filbuf.obj
 0001:000b9ed3       _memcpy_s                  004baed3 f   LIBCMT:memcpy_s.obj
 0001:000b9f52       __read                     004baf52 f   LIBCMT:read.obj
 0001:000ba066       __read_nolock              004bb066 f   LIBCMT:read.obj
 0001:000ba7f7       __lseek                    004bb7f7 f   LIBCMT:lseek.obj
 0001:000ba8e6       __lseek_nolock             004bb8e6 f   LIBCMT:lseek.obj
 0001:000ba98d       __lseeki64                 004bb98d f   LIBCMT:lseeki64.obj
 0001:000baa89       __lseeki64_nolock          004bba89 f   LIBCMT:lseeki64.obj
 0001:000baafc       __ioinit                   004bbafc f   LIBCMT:ioinit.obj
 0001:000badb0       __wremove                  004bbdb0 f   LIBCMT:wunlink.obj
 0001:000badde       __wrename                  004bbdde f   LIBCMT:wrename.obj
 0001:000bae11       __RTC_Initialize           004bbe11 f   LIBCMT:initsect.obj
 0001:000bae31       __RTC_Terminate            004bbe31 f   LIBCMT:initsect.obj
 0001:000bae60       __FindPESection            004bbe60 f   LIBCMT:pesect.obj
 0001:000baeb0       __IsNonwritableInCurrentImage 004bbeb0 f   LIBCMT:pesect.obj
 0001:000baf70       __ValidateImageBase        004bbf70 f   LIBCMT:pesect.obj
 0001:000bafa1       ___onexitinit              004bbfa1 f   LIBCMT:onexit.obj
 0001:000bafd0       __onexit                   004bbfd0 f   LIBCMT:onexit.obj
 0001:000bb0cc       _atexit                    004bc0cc f   LIBCMT:onexit.obj
 0001:000bb0e1       ?terminate@@YAXXZ          004bc0e1 f   LIBCMT:hooks.obj
 0001:000bb115       __initp_eh_hooks           004bc115 f   LIBCMT:hooks.obj
 0001:000bb126       __initp_misc_purevirt      004bc126 f   LIBCMT:inithelp.obj
 0001:000bb133       ___get_sigabrt             004bc133 f   LIBCMT:winsig.obj
 0001:000bb140       __initp_misc_winsig        004bc140 f   LIBCMT:winsig.obj
 0001:000bb15c       _raise                     004bc15c f   LIBCMT:winsig.obj
 0001:000bb351       __initp_misc_rand_s        004bc351 f   LIBCMT:rand_s.obj
 0001:000bb35e       __getdrive                 004bc35e f   LIBCMT:drive.obj
 0001:000bb42d       __wmkdir                   004bc42d f   LIBCMT:wmkdir.obj
 0001:000bb45e       ___lock_fhandle            004bc45e f   LIBCMT:osfinfo.obj
 0001:000bb4ec       __alloc_osfhnd             004bc4ec f   LIBCMT:osfinfo.obj
 0001:000bb695       __free_osfhnd              004bc695 f   LIBCMT:osfinfo.obj
 0001:000bb71b       __get_osfhandle            004bc71b f   LIBCMT:osfinfo.obj
 0001:000bb782       __set_osfhnd               004bc782 f   LIBCMT:osfinfo.obj
 0001:000bb804       __unlock_fhandle           004bc804 f   LIBCMT:osfinfo.obj
 0001:000bb82a       __wfindfirst64i32          004bc82a f   LIBCMT:wfndfi32.obj
 0001:000bb951       __wfindnext64i32           004bc951 f   LIBCMT:wfndfi32.obj
 0001:000bba68       ___loctotime64_t           004bca68 f   LIBCMT:dtoxtm64.obj
 0001:000bbcce       ?__CxxUnhandledExceptionFilter@@YGJPAU_EXCEPTION_POINTERS@@@Z 004bccce f   LIBCMT:unhandld.obj
 0001:000bbd0f       ___CxxSetUnhandledExceptionFilter 004bcd0f f   LIBCMT:unhandld.obj
 0001:000bbd1d       __XcptFilter               004bcd1d f   LIBCMT:winxfltr.obj
 0001:000bbe78       __setargv                  004bce78 f   LIBCMT:stdargv.obj
 0001:000bc0a7       __setenvp                  004bd0a7 f   LIBCMT:stdenvp.obj
 0001:000bc188       ___set_app_type            004bd188 f   LIBCMT:errmode.obj
 0001:000bc195       __set_error_mode           004bd195 f   LIBCMT:errmode.obj
 0001:000bc1d5       ___security_init_cookie    004bd1d5 f   LIBCMT:gs_support.obj
 0001:000bc271       ___crtGetEnvironmentStringsA 004bd271 f   LIBCMT:a_env.obj
 0001:000bc2fe       __wincmdln                 004bd2fe f   LIBCMT:wincmdln.obj
 0001:000bc360       _tan                       004bd360 f   LIBCMT:tan.obj
 0001:000bc3a0       __CItan                    004bd3a0 f   LIBCMT:tan.obj
 0001:000bc3db       __CItan_default            004bd3db f   LIBCMT:tan.obj
 0001:000bc3ef       __tan_default              004bd3ef     LIBCMT:tan.obj
 0001:000bd130       ___sse2_pow2               004be130 f   LIBCMT:svml_dpow2_sse2.obj
 0001:000bd580       _pow                       004be580 f   LIBCMT:pow.obj
 0001:000bd5c0       __CIpow                    004be5c0 f   LIBCMT:pow.obj
 0001:000bd5fb       __CIpow_default            004be5fb f   LIBCMT:pow.obj
 0001:000bd614       __pow_default              004be614     LIBCMT:pow.obj
 0001:000bd80a       _wcslen                    004be80a f   LIBCMT:wcslen.obj
 0001:000bd823       ___crtsetenv               004be823 f   LIBCMT:setenv.obj
 0001:000bdb26       ___crtwsetenv              004beb26 f   LIBCMT:wsetenv.obj
 0001:000bde53       __mbschr                   004bee53 f   LIBCMT:mbschr.obj
 0001:000bde68       __mbschr_l                 004bee68 f   LIBCMT:mbschr.obj
 0001:000bdf05       ___crt_atoflt_l            004bef05 f   LIBCMT:atodbl.obj
 0001:000bdfa9       __atodbl_l                 004befa9 f   LIBCMT:atodbl.obj
 0001:000be037       __atoflt_l                 004bf037 f   LIBCMT:atodbl.obj
 0001:000be050       __allmul                   004bf050 f   LIBCMT:llmul.obj
 0001:000be090       __aulldvrm                 004bf090 f   LIBCMT:ulldvrm.obj
 0001:000be130       __trandisp1                004bf130 f   LIBCMT:87disp.obj
 0001:000be197       __trandisp2                004bf197 f   LIBCMT:87disp.obj
 0001:000be223       __rttospopde               004bf223     LIBCMT:87disp.obj
 0001:000be228       __rttospop                 004bf228     LIBCMT:87disp.obj
 0001:000be22a       __rtnospop                 004bf22a     LIBCMT:87disp.obj
 0001:000be22c       __rttosnpop                004bf22c     LIBCMT:87disp.obj
 0001:000be22d       __rtnospopde               004bf22d     LIBCMT:87disp.obj
 0001:000be234       __rtzeropop                004bf234     LIBCMT:87disp.obj
 0001:000be236       __rtzeronpop               004bf236     LIBCMT:87disp.obj
 0001:000be23b       __rtonepop                 004bf23b     LIBCMT:87disp.obj
 0001:000be23d       __rtonenpop                004bf23d     LIBCMT:87disp.obj
 0001:000be242       __tosnan1                  004bf242     LIBCMT:87disp.obj
 0001:000be26d       __nosnan2                  004bf26d     LIBCMT:87disp.obj
 0001:000be26f       __tosnan2                  004bf26f     LIBCMT:87disp.obj
 0001:000be297       __nan2                     004bf297     LIBCMT:87disp.obj
 0001:000be2d6       __rtindfpop                004bf2d6     LIBCMT:87disp.obj
 0001:000be2d8       __rtindfnpop               004bf2d8     LIBCMT:87disp.obj
 0001:000be2e9       __rttosnpopde              004bf2e9     LIBCMT:87disp.obj
 0001:000be2f3       __rtchsifneg               004bf2f3     LIBCMT:87disp.obj
 0001:000be2fa       __87except                 004bf2fa f   LIBCMT:87except.obj
 0001:000be410       __CIcos_pentium4           004bf410 f   LIBCMT:cos_pentium4.obj
 0001:000be428       __cos_pentium4             004bf428     LIBCMT:cos_pentium4.obj
 0001:000be5c0       __twoToTOS                 004bf5c0 f   LIBCMT:common.obj
 0001:000be5d5       __load_CW                  004bf5d5 f   LIBCMT:common.obj
 0001:000be5ec       __convertTOStoQNaN         004bf5ec f   LIBCMT:common.obj
 0001:000be605       __fload_withFB             004bf605 f   LIBCMT:common.obj
 0001:000be648       __checkTOS_withFB          004bf648 f   LIBCMT:common.obj
 0001:000be65e       __fast_exit                004bf65e f   LIBCMT:common.obj
 0001:000be66b       __math_exit                004bf66b f   LIBCMT:common.obj
 0001:000be695       __check_overflow_exit      004bf695 f   LIBCMT:common.obj
 0001:000be6a9       __check_range_exit         004bf6a9 f   LIBCMT:common.obj
 0001:000be750       __startTwoArgErrorHandling 004bf750 f   LIBCMT:genexcep.obj
 0001:000be767       __startOneArgErrorHandling 004bf767 f   LIBCMT:genexcep.obj
 0001:000be7b0       __CIsin_pentium4           004bf7b0 f   LIBCMT:sin_pentium4.obj
 0001:000be7c8       __sin_pentium4             004bf7c8     LIBCMT:sin_pentium4.obj
 0001:000be978       __frnd                     004bf978 f   LIBCMT:frnd.obj
 0001:000be98c       __decomp                   004bf98c f   LIBCMT:util.obj
 0001:000bea5e       __set_exp                  004bfa5e f   LIBCMT:util.obj
 0001:000bea8d       __sptype                   004bfa8d f   LIBCMT:util.obj
 0001:000beae8       ___set_fpsr_sse2           004bfae8 f   LIBCMT:fpctrl.obj
 0001:000beb5e       __clrfp                    004bfb5e f   LIBCMT:fpctrl.obj
 0001:000beb6f       __ctrlfp                   004bfb6f f   LIBCMT:fpctrl.obj
 0001:000beb9a       __set_statfp               004bfb9a f   LIBCMT:fpctrl.obj
 0001:000bebf2       __statfp                   004bfbf2 f   LIBCMT:fpctrl.obj
 0001:000bec02       __isdigit_l                004bfc02 f i LIBCMT:_ctype.obj
 0001:000bec54       __isspace_l                004bfc54 f i LIBCMT:_ctype.obj
 0001:000beca6       __isxdigit_l               004bfca6 f i LIBCMT:_ctype.obj
 0001:000becfe       _isdigit                   004bfcfe f i LIBCMT:_ctype.obj
 0001:000bed29       _isspace                   004bfd29 f i LIBCMT:_ctype.obj
 0001:000bed54       _isxdigit                  004bfd54 f i LIBCMT:_ctype.obj
 0001:000bed81       __fptostr                  004bfd81 f   LIBCMT:_fptostr.obj
 0001:000bee31       ___dtold                   004bfe31 f   LIBCMT:cfout.obj
 0001:000beef9       __fltout2                  004bfef9 f   LIBCMT:cfout.obj
 0001:000bef90       __alldvrm                  004bff90 f   LIBCMT:lldvrm.obj
 0001:000bf070       __aullshr                  004c0070 f   LIBCMT:ullshr.obj
 0001:000bf08f       __controlfp_s              004c008f f   LIBCMT:contrlfp.obj
 0001:000bf0ec       __fptrap                   004c00ec f   LIBCMT:crt0fp.obj
 0001:000bf0f5       ___free_lconv_mon          004c00f5 f   LIBCMT:initmon.obj
 0001:000bf1f1       ___free_lconv_num          004c01f1 f   LIBCMT:initnum.obj
 0001:000bf258       ___free_lc_time            004c0258 f   LIBCMT:inittime.obj
 0001:000bf6d0       ___crtGetStringTypeA       004c06d0 f   LIBCMT:a_str.obj
 0001:000bf710       _GetTableIndexFromLocaleName 004c0710 f   LIBCMT:winapinls.obj
 0001:000bf75e       ___crtCompareStringEx      004c075e f   LIBCMT:winapinls.obj
 0001:000bf7aa       ___crtDownlevelLocaleNameToLCID 004c07aa f   LIBCMT:winapinls.obj
 0001:000bf7d4       ___crtLCMapStringEx        004c07d4 f   LIBCMT:winapinls.obj
 0001:000bf820       ___wcsnicmp_ascii          004c0820 f   LIBCMT:winapinls.obj
 0001:000bf890       __alloca_probe_16          004c0890 f   LIBCMT:alloca16.obj
 0001:000bf8a6       __alloca_probe_8           004c08a6     LIBCMT:alloca16.obj
 0001:000bf8bc       ____lc_codepage_func       004c08bc f   LIBCMT:initctyp.obj
 0001:000bf8e2       _wcscat_s                  004c08e2 f   LIBCMT:wcscat_s.obj
 0001:000bf94e       _wcscpy_s                  004c094e f   LIBCMT:wcscpy_s.obj
 0001:000bf9aa       _wcsnlen                   004c09aa f   LIBCMT:wcslen_s.obj
 0001:000bf9c9       _wcsncpy_s                 004c09c9 f   LIBCMT:wcsncpy_s.obj
 0001:000bfa87       __fcloseall                004c0a87 f   LIBCMT:closeall.obj
 0001:000bfb24       __isatty                   004c0b24 f   LIBCMT:isatty.obj
 0001:000bfb78       __wctomb_s_l               004c0b78 f   LIBCMT:wctomb.obj
 0001:000bfc9c       _wctomb_s                  004c0c9c f   LIBCMT:wctomb.obj
 0001:000bfcb7       __ungetc_nolock            004c0cb7 f   LIBCMT:ungetc.obj
 0001:000bfd97       __mbtowc_l                 004c0d97 f   LIBCMT:mbtowc.obj
 0001:000bfe8c       _mbtowc                    004c0e8c f   LIBCMT:mbtowc.obj
 0001:000bfea4       __getbuf                   004c0ea4 f   LIBCMT:_getbuf.obj
 0001:000bfeea       __strnicoll_l              004c0eea f   LIBCMT:strnicol.obj
 0001:000c0253       ___crtCompareStringA       004c1253 f   LIBCMT:a_cmp.obj
 0001:000c0296       ___crtMessageBoxW          004c1296 f   LIBCMT:crtmboxw.obj
 0001:000c047c       __ld12tod                  004c147c f   LIBCMT:intrncvt.obj
 0001:000c09ee       __ld12tof                  004c19ee f   LIBCMT:intrncvt.obj
 0001:000c0f60       ___mtold12                 004c1f60 f   LIBCMT:mantold.obj
 0001:000c1140       _realloc                   004c2140 f   LIBCMT:realloc.obj
 0001:000c11eb       __recalloc                 004c21eb f   LIBCMT:recalloc.obj
 0001:000c1260       _strcmp                    004c2260 f   LIBCMT:strcmp.obj
 0001:000c12ec       _strncpy_s                 004c22ec f   LIBCMT:strncpy_s.obj
 0001:000c1390       __CIacos_pentium4          004c2390 f   LIBCMT:acos_pentium4.obj
 0001:000c13a8       __acos_pentium4            004c23a8     LIBCMT:acos_pentium4.obj
 0001:000c18e4       __putwch_nolock            004c28e4 f   LIBCMT:putwch.obj
 0001:000c1927       __sopen_helper             004c2927 f   LIBCMT:open.obj
 0001:000c19f0       __sopen_nolock             004c29f0 f   LIBCMT:open.obj
 0001:000c1a3e       __sopen_s                  004c2a3e f   LIBCMT:open.obj
 0001:000c1a5c       __mbsnbcmp                 004c2a5c f   LIBCMT:mbsnbcmp.obj
 0001:000c1a74       __mbsnbcmp_l               004c2a74 f   LIBCMT:mbsnbcmp.obj
 0001:000c1b8b       __mbsnbicmp                004c2b8b f   LIBCMT:mbsnbicm.obj
 0001:000c1ba3       __mbsnbicmp_l              004c2ba3 f   LIBCMT:mbsnbicm.obj
 0001:000c1d5e       __msize                    004c2d5e f   LIBCMT:msize.obj
 0001:000c1d8f       _abort                     004c2d8f f   LIBCMT:abort.obj
 0001:000c1e2c       __ismbblead                004c2e2c f   LIBCMT:ismbbyte.obj
 0001:000c1e50       __CItan_pentium4           004c2e50 f   LIBCMT:tan_pentium4.obj
 0001:000c1e68       __tan_pentium4             004c2e68     LIBCMT:tan_pentium4.obj
 0001:000c20b0       __CIpow_pentium4           004c30b0 f   LIBCMT:pow_pentium4.obj
 0001:000c20c9       __pow_pentium4             004c30c9     LIBCMT:pow_pentium4.obj
 0001:000c2c21       __fFEXP                    004c3c21     LIBCMT:87tran.obj
 0001:000c2c78       __rtinfpopse               004c3c78     LIBCMT:87tran.obj
 0001:000c2c7a       __rtinfnpopse              004c3c7a     LIBCMT:87tran.obj
 0001:000c2c8a       __fFLN                     004c3c8a     LIBCMT:87tran.obj
 0001:000c2d3f       __rtinfpop                 004c3d3f     LIBCMT:87tran.obj
 0001:000c2d41       __rtinfnpop                004c3d41     LIBCMT:87tran.obj
 0001:000c2d5e       __ffexpm1                  004c3d5e     LIBCMT:87tran.obj
 0001:000c2e07       __d_inttype                004c3e07 f   LIBCMT:powhlp.obj
 0001:000c2e6f       __powhlp                   004c3e6f f   LIBCMT:powhlp.obj
 0001:000c2fa5       __strdup                   004c3fa5 f   LIBCMT:strdup.obj
 0001:000c2ff5       __wcsdup                   004c3ff5 f   LIBCMT:wcsdup.obj
 0001:000c3048       _wcschr                    004c4048 f   LIBCMT:wcschr.obj
 0001:000c30f6       __wcsnicoll                004c40f6 f   LIBCMT:wcsnicol.obj
 0001:000c31c2       __wcsnicoll_l              004c41c2 f   LIBCMT:wcsnicol.obj
 0001:000c32e8       __wsetenvp                 004c42e8 f   LIBCMT:wstdenvp.obj
 0001:000c33ca       ___mbtow_environ           004c43ca f   LIBCMT:mbtowenv.obj
 0001:000c3447       ___crtGetEnvironmentStringsW 004c4447 f   LIBCMT:w_env.obj
 0001:000c34b0       _$I10_OUTPUT               004c44b0 f   LIBCMT:x10fout.obj
 0001:000c3f2d       __control87                004c4f2d f i LIBCMT:ieee87.obj
 0001:000c42c6       __strnicmp                 004c52c6 f   LIBCMT:strnicmp.obj
 0001:000c4331       __strnicmp_l               004c5331 f   LIBCMT:strnicmp.obj
 0001:000c43e2       ___termconout              004c53e2 f   LIBCMT:initcon.obj
 0001:000c43f9       ___initconout              004c53f9 f   LIBCMT:initcon.obj
 0001:000c44a0       __wsopen_nolock            004c54a0 f   LIBCMT:wopen.obj
 0001:000c4bf3       __fpclass                  004c5bf3 f   LIBCMT:ieeemisc.obj
 0001:000c4c8f       ___crtCompareStringW       004c5c8f f   LIBCMT:w_cmp.obj
 0001:000c4d00       ___ascii_strnicmp          004c5d00 f   LIBCMT:_strnicm.obj
 0001:000c4d61       __chsize_nolock            004c5d61 f   LIBCMT:chsize.obj
 0001:000c4f17       __get_fmode                004c5f17 f   LIBCMT:setmode.obj
 0001:000c4f41       __setmode_nolock           004c5f41 f   LIBCMT:setmode.obj
 0001:000c500e       _IsProcessorFeaturePresent@4 004c600e f   kernel32:KERNEL32.dll
 0001:000c5014       _RtlUnwind@16              004c6014 f   kernel32:KERNEL32.dll
 0002:00000000       __imp__GetUserNameA@8      004c7000     advapi32:ADVAPI32.dll
 0002:00000004       \177ADVAPI32_NULL_THUNK_DATA 004c7004     advapi32:ADVAPI32.dll
 0002:00000008       __imp__SetPixelFormat@12   004c7008     gdi32:GDI32.dll
 0002:0000000c       __imp__DescribePixelFormat@16 004c700c     gdi32:GDI32.dll
 0002:00000010       __imp__SwapBuffers@4       004c7010     gdi32:GDI32.dll
 0002:00000014       __imp__GetDeviceGammaRamp@8 004c7014     gdi32:GDI32.dll
 0002:00000018       __imp__SetTextColor@8      004c7018     gdi32:GDI32.dll
 0002:0000001c       __imp__SetBkColor@8        004c701c     gdi32:GDI32.dll
 0002:00000020       __imp__GetDeviceCaps@8     004c7020     gdi32:GDI32.dll
 0002:00000024       __imp__CreateSolidBrush@4  004c7024     gdi32:GDI32.dll
 0002:00000028       __imp__CreateFontA@56      004c7028     gdi32:GDI32.dll
 0002:0000002c       __imp__SetDeviceGammaRamp@8 004c702c     gdi32:GDI32.dll
 0002:00000030       \177GDI32_NULL_THUNK_DATA  004c7030     gdi32:GDI32.dll
 0002:00000034       __imp__LCMapStringW@24     004c7034     kernel32:KERNEL32.dll
 0002:00000038       __imp__CompareStringW@24   004c7038     kernel32:KERNEL32.dll
 0002:0000003c       __imp__GetStringTypeW@16   004c703c     kernel32:KERNEL32.dll
 0002:00000040       __imp__SetEnvironmentVariableW@8 004c7040     kernel32:KERNEL32.dll
 0002:00000044       __imp__SetEnvironmentVariableA@8 004c7044     kernel32:KERNEL32.dll
 0002:00000048       __imp__FreeEnvironmentStringsW@4 004c7048     kernel32:KERNEL32.dll
 0002:0000004c       __imp__GetEnvironmentStringsW@0 004c704c     kernel32:KERNEL32.dll
 0002:00000050       __imp__GetCurrentProcessId@0 004c7050     kernel32:KERNEL32.dll
 0002:00000054       __imp__QueryPerformanceCounter@4 004c7054     kernel32:KERNEL32.dll
 0002:00000058       __imp__GetModuleFileNameA@12 004c7058     kernel32:KERNEL32.dll
 0002:0000005c       __imp__FindNextFileW@8     004c705c     kernel32:KERNEL32.dll
 0002:00000060       __imp__FindFirstFileExW@24 004c7060     kernel32:KERNEL32.dll
 0002:00000064       __imp__SetStdHandle@8      004c7064     kernel32:KERNEL32.dll
 0002:00000068       __imp__CreateDirectoryW@8  004c7068     kernel32:KERNEL32.dll
 0002:0000006c       __imp__GetProcAddress@8    004c706c     kernel32:KERNEL32.dll
 0002:00000070       __imp__LoadLibraryA@4      004c7070     kernel32:KERNEL32.dll
 0002:00000074       __imp__SetErrorMode@4      004c7074     kernel32:KERNEL32.dll
 0002:00000078       __imp__Sleep@4             004c7078     kernel32:KERNEL32.dll
 0002:0000007c       __imp__GetVersionExA@4     004c707c     kernel32:KERNEL32.dll
 0002:00000080       __imp__FreeLibrary@4       004c7080     kernel32:KERNEL32.dll
 0002:00000084       __imp__GlobalSize@4        004c7084     kernel32:KERNEL32.dll
 0002:00000088       __imp__GlobalLock@4        004c7088     kernel32:KERNEL32.dll
 0002:0000008c       __imp__GlobalUnlock@4      004c708c     kernel32:KERNEL32.dll
 0002:00000090       __imp__GlobalMemoryStatus@4 004c7090     kernel32:KERNEL32.dll
 0002:00000094       __imp__MulDiv@12           004c7094     kernel32:KERNEL32.dll
 0002:00000098       __imp__GetCurrentDirectoryW@8 004c7098     kernel32:KERNEL32.dll
 0002:0000009c       __imp__LoadLibraryExW@12   004c709c     kernel32:KERNEL32.dll
 0002:000000a0       __imp__DeleteFileW@4       004c70a0     kernel32:KERNEL32.dll
 0002:000000a4       __imp__GetFileType@4       004c70a4     kernel32:KERNEL32.dll
 0002:000000a8       __imp__SetFilePointerEx@20 004c70a8     kernel32:KERNEL32.dll
 0002:000000ac       __imp__ReadConsoleW@20     004c70ac     kernel32:KERNEL32.dll
 0002:000000b0       __imp__GetConsoleMode@8    004c70b0     kernel32:KERNEL32.dll
 0002:000000b4       __imp__GetConsoleCP@0      004c70b4     kernel32:KERNEL32.dll
 0002:000000b8       __imp__CloseHandle@4       004c70b8     kernel32:KERNEL32.dll
 0002:000000bc       __imp__GetTimeZoneInformation@4 004c70bc     kernel32:KERNEL32.dll
 0002:000000c0       __imp__GetProcessHeap@0    004c70c0     kernel32:KERNEL32.dll
 0002:000000c4       __imp__GetModuleFileNameW@12 004c70c4     kernel32:KERNEL32.dll
 0002:000000c8       __imp__WriteFile@20        004c70c8     kernel32:KERNEL32.dll
 0002:000000cc       __imp__GetStdHandle@4      004c70cc     kernel32:KERNEL32.dll
 0002:000000d0       __imp__DeleteCriticalSection@4 004c70d0     kernel32:KERNEL32.dll
 0002:000000d4       __imp__LeaveCriticalSection@4 004c70d4     kernel32:KERNEL32.dll
 0002:000000d8       __imp__EnterCriticalSection@4 004c70d8     kernel32:KERNEL32.dll
 0002:000000dc       __imp__GetCurrentThreadId@0 004c70dc     kernel32:KERNEL32.dll
 0002:000000e0       __imp__GetCPInfo@8         004c70e0     kernel32:KERNEL32.dll
 0002:000000e4       __imp__GetOEMCP@0          004c70e4     kernel32:KERNEL32.dll
 0002:000000e8       __imp__GetACP@0            004c70e8     kernel32:KERNEL32.dll
 0002:000000ec       __imp__IsValidCodePage@4   004c70ec     kernel32:KERNEL32.dll
 0002:000000f0       __imp__GetModuleHandleW@4  004c70f0     kernel32:KERNEL32.dll
 0002:000000f4       __imp__GetStartupInfoW@4   004c70f4     kernel32:KERNEL32.dll
 0002:000000f8       __imp__TlsFree@4           004c70f8     kernel32:KERNEL32.dll
 0002:000000fc       __imp__TlsSetValue@8       004c70fc     kernel32:KERNEL32.dll
 0002:00000100       __imp__TlsGetValue@4       004c7100     kernel32:KERNEL32.dll
 0002:00000104       __imp__TlsAlloc@0          004c7104     kernel32:KERNEL32.dll
 0002:00000108       __imp__TerminateProcess@8  004c7108     kernel32:KERNEL32.dll
 0002:0000010c       __imp__GetCurrentProcess@0 004c710c     kernel32:KERNEL32.dll
 0002:00000110       __imp__InitializeCriticalSectionAndSpinCount@8 004c7110     kernel32:KERNEL32.dll
 0002:00000114       __imp__SetLastError@4      004c7114     kernel32:KERNEL32.dll
 0002:00000118       __imp__SetUnhandledExceptionFilter@4 004c7118     kernel32:KERNEL32.dll
 0002:0000011c       __imp__UnhandledExceptionFilter@4 004c711c     kernel32:KERNEL32.dll
 0002:00000120       __imp__RaiseException@16   004c7120     kernel32:KERNEL32.dll
 0002:00000124       __imp__GetCommandLineA@0   004c7124     kernel32:KERNEL32.dll
 0002:00000128       __imp__FileTimeToSystemTime@8 004c7128     kernel32:KERNEL32.dll
 0002:0000012c       __imp__OutputDebugStringW@4 004c712c     kernel32:KERNEL32.dll
 0002:00000130       __imp__HeapReAlloc@16      004c7130     kernel32:KERNEL32.dll
 0002:00000134       __imp__WriteConsoleW@20    004c7134     kernel32:KERNEL32.dll
 0002:00000138       __imp__HeapSize@12         004c7138     kernel32:KERNEL32.dll
 0002:0000013c       __imp__CreateFileW@28      004c713c     kernel32:KERNEL32.dll
 0002:00000140       __imp__SetEndOfFile@4      004c7140     kernel32:KERNEL32.dll
 0002:00000144       __imp__MoveFileExW@12      004c7144     kernel32:KERNEL32.dll
 0002:00000148       __imp__SystemTimeToTzSpecificLocalTime@12 004c7148     kernel32:KERNEL32.dll
 0002:0000014c       __imp__FindClose@4         004c714c     kernel32:KERNEL32.dll
 0002:00000150       __imp__FlushFileBuffers@4  004c7150     kernel32:KERNEL32.dll
 0002:00000154       __imp__GetFullPathNameA@16 004c7154     kernel32:KERNEL32.dll
 0002:00000158       __imp__SetEvent@4          004c7158     kernel32:KERNEL32.dll
 0002:0000015c       __imp__ResetEvent@4        004c715c     kernel32:KERNEL32.dll
 0002:00000160       __imp__WaitForSingleObject@8 004c7160     kernel32:KERNEL32.dll
 0002:00000164       __imp__CreateEventA@16     004c7164     kernel32:KERNEL32.dll
 0002:00000168       __imp__CreateThread@24     004c7168     kernel32:KERNEL32.dll
 0002:0000016c       __imp__GetSystemDirectoryA@8 004c716c     kernel32:KERNEL32.dll
 0002:00000170       __imp__IsDebuggerPresent@0 004c7170     kernel32:KERNEL32.dll
 0002:00000174       __imp__IsProcessorFeaturePresent@4 004c7174     kernel32:KERNEL32.dll
 0002:00000178       __imp__GetSystemTimeAsFileTime@4 004c7178     kernel32:KERNEL32.dll
 0002:0000017c       __imp__HeapAlloc@12        004c717c     kernel32:KERNEL32.dll
 0002:00000180       __imp__RtlUnwind@16        004c7180     kernel32:KERNEL32.dll
 0002:00000184       __imp__ReadFile@20         004c7184     kernel32:KERNEL32.dll
 0002:00000188       __imp__GetLastError@0      004c7188     kernel32:KERNEL32.dll
 0002:0000018c       __imp__AreFileApisANSI@0   004c718c     kernel32:KERNEL32.dll
 0002:00000190       __imp__MultiByteToWideChar@24 004c7190     kernel32:KERNEL32.dll
 0002:00000194       __imp__HeapFree@12         004c7194     kernel32:KERNEL32.dll
 0002:00000198       __imp__EncodePointer@4     004c7198     kernel32:KERNEL32.dll
 0002:0000019c       __imp__DecodePointer@4     004c719c     kernel32:KERNEL32.dll
 0002:000001a0       __imp__ExitProcess@4       004c71a0     kernel32:KERNEL32.dll
 0002:000001a4       __imp__GetModuleHandleExW@12 004c71a4     kernel32:KERNEL32.dll
 0002:000001a8       __imp__WideCharToMultiByte@32 004c71a8     kernel32:KERNEL32.dll
 0002:000001ac       __imp__GetDriveTypeW@4     004c71ac     kernel32:KERNEL32.dll
 0002:000001b0       \177KERNEL32_NULL_THUNK_DATA 004c71b0     kernel32:KERNEL32.dll
 0002:000001b4       __imp__ClipCursor@4        004c71b4     user32:USER32.dll
 0002:000001b8       __imp__ChangeDisplaySettingsA@8 004c71b8     user32:USER32.dll
 0002:000001bc       __imp__EnumDisplaySettingsA@12 004c71bc     user32:USER32.dll
 0002:000001c0       __imp__SetCapture@4        004c71c0     user32:USER32.dll
 0002:000001c4       __imp__SystemParametersInfoA@16 004c71c4     user32:USER32.dll
 0002:000001c8       __imp__GetWindowLongA@8    004c71c8     user32:USER32.dll
 0002:000001cc       __imp__UnregisterHotKey@8  004c71cc     user32:USER32.dll
 0002:000001d0       __imp__RegisterHotKey@16   004c71d0     user32:USER32.dll
 0002:000001d4       __imp__RegisterWindowMessageA@4 004c71d4     user32:USER32.dll
 0002:000001d8       __imp__LoadIconA@8         004c71d8     user32:USER32.dll
 0002:000001dc       __imp__LoadCursorA@8       004c71dc     user32:USER32.dll
 0002:000001e0       __imp__GetDesktopWindow@0  004c71e0     user32:USER32.dll
 0002:000001e4       __imp__SetWindowLongA@12   004c71e4     user32:USER32.dll
 0002:000001e8       __imp__AdjustWindowRect@12 004c71e8     user32:USER32.dll
 0002:000001ec       __imp__GetWindowTextA@12   004c71ec     user32:USER32.dll
 0002:000001f0       __imp__SetWindowTextA@8    004c71f0     user32:USER32.dll
 0002:000001f4       __imp__InvalidateRect@12   004c71f4     user32:USER32.dll
 0002:000001f8       __imp__ReleaseDC@8         004c71f8     user32:USER32.dll
 0002:000001fc       __imp__GetDC@4             004c71fc     user32:USER32.dll
 0002:00000200       __imp__SetForegroundWindow@4 004c7200     user32:USER32.dll
 0002:00000204       __imp__UpdateWindow@4      004c7204     user32:USER32.dll
 0002:00000208       __imp__SetTimer@16         004c7208     user32:USER32.dll
 0002:0000020c       __imp__SetFocus@4          004c720c     user32:USER32.dll
 0002:00000210       __imp__CloseWindow@4       004c7210     user32:USER32.dll
 0002:00000214       __imp__ShowWindow@8        004c7214     user32:USER32.dll
 0002:00000218       __imp__DestroyWindow@4     004c7218     user32:USER32.dll
 0002:0000021c       __imp__CreateWindowExA@48  004c721c     user32:USER32.dll
 0002:00000220       __imp__RegisterClassA@4    004c7220     user32:USER32.dll
 0002:00000224       __imp__CallWindowProcA@20  004c7224     user32:USER32.dll
 0002:00000228       __imp__PostQuitMessage@4   004c7228     user32:USER32.dll
 0002:0000022c       __imp__DefWindowProcA@16   004c722c     user32:USER32.dll
 0002:00000230       __imp__SendMessageA@16     004c7230     user32:USER32.dll
 0002:00000234       __imp__MessageBoxExA@20    004c7234     user32:USER32.dll
 0002:00000238       __imp__GetClipboardData@4  004c7238     user32:USER32.dll
 0002:0000023c       __imp__CloseClipboard@0    004c723c     user32:USER32.dll
 0002:00000240       __imp__OpenClipboard@4     004c7240     user32:USER32.dll
 0002:00000244       __imp__PeekMessageA@20     004c7244     user32:USER32.dll
 0002:00000248       __imp__DispatchMessageA@4  004c7248     user32:USER32.dll
 0002:0000024c       __imp__TranslateMessage@4  004c724c     user32:USER32.dll
 0002:00000250       __imp__GetMessageA@16      004c7250     user32:USER32.dll
 0002:00000254       __imp__ReleaseCapture@0    004c7254     user32:USER32.dll
 0002:00000258       __imp__GetCursorPos@4      004c7258     user32:USER32.dll
 0002:0000025c       __imp__SetCursorPos@8      004c725c     user32:USER32.dll
 0002:00000260       __imp__ShowCursor@4        004c7260     user32:USER32.dll
 0002:00000264       __imp__GetWindowRect@8     004c7264     user32:USER32.dll
 0002:00000268       __imp__GetSystemMetrics@4  004c7268     user32:USER32.dll
 0002:0000026c       __imp__MessageBoxA@16      004c726c     user32:USER32.dll
 0002:00000270       \177USER32_NULL_THUNK_DATA 004c7270     user32:USER32.dll
 0002:00000274       __imp__midiInStart@4       004c7274     winmm:WINMM.dll
 0002:00000278       __imp__midiInOpen@20       004c7278     winmm:WINMM.dll
 0002:0000027c       __imp__midiInGetDevCapsA@12 004c727c     winmm:WINMM.dll
 0002:00000280       __imp__midiInClose@4       004c7280     winmm:WINMM.dll
 0002:00000284       __imp__midiInGetNumDevs@0  004c7284     winmm:WINMM.dll
 0002:00000288       __imp__joyGetPosEx@8       004c7288     winmm:WINMM.dll
 0002:0000028c       __imp__joyGetNumDevs@0     004c728c     winmm:WINMM.dll
 0002:00000290       __imp__joyGetDevCapsA@12   004c7290     winmm:WINMM.dll
 0002:00000294       __imp__timeGetTime@0       004c7294     winmm:WINMM.dll
 0002:00000298       __imp__timeBeginPeriod@4   004c7298     winmm:WINMM.dll
 0002:0000029c       __imp__timeEndPeriod@4     004c729c     winmm:WINMM.dll
 0002:000002a0       \177WINMM_NULL_THUNK_DATA  004c72a0     winmm:WINMM.dll
 0002:000002a4       __imp__recv@16             004c72a4     wsock32:WSOCK32.dll
 0002:000002a8       __imp__ntohl@4             004c72a8     wsock32:WSOCK32.dll
 0002:000002ac       __imp__inet_addr@4         004c72ac     wsock32:WSOCK32.dll
 0002:000002b0       __imp__htons@4             004c72b0     wsock32:WSOCK32.dll
 0002:000002b4       __imp__ioctlsocket@12      004c72b4     wsock32:WSOCK32.dll
 0002:000002b8       __imp__connect@12          004c72b8     wsock32:WSOCK32.dll
 0002:000002bc       __imp__closesocket@4       004c72bc     wsock32:WSOCK32.dll
 0002:000002c0       __imp__bind@12             004c72c0     wsock32:WSOCK32.dll
 0002:000002c4       __imp__recvfrom@24         004c72c4     wsock32:WSOCK32.dll
 0002:000002c8       __imp__send@16             004c72c8     wsock32:WSOCK32.dll
 0002:000002cc       __imp__sendto@24           004c72cc     wsock32:WSOCK32.dll
 0002:000002d0       __imp__setsockopt@20       004c72d0     wsock32:WSOCK32.dll
 0002:000002d4       __imp__socket@12           004c72d4     wsock32:WSOCK32.dll
 0002:000002d8       __imp__gethostbyname@4     004c72d8     wsock32:WSOCK32.dll
 0002:000002dc       __imp__gethostname@8       004c72dc     wsock32:WSOCK32.dll
 0002:000002e0       __imp__WSAStartup@8        004c72e0     wsock32:WSOCK32.dll
 0002:000002e4       __imp__WSAGetLastError@0   004c72e4     wsock32:WSOCK32.dll
 0002:000002e8       \177WSOCK32_NULL_THUNK_DATA 004c72e8     wsock32:WSOCK32.dll
 0002:000002ec       __imp__CoCreateInstance@20 004c72ec     ole32:ole32.dll
 0002:000002f0       __imp__CoInitialize@4      004c72f0     ole32:ole32.dll
 0002:000002f4       __imp__CoUninitialize@0    004c72f4     ole32:ole32.dll
 0002:000002f8       \177ole32_NULL_THUNK_DATA  004c72f8     ole32:ole32.dll
 0002:000002fc       ___xc_a                    004c72fc     LIBCMT:crt0init.obj
 0002:00000300       ___xc_z                    004c7300     LIBCMT:crt0init.obj
 0002:00000304       ___xi_a                    004c7304     LIBCMT:crt0init.obj
 0002:00000324       ___xi_z                    004c7324     LIBCMT:crt0init.obj
 0002:00000328       ___xp_a                    004c7328     LIBCMT:crt0init.obj
 0002:00000338       ___xp_z                    004c7338     LIBCMT:crt0init.obj
 0002:0000033c       ___xt_a                    004c733c     LIBCMT:crt0init.obj
 0002:00000340       ___xt_z                    004c7340     LIBCMT:crt0init.obj
 0002:00000350       ??_C@_0BI@GFBIMDFO@CL_GetUserCmd?3?5?$CFi?5?$DO?$DN?5?$CFi?$AA@ 004c7350     cl_cgame.obj
 0002:00000368       ??_C@_0DI@DMJPFKEN@CL_GetSnapshot?3?5snapshotNumber?5?$DO@ 004c7368     cl_cgame.obj
 0002:000003a0       ??_C@_0CN@NFLCIAJJ@CL_GetSnapshot?3?5truncated?5?$CFi?5ent@ 004c73a0     cl_cgame.obj
 0002:000003d0       ??_C@_02DKCKIIND@?$CFs?$AA@ 004c73d0     cl_cgame.obj
 0002:000003d4       ??_C@_0CB@GKLEHILN@configstring?5?$DO?5MAX_CONFIGSTRINGS@ 004c73d4     cl_cgame.obj
 0002:000003f8       ??_C@_0BN@EHLDLIPD@MAX_GAMESTATE_CHARS?5exceeded?$AA@ 004c73f8     cl_cgame.obj
 0002:00000418       ??_C@_0DH@KEKKOLLD@CL_GetServerCommand?3?5a?5reliable?5@ 004c7418     cl_cgame.obj
 0002:00000450       ??_C@_0DG@FOCFKOFN@CL_GetServerCommand?3?5requested?5a@ 004c7450     cl_cgame.obj
 0002:00000488       ??_C@_0BI@JLIEJCCP@serverCommand?3?5?$CFi?5?3?5?$CFs?6?$AA@ 004c7488     cl_cgame.obj
 0002:000004a0       ??_C@_0L@KKPFIJOL@disconnect?$AA@ 004c74a0     cl_cgame.obj
 0002:000004ac       ??_C@_0BJ@FDEBGBPO@Server?5Disconnected?5?9?5?$CFs?$AA@ 004c74ac     cl_cgame.obj
 0002:000004c8       ??_C@_0BF@PHOEELOB@Server?5disconnected?6?$AA@ 004c74c8     cl_cgame.obj
 0002:000004e0       ??_C@_04HKENJENI@bcs0?$AA@ 004c74e0     cl_cgame.obj
 0002:000004e8       ??_C@_09PHKADKGH@cs?5?$CFs?5?$CC?$CFs?$AA@ 004c74e8     cl_cgame.obj
 0002:000004f4       ??_C@_04GDFGKFJJ@bcs1?$AA@ 004c74f4     cl_cgame.obj
 0002:000004fc       ??_C@_0BN@DLAPMAAP@bcs?5exceeded?5BIG_INFO_STRING?$AA@ 004c74fc     cl_cgame.obj
 0002:0000051c       ??_C@_04EIHLPGFK@bcs2?$AA@ 004c751c     cl_cgame.obj
 0002:00000524       ??_C@_01BJJEKLCA@?$CC?$AA@ 004c7524     cl_cgame.obj
 0002:00000528       ??_C@_02EODNHJKB@cs?$AA@   004c7528     cl_cgame.obj
 0002:0000052c       ??_C@_0M@NBIMEKNE@map_restart?$AA@ 004c752c     cl_cgame.obj
 0002:00000538       ??_C@_0BA@GNMFKLDC@clientLevelShot?$AA@ 004c7538     cl_cgame.obj
 0002:00000548       ??_C@_0DC@GKPOBHJK@wait?5?$DL?5wait?5?$DL?5wait?5?$DL?5wait?5?$DL?5scre@ 004c7548     cl_cgame.obj
 0002:0000057c       ??_C@_0BK@HMDPIKIJ@Bad?5cgame?5system?5trap?3?5?$CFi?$AA@ 004c757c     cl_cgame.obj
 0002:00000598       ??_C@_07KMNEBLH@mapname?$AA@ 004c7598     cl_cgame.obj
 0002:000005a0       ??_C@_0M@DKNJHPLK@maps?1?$CFs?4bsp?$AA@ 004c75a0     cl_cgame.obj
 0002:000005ac       ??_C@_08HKFBPMGE@vm_cgame?$AA@ 004c75ac     cl_cgame.obj
 0002:000005b8       ??_C@_05DAFANPAC@cgame?$AA@ 004c75b8     cl_cgame.obj
 0002:000005c0       ??_C@_0BK@DNNCDOHF@VM_Create?5on?5cgame?5failed?$AA@ 004c75c0     cl_cgame.obj
 0002:000005dc       ??_C@_0BN@IDOJBIPH@CL_InitCGame?3?5?$CF5?42f?5seconds?6?$AA@ 004c75dc     cl_cgame.obj
 0002:000005fc       ??_C@_08DFNEKPFP@?$DMRESET?$DO?5?$AA@ 004c75fc     cl_cgame.obj
 0002:00000608       ??_C@_07CLMNDOPI@?$DMFAST?$DO?5?$AA@ 004c7608     cl_cgame.obj
 0002:00000610       ??_C@_03JLNFKLOC@?$CFi?5?$AA@ 004c7610     cl_cgame.obj
 0002:00000614       ??_C@_00CNPNBAHC@?$AA@     004c7614     cl_cgame.obj
 0002:00000618       ??_C@_0N@JKAMCJJO@activeAction?$AA@ 004c7618     cl_cgame.obj
 0002:00000628       ??_C@_0CA@FIEOEIEM@CL_SetCGameTime?3?5?$CBcl?4snap?4valid?$AA@ 004c7628     cl_cgame.obj
 0002:00000648       ??_C@_0CL@NEIPEDIE@cl?4snap?4serverTime?5?$DM?5cl?4oldFrame@ 004c7648     cl_cgame.obj
 0002:00000674       __real@00000000            004c7674     cl_cgame.obj
 0002:00000678       __real@3f800000            004c7678     cl_cgame.obj
 0002:00000680       __real@408f400000000000    004c7680     cl_cgame.obj
 0002:00000688       ??_C@_0BO@EBCDHAOB@CIN_HandleForVideo?3?5none?5free?$AA@ 004c7688     cl_cin.obj
 0002:000006a8       ??_C@_0DH@BGGOKGDB@HACK?3?5approxmimating?5cinematic?5f@ 004c76a8     cl_cin.obj
 0002:000006e0       ??_C@_0CA@PBEAEEHD@roq_size?$DO65536?$HM?$HMroq_id?$DN?$DN0x1084?6?$AA@ 004c76e0     cl_cin.obj
 0002:00000700       ??_C@_0BE@JMMOLKGP@finished?5cinematic?6?$AA@ 004c7700     cl_cin.obj
 0002:00000714       ??_C@_07MCHHMPMB@nextmap?$AA@ 004c7714     cl_cin.obj
 0002:0000071c       ??_C@_03OFAPEBGM@?$CFs?6?$AA@ 004c771c     cl_cin.obj
 0002:00000720       ??_C@_0BL@ODCKOIHE@trFMV?3?3stop?$CI?$CJ?0?5closing?5?$CFs?6?$AA@ 004c7720     cl_cin.obj
 0002:0000073c       ??_C@_01KMDKNFGN@?1?$AA@   004c773c     cl_cin.obj
 0002:00000740       ??_C@_01KICIPPFI@?2?$AA@   004c7740     cl_cin.obj
 0002:00000744       ??_C@_08KLIMONEL@video?1?$CFs?$AA@ 004c7744     cl_cin.obj
 0002:00000750       ??_C@_0BJ@PGHMMNHI@SCR_PlayCinematic?$CI?5?$CFs?5?$CJ?6?$AA@ 004c7750     cl_cin.obj
 0002:0000076c       ??_C@_0BG@CHLIAINM@play?$CI?$CFs?$CJ?0?5ROQSize?$DM?$DN0?6?$AA@ 004c776c     cl_cin.obj
 0002:00000784       ??_C@_0BL@NOJKJAEE@trFMV?3?3play?$CI?$CJ?0?5playing?5?$CFs?6?$AA@ 004c7784     cl_cin.obj
 0002:000007a0       ??_C@_0BP@ONKNDCKB@trFMV?3?3play?$CI?$CJ?0?5invalid?5RoQ?5ID?6?$AA@ 004c77a0     cl_cin.obj
 0002:000007c0       ??_C@_0BE@DDELHFMC@CL_PlayCinematic_f?6?$AA@ 004c77c0     cl_cin.obj
 0002:000007d4       ??_C@_0M@DDLBHMNL@demoend?4roq?$AA@ 004c77d4     cl_cin.obj
 0002:000007e0       ??_C@_07IAFCMJGF@end?4roq?$AA@ 004c77e0     cl_cin.obj
 0002:000007e8       __real@40400000            004c77e8     cl_cin.obj
 0002:000007ec       __real@42c80000            004c77ec     cl_cin.obj
 0002:000007f0       __xmm@00000003000000020000000100000000 004c77f0     cl_cin.obj
 0002:00000800       __xmm@000000ff000000ff000000ff000000ff 004c7800     cl_cin.obj
 0002:00000810       __xmm@4138331e4138331e4138331e4138331e 004c7810     cl_cin.obj
 0002:00000820       __xmm@41bad1e141bad1e141bad1e141bad1e1 004c7820     cl_cin.obj
 0002:00000830       __xmm@41f00000000000000000000000000000 004c7830     cl_cin.obj
 0002:00000840       __xmm@42000000420000004200000042000000 004c7840     cl_cin.obj
 0002:00000850       __xmm@423574bc423574bc423574bc423574bc 004c7850     cl_cin.obj
 0002:00000860       __xmm@4264d0e54264d0e54264d0e54264d0e5 004c7860     cl_cin.obj
 0002:00000870       __xmm@80000000800000008000000080000000 004c7870     cl_cin.obj
 0002:00000880       ??_C@_0BL@FAHDMBMK@usage?3?5condump?5?$DMfilename?$DO?6?$AA@ 004c7880     cl_console.obj
 0002:0000089c       ??_C@_0BM@HNBBHJDG@Dumped?5console?5text?5to?5?$CFs?4?6?$AA@ 004c789c     cl_console.obj
 0002:000008b8       ??_C@_0BH@DBPHKMFK@ERROR?3?5couldn?8t?5open?4?6?$AA@ 004c78b8     cl_console.obj
 0002:000008d0       ??_C@_01EEMJAFIK@?6?$AA@   004c78d0     cl_console.obj
 0002:000008d4       ??_C@_01EKENIIDA@3?$AA@    004c78d4     cl_console.obj
 0002:000008d8       ??_C@_0P@INMLCMIF@con_notifytime?$AA@ 004c78d8     cl_console.obj
 0002:000008e8       ??_C@_0N@MGJFCGAP@scr_conspeed?$AA@ 004c78e8     cl_console.obj
 0002:000008f8       ??_C@_0O@JJBKLGLG@toggleconsole?$AA@ 004c78f8     cl_console.obj
 0002:00000908       ??_C@_0M@JINOELJH@messagemode?$AA@ 004c7908     cl_console.obj
 0002:00000914       ??_C@_0N@IDIDIMNN@messagemode2?$AA@ 004c7914     cl_console.obj
 0002:00000924       ??_C@_0N@JKJILNJM@messagemode3?$AA@ 004c7924     cl_console.obj
 0002:00000934       ??_C@_0N@NFNJCLFL@messagemode4?$AA@ 004c7934     cl_console.obj
 0002:00000944       ??_C@_05MEHLAELG@clear?$AA@ 004c7944     cl_console.obj
 0002:0000094c       ??_C@_07NENKHFEO@condump?$AA@ 004c794c     cl_console.obj
 0002:00000954       ??_C@_0N@BFMOJDMP@?$FLskipnotify?$FN?$AA@ 004c7954     cl_console.obj
 0002:00000964       ??_C@_09LMMIOJG@say_team?3?$AA@ 004c7964     cl_console.obj
 0002:00000970       ??_C@_04HKLMIPDN@say?3?$AA@ 004c7970     cl_console.obj
 0002:00000978       ??_C@_08JLENPJJP@Q3?51?432b?$AA@ 004c7978     cl_console.obj
 0002:00000984       __real@3f000000            004c7984     cl_console.obj
 0002:00000988       __real@3f50624dd2f1a9fc    004c7988     cl_console.obj
 0002:00000990       __real@40000000            004c7990     cl_console.obj
 0002:00000994       __real@41000000            004c7994     cl_console.obj
 0002:00000998       __real@41800000            004c7998     cl_console.obj
 0002:0000099c       __real@43f00000            004c799c     cl_console.obj
 0002:000009a0       __real@447a0000            004c79a0     cl_console.obj
 0002:000009b0       __xmm@3f80000000000000000000003f800000 004c79b0     cl_console.obj
 0002:000009c0       ??_C@_0BP@KKNANIBM@Three?5keys?5down?5for?5a?5button?$CB?6?$AA@ 004c79c0     cl_input.obj
 0002:000009e0       ??_C@_0BO@PJHINAKI@CL_JoystickEvent?3?5bad?5axis?5?$CFi?$AA@ 004c79e0     cl_input.obj
 0002:00000a00       ??_C@_08ENNALHMG@?$CFf?5?3?5?$CFf?6?$AA@ 004c7a00     cl_input.obj
 0002:00000a0c       ??_C@_02IHCGGLPM@15?$AA@   004c7a0c     cl_input.obj
 0002:00000a10       ??_C@_0O@FAEBFPEP@cl_maxpackets?$AA@ 004c7a10     cl_input.obj
 0002:00000a20       ??_C@_03BDPCEMGP@125?$AA@  004c7a20     cl_input.obj
 0002:00000a24       ??_C@_01GBGANLPD@0?$AA@    004c7a24     cl_input.obj
 0002:00000a28       ??_C@_0N@HCACMDEB@cl_packetdup?$AA@ 004c7a28     cl_input.obj
 0002:00000a38       ??_C@_01BMBHCPLG@5?$AA@    004c7a38     cl_input.obj
 0002:00000a3c       ??_C@_0BF@IEGIFLHJ@MAX_PACKET_USERCMDS?6?$AA@ 004c7a3c     cl_input.obj
 0002:00000a54       ??_C@_04FMMAFMGP@?$CI?$CFi?$CJ?$AA@ 004c7a54     cl_input.obj
 0002:00000a5c       ??_C@_0DK@ONGDGOPA@WARNING?3?5?$CD462?5unsent?5fragments?5?$CI@ 004c7a5c     cl_input.obj
 0002:00000a98       ??_C@_02KHOJGJKF@?4?5?$AA@ 004c7a98     cl_input.obj
 0002:00000a9c       ??_C@_0L@FHIBDANG@centerview?$AA@ 004c7a9c     cl_input.obj
 0002:00000aa8       ??_C@_07CKGNAPCP@?$CLmoveup?$AA@ 004c7aa8     cl_input.obj
 0002:00000ab0       ??_C@_07OMACAGKI@?9moveup?$AA@ 004c7ab0     cl_input.obj
 0002:00000ab8       ??_C@_09HNJJMOJG@?$CLmovedown?$AA@ 004c7ab8     cl_input.obj
 0002:00000ac4       ??_C@_09HAIHLONB@?9movedown?$AA@ 004c7ac4     cl_input.obj
 0002:00000ad0       ??_C@_05HEGFDNLE@?$CLleft?$AA@ 004c7ad0     cl_input.obj
 0002:00000ad8       ??_C@_05KCDMNOKJ@?9left?$AA@ 004c7ad8     cl_input.obj
 0002:00000ae0       ??_C@_06NGIHBNMB@?$CLright?$AA@ 004c7ae0     cl_input.obj
 0002:00000ae8       ??_C@_06LFFHCIPL@?9right?$AA@ 004c7ae8     cl_input.obj
 0002:00000af0       ??_C@_08KKEOHAPB@?$CLforward?$AA@ 004c7af0     cl_input.obj
 0002:00000afc       ??_C@_08NJFEAJHL@?9forward?$AA@ 004c7afc     cl_input.obj
 0002:00000b08       ??_C@_05IPKGNIPH@?$CLback?$AA@ 004c7b08     cl_input.obj
 0002:00000b10       ??_C@_05FJPPDLOK@?9back?$AA@ 004c7b10     cl_input.obj
 0002:00000b18       ??_C@_07BDFIGFL@?$CLlookup?$AA@ 004c7b18     cl_input.obj
 0002:00000b20       ??_C@_07MHFKIPNM@?9lookup?$AA@ 004c7b20     cl_input.obj
 0002:00000b28       ??_C@_09KCKOGCLI@?$CLlookdown?$AA@ 004c7b28     cl_input.obj
 0002:00000b34       ??_C@_09KPLABCPP@?9lookdown?$AA@ 004c7b34     cl_input.obj
 0002:00000b40       ??_C@_07CHKKNAEO@?$CLstrafe?$AA@ 004c7b40     cl_input.obj
 0002:00000b48       ??_C@_07OBMFNJMJ@?9strafe?$AA@ 004c7b48     cl_input.obj
 0002:00000b50       ??_C@_09IPJNFGKP@?$CLmoveleft?$AA@ 004c7b50     cl_input.obj
 0002:00000b5c       ??_C@_09ICIDCGOI@?9moveleft?$AA@ 004c7b5c     cl_input.obj
 0002:00000b68       ??_C@_0L@FMBJCMEG@?$CLmoveright?$AA@ 004c7b68     cl_input.obj
 0002:00000b74       ??_C@_0L@LEKMOGAF@?9moveright?$AA@ 004c7b74     cl_input.obj
 0002:00000b80       ??_C@_06JIDIHCBO@?$CLspeed?$AA@ 004c7b80     cl_input.obj
 0002:00000b88       ??_C@_06PLOIEHCE@?9speed?$AA@ 004c7b88     cl_input.obj
 0002:00000b90       ??_C@_07MAODEHGM@?$CLattack?$AA@ 004c7b90     cl_input.obj
 0002:00000b98       ??_C@_07GIMEOOL@?9attack?$AA@ 004c7b98     cl_input.obj
 0002:00000ba0       ??_C@_08FHGHJBDB@?$CLbutton0?$AA@ 004c7ba0     cl_input.obj
 0002:00000bac       ??_C@_08CEHNOILL@?9button0?$AA@ 004c7bac     cl_input.obj
 0002:00000bb8       ??_C@_08EOHMKAHA@?$CLbutton1?$AA@ 004c7bb8     cl_input.obj
 0002:00000bc4       ??_C@_08DNGGNJPK@?9button1?$AA@ 004c7bc4     cl_input.obj
 0002:00000bd0       ??_C@_08GFFBPDLD@?$CLbutton2?$AA@ 004c7bd0     cl_input.obj
 0002:00000bdc       ??_C@_08BGELIKDJ@?9button2?$AA@ 004c7bdc     cl_input.obj
 0002:00000be8       ??_C@_08HMEKMCPC@?$CLbutton3?$AA@ 004c7be8     cl_input.obj
 0002:00000bf4       ??_C@_08PFALLHI@?9button3?$AA@ 004c7bf4     cl_input.obj
 0002:00000c00       ??_C@_08DDALFEDF@?$CLbutton4?$AA@ 004c7c00     cl_input.obj
 0002:00000c0c       ??_C@_08EABBCNLP@?9button4?$AA@ 004c7c0c     cl_input.obj
 0002:00000c18       ??_C@_08CKBAGFHE@?$CLbutton5?$AA@ 004c7c18     cl_input.obj
 0002:00000c24       ??_C@_08FJAKBMPO@?9button5?$AA@ 004c7c24     cl_input.obj
 0002:00000c30       ??_C@_08BDNDGLH@?$CLbutton6?$AA@ 004c7c30     cl_input.obj
 0002:00000c3c       ??_C@_08HCCHEPDN@?9button6?$AA@ 004c7c3c     cl_input.obj
 0002:00000c48       ??_C@_08BICGAHPG@?$CLbutton7?$AA@ 004c7c48     cl_input.obj
 0002:00000c54       ??_C@_08GLDMHOHM@?9button7?$AA@ 004c7c54     cl_input.obj
 0002:00000c60       ??_C@_08JPLOBLDJ@?$CLbutton8?$AA@ 004c7c60     cl_input.obj
 0002:00000c6c       ??_C@_08OMKEGCLD@?9button8?$AA@ 004c7c6c     cl_input.obj
 0002:00000c78       ??_C@_08IGKFCKHI@?$CLbutton9?$AA@ 004c7c78     cl_input.obj
 0002:00000c84       ??_C@_08PFLPFDPC@?9button9?$AA@ 004c7c84     cl_input.obj
 0002:00000c90       ??_C@_09IPANDLGP@?$CLbutton10?$AA@ 004c7c90     cl_input.obj
 0002:00000c9c       ??_C@_09ICBDELCI@?9button10?$AA@ 004c7c9c     cl_input.obj
 0002:00000ca8       ??_C@_09JGBGAKCO@?$CLbutton11?$AA@ 004c7ca8     cl_input.obj
 0002:00000cb4       ??_C@_09JLAIHKGJ@?9button11?$AA@ 004c7cb4     cl_input.obj
 0002:00000cc0       ??_C@_09LNDLFJON@?$CLbutton12?$AA@ 004c7cc0     cl_input.obj
 0002:00000ccc       ??_C@_09LACFCJKK@?9button12?$AA@ 004c7ccc     cl_input.obj
 0002:00000cd8       ??_C@_09KECAGIKM@?$CLbutton13?$AA@ 004c7cd8     cl_input.obj
 0002:00000ce4       ??_C@_09KJDOBIOL@?9button13?$AA@ 004c7ce4     cl_input.obj
 0002:00000cf0       ??_C@_09OLGBPOGL@?$CLbutton14?$AA@ 004c7cf0     cl_input.obj
 0002:00000cfc       ??_C@_09OGHPIOCM@?9button14?$AA@ 004c7cfc     cl_input.obj
 0002:00000d08       ??_C@_06OBEGBCAL@?$CLmlook?$AA@ 004c7d08     cl_input.obj
 0002:00000d10       ??_C@_06ICJGCHDB@?9mlook?$AA@ 004c7d10     cl_input.obj
 0002:00000d18       ??_C@_0L@BPLIDNFG@cl_nodelta?$AA@ 004c7d18     cl_input.obj
 0002:00000d24       ??_C@_0N@PJOLPAGC@cl_debugMove?$AA@ 004c7d24     cl_input.obj
 0002:00000d38       __real@3f76800000000000    004c7d38     cl_input.obj
 0002:00000d40       __real@3fe0000000000000    004c7d40     cl_input.obj
 0002:00000d48       __real@42b40000            004c7d48     cl_input.obj
 0002:00000d4c       __real@43b40000            004c7d4c     cl_input.obj
 0002:00000d50       __real@47800000            004c7d50     cl_input.obj
 0002:00000d60       __xmm@80000000000000008000000000000000 004c7d60     cl_input.obj
 0002:00000d70       ??_C@_03CJMDHCGG@TAB?$AA@  004c7d70     cl_keys.obj
 0002:00000d74       ??_C@_05EMNIMLKD@ENTER?$AA@ 004c7d74     cl_keys.obj
 0002:00000d7c       ??_C@_06CDPDIIDH@ESCAPE?$AA@ 004c7d7c     cl_keys.obj
 0002:00000d84       ??_C@_05CAEOFMEP@SPACE?$AA@ 004c7d84     cl_keys.obj
 0002:00000d8c       ??_C@_09MALOLBMO@BACKSPACE?$AA@ 004c7d8c     cl_keys.obj
 0002:00000d98       ??_C@_07MNCBLHKG@UPARROW?$AA@ 004c7d98     cl_keys.obj
 0002:00000da0       ??_C@_09KIDHILFL@DOWNARROW?$AA@ 004c7da0     cl_keys.obj
 0002:00000dac       ??_C@_09FNHBLDAE@LEFTARROW?$AA@ 004c7dac     cl_keys.obj
 0002:00000db8       ??_C@_0L@CIPLPPIL@RIGHTARROW?$AA@ 004c7db8     cl_keys.obj
 0002:00000dc4       ??_C@_03FKEEPDEP@ALT?$AA@  004c7dc4     cl_keys.obj
 0002:00000dc8       ??_C@_04FBBFEIFJ@CTRL?$AA@ 004c7dc8     cl_keys.obj
 0002:00000dd0       ??_C@_05OAHIEJBI@SHIFT?$AA@ 004c7dd0     cl_keys.obj
 0002:00000dd8       ??_C@_07FBJAHANB@COMMAND?$AA@ 004c7dd8     cl_keys.obj
 0002:00000de0       ??_C@_08INDENNHK@CAPSLOCK?$AA@ 004c7de0     cl_keys.obj
 0002:00000dec       ??_C@_02LCPENACN@F1?$AA@   004c7dec     cl_keys.obj
 0002:00000df0       ??_C@_02JJNJIDOO@F2?$AA@   004c7df0     cl_keys.obj
 0002:00000df4       ??_C@_02IAMCLCKP@F3?$AA@   004c7df4     cl_keys.obj
 0002:00000df8       ??_C@_02MPIDCEGI@F4?$AA@   004c7df8     cl_keys.obj
 0002:00000dfc       ??_C@_02NGJIBFCJ@F5?$AA@   004c7dfc     cl_keys.obj
 0002:00000e00       ??_C@_02PNLFEGOK@F6?$AA@   004c7e00     cl_keys.obj
 0002:00000e04       ??_C@_02OEKOHHKL@F7?$AA@   004c7e04     cl_keys.obj
 0002:00000e08       ??_C@_02GDDGGLGE@F8?$AA@   004c7e08     cl_keys.obj
 0002:00000e0c       ??_C@_02HKCNFKCF@F9?$AA@   004c7e0c     cl_keys.obj
 0002:00000e10       ??_C@_03JKCLJOFG@F10?$AA@  004c7e10     cl_keys.obj
 0002:00000e14       ??_C@_03IDDAKPBH@F11?$AA@  004c7e14     cl_keys.obj
 0002:00000e18       ??_C@_03KIBNPMNE@F12?$AA@  004c7e18     cl_keys.obj
 0002:00000e1c       ??_C@_03NDDFJJAJ@INS?$AA@  004c7e1c     cl_keys.obj
 0002:00000e20       ??_C@_03OAFAKAKL@DEL?$AA@  004c7e20     cl_keys.obj
 0002:00000e24       ??_C@_04BOGEOADK@PGDN?$AA@ 004c7e24     cl_keys.obj
 0002:00000e2c       ??_C@_04NHMBBGKC@PGUP?$AA@ 004c7e2c     cl_keys.obj
 0002:00000e34       ??_C@_04GHGFPGNC@HOME?$AA@ 004c7e34     cl_keys.obj
 0002:00000e3c       ??_C@_03JMGAKCCH@END?$AA@  004c7e3c     cl_keys.obj
 0002:00000e40       ??_C@_06CAAGCEOP@MOUSE1?$AA@ 004c7e40     cl_keys.obj
 0002:00000e48       ??_C@_06LCLHHCM@MOUSE2?$AA@ 004c7e48     cl_keys.obj
 0002:00000e50       ??_C@_06BCDAEGGN@MOUSE3?$AA@ 004c7e50     cl_keys.obj
 0002:00000e58       ??_C@_06FNHBNAKK@MOUSE4?$AA@ 004c7e58     cl_keys.obj
 0002:00000e60       ??_C@_06EEGKOBOL@MOUSE5?$AA@ 004c7e60     cl_keys.obj
 0002:00000e68       ??_C@_08NAKENEKM@MWHEELUP?$AA@ 004c7e68     cl_keys.obj
 0002:00000e74       ??_C@_0L@NBPPJGMJ@MWHEELDOWN?$AA@ 004c7e74     cl_keys.obj
 0002:00000e80       ??_C@_04ENNJBCOM@JOY1?$AA@ 004c7e80     cl_keys.obj
 0002:00000e88       ??_C@_04GGPEEBCP@JOY2?$AA@ 004c7e88     cl_keys.obj
 0002:00000e90       ??_C@_04HPOPHAGO@JOY3?$AA@ 004c7e90     cl_keys.obj
 0002:00000e98       ??_C@_04DAKOOGKJ@JOY4?$AA@ 004c7e98     cl_keys.obj
 0002:00000ea0       ??_C@_04CJLFNHOI@JOY5?$AA@ 004c7ea0     cl_keys.obj
 0002:00000ea8       ??_C@_04CJIIECL@JOY6?$AA@  004c7ea8     cl_keys.obj
 0002:00000eb0       ??_C@_04BLIDLFGK@JOY7?$AA@ 004c7eb0     cl_keys.obj
 0002:00000eb8       ??_C@_04JMBLKJKF@JOY8?$AA@ 004c7eb8     cl_keys.obj
 0002:00000ec0       ??_C@_04IFAAJIOE@JOY9?$AA@ 004c7ec0     cl_keys.obj
 0002:00000ec8       ??_C@_05HGLHEBLC@JOY10?$AA@ 004c7ec8     cl_keys.obj
 0002:00000ed0       ??_C@_05GPKMHAPD@JOY11?$AA@ 004c7ed0     cl_keys.obj
 0002:00000ed8       ??_C@_05EEIBCDDA@JOY12?$AA@ 004c7ed8     cl_keys.obj
 0002:00000ee0       ??_C@_05FNJKBCHB@JOY13?$AA@ 004c7ee0     cl_keys.obj
 0002:00000ee8       ??_C@_05BCNLIELG@JOY14?$AA@ 004c7ee8     cl_keys.obj
 0002:00000ef0       ??_C@_05LMALFPH@JOY15?$AA@ 004c7ef0     cl_keys.obj
 0002:00000ef8       ??_C@_05CAONOGDE@JOY16?$AA@ 004c7ef8     cl_keys.obj
 0002:00000f00       ??_C@_05DJPGNHHF@JOY17?$AA@ 004c7f00     cl_keys.obj
 0002:00000f08       ??_C@_05LOGOMLLK@JOY18?$AA@ 004c7f08     cl_keys.obj
 0002:00000f10       ??_C@_05KHHFPKPL@JOY19?$AA@ 004c7f10     cl_keys.obj
 0002:00000f18       ??_C@_05HEPBPPOL@JOY20?$AA@ 004c7f18     cl_keys.obj
 0002:00000f20       ??_C@_05GNOKMOKK@JOY21?$AA@ 004c7f20     cl_keys.obj
 0002:00000f28       ??_C@_05EGMHJNGJ@JOY22?$AA@ 004c7f28     cl_keys.obj
 0002:00000f30       ??_C@_05FPNMKMCI@JOY23?$AA@ 004c7f30     cl_keys.obj
 0002:00000f38       ??_C@_05BAJNDKOP@JOY24?$AA@ 004c7f38     cl_keys.obj
 0002:00000f40       ??_C@_05JIGALKO@JOY25?$AA@ 004c7f40     cl_keys.obj
 0002:00000f48       ??_C@_05CCKLFIGN@JOY26?$AA@ 004c7f48     cl_keys.obj
 0002:00000f50       ??_C@_05DLLAGJCM@JOY27?$AA@ 004c7f50     cl_keys.obj
 0002:00000f58       ??_C@_05LMCIHFOD@JOY28?$AA@ 004c7f58     cl_keys.obj
 0002:00000f60       ??_C@_05KFDDEEKC@JOY29?$AA@ 004c7f60     cl_keys.obj
 0002:00000f68       ??_C@_05HFDDJFNM@JOY30?$AA@ 004c7f68     cl_keys.obj
 0002:00000f70       ??_C@_05GMCIKEJN@JOY31?$AA@ 004c7f70     cl_keys.obj
 0002:00000f78       ??_C@_05EHAFPHFO@JOY32?$AA@ 004c7f78     cl_keys.obj
 0002:00000f80       ??_C@_04EGPPODB@AUX1?$AA@  004c7f80     cl_keys.obj
 0002:00000f88       ??_C@_04CPECKNPC@AUX2?$AA@ 004c7f88     cl_keys.obj
 0002:00000f90       ??_C@_04DGFJJMLD@AUX3?$AA@ 004c7f90     cl_keys.obj
 0002:00000f98       ??_C@_04HJBIAKHE@AUX4?$AA@ 004c7f98     cl_keys.obj
 0002:00000fa0       ??_C@_04GAADDLDF@AUX5?$AA@ 004c7fa0     cl_keys.obj
 0002:00000fa8       ??_C@_04ELCOGIPG@AUX6?$AA@ 004c7fa8     cl_keys.obj
 0002:00000fb0       ??_C@_04FCDFFJLH@AUX7?$AA@ 004c7fb0     cl_keys.obj
 0002:00000fb8       ??_C@_04NFKNEFHI@AUX8?$AA@ 004c7fb8     cl_keys.obj
 0002:00000fc0       ??_C@_04MMLGHEDJ@AUX9?$AA@ 004c7fc0     cl_keys.obj
 0002:00000fc8       ??_C@_05IOJMFJDH@AUX10?$AA@ 004c7fc8     cl_keys.obj
 0002:00000fd0       ??_C@_05JHIHGIHG@AUX11?$AA@ 004c7fd0     cl_keys.obj
 0002:00000fd8       ??_C@_05LMKKDLLF@AUX12?$AA@ 004c7fd8     cl_keys.obj
 0002:00000fe0       ??_C@_05KFLBAKPE@AUX13?$AA@ 004c7fe0     cl_keys.obj
 0002:00000fe8       ??_C@_05OKPAJMDD@AUX14?$AA@ 004c7fe8     cl_keys.obj
 0002:00000ff0       ??_C@_05PDOLKNHC@AUX15?$AA@ 004c7ff0     cl_keys.obj
 0002:00000ff8       ??_C@_05NIMGPOLB@AUX16?$AA@ 004c7ff8     cl_keys.obj
 0002:00001000       ??_C@_07GOJPFDII@KP_HOME?$AA@ 004c8000     cl_keys.obj
 0002:00001008       ??_C@_0L@CCBCEPGH@KP_UPARROW?$AA@ 004c8008     cl_keys.obj
 0002:00001014       ??_C@_07NODLLDPI@KP_PGUP?$AA@ 004c8014     cl_keys.obj
 0002:0000101c       ??_C@_0N@DMPGMABG@KP_LEFTARROW?$AA@ 004c801c     cl_keys.obj
 0002:0000102c       ??_C@_04BICCMFCD@KP_5?$AA@ 004c802c     cl_keys.obj
 0002:00001034       ??_C@_0O@NLCDAJLA@KP_RIGHTARROW?$AA@ 004c8034     cl_keys.obj
 0002:00001044       ??_C@_06NAIJNDCL@KP_END?$AA@ 004c8044     cl_keys.obj
 0002:0000104c       ??_C@_0N@MJLAPIEJ@KP_DOWNARROW?$AA@ 004c804c     cl_keys.obj
 0002:0000105c       ??_C@_07BHJOEFGA@KP_PGDN?$AA@ 004c805c     cl_keys.obj
 0002:00001064       ??_C@_08MHGPIJOM@KP_ENTER?$AA@ 004c8064     cl_keys.obj
 0002:00001070       ??_C@_06JPNMOIAF@KP_INS?$AA@ 004c8070     cl_keys.obj
 0002:00001078       ??_C@_06KMLJNBKH@KP_DEL?$AA@ 004c8078     cl_keys.obj
 0002:00001080       ??_C@_08KHGBLJLO@KP_SLASH?$AA@ 004c8080     cl_keys.obj
 0002:0000108c       ??_C@_08KDIFPCFL@KP_MINUS?$AA@ 004c808c     cl_keys.obj
 0002:00001098       ??_C@_07CCBHGHDK@KP_PLUS?$AA@ 004c8098     cl_keys.obj
 0002:000010a0       ??_C@_0L@LEPHIPFO@KP_NUMLOCK?$AA@ 004c80a0     cl_keys.obj
 0002:000010ac       ??_C@_07PCCOFIHH@KP_STAR?$AA@ 004c80ac     cl_keys.obj
 0002:000010b4       ??_C@_09GONHEPJO@KP_EQUALS?$AA@ 004c80b4     cl_keys.obj
 0002:000010c0       ??_C@_05DIAHPDGL@PAUSE?$AA@ 004c80c0     cl_keys.obj
 0002:000010c8       ??_C@_09COMJPDLF@SEMICOLON?$AA@ 004c80c8     cl_keys.obj
 0002:000010d4       ??_C@_0BM@MHAABCMH@drawLen?5?$DO?$DN?5MAX_STRING_CHARS?$AA@ 004c80d4     cl_keys.obj
 0002:000010f0       ??_C@_06NICJIFDH@clear?6?$AA@ 004c80f0     cl_keys.obj
 0002:000010f8       ??_C@_03GFPEDOMH@?2?$CFs?$AA@ 004c80f8     cl_keys.obj
 0002:000010fc       ??_C@_04MCOKGCBH@?$FN?$CFs?6?$AA@ 004c80fc     cl_keys.obj
 0002:00001104       ??_C@_08LMOPPDJO@cmd?5say?5?$AA@ 004c8104     cl_keys.obj
 0002:00001110       ??_C@_0O@MFAGMBFC@tell?5?$CFi?5?$CC?$CFs?$CC?6?$AA@ 004c8110     cl_keys.obj
 0002:00001120       ??_C@_0P@BAMGBHOI@say_team?5?$CC?$CFs?$CC?6?$AA@ 004c8120     cl_keys.obj
 0002:00001130       ??_C@_09MNFIPOON@say?5?$CC?$CFs?$CC?6?$AA@ 004c8130     cl_keys.obj
 0002:0000113c       ??_C@_0BA@FLLJDFDJ@?$DMKEY?5NOT?5FOUND?$DO?$AA@ 004c813c     cl_keys.obj
 0002:0000114c       ??_C@_0P@IGICGKLH@?$DMOUT?5OF?5RANGE?$DO?$AA@ 004c814c     cl_keys.obj
 0002:0000115c       ??_C@_0CL@OCGCHGGL@unbind?5?$DMkey?$DO?5?3?5remove?5commands?5f@ 004c815c     cl_keys.obj
 0002:00001188       ??_C@_0BI@PLEALGJH@?$CC?$CFs?$CC?5isn?8t?5a?5valid?5key?6?$AA@ 004c8188     cl_keys.obj
 0002:000011a0       ??_C@_0DC@GHIPCCCE@bind?5?$DMkey?$DO?5?$FLcommand?$FN?5?3?5attach?5a?5@ 004c81a0     cl_keys.obj
 0002:000011d4       ??_C@_0N@CHDOIAJI@?$CC?$CFs?$CC?5?$DN?5?$CC?$CFs?$CC?6?$AA@ 004c81d4     cl_keys.obj
 0002:000011e4       ??_C@_0BD@BAINEHPI@?$CC?$CFs?$CC?5is?5not?5bound?6?$AA@ 004c81e4     cl_keys.obj
 0002:000011f8       ??_C@_01CLKCMJKC@?5?$AA@   004c81f8     cl_keys.obj
 0002:000011fc       ??_C@_0L@EPHOCAKP@unbindall?6?$AA@ 004c81fc     cl_keys.obj
 0002:00001208       ??_C@_0O@HKEPFNEK@bind?5?$CFs?5?$CC?$CFs?$CC?6?$AA@ 004c8208     cl_keys.obj
 0002:00001218       ??_C@_08MHBLPCGN@?$CFs?5?$CC?$CFs?$CC?6?$AA@ 004c8218     cl_keys.obj
 0002:00001224       ??_C@_04NPNJNMMP@bind?$AA@ 004c8224     cl_keys.obj
 0002:0000122c       ??_C@_06IDJGFAK@unbind?$AA@ 004c822c     cl_keys.obj
 0002:00001234       ??_C@_09EBAHBELN@unbindall?$AA@ 004c8234     cl_keys.obj
 0002:00001240       ??_C@_08OLCDMLCJ@bindlist?$AA@ 004c8240     cl_keys.obj
 0002:0000124c       ??_C@_0L@BJOGPJJF@?9?$CFs?5?$CFi?5?$CFi?6?$AA@ 004c824c     cl_keys.obj
 0002:00001258       ??_C@_0P@EIAPFKBF@com_cameraMode?$AA@ 004c8258     cl_keys.obj
 0002:00001268       ??_C@_08JIEIDHIE@nextdemo?$AA@ 004c8268     cl_keys.obj
 0002:00001274       ??_C@_0CK@GMJFPAOO@?$CFs?5is?5unbound?0?5use?5controls?5menu@ 004c8274     cl_keys.obj
 0002:000012a0       ??_C@_09NMODOCNP@?$CFs?5?$CFi?5?$CFi?6?$AA@ 004c82a0     cl_keys.obj
 0002:000012ac       ??_C@_0BI@EAPJOGJE@Client?5command?5overflow?$AA@ 004c82ac     cl_main.obj
 0002:000012c4       ??_C@_0BH@FJJDMOAC@Not?5recording?5a?5demo?4?6?$AA@ 004c82c4     cl_main.obj
 0002:000012dc       ??_C@_0P@JFMMMOHN@Stopped?5demo?4?6?$AA@ 004c82dc     cl_main.obj
 0002:000012ec       ??_C@_0N@JINADPLJ@demo9999?4tga?$AA@ 004c82ec     cl_main.obj
 0002:000012fc       ??_C@_0N@EFJGOOKC@demo?$CFi?$CFi?$CFi?$CFi?$AA@ 004c82fc     cl_main.obj
 0002:0000130c       ??_C@_0BD@PGNLAEFI@record?5?$DMdemoname?$DO?6?$AA@ 004c830c     cl_main.obj
 0002:00001320       ??_C@_0BE@GOGLPLDO@Already?5recording?4?6?$AA@ 004c8320     cl_main.obj
 0002:00001334       ??_C@_0CD@JLOAFGIP@You?5must?5be?5in?5a?5level?5to?5record@ 004c8334     cl_main.obj
 0002:00001358       ??_C@_0BF@LICFCALK@g_synchronousClients?$AA@ 004c8358     cl_main.obj
 0002:00001370       ??_C@_0FA@PLJDEPGO@?$FO3WARNING?3?5You?5should?5set?5?8g_syn@ 004c8370     cl_main.obj
 0002:000013c0       ??_C@_0P@JBKMAJI@demos?1?$CFs?4dm_?$CFd?$AA@ 004c83c0     cl_main.obj
 0002:000013d0       ??_C@_0BC@PMCLPAOL@recording?5to?5?$CFs?4?6?$AA@ 004c83d0     cl_main.obj
 0002:000013e4       ??_C@_0BA@OHINOCDN@ui_recordSPDemo?$AA@ 004c83e4     cl_main.obj
 0002:000013f4       ??_C@_0CF@PCNJDKKO@?$CFi?5frames?0?5?$CF3?41f?5seconds?3?5?$CF3?41f?5@ 004c83f4     cl_main.obj
 0002:0000141c       ??_C@_0CM@CDKKAHKA@CL_ReadDemoMessage?3?5demoMsglen?5?$DO@ 004c841c     cl_main.obj
 0002:00001448       ??_C@_0BK@CDNCLIJC@Demo?5file?5was?5truncated?4?6?$AA@ 004c8448     cl_main.obj
 0002:00001464       ??_C@_0P@NIDHDKPC@Demo?5file?3?5?$CFs?6?$AA@ 004c8464     cl_main.obj
 0002:00001474       ??_C@_0P@HACEFMAG@Not?5found?3?5?$CFs?6?$AA@ 004c8474     cl_main.obj
 0002:00001484       ??_C@_0BF@LAJFIGGG@playdemo?5?$DMdemoname?$DO?6?$AA@ 004c8484     cl_main.obj
 0002:0000149c       ??_C@_01HIHLOKLC@1?$AA@    004c849c     cl_main.obj
 0002:000014a0       ??_C@_0O@JEEKIFAP@sv_killserver?$AA@ 004c84a0     cl_main.obj
 0002:000014b0       ??_C@_08OPAGIOMF@demos?1?$CFs?$AA@ 004c84b0     cl_main.obj
 0002:000014bc       ??_C@_0CF@NNMMABBB@Protocol?5?$CFd?5not?5supported?5for?5de@ 004c84bc     cl_main.obj
 0002:000014e4       ??_C@_0BB@OONEJEGE@couldn?8t?5open?5?$CFs?$AA@ 004c84e4     cl_main.obj
 0002:000014f8       ??_C@_03LFLJCHJK@d1?6?$AA@ 004c84f8     cl_main.obj
 0002:000014fc       ??_C@_0BB@HGODKPPP@CL_NextDemo?3?5?$CFs?6?$AA@ 004c84fc     cl_main.obj
 0002:00001510       ??_C@_09IPAEKDAI@localhost?$AA@ 004c8510     cl_main.obj
 0002:0000151c       ??_C@_0P@FABCFONG@r_uiFullScreen?$AA@ 004c851c     cl_main.obj
 0002:0000152c       ??_C@_0BA@MIMGFFNE@cl_downloadName?$AA@ 004c852c     cl_main.obj
 0002:0000153c       ??_C@_09NFOPKLIK@sv_cheats?$AA@ 004c853c     cl_main.obj
 0002:00001548       ??_C@_0BG@NHOAAIGH@Unknown?5command?5?$CC?$CFs?$CC?6?$AA@ 004c8548     cl_main.obj
 0002:00001560       ??_C@_0BH@CEAMHKGJ@update?4quake3arena?4com?$AA@ 004c8560     cl_main.obj
 0002:00001578       ??_C@_0O@NIMOHCFP@Resolving?5?$CFs?6?$AA@ 004c8578     cl_main.obj
 0002:00001588       ??_C@_0BK@PDDCGPDI@Couldn?8t?5resolve?5address?6?$AA@ 004c8588     cl_main.obj
 0002:000015a4       ??_C@_0BP@FPDCKHM@?$CFs?5resolved?5to?5?$CFi?4?$CFi?4?$CFi?4?$CFi?3?$CFi?6?$AA@ 004c85a4     cl_main.obj
 0002:000015c4       ??_C@_02IKAHHCAI@?$CFi?$AA@ 004c85c4     cl_main.obj
 0002:000015c8       ??_C@_09DBEGHIJJ@challenge?$AA@ 004c85c8     cl_main.obj
 0002:000015d4       ??_C@_08NELFFGLM@renderer?$AA@ 004c85d4     cl_main.obj
 0002:000015e0       ??_C@_07CPCPJPKL@version?$AA@ 004c85e0     cl_main.obj
 0002:000015e8       ??_C@_0O@IFNCIAOO@getmotd?5?$CC?$CFs?$CC?6?$AA@ 004c85e8     cl_main.obj
 0002:000015f8       ??_C@_0BK@MNOBFHCL@authorize?4quake3arena?4com?$AA@ 004c85f8     cl_main.obj
 0002:00001614       ??_C@_0M@KDAJBLAP@fs_restrict?$AA@ 004c8614     cl_main.obj
 0002:00001620       ??_C@_06GIKKBIFN@demota?$AA@ 004c8620     cl_main.obj
 0002:00001628       ??_C@_0N@IFIIDPHP@cl_anonymous?$AA@ 004c8628     cl_main.obj
 0002:00001638       ??_C@_0BG@FGGNFFEK@getKeyAuthorize?5?$CFi?5?$CFs?$AA@ 004c8638     cl_main.obj
 0002:00001650       ??_C@_0BM@PIMKCOAK@Not?5connected?5to?5a?5server?4?6?$AA@ 004c8650     cl_main.obj
 0002:0000166c       ??_C@_01NEMOKFLO@?$DN?$AA@ 004c866c     cl_main.obj
 0002:00001670       ??_C@_06BAKFFEGN@?$CFs?$DN?$CFs?6?$AA@ 004c8670     cl_main.obj
 0002:00001678       ??_C@_0O@PJAFINBM@?$CFs?5undefined?6?$AA@ 004c8678     cl_main.obj
 0002:00001688       ??_C@_0BG@JDIGCOKJ@ui_singlePlayerActive?$AA@ 004c8688     cl_main.obj
 0002:000016a0       ??_C@_0BJ@EBHAICOP@Disconnected?5from?5server?$AA@ 004c86a0     cl_main.obj
 0002:000016bc       ??_C@_0BP@KAEALGFM@Can?8t?5reconnect?5to?5localhost?4?6?$AA@ 004c86bc     cl_main.obj
 0002:000016dc       ??_C@_0M@LNGHCJI@connect?5?$CFs?6?$AA@ 004c86dc     cl_main.obj
 0002:000016e8       ??_C@_0BJ@JGJJEKBC@usage?3?5connect?5?$FLserver?$FN?6?$AA@ 004c86e8     cl_main.obj
 0002:00001704       ??_C@_0N@IAGKKNPJ@Server?5quit?6?$AA@ 004c8704     cl_main.obj
 0002:00001714       ??_C@_0BE@BMPNGILO@Bad?5server?5address?6?$AA@ 004c8714     cl_main.obj
 0002:00001728       ??_C@_0BI@OBPNNDLP@cl_currentServerAddress?$AA@ 004c8728     cl_main.obj
 0002:00001740       ??_C@_0DN@LCHLNDDC@You?5must?5set?5?8rconpassword?8?5befo@ 004c8740     cl_main.obj
 0002:00001780       ??_C@_05GCMNNKNG@rcon?5?$AA@ 004c8780     cl_main.obj
 0002:00001788       ??_C@_0FE@GKHHMJFK@You?5must?5either?5be?5connected?0?6or@ 004c8788     cl_main.obj
 0002:000017dc       ??_C@_03LBGAPDPL@Yf?5?$AA@ 004c87dc     cl_main.obj
 0002:000017e0       ??_C@_03JDANDILB@?$CFd?5?$AA@ 004c87e0     cl_main.obj
 0002:000017e4       ??_C@_03MCDIKHCL@vdr?$AA@  004c87e4     cl_main.obj
 0002:000017e8       ??_C@_09DIABHAFB@cl_paused?$AA@ 004c87e8     cl_main.obj
 0002:000017f4       ??_C@_0BG@KJOBEGLE@Opened?5PK3?5Names?3?5?$CFs?6?$AA@ 004c87f4     cl_main.obj
 0002:0000180c       ??_C@_0BK@GENIKODO@Referenced?5PK3?5Names?3?5?$CFs?6?$AA@ 004c880c     cl_main.obj
 0002:00001828       ??_C@_08JBKNBCEM@?$CF4i?3?5?$CFs?6?$AA@ 004c8828     cl_main.obj
 0002:00001834       ??_C@_0CI@OGJFLPIM@?9?9?9?9?9?9?9?9?9?5Client?5Information?5?9?9?9@ 004c8834     cl_main.obj
 0002:0000185c       ??_C@_0L@PILDHKCK@state?3?5?$CFi?6?$AA@ 004c885c     cl_main.obj
 0002:00001868       ??_C@_0M@CDCBGBHB@Server?3?5?$CFs?6?$AA@ 004c8868     cl_main.obj
 0002:00001874       ??_C@_0BF@CNHFFNEA@User?5info?5settings?3?6?$AA@ 004c8874     cl_main.obj
 0002:0000188c       ??_C@_0CI@DBDLLCJO@?9?9?9?9?9?9?9?9?9?9?9?9?9?9?9?9?9?9?9?9?9?9?9?9?9?9?9?9?9?9?9?9@ 004c888c     cl_main.obj
 0002:000018b4       ??_C@_06EIKEHMLC@donedl?$AA@ 004c88b4     cl_main.obj
 0002:000018c0       ??_C@_0FI@OJLPOMHD@?$CK?$CK?$CK?$CK?$CK?5CL_BeginDownload?5?$CK?$CK?$CK?$CK?$CK?6Loc@ 004c88c0     cl_main.obj
 0002:00001918       ??_C@_06IHDMMOPO@?$CFs?4tmp?$AA@ 004c8918     cl_main.obj
 0002:00001920       ??_C@_0BA@IMGLJLPN@cl_downloadSize?$AA@ 004c8920     cl_main.obj
 0002:00001930       ??_C@_0BB@FAHDFBEE@cl_downloadCount?$AA@ 004c8930     cl_main.obj
 0002:00001944       ??_C@_0BA@CHCCPCBI@cl_downloadTime?$AA@ 004c8944     cl_main.obj
 0002:00001954       ??_C@_0M@CDGAENEE@download?5?$CFs?$AA@ 004c8954     cl_main.obj
 0002:00001960       ??_C@_0LE@HBLDLCIC@?6WARNING?3?5You?5are?5missing?5some?5f@ 004c8960     cl_main.obj
 0002:00001a14       ??_C@_0P@LAKMDNN@Need?5paks?3?5?$CFs?6?$AA@ 004c8a14     cl_main.obj
 0002:00001a24       ??_C@_0N@FADCLAAC@getchallenge?$AA@ 004c8a24     cl_main.obj
 0002:00001a34       ??_C@_09HOOHLIKH@net_qport?$AA@ 004c8a34     cl_main.obj
 0002:00001a40       ??_C@_08FCFPNNHF@protocol?$AA@ 004c8a40     cl_main.obj
 0002:00001a4c       ??_C@_05IPCIHGO@qport?$AA@ 004c8a4c     cl_main.obj
 0002:00001a54       ??_C@_08CCJJPJEL@connect?5?$AA@ 004c8a54     cl_main.obj
 0002:00001a60       ??_C@_0CB@JLKOHGFD@CL_CheckForResend?3?5bad?5cls?4state@ 004c8a60     cl_main.obj
 0002:00001a84       ??_C@_0CI@POLDFEDD@Server?5disconnected?5for?5unknown?5@ 004c8a84     cl_main.obj
 0002:00001aac       ??_C@_0BB@GDGLAKGE@com_errorMessage?$AA@ 004c8aac     cl_main.obj
 0002:00001ac0       ??_C@_04GJFDDCGE@motd?$AA@ 004c8ac0     cl_main.obj
 0002:00001ac8       ??_C@_0O@GJFLJONJ@cl_motdString?$AA@ 004c8ac8     cl_main.obj
 0002:00001ad8       ??_C@_0BK@BOAAMPMC@CL_ServersResponsePacket?6?$AA@ 004c8ad8     cl_main.obj
 0002:00001af4       ??_C@_0BP@DMDBGEFJ@server?3?5?$CFd?5ip?3?5?$CFd?4?$CFd?4?$CFd?4?$CFd?3?$CFd?6?$AA@ 004c8af4     cl_main.obj
 0002:00001b14       ??_C@_0BO@DIFEDBKJ@?$CFd?5servers?5parsed?5?$CItotal?5?$CFd?$CJ?6?$AA@ 004c8b14     cl_main.obj
 0002:00001b34       ??_C@_0BC@IFKLHAPC@CL?5packet?5?$CFs?3?5?$CFs?6?$AA@ 004c8b34     cl_main.obj
 0002:00001b48       ??_C@_0BC@DGKDGAMO@challengeResponse?$AA@ 004c8b48     cl_main.obj
 0002:00001b5c       ??_C@_0DB@NPIBIHLP@Unwanted?5challenge?5response?5rece@ 004c8b5c     cl_main.obj
 0002:00001b90       ??_C@_0BH@HJNMAMEA@challengeResponse?3?5?$CFd?6?$AA@ 004c8b90     cl_main.obj
 0002:00001ba8       ??_C@_0BA@LMOGOADK@connectResponse?$AA@ 004c8ba8     cl_main.obj
 0002:00001bb8       ??_C@_0CB@DAMFFBNO@Dup?5connect?5received?4?5?5Ignored?4?6@ 004c8bb8     cl_main.obj
 0002:00001bdc       ??_C@_0DI@LOEOILK@connectResponse?5packet?5while?5not@ 004c8bdc     cl_main.obj
 0002:00001c14       ??_C@_0DF@MNDPKCCL@connectResponse?5from?5a?5different@ 004c8c14     cl_main.obj
 0002:00001c4c       ??_C@_0BI@OHPKCELG@?$CFs?5should?5have?5been?5?$CFs?6?$AA@ 004c8c4c     cl_main.obj
 0002:00001c64       ??_C@_0N@LMKIPMEE@infoResponse?$AA@ 004c8c64     cl_main.obj
 0002:00001c74       ??_C@_0P@DGEHCAPG@statusResponse?$AA@ 004c8c74     cl_main.obj
 0002:00001c84       ??_C@_04OFDNEFMC@echo?$AA@ 004c8c84     cl_main.obj
 0002:00001c8c       ??_C@_0N@KFCBIMP@keyAuthorize?$AA@ 004c8c8c     cl_main.obj
 0002:00001c9c       ??_C@_05IJDJACGD@print?$AA@ 004c8c9c     cl_main.obj
 0002:00001ca4       ??_C@_0BD@BBKFKIHA@getserversResponse?$AA@ 004c8ca4     cl_main.obj
 0002:00001cb8       ??_C@_0CI@KFHENOL@Unknown?5connectionless?5packet?5co@ 004c8cb8     cl_main.obj
 0002:00001ce0       ??_C@_0BB@JCENNPDP@?$CFs?3?5Runt?5packet?6?$AA@ 004c8ce0     cl_main.obj
 0002:00001cf4       ??_C@_0CI@KKHCEKLL@?$CFs?3sequenced?5packet?5without?5conn@ 004c8cf4     cl_main.obj
 0002:00001d1c       ??_C@_0BP@CBAODGNF@?6Server?5connection?5timed?5out?4?6?$AA@ 004c8d1c     cl_main.obj
 0002:00001d3c       ??_C@_0O@FJGEONLL@userinfo?5?$CC?$CFs?$CC?$AA@ 004c8d3c     cl_main.obj
 0002:00001d4c       ??_C@_0BD@MBKJOELF@screenshot?5silent?6?$AA@ 004c8d4c     cl_main.obj
 0002:00001d60       ??_C@_04GGPEIADJ@?$FO3?$CFs?$AA@ 004c8d60     cl_main.obj
 0002:00001d68       ??_C@_04MMPNEILC@?$FO1?$CFs?$AA@ 004c8d68     cl_main.obj
 0002:00001d70       ??_C@_0BA@FILGFBEK@gfx?12d?1bigchars?$AA@ 004c8d70     cl_main.obj
 0002:00001d80       ??_C@_05PMAELIEO@white?$AA@ 004c8d80     cl_main.obj
 0002:00001d88       ??_C@_07PMJAFAE@console?$AA@ 004c8d88     cl_main.obj
 0002:00001d90       ??_C@_0CC@CKFOOPEI@?9?9?9?9?9?5Initializing?5Renderer?5?9?9?9?9@ 004c8d90     cl_main.obj
 0002:00001db4       ??_C@_0CB@LHLKLKOG@?9?9?9?9?9?9?9?9?9?9?9?9?9?9?9?9?9?9?9?9?9?9?9?9?9?9?9?9?9?9?9?6@ 004c8db4     cl_main.obj
 0002:00001dd8       ??_C@_0BM@BKBAAMDA@Couldn?8t?5initialize?5refresh?$AA@ 004c8dd8     cl_main.obj
 0002:00001df4       ??_C@_05NCCFOPHA@model?$AA@ 004c8df4     cl_main.obj
 0002:00001dfc       ??_C@_09DHBBGOBJ@headmodel?$AA@ 004c8dfc     cl_main.obj
 0002:00001e08       ??_C@_0BE@BOKBONJL@model?5is?5set?5to?5?$CFs?6?$AA@ 004c8e08     cl_main.obj
 0002:00001e1c       ??_C@_0CD@IPKBNFJ@?9?9?9?9?9?5Client?5Initialization?5?9?9?9?9@ 004c8e1c     cl_main.obj
 0002:00001e40       ??_C@_0L@EEOFAGMJ@cl_noprint?$AA@ 004c8e40     cl_main.obj
 0002:00001e4c       ??_C@_07CFPJCBPL@cl_motd?$AA@ 004c8e4c     cl_main.obj
 0002:00001e54       ??_C@_03HPLEMDKK@200?$AA@  004c8e54     cl_main.obj
 0002:00001e58       ??_C@_0L@JCNOFHIK@cl_timeout?$AA@ 004c8e58     cl_main.obj
 0002:00001e64       ??_C@_0N@PNJIOFAD@cl_timeNudge?$AA@ 004c8e64     cl_main.obj
 0002:00001e74       ??_C@_0L@MNBOPENL@cl_shownet?$AA@ 004c8e74     cl_main.obj
 0002:00001e80       ??_C@_0M@FIFNOBJK@cl_showSend?$AA@ 004c8e80     cl_main.obj
 0002:00001e8c       ??_C@_0BB@FEJGPFPP@cl_showTimeDelta?$AA@ 004c8e8c     cl_main.obj
 0002:00001ea0       ??_C@_0O@NDLMCONH@cl_freezeDemo?$AA@ 004c8ea0     cl_main.obj
 0002:00001eb0       ??_C@_0N@DJJLAFOK@rconPassword?$AA@ 004c8eb0     cl_main.obj
 0002:00001ec0       ??_C@_08LGFIIHD@timedemo?$AA@ 004c8ec0     cl_main.obj
 0002:00001ecc       ??_C@_0L@EFFMDGHC@cl_avidemo?$AA@ 004c8ecc     cl_main.obj
 0002:00001ed8       ??_C@_0BA@HFABJKOC@cl_forceavidemo?$AA@ 004c8ed8     cl_main.obj
 0002:00001ee8       ??_C@_0M@OFMEHMGC@rconAddress?$AA@ 004c8ee8     cl_main.obj
 0002:00001ef4       ??_C@_03GKAIMEJI@140?$AA@  004c8ef4     cl_main.obj
 0002:00001ef8       ??_C@_0M@JHKIFKKF@cl_yawspeed?$AA@ 004c8ef8     cl_main.obj
 0002:00001f04       ??_C@_0O@KLONPPKB@cl_pitchspeed?$AA@ 004c8f04     cl_main.obj
 0002:00001f14       ??_C@_03GMOBGHL@1?45?$AA@  004c8f14     cl_main.obj
 0002:00001f18       ??_C@_0BB@FCKNHEAF@cl_anglespeedkey?$AA@ 004c8f18     cl_main.obj
 0002:00001f2c       ??_C@_02PJNFELNH@30?$AA@   004c8f2c     cl_main.obj
 0002:00001f30       ??_C@_06HFMKGFEH@cl_run?$AA@ 004c8f30     cl_main.obj
 0002:00001f38       ??_C@_0M@JFLMCFNC@sensitivity?$AA@ 004c8f38     cl_main.obj
 0002:00001f44       ??_C@_0O@EKMGNMKC@cl_mouseAccel?$AA@ 004c8f44     cl_main.obj
 0002:00001f54       ??_C@_0M@HDIJIOFC@cl_freelook?$AA@ 004c8f54     cl_main.obj
 0002:00001f60       ??_C@_0BB@JAAMCGDF@cl_showmouserate?$AA@ 004c8f60     cl_main.obj
 0002:00001f74       ??_C@_0BB@MLOALJHK@cl_allowDownload?$AA@ 004c8f74     cl_main.obj
 0002:00001f88       ??_C@_0O@PJLPEGOC@cl_conXOffset?$AA@ 004c8f88     cl_main.obj
 0002:00001f98       ??_C@_0O@EPDAEHAE@r_inGameVideo?$AA@ 004c8f98     cl_main.obj
 0002:00001fa8       ??_C@_03EOKBPBHD@750?$AA@  004c8fa8     cl_main.obj
 0002:00001fac       ??_C@_0BK@NLNALACG@cl_serverStatusResendTime?$AA@ 004c8fac     cl_main.obj
 0002:00001fc8       ??_C@_0O@JKEEFDLF@cg_autoswitch?$AA@ 004c8fc8     cl_main.obj
 0002:00001fd8       ??_C@_05OACFFLK@0?4022?$AA@ 004c8fd8     cl_main.obj
 0002:00001fe0       ??_C@_07JIEGLHEC@m_pitch?$AA@ 004c8fe0     cl_main.obj
 0002:00001fe8       ??_C@_05HPEILLPC@m_yaw?$AA@ 004c8fe8     cl_main.obj
 0002:00001ff0       ??_C@_04FNMPJLCB@0?425?$AA@ 004c8ff0     cl_main.obj
 0002:00001ff8       ??_C@_09CGJLBBDA@m_forward?$AA@ 004c8ff8     cl_main.obj
 0002:00002004       ??_C@_06NKCCGJAO@m_side?$AA@ 004c9004     cl_main.obj
 0002:0000200c       ??_C@_08BEMLPELN@m_filter?$AA@ 004c900c     cl_main.obj
 0002:00002018       ??_C@_03BAAJCDMO@800?$AA@  004c9018     cl_main.obj
 0002:0000201c       ??_C@_0L@KMOIMFOM@cl_maxPing?$AA@ 004c901c     cl_main.obj
 0002:00002028       ??_C@_0O@PCBPGDGA@UnnamedPlayer?$AA@ 004c9028     cl_main.obj
 0002:00002038       ??_C@_04MEMAJGDJ@name?$AA@ 004c9038     cl_main.obj
 0002:00002040       ??_C@_04NEFKOBHG@3000?$AA@ 004c9040     cl_main.obj
 0002:00002048       ??_C@_04HCCHHEEF@rate?$AA@ 004c9048     cl_main.obj
 0002:00002050       ??_C@_02PIBHCBOA@20?$AA@   004c9050     cl_main.obj
 0002:00002054       ??_C@_05DGPADKBM@snaps?$AA@ 004c9054     cl_main.obj
 0002:0000205c       ??_C@_05PDPNFFJO@sarge?$AA@ 004c905c     cl_main.obj
 0002:00002064       ??_C@_05MAECCALN@james?$AA@ 004c9064     cl_main.obj
 0002:0000206c       ??_C@_0L@KEDOKIKJ@team_model?$AA@ 004c906c     cl_main.obj
 0002:00002078       ??_C@_06IHCBDILC@?$CKjames?$AA@ 004c9078     cl_main.obj
 0002:00002080       ??_C@_0P@JMIBMNM@team_headmodel?$AA@ 004c9080     cl_main.obj
 0002:00002090       ??_C@_07OLKAFEPH@Stroggs?$AA@ 004c9090     cl_main.obj
 0002:00002098       ??_C@_09HOBGGEAD@g_redTeam?$AA@ 004c9098     cl_main.obj
 0002:000020a4       ??_C@_06GMDNOCON@Pagans?$AA@ 004c90a4     cl_main.obj
 0002:000020ac       ??_C@_0L@OOBNLHBJ@g_blueTeam?$AA@ 004c90ac     cl_main.obj
 0002:000020b8       ??_C@_01FAMBOPH@4?$AA@     004c90b8     cl_main.obj
 0002:000020bc       ??_C@_06IPMAANOD@color1?$AA@ 004c90bc     cl_main.obj
 0002:000020c4       ??_C@_06KEONFOCA@color2?$AA@ 004c90c4     cl_main.obj
 0002:000020cc       ??_C@_03GNABGMEE@100?$AA@  004c90cc     cl_main.obj
 0002:000020d0       ??_C@_08HBHLIHAM@handicap?$AA@ 004c90d0     cl_main.obj
 0002:000020dc       ??_C@_08OKGPDOIO@teamtask?$AA@ 004c90dc     cl_main.obj
 0002:000020e8       ??_C@_04ICKCIGNO@male?$AA@ 004c90e8     cl_main.obj
 0002:000020f0       ??_C@_03OMLNFKE@sex?$AA@   004c90f0     cl_main.obj
 0002:000020f4       ??_C@_08NLHBPEGP@password?$AA@ 004c90f4     cl_main.obj
 0002:00002100       ??_C@_0BA@PKAEEJJB@cg_predictItems?$AA@ 004c9100     cl_main.obj
 0002:00002110       ??_C@_0M@NABCNGBA@cg_viewsize?$AA@ 004c9110     cl_main.obj
 0002:0000211c       ??_C@_03LGLGIONO@cmd?$AA@  004c911c     cl_main.obj
 0002:00002120       ??_C@_0O@OBMKKPAG@configstrings?$AA@ 004c9120     cl_main.obj
 0002:00002130       ??_C@_0L@FEIAOOGN@clientinfo?$AA@ 004c9130     cl_main.obj
 0002:0000213c       ??_C@_0M@IJBIKBGC@snd_restart?$AA@ 004c913c     cl_main.obj
 0002:00002148       ??_C@_0M@DIIAMDPB@vid_restart?$AA@ 004c9148     cl_main.obj
 0002:00002154       ??_C@_06KKGOIHDP@record?$AA@ 004c9154     cl_main.obj
 0002:0000215c       ??_C@_04PLPNPBEF@demo?$AA@ 004c915c     cl_main.obj
 0002:00002164       ??_C@_09DHDJHDLH@cinematic?$AA@ 004c9164     cl_main.obj
 0002:00002170       ??_C@_0L@OLGNCHFI@stoprecord?$AA@ 004c9170     cl_main.obj
 0002:0000217c       ??_C@_07KAIBNCHO@connect?$AA@ 004c917c     cl_main.obj
 0002:00002184       ??_C@_09MCGBPECP@reconnect?$AA@ 004c9184     cl_main.obj
 0002:00002190       ??_C@_0N@OHPGBJMI@localservers?$AA@ 004c9190     cl_main.obj
 0002:000021a0       ??_C@_0O@BBKHNMKE@globalservers?$AA@ 004c91a0     cl_main.obj
 0002:000021b0       ??_C@_04CLKJCJJE@rcon?$AA@ 004c91b0     cl_main.obj
 0002:000021b8       ??_C@_06NMKMANLK@setenv?$AA@ 004c91b8     cl_main.obj
 0002:000021c0       ??_C@_04OONEELOO@ping?$AA@ 004c91c0     cl_main.obj
 0002:000021c8       ??_C@_0N@LJMIJCBN@serverstatus?$AA@ 004c91c8     cl_main.obj
 0002:000021d8       ??_C@_06NOAHJGOA@showip?$AA@ 004c91d8     cl_main.obj
 0002:000021e0       ??_C@_0O@HJFIEPKA@fs_openedList?$AA@ 004c91e0     cl_main.obj
 0002:000021f0       ??_C@_0BC@GPOKHKHA@fs_referencedList?$AA@ 004c91f0     cl_main.obj
 0002:00002204       ??_C@_0L@FBHMLJNH@cl_running?$AA@ 004c9204     cl_main.obj
 0002:00002210       ??_C@_0CM@KNFCNAPG@?9?9?9?9?9?5Client?5Initialization?5Comp@ 004c9210     cl_main.obj
 0002:0000223c       ??_C@_0BJ@EPBBJNIE@?9?9?9?9?9?5CL_Shutdown?5?9?9?9?9?9?6?$AA@ 004c923c     cl_main.obj
 0002:00002258       ??_C@_0BE@LMHMEFGD@recursive?5shutdown?6?$AA@ 004c9258     cl_main.obj
 0002:0000226c       ??_C@_08PPJNGBMG@userinfo?$AA@ 004c926c     cl_main.obj
 0002:00002278       ??_C@_0BJ@NDLHEOCN@?9?9?9?9?9?9?9?9?9?9?9?9?9?9?9?9?9?9?9?9?9?9?9?6?$AA@ 004c9278     cl_main.obj
 0002:00002294       ??_C@_07HKJFGNHJ@clients?$AA@ 004c9294     cl_main.obj
 0002:0000229c       ??_C@_08EHKIGBEA@hostname?$AA@ 004c929c     cl_main.obj
 0002:000022a8       ??_C@_0O@OCOCOONB@sv_maxclients?$AA@ 004c92a8     cl_main.obj
 0002:000022b8       ??_C@_04MJNAPEEI@game?$AA@ 004c92b8     cl_main.obj
 0002:000022c0       ??_C@_08NJPDEKHO@gametype?$AA@ 004c92c0     cl_main.obj
 0002:000022cc       ??_C@_07EAJPOACB@nettype?$AA@ 004c92cc     cl_main.obj
 0002:000022d4       ??_C@_07CKOKLBOM@minping?$AA@ 004c92d4     cl_main.obj
 0002:000022dc       ??_C@_07MMIKBOAN@maxping?$AA@ 004c92dc     cl_main.obj
 0002:000022e4       ??_C@_0L@CNOGMKDC@punkbuster?$AA@ 004c92e4     cl_main.obj
 0002:000022f0       ??_C@_0CE@BMBLKOLI@Different?5protocol?5info?5packet?3?5@ 004c92f0     cl_main.obj
 0002:00002314       ??_C@_0BI@DBADJLIK@ping?5time?5?$CFdms?5from?5?$CFs?6?$AA@ 004c9314     cl_main.obj
 0002:0000232c       ??_C@_02DPKJAMEF@?$CFd?$AA@ 004c932c     cl_main.obj
 0002:00002330       ??_C@_0CO@PDOECEBD@MAX_OTHER_SERVERS?5hit?0?5dropping?5@ 004c9330     cl_main.obj
 0002:00002360       ??_C@_06DJHOIPC@?$CFs?3?5?$CFs?$AA@ 004c9360     cl_main.obj
 0002:00002368       ??_C@_09EKLELPNI@getstatus?$AA@ 004c9368     cl_main.obj
 0002:00002374       ??_C@_0BC@KPIAKMPH@Server?5settings?3?6?$AA@ 004c9374     cl_main.obj
 0002:00002388       ??_C@_05FNFPHGDP@?$CF?924s?$AA@ 004c9388     cl_main.obj
 0002:00002390       ??_C@_0L@GBJHHNEK@?6Players?3?6?$AA@ 004c9390     cl_main.obj
 0002:0000239c       ??_C@_0BJ@FOGFOPMO@num?3?5score?3?5ping?3?5name?3?6?$AA@ 004c939c     cl_main.obj
 0002:000023b8       ??_C@_05OKMLJOMC@?$CFd?5?$CFd?$AA@ 004c93b8     cl_main.obj
 0002:000023c0       ??_C@_07CIFAGBMG@unknown?$AA@ 004c93c0     cl_main.obj
 0002:000023c8       ??_C@_0BK@GJAGDIHH@?$CF?92d?5?5?5?$CF?93d?5?5?5?5?$CF?93d?5?5?5?$CFs?6?$AA@ 004c93c8     cl_main.obj
 0002:000023e4       ??_C@_0CO@LIFGMECC@Scanning?5for?5servers?5on?5the?5loca@ 004c93e4     cl_main.obj
 0002:00002414       ??_C@_0BA@HEMALGFI@?$PP?$PP?$PP?$PPgetinfo?5xxx?$AA@ 004c9414     cl_main.obj
 0002:00002424       ??_C@_0DK@CEAJIEBF@usage?3?5globalservers?5?$DMmaster?$CD?50?9@ 004c9424     cl_main.obj
 0002:00002460       ??_C@_0CH@IJAABCGN@Requesting?5servers?5from?5the?5mast@ 004c9460     cl_main.obj
 0002:00002488       ??_C@_0BH@HJHKJDCC@master?4quake3arena?4com?$AA@ 004c9488     cl_main.obj
 0002:000024a0       ??_C@_0O@KMBAKMAC@getservers?5?$CFs?$AA@ 004c94a0     cl_main.obj
 0002:000024b0       ??_C@_03EEBNCBOD@?5?$CFs?$AA@ 004c94b0     cl_main.obj
 0002:000024b4       ??_C@_05ILLBKCMN@?5demo?$AA@ 004c94b4     cl_main.obj
 0002:000024bc       ??_C@_0BG@GCANHGBC@usage?3?5ping?5?$FLserver?$FN?6?$AA@ 004c94bc     cl_main.obj
 0002:000024d4       ??_C@_0M@PAOKIPMI@getinfo?5xxx?$AA@ 004c94d4     cl_main.obj
 0002:000024e0       ??_C@_0BO@PKCGGDHB@Usage?3?5serverstatus?5?$FLserver?$FN?6?$AA@ 004c94e0     cl_main.obj
 0002:00002500       ??_C@_04NOJCDH@?$CF02x?$AA@ 004c9500     cl_main.obj
 0002:00002508       __real@3fd0000000000000    004c9508     cl_main.obj
 0002:00002510       ??_C@_07NKDCEGCG@svc_bad?$AA@ 004c9510     cl_parse.obj
 0002:00002518       ??_C@_07LENEADMB@svc_nop?$AA@ 004c9518     cl_parse.obj
 0002:00002520       ??_C@_0O@LFJOIOEL@svc_gamestate?$AA@ 004c9520     cl_parse.obj
 0002:00002530       ??_C@_0BB@FCKFJGAJ@svc_configstring?$AA@ 004c9530     cl_parse.obj
 0002:00002544       ??_C@_0N@BGKJKGIK@svc_baseline?$AA@ 004c9544     cl_parse.obj
 0002:00002554       ??_C@_0BC@MPNLMMMD@svc_serverCommand?$AA@ 004c9554     cl_parse.obj
 0002:00002568       ??_C@_0N@NJJNDAEC@svc_download?$AA@ 004c9568     cl_parse.obj
 0002:00002578       ??_C@_0N@NPHPNCMK@svc_snapshot?$AA@ 004c9578     cl_parse.obj
 0002:00002588       ??_C@_07ENBOGMFB@?$CF3i?3?$CFs?6?$AA@ 004c9588     cl_parse.obj
 0002:00002590       ??_C@_0CH@FIOHCEPK@CL_ParsePacketEntities?3?5end?5of?5m@ 004c9590     cl_parse.obj
 0002:000025b8       ??_C@_0BF@DMOLEINN@?$CF3i?3?5?5unchanged?3?5?$CFi?6?$AA@ 004c95b8     cl_parse.obj
 0002:000025d0       ??_C@_0BB@PEEFLBGI@?$CF3i?3?5?5delta?3?5?$CFi?6?$AA@ 004c95d0     cl_parse.obj
 0002:000025e4       ??_C@_0BE@HJHAKBFM@?$CF3i?3?5?5baseline?3?5?$CFi?6?$AA@ 004c95e4     cl_parse.obj
 0002:000025f8       ??_C@_0DF@IPHEMKHH@Delta?5from?5invalid?5frame?5?$CInot?5su@ 004c95f8     cl_parse.obj
 0002:00002630       ??_C@_0BG@KNOBNHLI@Delta?5frame?5too?5old?4?6?$AA@ 004c9630     cl_parse.obj
 0002:00002648       ??_C@_0CB@DKGPPJCN@Delta?5parseEntitiesNum?5too?5old?4?6@ 004c9648     cl_parse.obj
 0002:0000266c       ??_C@_0M@DCHLDPOO@playerstate?$AA@ 004c966c     cl_parse.obj
 0002:00002678       ??_C@_0BA@HLANGOLO@packet?5entities?$AA@ 004c9678     cl_parse.obj
 0002:00002688       ??_C@_0CD@OFCDBLEN@?5?5?5snapshot?3?$CFi?5?5delta?3?$CFi?5?5ping?3?$CF@ 004c9688     cl_parse.obj
 0002:000026ac       ??_C@_0M@KIKMJPNG@sv_serverid?$AA@ 004c96ac     cl_parse.obj
 0002:000026b8       ??_C@_07PALKJHIL@sv_paks?$AA@ 004c96b8     cl_parse.obj
 0002:000026c0       ??_C@_0M@POGHGNMP@sv_pakNames?$AA@ 004c96c0     cl_parse.obj
 0002:000026cc       ??_C@_0BC@GMMNJNGA@sv_referencedPaks?$AA@ 004c96cc     cl_parse.obj
 0002:000026e0       ??_C@_0BG@GLEJBOHO@sv_referencedPakNames?$AA@ 004c96e0     cl_parse.obj
 0002:000026f8       ??_C@_07FMAMAFJE@fs_game?$AA@ 004c96f8     cl_parse.obj
 0002:00002700       ??_C@_07CAKOHKGL@sv_pure?$AA@ 004c9700     cl_parse.obj
 0002:00002708       ??_C@_0CB@MJAKJKGN@Baseline?5number?5out?5of?5range?3?5?$CFi@ 004c9708     cl_parse.obj
 0002:0000272c       ??_C@_0CE@PAKDFLME@CL_ParseGamestate?3?5bad?5command?5b@ 004c972c     cl_parse.obj
 0002:00002750       ??_C@_0CN@HEADJFOK@CL_ParseDownload?3?5Expected?5block@ 004c9750     cl_parse.obj
 0002:00002780       ??_C@_0DI@JKPJCOJB@Server?5sending?5download?0?5but?5no?5@ 004c9780     cl_parse.obj
 0002:000027b8       ??_C@_06NJGLKCLH@stopdl?$AA@ 004c97b8     cl_parse.obj
 0002:000027c0       ??_C@_0BF@FEBHKNJL@Could?5not?5create?5?$CFs?6?$AA@ 004c97c0     cl_parse.obj
 0002:000027d8       ??_C@_09PCLPELCK@nextdl?5?$CFd?$AA@ 004c97d8     cl_parse.obj
 0002:000027e4       ??_C@_0BE@OPHJAJHM@?9?9?9?9?9?9?9?9?9?9?9?9?9?9?9?9?9?9?6?$AA@ 004c97e4     cl_parse.obj
 0002:000027f8       ??_C@_0DH@BBFPEAJH@CL_ParseServerMessage?3?5read?5past@ 004c97f8     cl_parse.obj
 0002:00002830       ??_C@_0P@OAODPOMK@END?5OF?5MESSAGE?$AA@ 004c9830     cl_parse.obj
 0002:00002840       ??_C@_0BA@JPKIBJNA@?$CF3i?3BAD?5CMD?5?$CFi?6?$AA@ 004c9840     cl_parse.obj
 0002:00002850       ??_C@_0DB@FPIIIAAE@CL_ParseServerMessage?3?5Illegible@ 004c9850     cl_parse.obj
 0002:00002884       ??_C@_0BC@LNEGBKC@RECORDING?5?$CFs?3?5?$CFik?$AA@ 004c9884     cl_scrn.obj
 0002:00002898       ??_C@_09GNNLMGGI@timegraph?$AA@ 004c9898     cl_scrn.obj
 0002:000028a4       ??_C@_0L@HHCDLFPE@debuggraph?$AA@ 004c98a4     cl_scrn.obj
 0002:000028b0       ??_C@_02MLODCJFF@32?$AA@   004c98b0     cl_scrn.obj
 0002:000028b4       ??_C@_0M@GMACCADH@graphheight?$AA@ 004c98b4     cl_scrn.obj
 0002:000028c0       ??_C@_0L@MJMDNBMK@graphscale?$AA@ 004c98c0     cl_scrn.obj
 0002:000028cc       ??_C@_0L@CFOJGOPC@graphshift?$AA@ 004c98cc     cl_scrn.obj
 0002:000028d8       ??_C@_0BP@GMBCBCMM@draw?5screen?5without?5UI?5loaded?6?$AA@ 004c98d8     cl_scrn.obj
 0002:000028f8       ??_C@_0CD@LIPOMDOG@SCR_DrawScreenField?3?5bad?5cls?4sta@ 004c98f8     cl_scrn.obj
 0002:0000291c       ??_C@_0CF@GEKBNHMI@SCR_UpdateScreen?3?5recursively?5ca@ 004c991c     cl_scrn.obj
 0002:00002944       __real@3d800000            004c9944     cl_scrn.obj
 0002:00002948       __real@3fb0000000000000    004c9948     cl_scrn.obj
 0002:00002950       __real@407e000000000000    004c9950     cl_scrn.obj
 0002:00002958       __real@4084000000000000    004c9958     cl_scrn.obj
 0002:00002960       ??_C@_0BA@JEMDJBMB@servercache?4dat?$AA@ 004c9960     cl_ui.obj
 0002:00002970       ??_C@_04HLBMEOMD@addr?$AA@ 004c9970     cl_ui.obj
 0002:00002978       ??_C@_0BG@JBIBCIPI@UI_CIN_PlayCinematic?6?$AA@ 004c9978     cl_ui.obj
 0002:00002990       ??_C@_0BH@PNNHGENL@Bad?5UI?5system?5trap?3?5?$CFi?$AA@ 004c9990     cl_ui.obj
 0002:000029a8       ??_C@_05IHIPGGNN@vm_ui?$AA@ 004c99a8     cl_ui.obj
 0002:000029b0       ??_C@_02OGLLFMLI@ui?$AA@   004c99b0     cl_ui.obj
 0002:000029b4       ??_C@_0BH@ECPNONCF@VM_Create?5on?5UI?5failed?$AA@ 004c99b4     cl_ui.obj
 0002:000029cc       ??_C@_0CK@FNGBPDDH@User?5Interface?5is?5version?5?$CFd?0?5ex@ 004c99cc     cl_ui.obj
 0002:000029f8       ??_C@_0BI@JEHEKKKP@?9?9?9?9?9?5Sound?5Info?5?9?9?9?9?9?6?$AA@ 004c99f8     snd_dma.obj
 0002:00002a10       ??_C@_0BK@NEOOOKPB@sound?5system?5not?5started?6?$AA@ 004c9a10     snd_dma.obj
 0002:00002a2c       ??_C@_0BH@MEMPFHHG@sound?5system?5is?5muted?6?$AA@ 004c9a2c     snd_dma.obj
 0002:00002a44       ??_C@_0M@FDDHHICE@?$CF5d?5stereo?6?$AA@ 004c9a44     snd_dma.obj
 0002:00002a50       ??_C@_0N@LFEODKMK@?$CF5d?5samples?6?$AA@ 004c9a50     snd_dma.obj
 0002:00002a60       ??_C@_0BA@HGOIHECG@?$CF5d?5samplebits?6?$AA@ 004c9a60     snd_dma.obj
 0002:00002a70       ??_C@_0BG@FOGLIFDD@?$CF5d?5submission_chunk?6?$AA@ 004c9a70     snd_dma.obj
 0002:00002a88       ??_C@_0L@CLCJCFAJ@?$CF5d?5speed?6?$AA@ 004c9a88     snd_dma.obj
 0002:00002a94       ??_C@_0BB@DLHOOLMA@0x?$CFx?5dma?5buffer?6?$AA@ 004c9a94     snd_dma.obj
 0002:00002aa8       ??_C@_0BF@DBAKANBB@Background?5file?3?5?$CFs?6?$AA@ 004c9aa8     snd_dma.obj
 0002:00002ac0       ??_C@_0BF@PIJCDGGI@No?5background?5file?4?6?$AA@ 004c9ac0     snd_dma.obj
 0002:00002ad8       ??_C@_0BI@FLKKINBM@?9?9?9?9?9?9?9?9?9?9?9?9?9?9?9?9?9?9?9?9?9?9?6?$AA@ 004c9ad8     snd_dma.obj
 0002:00002af0       ??_C@_0CH@FFLNOAMN@?6?9?9?9?9?9?9?9?5sound?5initialization?5?9?9@ 004c9af0     snd_dma.obj
 0002:00002b18       ??_C@_03LNMAPFD@0?48?$AA@  004c9b18     snd_dma.obj
 0002:00002b1c       ??_C@_08HCGCKAMG@s_volume?$AA@ 004c9b1c     snd_dma.obj
 0002:00002b28       ??_C@_0O@DCFOJKGE@s_musicvolume?$AA@ 004c9b28     snd_dma.obj
 0002:00002b38       ??_C@_03LOHCHBBO@0?45?$AA@ 004c9b38     snd_dma.obj
 0002:00002b3c       ??_C@_0N@EPGANNDD@s_separation?$AA@ 004c9b3c     snd_dma.obj
 0002:00002b4c       ??_C@_09FFKKACPC@s_doppler?$AA@ 004c9b4c     snd_dma.obj
 0002:00002b58       ??_C@_02MKCBEDGC@22?$AA@   004c9b58     snd_dma.obj
 0002:00002b5c       ??_C@_05GPLACMP@s_khz?$AA@ 004c9b5c     snd_dma.obj
 0002:00002b64       ??_C@_03PBDDOHNJ@0?42?$AA@ 004c9b64     snd_dma.obj
 0002:00002b68       ??_C@_0L@CIDOAMPN@s_mixahead?$AA@ 004c9b68     snd_dma.obj
 0002:00002b74       ??_C@_04FOELEPEP@0?405?$AA@ 004c9b74     snd_dma.obj
 0002:00002b7c       ??_C@_0N@MILGKHMC@s_mixPreStep?$AA@ 004c9b7c     snd_dma.obj
 0002:00002b8c       ??_C@_06CBNOHGMK@s_show?$AA@ 004c9b8c     snd_dma.obj
 0002:00002b94       ??_C@_0M@GGPLEHOA@s_testsound?$AA@ 004c9b94     snd_dma.obj
 0002:00002ba0       ??_C@_0M@NLIFPOIG@s_initsound?$AA@ 004c9ba0     snd_dma.obj
 0002:00002bac       ??_C@_0BD@FJHCPMAJ@not?5initializing?4?6?$AA@ 004c9bac     snd_dma.obj
 0002:00002bc0       ??_C@_0CG@KGENGPKN@?9?9?9?9?9?9?9?9?9?9?9?9?9?9?9?9?9?9?9?9?9?9?9?9?9?9?9?9?9?9?9?9@ 004c9bc0     snd_dma.obj
 0002:00002be8       ??_C@_04GBHMDDO@play?$AA@  004c9be8     snd_dma.obj
 0002:00002bf0       ??_C@_05LLDJOKNO@music?$AA@ 004c9bf0     snd_dma.obj
 0002:00002bf8       ??_C@_06EFMDBICL@s_list?$AA@ 004c9bf8     snd_dma.obj
 0002:00002c00       ??_C@_06KDCPAFOD@s_info?$AA@ 004c9c00     snd_dma.obj
 0002:00002c08       ??_C@_06HEFAAICK@s_stop?$AA@ 004c9c08     snd_dma.obj
 0002:00002c10       ??_C@_0CA@PLLGIKIN@Channel?5memory?5manager?5started?6?$AA@ 004c9c10     snd_dma.obj
 0002:00002c30       ??_C@_09MAAKNOCD@stopsound?$AA@ 004c9c30     snd_dma.obj
 0002:00002c3c       ??_C@_09CJIFEKFJ@soundlist?$AA@ 004c9c3c     snd_dma.obj
 0002:00002c48       ??_C@_09MPGJFHJB@soundinfo?$AA@ 004c9c48     snd_dma.obj
 0002:00002c54       ??_C@_0BC@JMCPOJBP@S_FindName?3?5NULL?6?$AA@ 004c9c54     snd_dma.obj
 0002:00002c68       ??_C@_0BI@MBEBGPGI@S_FindName?3?5empty?5name?6?$AA@ 004c9c68     snd_dma.obj
 0002:00002c80       ??_C@_0BI@FNMGDFHG@Sound?5name?5too?5long?3?5?$CFs?$AA@ 004c9c80     snd_dma.obj
 0002:00002c98       ??_C@_0BJ@ONEALDEO@S_FindName?3?5out?5of?5sfx_t?$AA@ 004c9c98     snd_dma.obj
 0002:00002cb4       ??_C@_0BH@PPLJNIIB@sound?1feedback?1hit?4wav?$AA@ 004c9cb4     snd_dma.obj
 0002:00002ccc       ??_C@_0BO@KNMPIDHG@Sound?5name?5exceeds?5MAX_QPATH?6?$AA@ 004c9ccc     snd_dma.obj
 0002:00002cec       ??_C@_0CO@KFOCFNID@?$FO3WARNING?3?5could?5not?5find?5?$CFs?5?9?5u@ 004c9cec     snd_dma.obj
 0002:00002d1c       ??_C@_0BP@PLEMPNLH@S_StartSound?3?5bad?5entitynum?5?$CFi?$AA@ 004c9d1c     snd_dma.obj
 0002:00002d3c       ??_C@_0CG@MHCEPADK@S_StartSound?3?5handle?5?$CFi?5out?5of?5r@ 004c9d3c     snd_dma.obj
 0002:00002d64       ??_C@_02JCPHEAGH@?$FO3?$AA@ 004c9d64     snd_dma.obj
 0002:00002d68       ??_C@_08IOBNMEPB@?$CFi?5?3?5?$CFs?6?$AA@ 004c9d68     snd_dma.obj
 0002:00002d74       ??_C@_0BA@EKACNJLN@dropping?5sound?6?$AA@ 004c9d74     snd_dma.obj
 0002:00002d84       ??_C@_0CL@JCKKLMHG@S_StartLocalSound?3?5handle?5?$CFi?5out@ 004c9d84     snd_dma.obj
 0002:00002db0       ??_C@_0CL@NOGDPHFG@S_AddLoopingSound?3?5handle?5?$CFi?5out@ 004c9db0     snd_dma.obj
 0002:00002ddc       ??_C@_0BA@JCBCPJHP@?$CFs?5has?5length?50?$AA@ 004c9ddc     snd_dma.obj
 0002:00002dec       ??_C@_0CP@ECDOCLA@S_AddRealLoopingSound?3?5handle?5?$CFi@ 004c9dec     snd_dma.obj
 0002:00002e1c       ??_C@_0CK@EAFGMFOG@S_RawSamples?3?5resetting?5minimum?3@ 004c9e1c     snd_dma.obj
 0002:00002e48       ??_C@_0CC@BJECBNFP@S_RawSamples?3?5overflowed?5?$CFi?5?$DO?5?$CFi@ 004c9e48     snd_dma.obj
 0002:00002e6c       ??_C@_0CJ@FABAALOF@S_UpdateEntityPosition?3?5bad?5enti@ 004c9e6c     snd_dma.obj
 0002:00002e98       ??_C@_0BG@BFIOFFAA@not?5started?5or?5muted?6?$AA@ 004c9e98     snd_dma.obj
 0002:00002eb0       ??_C@_09NKFDHBJC@?$CFf?5?$CFf?5?$CFs?6?$AA@ 004c9eb0     snd_dma.obj
 0002:00002ebc       ??_C@_0BK@LAAFJK@?9?9?9?9?$CI?$CFi?$CJ?9?9?9?9?5painted?3?5?$CFi?6?$AA@ 004c9ebc     snd_dma.obj
 0002:00002ed8       ??_C@_06MKMJDPPC@?$CFs?4wav?$AA@ 004c9ed8     snd_dma.obj
 0002:00002ee0       ??_C@_0BO@IEIFFKHL@music?5?$DMmusicfile?$DO?5?$FLloopfile?$FN?6?$AA@ 004c9ee0     snd_dma.obj
 0002:00002f00       ??_C@_05DCAALEKH@16bit?$AA@ 004c9f00     snd_dma.obj
 0002:00002f08       ??_C@_05BANKJDCB@adpcm?$AA@ 004c9f08     snd_dma.obj
 0002:00002f10       ??_C@_05NFJCPBPK@daub4?$AA@ 004c9f10     snd_dma.obj
 0002:00002f18       ??_C@_05JDPOCLPK@mulaw?$AA@ 004c9f18     snd_dma.obj
 0002:00002f20       ??_C@_09IKAMNOEC@paged?5out?$AA@ 004c9f20     snd_dma.obj
 0002:00002f2c       ??_C@_09BLPOEION@resident?5?$AA@ 004c9f2c     snd_dma.obj
 0002:00002f38       ??_C@_0BC@HICHNCDI@?$CF6i?$FL?$CFs?$FN?5?3?5?$CFs?$FL?$CFs?$FN?6?$AA@ 004c9f38     snd_dma.obj
 0002:00002f4c       ??_C@_0BE@FOMELIJC@Total?5resident?3?5?$CFi?6?$AA@ 004c9f4c     snd_dma.obj
 0002:00002f60       ??_C@_0CC@NGKFCGIG@S_StartBackgroundTrack?$CI?5?$CFs?0?5?$CFs?5?$CJ@ 004c9f60     snd_dma.obj
 0002:00002f84       ??_C@_04IBLEHOMF@?4wav?$AA@ 004c9f84     snd_dma.obj
 0002:00002f8c       ??_C@_0CI@BJIPAJDD@?$FO3WARNING?3?5couldn?8t?5open?5music?5f@ 004c9f8c     snd_dma.obj
 0002:00002fb4       ??_C@_04CAJPEBPP@fmt?5?$AA@ 004c9fb4     snd_dma.obj
 0002:00002fbc       ??_C@_0BE@CADIOBKC@No?5fmt?5chunk?5in?5?$CFs?6?$AA@ 004c9fbc     snd_dma.obj
 0002:00002fd0       ??_C@_0CE@GKPHMJFG@Not?5a?5microsoft?5PCM?5format?5wav?3?5@ 004c9fd0     snd_dma.obj
 0002:00002ff4       ??_C@_0CM@GEAHPJEC@?$FO3WARNING?3?5music?5file?5?$CFs?5is?5not?5@ 004c9ff4     snd_dma.obj
 0002:00003020       ??_C@_04PJOLNDGD@data?$AA@ 004ca020     snd_dma.obj
 0002:00003028       ??_C@_0BF@OFMFCFOH@No?5data?5chunk?5in?5?$CFs?6?$AA@ 004ca028     snd_dma.obj
 0002:00003040       ??_C@_0CF@BHKHLDOB@StreamedRead?5failure?5on?5music?5tr@ 004ca040     snd_dma.obj
 0002:00003068       ??_C@_0CF@BDGBFLDG@S_FreeOldestSound?3?5freeing?5sound@ 004ca068     snd_dma.obj
 0002:00003090       __real@3a51b717            004ca090     snd_dma.obj
 0002:00003094       __real@3e800000            004ca094     snd_dma.obj
 0002:00003098       __real@3f847ae147ae147b    004ca098     snd_dma.obj
 0002:000030a0       __real@3ff0000000000000    004ca0a0     snd_dma.obj
 0002:000030a8       __real@41300000            004ca0a8     snd_dma.obj
 0002:000030ac       __real@42a00000            004ca0ac     snd_dma.obj
 0002:000030b0       __real@43800000            004ca0b0     snd_dma.obj
 0002:000030b4       ??_C@_01KJLJFBPL@8?$AA@    004ca0b4     snd_mem.obj
 0002:000030b8       ??_C@_0O@HNCJJOBC@com_soundMegs?$AA@ 004ca0b8     snd_mem.obj
 0002:000030c8       ??_C@_0BO@JLIKIDHN@Sound?5memory?5manager?5started?6?$AA@ 004ca0c8     snd_mem.obj
 0002:000030e8       ??_C@_04EPCGJKAP@RIFF?$AA@ 004ca0e8     snd_mem.obj
 0002:000030f0       ??_C@_04HFHJMNCD@WAVE?$AA@ 004ca0f0     snd_mem.obj
 0002:000030f8       ??_C@_0BK@HIFIFFLN@Missing?5RIFF?1WAVE?5chunks?6?$AA@ 004ca0f8     snd_mem.obj
 0002:00003114       ??_C@_0BD@FLDJFMEC@Missing?5fmt?5chunk?6?$AA@ 004ca114     snd_mem.obj
 0002:00003128       ??_C@_0BL@LLPLMHJH@Microsoft?5PCM?5format?5only?6?$AA@ 004ca128     snd_mem.obj
 0002:00003144       ??_C@_0BE@DOAIJNHB@Missing?5data?5chunk?6?$AA@ 004ca144     snd_mem.obj
 0002:00003158       ??_C@_0BJ@LNMLELKA@?$CFs?5is?5a?5stereo?5wav?5file?6?$AA@ 004ca158     snd_mem.obj
 0002:00003174       ??_C@_0CD@BHGEJMMG@?$FO3WARNING?3?5?$CFs?5is?5a?58?5bit?5wav?5fil@ 004ca174     snd_mem.obj
 0002:00003198       ??_C@_0CH@DLPNPMAK@?$FO3WARNING?3?5?$CFs?5is?5not?5a?522kHz?5wav@ 004ca198     snd_mem.obj
 0002:000031c0       ??_C@_0DC@PNBPCCNC@?$CFd?5bytes?5free?5sound?5buffer?5memor@ 004ca1c0     snd_mem.obj
 0002:000031f8       __real@3fb999999999999a    004ca1f8     snd_mix.obj
 0002:00003200       __real@4070000000000000    004ca200     snd_mix.obj
 0002:00003208       __real@40d3880000000000    004ca208     snd_mix.obj
 0002:00003210       __real@437f0000            004ca210     snd_mix.obj
 0002:00003214       __real@44800000            004ca214     snd_mix.obj
 0002:00003218       __real@45000000            004ca218     snd_mix.obj
 0002:00003220       __real@3fc0907dc1930691    004ca220     snd_wavelet.obj
 0002:00003228       __real@3fccb0bf0b6b7109    004ca228     snd_wavelet.obj
 0002:00003230       __real@3fdee8dd4748bf14    004ca230     snd_wavelet.obj
 0002:00003238       __real@3feac4bdd6e3fd71    004ca238     snd_wavelet.obj
 0002:00003240       __real@46fffe00            004ca240     snd_wavelet.obj
 0002:00003244       __real@37800000            004ca244     q_math.obj
 0002:00003248       __real@3c8efa35            004ca248     q_math.obj
 0002:0000324c       __real@3fc00000            004ca24c     q_math.obj
 0002:00003250       __real@4000000000000000    004ca250     q_math.obj
 0002:00003258       __real@400921fb60000000    004ca258     q_math.obj
 0002:00003260       __real@40490fdb            004ca260     q_math.obj
 0002:00003268       __real@4066800000000000    004ca268     q_math.obj
 0002:00003270       __real@4076800000000000    004ca270     q_math.obj
 0002:00003278       __real@43340000            004ca278     q_math.obj
 0002:0000327c       __real@43870000            004ca27c     q_math.obj
 0002:00003280       __real@bf800000            004ca280     q_math.obj
 0002:00003284       __real@c3340000            004ca284     q_math.obj
 0002:00003290       __xmm@7fffffffffffffff7fffffffffffffff 004ca290     q_math.obj
 0002:000032a0       ??_C@_04HDOCAJNK@?$CFs?$CFs?$AA@ 004ca2a0     q_shared.obj
 0002:000032a8       ??_C@_01ODHLEDKK@?$CI?$AA@ 004ca2a8     q_shared.obj
 0002:000032ac       ??_C@_01PKGAHCOL@?$CJ?$AA@ 004ca2ac     q_shared.obj
 0002:000032b0       ??_C@_0BG@EKAPNPCH@Q_strncpyz?3?5NULL?5dest?$AA@ 004ca2b0     q_shared.obj
 0002:000032c8       ??_C@_0BF@BJHHBLMD@Q_strncpyz?3?5NULL?5src?$AA@ 004ca2c8     q_shared.obj
 0002:000032e0       ??_C@_0BJ@OLBOPICM@Q_strncpyz?3?5destsize?5?$DM?51?$AA@ 004ca2e0     q_shared.obj
 0002:000032fc       ??_C@_0BN@EFOOAHFL@Q_strcat?3?5already?5overflowed?$AA@ 004ca2fc     q_shared.obj
 0002:0000331c       ??_C@_0CC@GMEFDOKA@Com_sprintf?3?5overflowed?5bigbuffe@ 004ca31c     q_shared.obj
 0002:00003340       ??_C@_0CD@GIPJKOOD@Com_sprintf?3?5overflow?5of?5?$CFi?5in?5?$CF@ 004ca340     q_shared.obj
 0002:00003364       ??_C@_0CG@FLHABLN@Info_ValueForKey?3?5oversize?5infos@ 004ca364     q_shared.obj
 0002:0000338c       ??_C@_0CE@HMPLGKDK@Info_RemoveKey?3?5oversize?5infostr@ 004ca38c     q_shared.obj
 0002:000033b0       ??_C@_0CI@CPIEPBLO@Info_RemoveKey_Big?3?5oversize?5inf@ 004ca3b0     q_shared.obj
 0002:000033d8       ??_C@_0CJ@CEEBDGNA@Info_SetValueForKey?3?5oversize?5in@ 004ca3d8     q_shared.obj
 0002:00003404       ??_C@_0CD@JIDDAEOO@Can?8t?5use?5keys?5or?5values?5with?5a?5@ 004ca404     q_shared.obj
 0002:00003428       ??_C@_0CL@JCFAGLFD@Can?8t?5use?5keys?5or?5values?5with?5a?5@ 004ca428     q_shared.obj
 0002:00003454       ??_C@_0CD@MGFMEBLE@Can?8t?5use?5keys?5or?5values?5with?5a?5@ 004ca454     q_shared.obj
 0002:00003478       ??_C@_06NELKLDPM@?2?$CFs?2?$CFs?$AA@ 004ca478     q_shared.obj
 0002:00003480       ??_C@_0BN@CAOBGKLE@Info?5string?5length?5exceeded?6?$AA@ 004ca480     q_shared.obj
 0002:000034a0       ??_C@_0CB@EMDOOGBI@BIG?5Info?5string?5length?5exceeded?6@ 004ca4a0     q_shared.obj
 0002:000034c4       ??_C@_0BI@JOMBKBLK@Cbuf_AddText?3?5overflow?6?$AA@ 004ca4c4     cmd.obj
 0002:000034dc       ??_C@_0BM@KMPIOOIF@Cbuf_InsertText?5overflowed?6?$AA@ 004ca4dc     cmd.obj
 0002:000034f8       ??_C@_0CA@HHKKPMIM@Cbuf_ExecuteText?3?5bad?5exec_when?$AA@ 004ca4f8     cmd.obj
 0002:00003518       ??_C@_0CJ@HNMBJIBF@exec?5?$DMfilename?$DO?5?3?5execute?5a?5scri@ 004ca518     cmd.obj
 0002:00003544       ??_C@_04IFJILJI@?4cfg?$AA@ 004ca544     cmd.obj
 0002:0000354c       ??_C@_0BC@EKILBLKK@couldn?8t?5exec?5?$CFs?6?$AA@ 004ca54c     cmd.obj
 0002:00003560       ??_C@_0M@NJLDBOCK@execing?5?$CFs?6?$AA@ 004ca560     cmd.obj
 0002:0000356c       ??_C@_0DC@EJOKMNAB@vstr?5?$DMvariablename?$DO?5?3?5execute?5a?5@ 004ca56c     cmd.obj
 0002:000035a0       ??_C@_03IKGEINEE@?$CFs?5?$AA@ 004ca5a0     cmd.obj
 0002:000035a4       ??_C@_0CE@BLDHFDBK@Cmd_AddCommand?3?5?$CFs?5already?5defin@ 004ca5a4     cmd.obj
 0002:000035c8       ??_C@_0N@IIIOLKJI@?$CFi?5commands?6?$AA@ 004ca5c8     cmd.obj
 0002:000035d8       ??_C@_07LKLFKPJJ@cmdlist?$AA@ 004ca5d8     cmd.obj
 0002:000035e0       ??_C@_04MGEIEJAD@exec?$AA@ 004ca5e0     cmd.obj
 0002:000035e8       ??_C@_04HIDEMJAH@vstr?$AA@ 004ca5e8     cmd.obj
 0002:000035f0       ??_C@_04PNOAOIAG@wait?$AA@ 004ca5f0     cmd.obj
 0002:000035f8       ??_C@_0CC@IBCMNOCH@CMod_LoadShaders?3?5funny?5lump?5siz@ 004ca5f8     cm_load.obj
 0002:0000361c       ??_C@_0BE@ELELOBLD@Map?5with?5no?5shaders?$AA@ 004ca61c     cm_load.obj
 0002:00003630       ??_C@_0CE@MGJNCBPJ@CMod_LoadSubmodels?3?5funny?5lump?5s@ 004ca630     cm_load.obj
 0002:00003654       ??_C@_0BD@MKELOBFD@Map?5with?5no?5models?$AA@ 004ca654     cm_load.obj
 0002:00003668       ??_C@_0BH@CCEOEHI@MAX_SUBMODELS?5exceeded?$AA@ 004ca668     cm_load.obj
 0002:00003680       ??_C@_0CA@CGOMLOLO@MOD_LoadBmodel?3?5funny?5lump?5size?$AA@ 004ca680     cm_load.obj
 0002:000036a0       ??_C@_0BB@GPGCHEBB@Map?5has?5no?5nodes?$AA@ 004ca6a0     cm_load.obj
 0002:000036b4       ??_C@_0CE@NNCDCDMG@CMod_LoadBrushes?3?5bad?5shaderNum?3@ 004ca6b4     cm_load.obj
 0002:000036d8       ??_C@_0BC@EBABHCIG@Map?5with?5no?5leafs?$AA@ 004ca6d8     cm_load.obj
 0002:000036ec       ??_C@_0BD@FKOGFNAN@Map?5with?5no?5planes?$AA@ 004ca6ec     cm_load.obj
 0002:00003700       ??_C@_0CH@MJKOBAAK@CMod_LoadBrushSides?3?5bad?5shaderN@ 004ca700     cm_load.obj
 0002:00003728       ??_C@_0BL@GCIBIODK@ParseMesh?3?5MAX_PATCH_VERTS?$AA@ 004ca728     cm_load.obj
 0002:00003744       ??_C@_0BG@KOPIJPGC@CM_LoadMap?3?5NULL?5name?$AA@ 004ca744     cm_load.obj
 0002:0000375c       ??_C@_0L@GKMKNHLN@cm_noAreas?$AA@ 004ca75c     cm_load.obj
 0002:00003768       ??_C@_0M@DMJHPFDE@cm_noCurves?$AA@ 004ca768     cm_load.obj
 0002:00003774       ??_C@_0BD@GHKOGBLC@cm_playerCurveClip?$AA@ 004ca774     cm_load.obj
 0002:00003788       ??_C@_0BG@FOHJEOAK@CM_LoadMap?$CI?5?$CFs?0?5?$CFi?5?$CJ?6?$AA@ 004ca788     cm_load.obj
 0002:000037a0       ??_C@_0BB@OEPBHON@Couldn?8t?5load?5?$CFs?$AA@ 004ca7a0     cm_load.obj
 0002:000037b4       ??_C@_0DK@KJOJIHED@CM_LoadMap?3?5?$CFs?5has?5wrong?5version@ 004ca7b4     cm_load.obj
 0002:000037f0       ??_C@_0CE@IDDBKAAE@CM_ClipHandleToModel?3?5bad?5handle@ 004ca7f0     cm_load.obj
 0002:00003814       ??_C@_0CO@INDKCALG@CM_ClipHandleToModel?3?5bad?5handle@ 004ca814     cm_load.obj
 0002:00003844       ??_C@_0BL@CFOECHKA@CM_InlineModel?3?5bad?5number?$AA@ 004ca844     cm_load.obj
 0002:00003860       ??_C@_0BL@NKFJNPCM@CM_LeafCluster?3?5bad?5number?$AA@ 004ca860     cm_load.obj
 0002:0000387c       ??_C@_0BI@LLPODCBJ@CM_LeafArea?3?5bad?5number?$AA@ 004ca87c     cm_load.obj
 0002:00003894       ??_C@_0BB@JNELFKGE@MAX_PATCH_PLANES?$AA@ 004ca894     cm_patch.obj
 0002:000038a8       ??_C@_0CE@NJNBHFJK@WARNING?3?5CM_GridPlane?5unresolvab@ 004ca8a8     cm_patch.obj
 0002:000038cc       ??_C@_0CC@BGGAAOHM@CM_SetBorderInward?3?5bad?5paramete@ 004ca8cc     cm_patch.obj
 0002:000038f0       ??_C@_0DA@PCDKAIPH@WARNING?3?5CM_SetBorderInward?3?5mix@ 004ca8f0     cm_patch.obj
 0002:00003920       ??_C@_0BI@JFDENLMJ@ERROR?3?5too?5many?5bevels?6?$AA@ 004ca920     cm_patch.obj
 0002:00003938       ??_C@_0CD@OEGHCJEG@WARNING?3?5bevel?5plane?5already?5use@ 004ca938     cm_patch.obj
 0002:0000395c       ??_C@_0CN@BPJNCPGM@WARNING?3?5CM_AddFacetBevels?4?4?4?5in@ 004ca95c     cm_patch.obj
 0002:0000398c       ??_C@_0L@BHDFOPIG@MAX_FACETS?$AA@ 004ca98c     cm_patch.obj
 0002:00003998       ??_C@_0DF@ODLAAPCB@CM_GeneratePatchFacets?3?5bad?5para@ 004ca998     cm_patch.obj
 0002:000039d0       ??_C@_0EE@IBFPNDNH@CM_GeneratePatchFacets?3?5even?5siz@ 004ca9d0     cm_patch.obj
 0002:00003a14       ??_C@_0DC@BHAKBNNN@CM_GeneratePatchFacets?3?5source?5i@ 004caa14     cm_patch.obj
 0002:00003a48       ??_C@_0BF@BAKLCMON@r_debugSurfaceUpdate?$AA@ 004caa48     cm_patch.obj
 0002:00003a60       ??_C@_0P@ENOIJBKF@r_debugSurface?$AA@ 004caa60     cm_patch.obj
 0002:00003a70       ??_C@_01FDFGLJHB@2?$AA@    004caa70     cm_patch.obj
 0002:00003a74       ??_C@_0N@JBOPDDFG@cm_debugSize?$AA@ 004caa74     cm_patch.obj
 0002:00003a84       ??_C@_0CH@BLOEEIKO@winding?5chopped?5away?5by?5border?5p@ 004caa84     cm_patch.obj
 0002:00003aac       __real@3e000000            004caaac     cm_patch.obj
 0002:00003ab0       __real@3f1a36e2eb1c432d    004caab0     cm_patch.obj
 0002:00003ab8       __real@3f947ae147ae147b    004caab8     cm_patch.obj
 0002:00003ac0       __real@3fc0000000000000    004caac0     cm_patch.obj
 0002:00003ac8       __real@40800000            004caac8     cm_patch.obj
 0002:00003acc       __real@41700000            004caacc     cm_patch.obj
 0002:00003ad0       __real@41e00000            004caad0     cm_patch.obj
 0002:00003ad4       __real@477fff00            004caad4     cm_patch.obj
 0002:00003ad8       __real@bfb999999999999a    004caad8     cm_patch.obj
 0002:00003ae0       __real@c1700000            004caae0     cm_patch.obj
 0002:00003ae4       __real@c1e00000            004caae4     cm_patch.obj
 0002:00003ae8       __real@c77fff00            004caae8     cm_patch.obj
 0002:00003aec       ??_C@_0CD@BOFJFDD@FreeWinding?3?5freed?5a?5freed?5windi@ 004caaec     cm_polylib.obj
 0002:00003b10       ??_C@_0CD@BHBKGNIF@BaseWindingForPlane?3?5no?5axis?5fou@ 004cab10     cm_polylib.obj
 0002:00003b34       ??_C@_0CG@OLJCNKCC@ClipWinding?3?5points?5exceeded?5est@ 004cab34     cm_polylib.obj
 0002:00003b5c       ??_C@_0CD@PEDPMDOJ@ClipWinding?3?5MAX_POINTS_ON_WINDI@ 004cab5c     cm_polylib.obj
 0002:00003b80       __real@3dcccccd            004cab80     cm_polylib.obj
 0002:00003b84       __real@bdcccccd            004cab84     cm_polylib.obj
 0002:00003b88       ??_C@_0BH@BFMDHBGF@FloodArea_r?3?5reflooded?$AA@ 004cab88     cm_test.obj
 0002:00003ba0       ??_C@_0CK@BFFNFBLN@CM_ChangeAreaPortalState?3?5bad?5ar@ 004caba0     cm_test.obj
 0002:00003bcc       ??_C@_0DD@NONPJOAP@CM_AdjustAreaPortalState?3?5negati@ 004cabcc     cm_test.obj
 0002:00003c00       ??_C@_0BE@NBHJNIOB@area?5?$DO?$DN?5cm?4numAreas?$AA@ 004cac00     cm_test.obj
 0002:00003c14       ??_C@_0N@HGNLKJGF@qconsole?4log?$AA@ 004cac14     common.obj
 0002:00003c24       ??_C@_0BG@HNINGLEK@logfile?5opened?5on?5?$CFs?6?$AA@ 004cac24     common.obj
 0002:00003c3c       ??_C@_0BK@DDHCKPII@recursive?5error?5after?3?5?$CFs?$AA@ 004cac3c     common.obj
 0002:00003c58       ??_C@_0DF@NMNFBMEP@?$CK?$CK?$CK?$CK?$CK?$CK?$CK?$CK?$CK?$CK?$CK?$CK?$CK?$CK?$CK?$CK?$CK?$CK?$CK?$CK?6ERROR?3?5?$CFs?6?$CK@ 004cac58     common.obj
 0002:00003c90       ??_C@_0BE@FIJAKBIE@Server?5crashed?3?5?$CFs?6?$AA@ 004cac90     common.obj
 0002:00003ca4       ??_C@_0BH@PKJLOEHK@Server?5didn?8t?5have?5CD?6?$AA@ 004caca4     common.obj
 0002:00003cbc       ??_C@_0BK@MPNLHLAM@Server?5fatal?5crashed?3?5?$CFs?6?$AA@ 004cacbc     common.obj
 0002:00003cd8       ??_C@_04FAOFCKOL@safe?$AA@ 004cacd8     common.obj
 0002:00003ce0       ??_C@_0N@GPGLOFGG@cvar_restart?$AA@ 004cace0     common.obj
 0002:00003cf0       ??_C@_03KCHOJKKI@set?$AA@  004cacf0     common.obj
 0002:00003cf4       ??_C@_0P@JAPNKEH@MISSING?5VALUE?6?$AA@ 004cacf4     common.obj
 0002:00003d04       ??_C@_0BF@IBBHAAHI@Z_Free?3?5NULL?5pointer?$AA@ 004cad04     common.obj
 0002:00003d1c       ??_C@_0CH@OJFIIOIA@Z_Free?3?5freed?5a?5pointer?5without?5@ 004cad1c     common.obj
 0002:00003d44       ??_C@_0BO@KPDAKNIP@Z_Free?3?5freed?5a?5freed?5pointer?$AA@ 004cad44     common.obj
 0002:00003d64       ??_C@_0CE@FGOINGFL@Z_Free?3?5memory?5block?5wrote?5past?5@ 004cad64     common.obj
 0002:00003d88       ??_C@_0CC@LIMDBBOP@Z_TagMalloc?3?5tried?5to?5use?5a?50?5ta@ 004cad88     common.obj
 0002:00003dac       ??_C@_05KJDGBEEG@small?$AA@ 004cadac     common.obj
 0002:00003db4       ??_C@_04GHJNJNPO@main?$AA@ 004cadb4     common.obj
 0002:00003dbc       ??_C@_0DM@CJFCFDMA@Z_Malloc?3?5failed?5on?5allocation?5o@ 004cadbc     common.obj
 0002:00003df8       ??_C@_0DH@PDLFHKNN@Z_CheckHeap?3?5block?5size?5does?5not@ 004cadf8     common.obj
 0002:00003e30       ??_C@_0DH@DHOAKNHO@Z_CheckHeap?3?5next?5block?5doesn?8t?5@ 004cae30     common.obj
 0002:00003e68       ??_C@_0CK@MHBJLLKL@Z_CheckHeap?3?5two?5consecutive?5fre@ 004cae68     common.obj
 0002:00003e94       ??_C@_0CB@IHMKPJJG@block?3?$CFp?5?5?5?5size?3?$CF7i?5?5?5?5tag?3?$CF3i?6@ 004cae94     common.obj
 0002:00003eb8       ??_C@_0DB@EJEJBDEF@ERROR?3?5block?5size?5does?5not?5touch@ 004caeb8     common.obj
 0002:00003eec       ??_C@_0DB@INBMMEOG@ERROR?3?5next?5block?5doesn?8t?5have?5p@ 004caeec     common.obj
 0002:00003f20       ??_C@_0CE@BLFCFJMN@ERROR?3?5two?5consecutive?5free?5bloc@ 004caf20     common.obj
 0002:00003f44       ??_C@_0BG@IMIDAEKI@?$CF8i?5bytes?5total?5hunk?6?$AA@ 004caf44     common.obj
 0002:00003f5c       ??_C@_0BG@OCFDAFBB@?$CF8i?5bytes?5total?5zone?6?$AA@ 004caf5c     common.obj
 0002:00003f74       ??_C@_0O@EHNEJKDK@?$CF8i?5low?5mark?6?$AA@ 004caf74     common.obj
 0002:00003f84       ??_C@_0BD@DOEBODMG@?$CF8i?5low?5permanent?6?$AA@ 004caf84     common.obj
 0002:00003f98       ??_C@_0O@IOIEGEPB@?$CF8i?5low?5temp?6?$AA@ 004caf98     common.obj
 0002:00003fa8       ??_C@_0BH@FCECDNPG@?$CF8i?5low?5tempHighwater?6?$AA@ 004cafa8     common.obj
 0002:00003fc0       ??_C@_0P@MGIBPNNM@?$CF8i?5high?5mark?6?$AA@ 004cafc0     common.obj
 0002:00003fd0       ??_C@_0BE@HHMLFLFC@?$CF8i?5high?5permanent?6?$AA@ 004cafd0     common.obj
 0002:00003fe4       ??_C@_0P@PNBADBH@?$CF8i?5high?5temp?6?$AA@ 004cafe4     common.obj
 0002:00003ff4       ??_C@_0BI@GFEBGNFI@?$CF8i?5high?5tempHighwater?6?$AA@ 004caff4     common.obj
 0002:0000400c       ??_C@_0BH@CLOMEGOK@?$CF8i?5total?5hunk?5in?5use?6?$AA@ 004cb00c     common.obj
 0002:00004024       ??_C@_0BG@FENEFIEO@?$CF8i?5unused?5highwater?6?$AA@ 004cb024     common.obj
 0002:0000403c       ??_C@_0BN@HAFIPPM@?$CF8i?5bytes?5in?5?$CFi?5zone?5blocks?6?$AA@ 004cb03c     common.obj
 0002:0000405c       ??_C@_0CF@CNFAILNA@?5?5?5?5?5?5?5?5?$CF8i?5bytes?5in?5dynamic?5bot@ 004cb05c     common.obj
 0002:00004084       ??_C@_0CH@EOLLDOAN@?5?5?5?5?5?5?5?5?$CF8i?5bytes?5in?5dynamic?5ren@ 004cb084     common.obj
 0002:000040ac       ??_C@_0CE@NPDILPEO@?5?5?5?5?5?5?5?5?$CF8i?5bytes?5in?5dynamic?5oth@ 004cb0ac     common.obj
 0002:000040d0       ??_C@_0CI@OANEJCJB@?5?5?5?5?5?5?5?5?$CF8i?5bytes?5in?5small?5Zone?5@ 004cb0d0     common.obj
 0002:000040f8       ??_C@_0BK@CDNNLLKC@Com_TouchMemory?3?5?$CFi?5msec?6?$AA@ 004cb0f8     common.obj
 0002:00004114       ??_C@_0CO@GEDAJKNP@Small?5zone?5data?5failed?5to?5alloca@ 004cb114     common.obj
 0002:00004144       ??_C@_02KMALDIDP@16?$AA@   004cb144     common.obj
 0002:00004148       ??_C@_0N@MAMMMEDK@com_zoneMegs?$AA@ 004cb148     common.obj
 0002:00004158       ??_C@_0CF@OPBLBLPA@Zone?5data?5failed?5to?5allocate?5?$CFi?5@ 004cb158     common.obj
 0002:00004180       ??_C@_0DM@JGPFFDMA@Hunk?5initialization?5failed?4?5File@ 004cb180     common.obj
 0002:000041bc       ??_C@_02KLACJAOD@56?$AA@   004cb1bc     common.obj
 0002:000041c0       ??_C@_0N@JFILOCFO@com_hunkMegs?$AA@ 004cb1c0     common.obj
 0002:000041d0       ??_C@_0EI@EOGOECDI@Minimum?5com_hunkMegs?5for?5a?5dedic@ 004cb1d0     common.obj
 0002:00004218       ??_C@_0DB@DJODFHPN@Minimum?5com_hunkMegs?5is?5?$CFi?0?5allo@ 004cb218     common.obj
 0002:0000424c       ??_C@_0CF@BDKJHKGO@Hunk?5data?5failed?5to?5allocate?5?$CFi?5@ 004cb24c     common.obj
 0002:00004274       ??_C@_07FNDDLPMM@meminfo?$AA@ 004cb274     common.obj
 0002:0000427c       ??_C@_0BP@KPGLMOBC@Hunk_Clear?3?5reset?5the?5hunk?5ok?6?$AA@ 004cb27c     common.obj
 0002:0000429c       ??_C@_0CP@BHLCFLCK@Hunk_Alloc?3?5Hunk?5memory?5system?5n@ 004cb29c     common.obj
 0002:000042cc       ??_C@_0BI@DFDJEDO@Hunk_Alloc?5failed?5on?5?$CFi?$AA@ 004cb2cc     common.obj
 0002:000042e4       ??_C@_0CG@IDCIPPIH@Hunk_AllocateTempMemory?3?5failed?5@ 004cb2e4     common.obj
 0002:0000430c       ??_C@_0BP@DFPHFPJG@Hunk_FreeTempMemory?3?5bad?5magic?$AA@ 004cb30c     common.obj
 0002:0000432c       ??_C@_0CK@KPLCADKN@Hunk_FreeTempMemory?3?5not?5the?5fin@ 004cb32c     common.obj
 0002:00004358       ??_C@_07CFFBIKLI@journal?$AA@ 004cb358     common.obj
 0002:00004360       ??_C@_0BD@MBEKCKFD@Journaling?5events?6?$AA@ 004cb360     common.obj
 0002:00004374       ??_C@_0M@BEDDKMKF@journal?4dat?$AA@ 004cb374     common.obj
 0002:00004380       ??_C@_0BA@OJDELHBG@journaldata?4dat?$AA@ 004cb380     common.obj
 0002:00004390       ??_C@_0BM@POMPJIOA@Replaying?5journaled?5events?6?$AA@ 004cb390     common.obj
 0002:000043ac       ??_C@_0M@COLEEONP@com_journal?$AA@ 004cb3ac     common.obj
 0002:000043b8       ??_C@_0BN@MJLDDPNI@Couldn?8t?5open?5journal?5files?6?$AA@ 004cb3b8     common.obj
 0002:000043d8       ??_C@_0CA@BFODPKNC@Error?5reading?5from?5journal?5file?$AA@ 004cb3d8     common.obj
 0002:000043f8       ??_C@_0BO@GBMLCFPO@Error?5writing?5to?5journal?5file?$AA@ 004cb3f8     common.obj
 0002:00004418       ??_C@_0CB@OJGNBCMC@WARNING?3?5Com_PushEvent?5overflow?6@ 004cb418     common.obj
 0002:0000443c       ??_C@_0BJ@GPNJLJPC@SV_PacketEvent?5time?3?5?$CFi?6?$AA@ 004cb43c     common.obj
 0002:00004458       ??_C@_0CB@HFEJCBKA@Com_EventLoop?3?5bad?5event?5type?5?$CFi@ 004cb458     common.obj
 0002:0000447c       ??_C@_0CA@ENDIPNNF@Com_EventLoop?3?5oversize?5packet?6?$AA@ 004cb47c     common.obj
 0002:0000449c       ??_C@_0BD@DDPCEAL@Testing?5drop?5error?$AA@ 004cb49c     common.obj
 0002:000044b0       ??_C@_0BE@PFFNONJO@Testing?5fatal?5error?$AA@ 004cb4b0     common.obj
 0002:000044c4       ??_C@_0BC@DJHDECHL@freeze?5?$DMseconds?$DO?6?$AA@ 004cb4c4     common.obj
 0002:000044d8       ??_C@_08LAIDFEPP@?$CFs?1q3key?$AA@ 004cb4d8     common.obj
 0002:000044e4       ??_C@_0BB@FHAPCDKO@?5?5?5?5?5?5?5?5?5?5?5?5?5?5?5?5?$AA@ 004cb4e4     common.obj
 0002:000044f8       ??_C@_0BE@JKCFDMJK@Couldn?8t?5write?5?$CFs?4?6?$AA@ 004cb4f8     common.obj
 0002:0000450c       ??_C@_0CI@PFGDDHBG@?6?1?1?5generated?5by?5quake?0?5do?5not?5m@ 004cb50c     common.obj
 0002:00004534       ??_C@_0CG@ILMLHNJJ@?1?1?5Do?5not?5give?5this?5file?5to?5ANYO@ 004cb534     common.obj
 0002:00004560       ??_C@_0EM@CPHPFGMM@?1?1?5id?5Software?5and?5Activision?5wi@ 004cb560     common.obj
 0002:000045ac       ??_C@_0M@LECPOOEK@Feb?5?56?52015?$AA@ 004cb5ac     common.obj
 0002:000045b8       ??_C@_07CECGJJJI@win?9x86?$AA@ 004cb5b8     common.obj
 0002:000045c0       ??_C@_09GPBPOFIE@?$CFs?5?$CFs?5?$CFs?6?$AA@ 004cb5c0     common.obj
 0002:000045cc       ??_C@_0BM@JMOBJEDO@Error?5during?5initialization?$AA@ 004cb5cc     common.obj
 0002:000045e8       ??_C@_09DNECJBKD@developer?$AA@ 004cb5e8     common.obj
 0002:000045f4       ??_C@_0BC@FDOILEKD@exec?5default?4cfg?6?$AA@ 004cb5f4     common.obj
 0002:00004608       ??_C@_0BD@MLBAFJNC@exec?5q3config?4cfg?6?$AA@ 004cb608     common.obj
 0002:0000461c       ??_C@_0BD@PHEIHMPD@exec?5autoexec?4cfg?6?$AA@ 004cb61c     common.obj
 0002:00004630       ??_C@_09BJOAODLF@dedicated?$AA@ 004cb630     common.obj
 0002:0000463c       ??_C@_02IIPHFAHD@85?$AA@   004cb63c     common.obj
 0002:00004640       ??_C@_0L@PCENNGCA@com_maxfps?$AA@ 004cb640     common.obj
 0002:0000464c       ??_C@_09DKNLLEN@com_blood?$AA@ 004cb64c     common.obj
 0002:00004658       ??_C@_07HMINABEO@logfile?$AA@ 004cb658     common.obj
 0002:00004660       ??_C@_09IIOBMIO@timescale?$AA@ 004cb660     common.obj
 0002:0000466c       ??_C@_09BHOLEJHN@fixedtime?$AA@ 004cb66c     common.obj
 0002:00004678       ??_C@_0O@LCCBKALF@com_showtrace?$AA@ 004cb678     common.obj
 0002:00004688       ??_C@_0M@FAMBDMMF@com_dropsim?$AA@ 004cb688     common.obj
 0002:00004694       ??_C@_07OFMACKEH@viewlog?$AA@ 004cb694     common.obj
 0002:0000469c       ??_C@_0L@JMMMBHPM@com_speeds?$AA@ 004cb69c     common.obj
 0002:000046a8       ??_C@_09CGEBDJFG@sv_paused?$AA@ 004cb6a8     common.obj
 0002:000046b4       ??_C@_0L@MPAGGMDN@sv_running?$AA@ 004cb6b4     common.obj
 0002:000046c0       ??_C@_0BA@MOHNLIKA@com_buildScript?$AA@ 004cb6c0     common.obj
 0002:000046d0       ??_C@_0BA@PBHFIIBP@com_introplayed?$AA@ 004cb6d0     common.obj
 0002:000046e0       ??_C@_05KKCIMGE@error?$AA@ 004cb6e0     common.obj
 0002:000046e8       ??_C@_05DLEGDHMH@crash?$AA@ 004cb6e8     common.obj
 0002:000046f0       ??_C@_06NANJHIPM@freeze?$AA@ 004cb6f0     common.obj
 0002:000046f8       ??_C@_04KNNLNNGO@quit?$AA@ 004cb6f8     common.obj
 0002:00004700       ??_C@_0O@OGEFLAOE@changeVectors?$AA@ 004cb700     common.obj
 0002:00004710       ??_C@_0M@HMAJCOKO@writeconfig?$AA@ 004cb710     common.obj
 0002:0000471c       ??_C@_08EPEHIMMI@?$CFs?5?$CFs?5?$CFs?$AA@ 004cb71c     common.obj
 0002:00004728       ??_C@_0BG@DLPIPEDG@cinematic?5idlogo?4RoQ?6?$AA@ 004cb728     common.obj
 0002:00004740       ??_C@_0BE@DIBMBDCC@cinematic?5intro?4RoQ?$AA@ 004cb740     common.obj
 0002:00004754       ??_C@_0CI@HOGAMGJF@?9?9?9?5Common?5Initialization?5Comple@ 004cb754     common.obj
 0002:0000477c       ??_C@_0CG@FPKFBBME@?1?1?5generated?5by?5quake?0?5do?5not?5mo@ 004cb77c     common.obj
 0002:000047a4       ??_C@_0N@KFPKBBOI@q3config?4cfg?$AA@ 004cb7a4     common.obj
 0002:000047b4       ??_C@_06KOMAFLML@baseq3?$AA@ 004cb7b4     common.obj
 0002:000047bc       ??_C@_0BP@JAAMJFGO@Usage?3?5writeconfig?5?$DMfilename?$DO?6?$AA@ 004cb7bc     common.obj
 0002:000047dc       ??_C@_0N@FMLDMECN@Writing?5?$CFs?4?6?$AA@ 004cb7dc     common.obj
 0002:000047ec       ??_C@_0CD@IHBFIHBI@Hitch?5warning?3?5?$CFi?5msec?5frame?5tim@ 004cb7ec     common.obj
 0002:00004810       ??_C@_0DM@DEOKJHOL@frame?3?$CFi?5all?3?$CF3i?5sv?3?$CF3i?5ev?3?$CF3i?5c@ 004cb810     common.obj
 0002:0000484c       ??_C@_0CC@HBLLGKBA@?$CF4i?5traces?5?5?$CI?$CFib?5?$CFip?$CJ?5?$CF4i?5points@ 004cb84c     common.obj
 0002:00004870       ??_C@_07FBMPDAOB@?5?5?5?5?$CFs?6?$AA@ 004cb870     common.obj
 0002:00004878       __real@c0490fdb            004cb878     common.obj
 0002:0000487c       ??_C@_0BJ@EGPKCOBM@Cvar_Get?3?5NULL?5parameter?$AA@ 004cb87c     cvar.obj
 0002:00004898       ??_C@_0BO@HIEMFHPL@invalid?5cvar?5name?5string?3?5?$CFs?6?$AA@ 004cb898     cvar.obj
 0002:000048b8       ??_C@_07LGPHKPBC@BADNAME?$AA@ 004cb8b8     cvar.obj
 0002:000048c0       ??_C@_0DI@GOCCEMPD@Warning?3?5cvar?5?$CC?$CFs?$CC?5given?5initial@ 004cb8c0     cvar.obj
 0002:000048f8       ??_C@_09OBPPEEI@MAX_CVARS?$AA@ 004cb8f8     cvar.obj
 0002:00004904       ??_C@_0BC@MNGANAJN@Cvar_Set2?3?5?$CFs?5?$CFs?6?$AA@ 004cb904     cvar.obj
 0002:00004918       ??_C@_0BC@PCJCNELF@?$CFs?5is?5read?5only?4?6?$AA@ 004cb918     cvar.obj
 0002:0000492c       ??_C@_0BI@PGDNNHME@?$CFs?5is?5write?5protected?4?6?$AA@ 004cb92c     cvar.obj
 0002:00004944       ??_C@_0CF@MMBKLCAG@?$CFs?5will?5be?5changed?5upon?5restarti@ 004cb944     cvar.obj
 0002:0000496c       ??_C@_0BI@NNDBDFOI@?$CFs?5is?5cheat?5protected?4?6?$AA@ 004cb96c     cvar.obj
 0002:00004984       ??_C@_02NJPGOMH@?$CFf?$AA@ 004cb984     cvar.obj
 0002:00004988       ??_C@_0BP@BMGCKJHO@?$CC?$CFs?$CC?5is?3?$CC?$CFs?$FO7?$CC?5default?3?$CC?$CFs?$FO7?$CC?6?$AA@ 004cb988     cvar.obj
 0002:000049a8       ??_C@_0P@OHLLLJFN@latched?3?5?$CC?$CFs?$CC?6?$AA@ 004cb9a8     cvar.obj
 0002:000049b8       ??_C@_0BK@FDJCCMFA@usage?3?5toggle?5?$DMvariable?$DO?6?$AA@ 004cb9b8     cvar.obj
 0002:000049d4       ??_C@_0BP@JNHFCPJL@usage?3?5set?5?$DMvariable?$DO?5?$DMvalue?$DO?6?$AA@ 004cb9d4     cvar.obj
 0002:000049f4       ??_C@_0CA@BBMGOBNI@usage?3?5setu?5?$DMvariable?$DO?5?$DMvalue?$DO?6?$AA@ 004cb9f4     cvar.obj
 0002:00004a14       ??_C@_0CA@GDDHLLFI@usage?3?5sets?5?$DMvariable?$DO?5?$DMvalue?$DO?6?$AA@ 004cba14     cvar.obj
 0002:00004a34       ??_C@_0CA@OEJADIJJ@usage?3?5seta?5?$DMvariable?$DO?5?$DMvalue?$DO?6?$AA@ 004cba34     cvar.obj
 0002:00004a54       ??_C@_0BJ@HCHIPOJA@usage?3?5reset?5?$DMvariable?$DO?6?$AA@ 004cba54     cvar.obj
 0002:00004a70       ??_C@_08JANFGNJF@cl_cdkey?$AA@ 004cba70     cvar.obj
 0002:00004a7c       ??_C@_0O@IMDAJAHE@seta?5?$CFs?5?$CC?$CFs?$CC?6?$AA@ 004cba7c     cvar.obj
 0002:00004a8c       ??_C@_01CPLAODJH@S?$AA@    004cba8c     cvar.obj
 0002:00004a90       ??_C@_01HJOKEEBB@U?$AA@    004cba90     cvar.obj
 0002:00004a94       ??_C@_01DGKLNCNG@R?$AA@    004cba94     cvar.obj
 0002:00004a98       ??_C@_01JPJNBJEM@I?$AA@    004cba98     cvar.obj
 0002:00004a9c       ??_C@_01FHEEJDEE@A?$AA@    004cba9c     cvar.obj
 0002:00004aa0       ??_C@_01OCOKONAJ@L?$AA@    004cbaa0     cvar.obj
 0002:00004aa4       ??_C@_01GFHCPBMG@C?$AA@    004cbaa4     cvar.obj
 0002:00004aa8       ??_C@_09INMFINGF@?5?$CFs?5?$CC?$CFs?$CC?6?$AA@ 004cbaa8     cvar.obj
 0002:00004ab4       ??_C@_0BB@CNBPFGFL@?6?$CFi?5total?5cvars?6?$AA@ 004cbab4     cvar.obj
 0002:00004ac8       ??_C@_0BB@ELMIENAI@?$CFi?5cvar?5indexes?6?$AA@ 004cbac8     cvar.obj
 0002:00004adc       ??_C@_0CB@LCNMLEBG@Cvar_Update?3?5handle?5out?5of?5range@ 004cbadc     cvar.obj
 0002:00004b00       ??_C@_0DM@CADHDAHP@Cvar_Update?3?5src?5?$CFs?5length?5?$CFd?5ex@ 004cbb00     cvar.obj
 0002:00004b3c       ??_C@_06FHLCKAHH@toggle?$AA@ 004cbb3c     cvar.obj
 0002:00004b44       ??_C@_04NMLNHPHF@sets?$AA@ 004cbb44     cvar.obj
 0002:00004b4c       ??_C@_04IKOHNIPD@setu?$AA@ 004cbb4c     cvar.obj
 0002:00004b54       ??_C@_04KEEJAPKG@seta?$AA@ 004cbb54     cvar.obj
 0002:00004b5c       ??_C@_05CFMALAOA@reset?$AA@ 004cbb5c     cvar.obj
 0002:00004b64       ??_C@_08HKAEGNIC@cvarlist?$AA@ 004cbb64     cvar.obj
 0002:00004b70       ??_C@_0BM@PCLMEAKM@FS_HandleForFile?3?5none?5free?$AA@ 004cbb70     files.obj
 0002:00004b8c       ??_C@_0CA@KPOIDJBD@FS_FileForHandle?3?5out?5of?5reange?$AA@ 004cbb8c     files.obj
 0002:00004bac       ??_C@_0CN@FJPHMIMA@FS_FileForHandle?3?5can?8t?5get?5FILE@ 004cbbac     files.obj
 0002:00004bdc       ??_C@_0BH@ENNDMPLD@FS_FileForHandle?3?5NULL?$AA@ 004cbbdc     files.obj
 0002:00004bf4       ??_C@_06HALAHGDI@?1?$CFs?1?$CFs?$AA@ 004cbbf4     files.obj
 0002:00004bfc       ??_C@_02DJGKEECL@?4?4?$AA@ 004cbbfc     files.obj
 0002:00004c00       ??_C@_02MOLJINC@?3?3?$AA@  004cbc00     files.obj
 0002:00004c04       ??_C@_0DA@OPJLIFHH@WARNING?3?5refusing?5to?5create?5rela@ 004cbc04     files.obj
 0002:00004c34       ??_C@_0P@KGHBPCIF@copy?5?$CFs?5to?5?$CFs?6?$AA@ 004cbc34     files.obj
 0002:00004c44       ??_C@_0BI@CAOFAEDB@Ignoring?5journal?5files?6?$AA@ 004cbc44     files.obj
 0002:00004c5c       ??_C@_02JDPG@rb?$AA@       004cbc5c     files.obj
 0002:00004c60       ??_C@_0BO@PEGACBP@Short?5read?5in?5FS_Copyfiles?$CI?$CJ?6?$AA@ 004cbc60     files.obj
 0002:00004c80       ??_C@_02GMLFBBN@wb?$AA@    004cbc80     files.obj
 0002:00004c84       ??_C@_0BP@DCHMDBJP@Short?5write?5in?5FS_Copyfiles?$CI?$CJ?6?$AA@ 004cbc84     files.obj
 0002:00004ca4       ??_C@_0CN@OMHGMFID@Filesystem?5call?5made?5without?5ini@ 004cbca4     files.obj
 0002:00004cd4       ??_C@_0BK@KMAALCKD@FS_SV_FOpenFileWrite?3?5?$CFs?6?$AA@ 004cbcd4     files.obj
 0002:00004cf0       ??_C@_0BA@MLCEENKL@writing?5to?3?5?$CFs?6?$AA@ 004cbcf0     files.obj
 0002:00004d00       ??_C@_0CH@NKEDPAKN@FS_SV_FOpenFileRead?5?$CIfs_homepath@ 004cbd00     files.obj
 0002:00004d28       ??_C@_0CH@DIDGHCFB@FS_SV_FOpenFileRead?5?$CIfs_basepath@ 004cbd28     files.obj
 0002:00004d50       ??_C@_0CG@FLINNLBK@FS_SV_FOpenFileRead?5?$CIfs_cdpath?$CJ?5@ 004cbd50     files.obj
 0002:00004d78       ??_C@_0BJ@HAKJFOOE@FS_SV_Rename?3?5?$CFs?5?9?9?$DO?5?$CFs?6?$AA@ 004cbd78     files.obj
 0002:00004d94       ??_C@_0BH@DHOJCMAJ@FS_FOpenFileWrite?3?5?$CFs?6?$AA@ 004cbd94     files.obj
 0002:00004dac       ??_C@_0BI@KJCGJHFP@FS_FOpenFileAppend?3?5?$CFs?6?$AA@ 004cbdac     files.obj
 0002:00004dc4       ??_C@_02BOGAIONP@ab?$AA@   004cbdc4     files.obj
 0002:00004dc8       ??_C@_0DE@FPPDNFFA@FS_FOpenFileRead?3?5NULL?5?8filename@ 004cbdc8     files.obj
 0002:00004dfc       ??_C@_06KDKPKJKM@?4dm_?$CFd?$AA@ 004cbdfc     files.obj
 0002:00004e04       ??_C@_05DEAEPJBI@q3key?$AA@ 004cbe04     files.obj
 0002:00004e0c       ??_C@_07MAFDLGF@?4shader?$AA@ 004cbe0c     files.obj
 0002:00004e14       ??_C@_04LCMACLFG@?4txt?$AA@ 004cbe14     files.obj
 0002:00004e1c       ??_C@_07GACINHDJ@?4config?$AA@ 004cbe1c     files.obj
 0002:00004e24       ??_C@_0L@LOIHPJMG@levelshots?$AA@ 004cbe24     files.obj
 0002:00004e30       ??_C@_04NONLJGOA@?4bot?$AA@ 004cbe30     files.obj
 0002:00004e38       ??_C@_06IPPMLGON@?4arena?$AA@ 004cbe38     files.obj
 0002:00004e40       ??_C@_05OMAOFEO@?4menu?$AA@ 004cbe40     files.obj
 0002:00004e48       ??_C@_0L@PDOPIANI@dTZT?$GAX?$CBdi?$GA?$AA@ 004cbe48     files.obj
 0002:00004e54       ??_C@_09KOGMCLPC@?2?$GAZf?$FO?8jof?$AA@ 004cbe54     files.obj
 0002:00004e60       ??_C@_06FIKIFLOA@pd?$CJlqh?$AA@ 004cbe60     files.obj
 0002:00004e68       ??_C@_0BD@NBMLGLPG@Couldn?8t?5reopen?5?$CFs?$AA@ 004cbe68     files.obj
 0002:00004e7c       ??_C@_0CG@BBPIBMKO@FS_FOpenFileRead?3?5?$CFs?5?$CIfound?5in?5?8@ 004cbe7c     files.obj
 0002:00004ea4       ??_C@_05IDJGMGLA@?4game?$AA@ 004cbea4     files.obj
 0002:00004eac       ??_C@_04PBCOOEDG@?4dat?$AA@ 004cbeac     files.obj
 0002:00004eb4       ??_C@_0CJ@MGIOFJMI@FS_FOpenFileRead?3?5?$CFs?5?$CIfound?5in?5?8@ 004cbeb4     files.obj
 0002:00004ee0       ??_C@_0P@CJCGDCLK@Can?8t?5find?5?$CFs?6?$AA@ 004cbee0     files.obj
 0002:00004ef0       ??_C@_0BH@JBMACPMK@FS_Read?3?5?91?5bytes?5read?$AA@ 004cbef0     files.obj
 0002:00004f08       ??_C@_0BL@MHLILIO@FS_Write?3?50?5bytes?5written?6?$AA@ 004cbf08     files.obj
 0002:00004f24       ??_C@_0BM@KBJOLIDM@FS_Write?3?5?91?5bytes?5written?6?$AA@ 004cbf24     files.obj
 0002:00004f40       ??_C@_0CE@PCHLGHBN@ZIP?5FILE?5FSEEK?5NOT?5YET?5IMPLEMENT@ 004cbf40     files.obj
 0002:00004f64       ??_C@_0BH@JLADNIGI@Bad?5origin?5in?5FS_Seek?6?$AA@ 004cbf64     files.obj
 0002:00004f7c       ??_C@_0BN@KJKCEPNA@FS_ReadFile?5with?5empty?5name?6?$AA@ 004cbf7c     files.obj
 0002:00004f9c       ??_C@_0BP@DLEFKJEB@Loading?5?$CFs?5from?5journal?5file?4?6?$AA@ 004cbf9c     files.obj
 0002:00004fbc       ??_C@_0CB@MAKFKKPM@Read?5from?5journalDataFile?5failed@ 004cbfbc     files.obj
 0002:00004fe0       ??_C@_0CG@JNPHIOFB@Writing?5zero?5for?5?$CFs?5to?5journal?5f@ 004cbfe0     files.obj
 0002:00005008       ??_C@_0CF@GJHFIHLC@Writing?5len?5for?5?$CFs?5to?5journal?5fi@ 004cc008     files.obj
 0002:00005030       ??_C@_0BN@IBAOHAGH@Writing?5?$CFs?5to?5journal?5file?4?6?$AA@ 004cc030     files.obj
 0002:00005050       ??_C@_0BE@HILOFDOP@FS_FreeFile?$CI?5NULL?5?$CJ?$AA@ 004cc050     files.obj
 0002:00005064       ??_C@_0BN@HEBINHD@FS_WriteFile?3?5NULL?5parameter?$AA@ 004cc064     files.obj
 0002:00005084       ??_C@_0BD@LDIONFIK@Failed?5to?5open?5?$CFs?6?$AA@ 004cc084     files.obj
 0002:00005098       ??_C@_04JMPKHIOK@?4pk3?$AA@ 004cc098     files.obj
 0002:000050a0       ??_C@_08GEJGLEOK@$modlist?$AA@ 004cc0a0     files.obj
 0002:000050ac       ??_C@_01LFCBOECM@?4?$AA@   004cc0ac     files.obj
 0002:000050b0       ??_C@_0BB@NEJIHPJO@?1description?4txt?$AA@ 004cc0b0     files.obj
 0002:000050c4       ??_C@_0CE@GOHPFEGA@usage?3?5dir?5?$DMdirectory?$DO?5?$FLextensio@ 004cc0c4     files.obj
 0002:000050e8       ??_C@_0BE@MKJFMONH@Directory?5of?5?$CFs?5?$CFs?6?$AA@ 004cc0e8     files.obj
 0002:000050fc       ??_C@_0BB@DKKMKEBK@?9?9?9?9?9?9?9?9?9?9?9?9?9?9?9?6?$AA@ 004cc0fc     files.obj
 0002:00005110       ??_C@_0BG@OINMOPNJ@usage?3?5fdir?5?$DMfilter?$DO?6?$AA@ 004cc110     files.obj
 0002:00005128       ??_C@_0BK@BBJDOPOH@example?3?5fdir?5?$CKq3dm?$CK?4bsp?6?$AA@ 004cc128     files.obj
 0002:00005144       ??_C@_0BB@EGMCJFKN@?$CFd?5files?5listed?6?$AA@ 004cc144     files.obj
 0002:00005158       ??_C@_0BG@HPKHMA@Current?5search?5path?3?6?$AA@ 004cc158     files.obj
 0002:00005170       ??_C@_0P@GCFMIPGN@?$CFs?5?$CI?$CFi?5files?$CJ?6?$AA@ 004cc170     files.obj
 0002:00005180       ??_C@_0BK@MCAEBIFK@?5?5?5?5not?5on?5the?5pure?5list?6?$AA@ 004cc180     files.obj
 0002:0000519c       ??_C@_0BG@CENCGGPF@?5?5?5?5on?5the?5pure?5list?6?$AA@ 004cc19c     files.obj
 0002:000051b4       ??_C@_06KIFJAIP@?$CFs?1?$CFs?6?$AA@ 004cc1b4     files.obj
 0002:000051bc       ??_C@_0P@HENFNMJG@handle?5?$CFi?3?5?$CFs?6?$AA@ 004cc1bc     files.obj
 0002:000051cc       ??_C@_0BJ@GCFEINHC@Usage?3?5touchFile?5?$DMfile?$DO?6?$AA@ 004cc1cc     files.obj
 0002:000051e8       ??_C@_08LGPKPKCN@?$CFs?1pak?$CFd?$AA@ 004cc1e8     files.obj
 0002:000051f4       ??_C@_0M@PLGKGDEK@missionpack?$AA@ 004cc1f4     files.obj
 0002:00005200       ??_C@_01EOFPKCAF@?$EA?$AA@ 004cc200     files.obj
 0002:00005204       ??_C@_06NHIHDJNN@?$CFs?4pk3?$AA@ 004cc204     files.obj
 0002:0000520c       ??_C@_0M@KGJNBCOJ@?$CFs?4?$CF08x?4pk3?$AA@ 004cc20c     files.obj
 0002:00005218       ??_C@_0CJ@MOAKOHNN@?5?$CIlocal?5file?5exists?5with?5wrong?5c@ 004cc218     files.obj
 0002:00005244       ??_C@_04LNEJFJGI@path?$AA@ 004cc244     files.obj
 0002:0000524c       ??_C@_03DAPAKLGM@dir?$AA@  004cc24c     files.obj
 0002:00005250       ??_C@_04MBOEABIA@fdir?$AA@ 004cc250     files.obj
 0002:00005258       ??_C@_09BCJOAAGD@touchFile?$AA@ 004cc258     files.obj
 0002:00005264       ??_C@_0BI@LBEJILEG@?9?9?9?9?9?5FS_Startup?5?9?9?9?9?9?6?$AA@ 004cc264     files.obj
 0002:0000527c       ??_C@_08OKNDMBHA@fs_debug?$AA@ 004cc27c     files.obj
 0002:00005288       ??_C@_0N@PLNEKBEI@fs_copyfiles?$AA@ 004cc288     files.obj
 0002:00005298       ??_C@_09CIALLHHK@fs_cdpath?$AA@ 004cc298     files.obj
 0002:000052a4       ??_C@_0M@DGDBFJN@fs_basepath?$AA@ 004cc2a4     files.obj
 0002:000052b0       ??_C@_0M@HHPKLILN@fs_basegame?$AA@ 004cc2b0     files.obj
 0002:000052bc       ??_C@_0M@LECGGKKC@fs_homepath?$AA@ 004cc2bc     files.obj
 0002:000052c8       ??_C@_0BH@ENGIAIMF@?$CFd?5files?5in?5pk3?5files?6?$AA@ 004cc2c8     files.obj
 0002:000052e0       ??_C@_0O@PPIKOBGI@productid?4txt?$AA@ 004cc2e0     files.obj
 0002:000052f0       ??_C@_0BP@LCBBIFIA@Invalid?5product?5identification?$AA@ 004cc2f0     files.obj
 0002:00005310       ??_C@_0CE@KPCDGPCC@?6Running?5in?5restricted?5demo?5mode@ 004cc310     files.obj
 0002:00005334       ??_C@_0BH@KPMEDBPE@Corrupted?5pak0?4pk3?3?5?$CFu?$AA@ 004cc334     files.obj
 0002:0000534c       ??_C@_0BN@HAHOMMJP@Connected?5to?5a?5pure?5server?4?6?$AA@ 004cc34c     files.obj
 0002:0000536c       ??_C@_0BP@JOGJAID@FS?5search?5reorder?5is?5required?6?$AA@ 004cc36c     files.obj
 0002:0000538c       ??_C@_0M@BAINMAIF@default?4cfg?$AA@ 004cc38c     files.obj
 0002:00005398       ??_C@_0BK@EGLLFLGB@Couldn?8t?5load?5default?4cfg?$AA@ 004cc398     files.obj
 0002:000053b4       ??_C@_0O@KIDPHDKB@fs_gamedirvar?$AA@ 004cc3b4     files.obj
 0002:000053c4       ??_C@_0BF@BLDAMEAN@Invalid?5game?5folder?6?$AA@ 004cc3c4     files.obj
 0002:000053dc       ??_C@_0BI@PIKLIGCP@FSH_FOpenFile?3?5bad?5mode?$AA@ 004cc3dc     files.obj
 0002:000053f4       ??_C@_0L@OCJBICII@pos?4trTime?$AA@ 004cc3f4     msg.obj
 0002:00005400       ??_C@_0O@OGAOEIML@pos?4trBase?$FL0?$FN?$AA@ 004cc400     msg.obj
 0002:00005410       ??_C@_0O@OHMMCCPM@pos?4trBase?$FL1?$FN?$AA@ 004cc410     msg.obj
 0002:00005420       ??_C@_0P@OKLAPEFG@pos?4trDelta?$FL0?$FN?$AA@ 004cc420     msg.obj
 0002:00005430       ??_C@_0P@OLHCJOGB@pos?4trDelta?$FL1?$FN?$AA@ 004cc430     msg.obj
 0002:00005440       ??_C@_0O@OFIKJMKF@pos?4trBase?$FL2?$FN?$AA@ 004cc440     msg.obj
 0002:00005450       ??_C@_0P@BKGBMGNH@apos?4trBase?$FL1?$FN?$AA@ 004cc450     msg.obj
 0002:00005460       ??_C@_0P@OJDECADI@pos?4trDelta?$FL2?$FN?$AA@ 004cc460     msg.obj
 0002:00005470       ??_C@_0P@BLKDKMOA@apos?4trBase?$FL0?$FN?$AA@ 004cc470     msg.obj
 0002:00005480       ??_C@_05GFHEIIDD@event?$AA@ 004cc480     msg.obj
 0002:00005488       ??_C@_0L@MMCDLJGH@angles2?$FL1?$FN?$AA@ 004cc488     msg.obj
 0002:00005494       ??_C@_05IBNLLBBK@eType?$AA@ 004cc494     msg.obj
 0002:0000549c       ??_C@_09IDGFAJEG@torsoAnim?$AA@ 004cc49c     msg.obj
 0002:000054a8       ??_C@_09EHJMMCCL@eventParm?$AA@ 004cc4a8     msg.obj
 0002:000054b4       ??_C@_08NBDCCOLG@legsAnim?$AA@ 004cc4b4     msg.obj
 0002:000054c0       ??_C@_0BA@GCAPFJDJ@groundEntityNum?$AA@ 004cc4c0     msg.obj
 0002:000054d0       ??_C@_0L@KGHGOFDE@pos?4trType?$AA@ 004cc4d0     msg.obj
 0002:000054dc       ??_C@_06PEMOFHAI@eFlags?$AA@ 004cc4dc     msg.obj
 0002:000054e4       ??_C@_0P@MIMDOCJJ@otherEntityNum?$AA@ 004cc4e4     msg.obj
 0002:000054f4       ??_C@_06GEPNGEJI@weapon?$AA@ 004cc4f4     msg.obj
 0002:000054fc       ??_C@_09ENNGDKOC@clientNum?$AA@ 004cc4fc     msg.obj
 0002:00005508       ??_C@_09PADCANCJ@angles?$FL1?$FN?$AA@ 004cc508     msg.obj
 0002:00005514       ??_C@_0P@JDFIJFKD@pos?4trDuration?$AA@ 004cc514     msg.obj
 0002:00005524       ??_C@_0M@FNDLCNA@apos?4trType?$AA@ 004cc524     msg.obj
 0002:00005530       ??_C@_09FNPCDDEI@origin?$FL0?$FN?$AA@ 004cc530     msg.obj
 0002:0000553c       ??_C@_09FMDAFJHP@origin?$FL1?$FN?$AA@ 004cc53c     msg.obj
 0002:00005548       ??_C@_09FOHGOHCG@origin?$FL2?$FN?$AA@ 004cc548     msg.obj
 0002:00005554       ??_C@_05OPIONHBI@solid?$AA@ 004cc554     msg.obj
 0002:0000555c       ??_C@_08BOHIELLL@powerups?$AA@ 004cc55c     msg.obj
 0002:00005568       ??_C@_0L@OOABJPOI@modelindex?$AA@ 004cc568     msg.obj
 0002:00005574       ??_C@_0BA@GEGLLMHD@otherEntityNum2?$AA@ 004cc574     msg.obj
 0002:00005584       ??_C@_09DPJGNNNM@loopSound?$AA@ 004cc584     msg.obj
 0002:00005590       ??_C@_08HDLPHJFP@generic1?$AA@ 004cc590     msg.obj
 0002:0000559c       ??_C@_0L@EMMBPBKL@origin2?$FL2?$FN?$AA@ 004cc59c     msg.obj
 0002:000055a8       ??_C@_0L@EPEFCFMF@origin2?$FL0?$FN?$AA@ 004cc5a8     msg.obj
 0002:000055b4       ??_C@_0L@EOIHEPPC@origin2?$FL1?$FN?$AA@ 004cc5b4     msg.obj
 0002:000055c0       ??_C@_0M@EDEPDPKE@modelindex2?$AA@ 004cc5c0     msg.obj
 0002:000055cc       ??_C@_09PBPAGHBO@angles?$FL0?$FN?$AA@ 004cc5cc     msg.obj
 0002:000055d8       ??_C@_04CLCEDBPF@time?$AA@ 004cc5d8     msg.obj
 0002:000055e0       ??_C@_0M@EBDENFGM@apos?4trTime?$AA@ 004cc5e0     msg.obj
 0002:000055ec       ??_C@_0BA@DPBJMBAH@apos?4trDuration?$AA@ 004cc5ec     msg.obj
 0002:000055fc       ??_C@_0P@BICHHIIO@apos?4trBase?$FL2?$FN?$AA@ 004cc5fc     msg.obj
 0002:0000560c       ??_C@_0BA@EGPBKAPC@apos?4trDelta?$FL0?$FN?$AA@ 004cc60c     msg.obj
 0002:0000561c       ??_C@_0BA@EHDDMKMF@apos?4trDelta?$FL1?$FN?$AA@ 004cc61c     msg.obj
 0002:0000562c       ??_C@_0BA@EFHFHEJM@apos?4trDelta?$FL2?$FN?$AA@ 004cc62c     msg.obj
 0002:0000563c       ??_C@_05CAIMHGND@time2?$AA@ 004cc63c     msg.obj
 0002:00005644       ??_C@_09PCHELDHA@angles?$FL2?$FN?$AA@ 004cc644     msg.obj
 0002:00005650       ??_C@_0L@MNOBNDFA@angles2?$FL0?$FN?$AA@ 004cc650     msg.obj
 0002:0000565c       ??_C@_0L@MOGFAHDO@angles2?$FL2?$FN?$AA@ 004cc65c     msg.obj
 0002:00005668       ??_C@_0O@HPPKGIAK@constantLight?$AA@ 004cc668     msg.obj
 0002:00005678       ??_C@_05MIJNFGED@frame?$AA@ 004cc678     msg.obj
 0002:00005680       ??_C@_0M@BGGKMAGH@commandTime?$AA@ 004cc680     msg.obj
 0002:0000568c       ??_C@_08HDFLKCJP@bobCycle?$AA@ 004cc68c     msg.obj
 0002:00005698       ??_C@_0M@DFJGKAFI@velocity?$FL0?$FN?$AA@ 004cc698     msg.obj
 0002:000056a4       ??_C@_0M@DEFEMKGP@velocity?$FL1?$FN?$AA@ 004cc6a4     msg.obj
 0002:000056b0       ??_C@_0O@DOCAGILF@viewangles?$FL1?$FN?$AA@ 004cc6b0     msg.obj
 0002:000056c0       ??_C@_0O@DPOCACIC@viewangles?$FL0?$FN?$AA@ 004cc6c0     msg.obj
 0002:000056d0       ??_C@_0L@PNPIGBF@weaponTime?$AA@ 004cc6d0     msg.obj
 0002:000056dc       ??_C@_0M@DGBCHEDG@velocity?$FL2?$FN?$AA@ 004cc6dc     msg.obj
 0002:000056e8       ??_C@_09FPJALGDE@legsTimer?$AA@ 004cc6e8     msg.obj
 0002:000056f4       ??_C@_07DDMNBPBG@pm_time?$AA@ 004cc6f4     msg.obj
 0002:000056fc       ??_C@_0O@GLMOEBPG@eventSequence?$AA@ 004cc6fc     msg.obj
 0002:0000570c       ??_C@_0M@POONNNAA@movementDir?$AA@ 004cc70c     msg.obj
 0002:00005718       ??_C@_09PCDDOAGH@events?$FL0?$FN?$AA@ 004cc718     msg.obj
 0002:00005724       ??_C@_09PDPBIKFA@events?$FL1?$FN?$AA@ 004cc724     msg.obj
 0002:00005730       ??_C@_08DPFJBFEN@pm_flags?$AA@ 004cc730     msg.obj
 0002:0000573c       ??_C@_0M@KALDLEMN@weaponstate?$AA@ 004cc73c     msg.obj
 0002:00005748       ??_C@_0O@NKKNBCBK@externalEvent?$AA@ 004cc748     msg.obj
 0002:00005758       ??_C@_07GFBFDLBM@gravity?$AA@ 004cc758     msg.obj
 0002:00005760       ??_C@_05HJCMGBKF@speed?$AA@ 004cc760     msg.obj
 0002:00005768       ??_C@_0BA@OHBOBFPB@delta_angles?$FL1?$FN?$AA@ 004cc768     msg.obj
 0002:00005778       ??_C@_0BC@GBAGMPPC@externalEventParm?$AA@ 004cc778     msg.obj
 0002:0000578c       ??_C@_0L@MAFIMFPM@viewheight?$AA@ 004cc78c     msg.obj
 0002:00005798       ??_C@_0M@HOGACEIB@damageEvent?$AA@ 004cc798     msg.obj
 0002:000057a4       ??_C@_09DCADJNIO@damageYaw?$AA@ 004cc7a4     msg.obj
 0002:000057b0       ??_C@_0M@MJMBEJAO@damagePitch?$AA@ 004cc7b0     msg.obj
 0002:000057bc       ??_C@_0M@JFNAGFPA@damageCount?$AA@ 004cc7bc     msg.obj
 0002:000057c8       ??_C@_07HHCKHIKK@pm_type?$AA@ 004cc7c8     msg.obj
 0002:000057d0       ??_C@_0BA@OGNMHPMG@delta_angles?$FL0?$FN?$AA@ 004cc7d0     msg.obj
 0002:000057e0       ??_C@_0BA@OFFIKLKI@delta_angles?$FL2?$FN?$AA@ 004cc7e0     msg.obj
 0002:000057f0       ??_C@_0L@OCHPBDAP@torsoTimer?$AA@ 004cc7f0     msg.obj
 0002:000057fc       ??_C@_0O@FJFEKPAB@eventParms?$FL0?$FN?$AA@ 004cc7fc     msg.obj
 0002:0000580c       ??_C@_0O@FIJGMFDG@eventParms?$FL1?$FN?$AA@ 004cc80c     msg.obj
 0002:0000581c       ??_C@_0O@DMGGNGOM@viewangles?$FL2?$FN?$AA@ 004cc81c     msg.obj
 0002:0000582c       ??_C@_0BA@PHCDGONJ@grapplePoint?$FL0?$FN?$AA@ 004cc82c     msg.obj
 0002:0000583c       ??_C@_0BA@PGOBAEOO@grapplePoint?$FL1?$FN?$AA@ 004cc83c     msg.obj
 0002:0000584c       ??_C@_0BA@PEKHLKLH@grapplePoint?$FL2?$FN?$AA@ 004cc84c     msg.obj
 0002:0000585c       ??_C@_0M@LANFJBCD@jumppad_ent?$AA@ 004cc85c     msg.obj
 0002:00005868       ??_C@_0DB@CDCFBJOH@MSG_Copy?3?5can?8t?5copy?5into?5a?5smal@ 004cc868     msg.obj
 0002:0000589c       ??_C@_0BL@JPLBKHNB@MSG_WriteBits?3?5bad?5bits?5?$CFi?$AA@ 004cc89c     msg.obj
 0002:000058b8       ??_C@_0BE@HBLHKMBF@can?8t?5read?5?$CFd?5bits?6?$AA@ 004cc8b8     msg.obj
 0002:000058cc       ??_C@_0CC@BCAHGEKN@MSG_WriteString?3?5MAX_STRING_CHAR@ 004cc8cc     msg.obj
 0002:000058f0       ??_C@_0CB@FEBBBOCP@MSG_WriteString?3?5BIG_INFO_STRING@ 004cc8f0     msg.obj
 0002:00005914       ??_C@_0M@JKPELGIL@?$CFd?5used?5?$CFd?6?$AA@ 004cc914     msg.obj
 0002:00005920       ??_C@_0CM@EJOMBCBE@MSG_WriteDeltaEntity?3?5Bad?5entity@ 004cc920     msg.obj
 0002:0000594c       ??_C@_0BM@MHCCEDBM@Bad?5delta?5entity?5number?3?5?$CFi?$AA@ 004cc94c     msg.obj
 0002:00005968       ??_C@_0BD@NOLCAOLH@?$CF3i?3?5?$CD?$CF?93i?5remove?6?$AA@ 004cc968     msg.obj
 0002:0000597c       ??_C@_0M@HKNCGALG@?$CF3i?3?5?$CD?$CF?93i?5?$AA@ 004cc97c     msg.obj
 0002:00005988       ??_C@_06NMFPGCPD@?$CFs?3?$CFi?5?$AA@ 004cc988     msg.obj
 0002:00005990       ??_C@_06NHADCFMO@?$CFs?3?$CFf?5?$AA@ 004cc990     msg.obj
 0002:00005998       ??_C@_0M@ILPPMOAB@?5?$CI?$CFi?5bits?$CJ?6?$AA@ 004cc998     msg.obj
 0002:000059a4       ??_C@_0BC@OLEJBHLP@?$CF3i?3?5playerstate?5?$AA@ 004cc9a4     msg.obj
 0002:000059b8       ??_C@_08PLJCGDKN@PS_STATS?$AA@ 004cc9b8     msg.obj
 0002:000059c4       ??_C@_0O@GFKBHLEI@PS_PERSISTANT?$AA@ 004cc9c4     msg.obj
 0002:000059d4       ??_C@_07CDFACGBI@PS_AMMO?$AA@ 004cc9d4     msg.obj
 0002:000059dc       ??_C@_0M@GJDAJLLB@PS_POWERUPS?$AA@ 004cc9dc     msg.obj
 0002:000059e8       ??_C@_06DGDLPBAN@client?$AA@ 004cc9e8     net_chan.obj
 0002:000059f0       ??_C@_06HJHJCKIO@server?$AA@ 004cc9f0     net_chan.obj
 0002:000059f8       ??_C@_0M@DDMGOMOJ@showpackets?$AA@ 004cc9f8     net_chan.obj
 0002:00005a04       ??_C@_08HJDPOCEL@showdrop?$AA@ 004cca04     net_chan.obj
 0002:00005a10       ??_C@_0CD@LNBJCMMG@?$CFs?5send?5?$CF4i?5?3?5s?$DN?$CFi?5fragment?$DN?$CFi?0?$CF@ 004cca10     net_chan.obj
 0002:00005a34       ??_C@_0BO@OIBNDEGJ@Netchan_Transmit?3?5length?5?$DN?5?$CFi?$AA@ 004cca34     net_chan.obj
 0002:00005a54       ??_C@_0BL@BFLOIGMD@?$CFs?5send?5?$CF4i?5?3?5s?$DN?$CFi?5ack?$DN?$CFi?6?$AA@ 004cca54     net_chan.obj
 0002:00005a70       ??_C@_0CD@PJJBGHAI@?$CFs?5recv?5?$CF4i?5?3?5s?$DN?$CFi?5fragment?$DN?$CFi?0?$CF@ 004cca70     net_chan.obj
 0002:00005a94       ??_C@_0BE@NEBCOCEH@?$CFs?5recv?5?$CF4i?5?3?5s?$DN?$CFi?6?$AA@ 004cca94     net_chan.obj
 0002:00005aa8       ??_C@_0CB@IKJIFCCO@?$CFs?3Out?5of?5order?5packet?5?$CFi?5at?5?$CFi?6@ 004ccaa8     net_chan.obj
 0002:00005acc       ??_C@_0BN@CDDCLPO@?$CFs?3Dropped?5?$CFi?5packets?5at?5?$CFi?6?$AA@ 004ccacc     net_chan.obj
 0002:00005aec       ??_C@_0BP@NNNGGON@?$CFs?3Dropped?5a?5message?5fragment?6?$AA@ 004ccaec     net_chan.obj
 0002:00005b0c       ??_C@_0BM@KGOPCCAH@?$CFs?3illegal?5fragment?5length?6?$AA@ 004ccb0c     net_chan.obj
 0002:00005b28       ??_C@_0CF@FNEEAEAE@?$CFs?3fragmentLength?5?$CFi?5?$DO?5msg?9?$DOmaxs@ 004ccb28     net_chan.obj
 0002:00005b50       ??_C@_0CG@BDGJLBKO@NET_CompareBaseAdr?3?5bad?5address?5@ 004ccb50     net_chan.obj
 0002:00005b78       ??_C@_08HAEGGJGF@loopback?$AA@ 004ccb78     net_chan.obj
 0002:00005b84       ??_C@_03EHEMCPIE@bot?$AA@  004ccb84     net_chan.obj
 0002:00005b88       ??_C@_0BA@OMBGEIBN@?$CFi?4?$CFi?4?$CFi?4?$CFi?3?$CFhu?$AA@ 004ccb88     net_chan.obj
 0002:00005b98       ??_C@_0CO@DHMLBJGH@?$CF02x?$CF02x?$CF02x?$CF02x?4?$CF02x?$CF02x?$CF02x?$CF02@ 004ccb98     net_chan.obj
 0002:00005bc8       ??_C@_0CC@DHFIOJGP@NET_CompareAdr?3?5bad?5address?5type@ 004ccbc8     net_chan.obj
 0002:00005bec       ??_C@_0BB@NGJDDNAF@send?5packet?5?$CF4i?6?$AA@ 004ccbec     net_chan.obj
 0002:00005c00       ??_C@_01JLIPDDHJ@?3?$AA@   004ccc00     net_chan.obj
 0002:00005e78       ??_C@_05HBMFIKCP@1?41?43?$AA@ 004cce78     unzip.obj
 0002:00005e80       ??_C@_0BD@PJCBIDD@invalid?5block?5type?$AA@ 004cce80     unzip.obj
 0002:00005e94       ??_C@_0BN@LGAADGOK@invalid?5stored?5block?5lengths?$AA@ 004cce94     unzip.obj
 0002:00005eb4       ??_C@_0CE@GMIGFPBB@too?5many?5length?5or?5distance?5symb@ 004cceb4     unzip.obj
 0002:00005ed8       ??_C@_0BK@BMMPFBBH@invalid?5bit?5length?5repeat?$AA@ 004cced8     unzip.obj
 0002:00005ef4       ??_C@_0CI@CGMOPDPD@oversubscribed?5dynamic?5bit?5lengt@ 004ccef4     unzip.obj
 0002:00005f1c       ??_C@_0CE@LOHAHEGK@incomplete?5dynamic?5bit?5lengths?5t@ 004ccf1c     unzip.obj
 0002:00005f40       ??_C@_0CD@GJIDGCKE@oversubscribed?5literal?1length?5tr@ 004ccf40     unzip.obj
 0002:00005f64       ??_C@_0BP@NEEEJJNA@incomplete?5literal?1length?5tree?$AA@ 004ccf64     unzip.obj
 0002:00005f84       ??_C@_0BN@KBLCDIAI@oversubscribed?5distance?5tree?$AA@ 004ccf84     unzip.obj
 0002:00005fa4       ??_C@_0BJ@CBCPDPJF@incomplete?5distance?5tree?$AA@ 004ccfa4     unzip.obj
 0002:00005fc0       ??_C@_0CB@KPKKKLFO@empty?5distance?5tree?5with?5lengths@ 004ccfc0     unzip.obj
 0002:00005fe4       ??_C@_0BG@LBKINIKP@invalid?5distance?5code?$AA@ 004ccfe4     unzip.obj
 0002:00005ffc       ??_C@_0BM@FFFLPBBC@invalid?5literal?1length?5code?$AA@ 004ccffc     unzip.obj
 0002:00006018       ??_C@_0BL@IHKGDAEE@unknown?5compression?5method?$AA@ 004cd018     unzip.obj
 0002:00006034       ??_C@_0BE@EMOGCLGO@invalid?5window?5size?$AA@ 004cd034     unzip.obj
 0002:00006048       ??_C@_0BH@LIBMMIGA@incorrect?5header?5check?$AA@ 004cd048     unzip.obj
 0002:00006060       ??_C@_0BA@MOKMMFOD@need?5dictionary?$AA@ 004cd060     unzip.obj
 0002:00006070       ??_C@_0BF@MEIGEHBE@incorrect?5data?5check?$AA@ 004cd070     unzip.obj
 0002:00006088       ??_C@_07BHFGNDCM@vm_game?$AA@ 004cd088     vm.obj
 0002:00006090       ??_C@_09GNBAHOHK@vmprofile?$AA@ 004cd090     vm.obj
 0002:0000609c       ??_C@_06LIKFIMOC@vminfo?$AA@ 004cd09c     vm.obj
 0002:000060a4       ??_C@_09KLPMHLFB@vm?1?$CFs?4map?$AA@ 004cd0a4     vm.obj
 0002:000060b0       ??_C@_0BP@EJCGAFI@Couldn?8t?5load?5symbol?5file?3?5?$CFs?6?$AA@ 004cd0b0     vm.obj
 0002:000060d0       ??_C@_0CJ@KBFNJAIO@WARNING?3?5incomplete?5line?5at?5end?5@ 004cd0d0     vm.obj
 0002:000060fc       ??_C@_0BL@FKOJLOGO@?$CFi?5symbols?5parsed?5from?5?$CFs?6?$AA@ 004cd0fc     vm.obj
 0002:00006118       ??_C@_0O@HMGHEGLA@VM_Restart?$CI?$CJ?6?$AA@ 004cd118     vm.obj
 0002:00006128       ??_C@_09FHDGEKJP@vm?1?$CFs?4qvm?$AA@ 004cd128     vm.obj
 0002:00006134       ??_C@_0BF@IGPEJINO@Loading?5vm?5file?5?$CFs?4?6?$AA@ 004cd134     vm.obj
 0002:0000614c       ??_C@_0BE@OFKMANMD@VM_Restart?5failed?4?6?$AA@ 004cd14c     vm.obj
 0002:00006160       ??_C@_0BC@OPCEGJFC@?$CFs?5has?5bad?5header?$AA@ 004cd160     vm.obj
 0002:00006174       ??_C@_0BF@IGDBCBGP@VM_Create?3?5bad?5parms?$AA@ 004cd174     vm.obj
 0002:0000618c       ??_C@_0BI@IOGIAGHC@VM_Create?3?5no?5free?5vm_t?$AA@ 004cd18c     vm.obj
 0002:000061a4       ??_C@_0BG@JJIBCGPE@Loading?5dll?5file?5?$CFs?4?6?$AA@ 004cd1a4     vm.obj
 0002:000061bc       ??_C@_0CG@KNDPANGF@Failed?5to?5load?5dll?0?5looking?5for?5@ 004cd1bc     vm.obj
 0002:000061e4       ??_C@_08OEINOMOH@Failed?4?6?$AA@ 004cd1e4     vm.obj
 0002:000061f0       ??_C@_0CD@GEPNAEEP@?$CFs?5loaded?5in?5?$CFd?5bytes?5on?5the?5hun@ 004cd1f0     vm.obj
 0002:00006214       ??_C@_0BF@GNADHAJC@VM_Call?5with?5NULL?5vm?$AA@ 004cd214     vm.obj
 0002:0000622c       ??_C@_0P@LAPBOIJN@VM_Call?$CI?5?$CFi?5?$CJ?6?$AA@ 004cd22c     vm.obj
 0002:0000623c       ??_C@_0O@DAPAGLHI@?$CF2i?$CF?$CF?5?$CF9i?5?$CFs?6?$AA@ 004cd23c     vm.obj
 0002:0000624c       ??_C@_0BB@NCIFAMHB@?5?5?5?5?$CF9?40f?5total?6?$AA@ 004cd24c     vm.obj
 0002:00006260       ??_C@_0BO@GJPNKMOM@Registered?5virtual?5machines?3?6?$AA@ 004cd260     vm.obj
 0002:00006280       ??_C@_05LLGELLBM@?$CFs?5?3?5?$AA@ 004cd280     vm.obj
 0002:00006288       ??_C@_07IMELJBKE@native?6?$AA@ 004cd288     vm.obj
 0002:00006290       ??_C@_0BC@GEADELFK@compiled?5on?5load?6?$AA@ 004cd290     vm.obj
 0002:000062a4       ??_C@_0N@CFOLNHPI@interpreted?6?$AA@ 004cd2a4     vm.obj
 0002:000062b4       ??_C@_0BH@KGNDPGNP@?5?5?5?5code?5length?5?3?5?$CF7i?6?$AA@ 004cd2b4     vm.obj
 0002:000062cc       ??_C@_0BH@PPKCIMFO@?5?5?5?5table?5length?3?5?$CF7i?6?$AA@ 004cd2cc     vm.obj
 0002:000062e4       ??_C@_0BH@DGKALKOH@?5?5?5?5data?5length?5?3?5?$CF7i?6?$AA@ 004cd2e4     vm.obj
 0002:000062fc       ??_C@_0CJ@PMEMCJLI@?5?5?5?5?5?5?5?5?5?5?5?5?5?5?5?5?5?5?5?5?5?5?5?5?5?5?5?5?5?5?5?5@ 004cd2fc     vm_interpreted.obj
 0002:00006328       ??_C@_0CP@GJNCCGPN@VM_PrepareInterpreter?3?5pc?5?$DO?5head@ 004cd328     vm_interpreted.obj
 0002:00006358       ??_C@_0CA@KLAFBCCD@OP_BLOCK_COPY?5not?5dword?5aligned?$AA@ 004cd358     vm_interpreted.obj
 0002:00006378       ??_C@_0CA@CCJDPMLL@Interpreter?5error?3?5opStack?5?$DN?5?$CFi?$AA@ 004cd378     vm_interpreted.obj
 0002:00006398       ??_C@_0BD@LHJDCNBD@Hex?3?5bad?5char?5?8?$CFc?8?$AA@ 004cd398     vm_x86.obj
 0002:000063ac       ??_C@_05BOHLOLPB@89?507?$AA@ 004cd3ac     vm_x86.obj
 0002:000063b4       ??_C@_08PPLFGLPG@83?5EF?504?$AA@ 004cd3b4     vm_x86.obj
 0002:000063c0       ??_C@_08FDAACEPK@83?5EF?508?$AA@ 004cd3c0     vm_x86.obj
 0002:000063cc       ??_C@_08ONFOEBJE@83?5C7?504?$AA@ 004cd3cc     vm_x86.obj
 0002:000063d8       ??_C@_02GEDPMDLI@B8?$AA@   004cd3d8     vm_x86.obj
 0002:000063dc       ??_C@_05JAHJDKCP@8B?507?$AA@ 004cd3dc     vm_x86.obj
 0002:000063e4       ??_C@_05EEBJOGGM@8B?5D8?$AA@ 004cd3e4     vm_x86.obj
 0002:000063ec       ??_C@_02LBOPFCME@BB?$AA@   004cd3ec     vm_x86.obj
 0002:000063f0       ??_C@_05KHJPBIKP@8B?51F?$AA@ 004cd3f0     vm_x86.obj
 0002:000063f8       ??_C@_0CC@BBOPGMCE@VM_CompileX86?3?5maxLength?5exceede@ 004cd3f8     vm_x86.obj
 0002:0000641c       ??_C@_0CH@KBPAIEIJ@VM_CompileX86?3?5pc?5?$DO?5header?9?$DOcode@ 004cd41c     vm_x86.obj
 0002:00006444       ??_C@_02KJDGAJLC@CC?$AA@   004cd444     vm_x86.obj
 0002:00006448       ??_C@_05GBDIBBPP@81?5EE?$AA@ 004cd448     vm_x86.obj
 0002:00006450       ??_C@_05PEBFPPCL@8B?503?$AA@ 004cd450     vm_x86.obj
 0002:00006458       ??_C@_08DGCLDJBK@0F?5B7?503?$AA@ 004cd458     vm_x86.obj
 0002:00006464       ??_C@_08LELBAKK@0F?5B6?503?$AA@ 004cd464     vm_x86.obj
 0002:00006470       ??_C@_05HEAEHPEN@89?583?$AA@ 004cd470     vm_x86.obj
 0002:00006478       ??_C@_08PCPLBAHO@66?589?583?$AA@ 004cd478     vm_x86.obj
 0002:00006484       ??_C@_05EJGEFGPN@88?583?$AA@ 004cd484     vm_x86.obj
 0002:0000648c       ??_C@_05COALKADA@81?507?$AA@ 004cd48c     vm_x86.obj
 0002:00006494       ??_C@_05BLKLDMOJ@81?52F?$AA@ 004cd494     vm_x86.obj
 0002:0000649c       ??_C@_05MAKOKIJC@C7?507?$AA@ 004cd49c     vm_x86.obj
 0002:000064a4       ??_C@_05IDBKPHG@8D?586?$AA@ 004cd4a4     vm_x86.obj
 0002:000064ac       ??_C@_05JHDILAI@89?586?$AA@ 004cd4ac     vm_x86.obj
 0002:000064b4       ??_C@_05NHKGMIGL@C7?586?$AA@ 004cd4b4     vm_x86.obj
 0002:000064bc       ??_C@_05GHCFPIOL@FF?515?$AA@ 004cd4bc     vm_x86.obj
 0002:000064c4       ??_C@_05GBKHEHHI@81?5C6?$AA@ 004cd4c4     vm_x86.obj
 0002:000064cc       ??_C@_02IGAJHAEE@C3?$AA@   004cd4cc     vm_x86.obj
 0002:000064d0       ??_C@_05DOKOGEOC@FF?583?$AA@ 004cd4d0     vm_x86.obj
 0002:000064d8       ??_C@_05PKAGKOJD@8B?583?$AA@ 004cd4d8     vm_x86.obj
 0002:000064e0       ??_C@_02IGOEABML@05?$AA@   004cd4e0     vm_x86.obj
 0002:000064e4       ??_C@_05IIKCMFF@FF?58B?$AA@ 004cd4e4     vm_x86.obj
 0002:000064ec       ??_C@_02LDEEJNBC@2D?$AA@   004cd4ec     vm_x86.obj
 0002:000064f0       ??_C@_05NBCLPNFA@8B?580?$AA@ 004cd4f0     vm_x86.obj
 0002:000064f8       ??_C@_08DIDIGIKC@0F?5B7?583?$AA@ 004cd4f8     vm_x86.obj
 0002:00006504       ??_C@_08FFIEBBC@0F?5B6?583?$AA@ 004cd504     vm_x86.obj
 0002:00006510       ??_C@_08KEGPAMOK@8B?55F?5FC?$AA@ 004cd510     vm_x86.obj
 0002:0000651c       ??_C@_08JLIDONOD@8B?547?504?$AA@ 004cd51c     vm_x86.obj
 0002:00006528       ??_C@_08LFGDDMDC@3B?547?508?$AA@ 004cd528     vm_x86.obj
 0002:00006534       ??_C@_05DDMGIFGE@75?506?$AA@ 004cd534     vm_x86.obj
 0002:0000653c       ??_C@_05GFGDEGLC@FF?525?$AA@ 004cd53c     vm_x86.obj
 0002:00006544       ??_C@_05OKGKMNE@74?506?$AA@ 004cd544     vm_x86.obj
 0002:0000654c       ??_C@_05PHHEEMBL@7D?506?$AA@ 004cd54c     vm_x86.obj
 0002:00006554       ??_C@_05INLEBPHL@7F?506?$AA@ 004cd554     vm_x86.obj
 0002:0000655c       ??_C@_05MKBEGFKL@7E?506?$AA@ 004cd55c     vm_x86.obj
 0002:00006564       ??_C@_05EFFEJAAL@7C?506?$AA@ 004cd564     vm_x86.obj
 0002:0000656c       ??_C@_05LMIGHAME@73?506?$AA@ 004cd56c     vm_x86.obj
 0002:00006574       ??_C@_05EJAGNGAE@77?506?$AA@ 004cd574     vm_x86.obj
 0002:0000657c       ??_C@_05HEGGPPLE@76?506?$AA@ 004cd57c     vm_x86.obj
 0002:00006584       ??_C@_05IBOGFJHE@72?506?$AA@ 004cd584     vm_x86.obj
 0002:0000658c       ??_C@_08HMCOFAOE@D9?547?504?$AA@ 004cd58c     vm_x86.obj
 0002:00006598       ??_C@_08BDNPAFKM@D8?55F?508?$AA@ 004cd598     vm_x86.obj
 0002:000065a4       ??_C@_05EGCGNCJ@DF?5E0?$AA@ 004cd5a4     vm_x86.obj
 0002:000065ac       ??_C@_08LJBKEALP@F6?5C4?540?$AA@ 004cd5ac     vm_x86.obj
 0002:000065b8       ??_C@_08KHAINJCC@F6?5C4?501?$AA@ 004cd5b8     vm_x86.obj
 0002:000065c4       ??_C@_08KAABHBPO@F6?5C4?541?$AA@ 004cd5c4     vm_x86.obj
 0002:000065d0       ??_C@_05KHIFBLKB@F7?51F?$AA@ 004cd5d0     vm_x86.obj
 0002:000065d8       ??_C@_08DCIGCCFL@01?547?5FC?$AA@ 004cd5d8     vm_x86.obj
 0002:000065e4       ??_C@_08MPJFBBGI@29?547?5FC?$AA@ 004cd5e4     vm_x86.obj
 0002:000065f0       ??_C@_08KLIBBGDA@8B?547?5FC?$AA@ 004cd5f0     vm_x86.obj
 0002:000065fc       ??_C@_02CFIAHFEI@99?$AA@   004cd5fc     vm_x86.obj
 0002:00006600       ??_C@_05KEABMPMP@F7?53F?$AA@ 004cd600     vm_x86.obj
 0002:00006608       ??_C@_08FKLLJLPG@89?547?5FC?$AA@ 004cd608     vm_x86.obj
 0002:00006614       ??_C@_05BAIDDHFK@33?5D2?$AA@ 004cd614     vm_x86.obj
 0002:0000661c       ??_C@_05JCCFIHHI@F7?537?$AA@ 004cd61c     vm_x86.obj
 0002:00006624       ??_C@_08JBOHEIFD@89?557?5FC?$AA@ 004cd624     vm_x86.obj
 0002:00006630       ??_C@_05KFMDKFPI@F7?52F?$AA@ 004cd630     vm_x86.obj
 0002:00006638       ??_C@_05JDOHONEP@F7?527?$AA@ 004cd638     vm_x86.obj
 0002:00006640       ??_C@_08BMHAAKNN@21?547?5FC?$AA@ 004cd640     vm_x86.obj
 0002:0000664c       ??_C@_08OBGDDJOO@09?547?5FC?$AA@ 004cd64c     vm_x86.obj
 0002:00006658       ??_C@_08LALBOJO@31?547?5FC?$AA@ 004cd658     vm_x86.obj
 0002:00006664       ??_C@_05JBKBFDBG@F7?517?$AA@ 004cd664     vm_x86.obj
 0002:0000666c       ??_C@_05KGFNHCJI@8B?50F?$AA@ 004cd66c     vm_x86.obj
 0002:00006674       ??_C@_08JACEBGPE@D3?567?5FC?$AA@ 004cd674     vm_x86.obj
 0002:00006680       ??_C@_08JPMKAMCO@D3?57F?5FC?$AA@ 004cd680     vm_x86.obj
 0002:0000668c       ??_C@_08FEJGNPIL@D3?56F?5FC?$AA@ 004cd68c     vm_x86.obj
 0002:00006698       ??_C@_05GCJLCGEL@D9?507?$AA@ 004cd698     vm_x86.obj
 0002:000066a0       ??_C@_05HPOABKDH@D9?5E0?$AA@ 004cd6a0     vm_x86.obj
 0002:000066a8       ??_C@_05FFHNAEML@D9?51F?$AA@ 004cd6a8     vm_x86.obj
 0002:000066b0       ??_C@_08EMCMKLDH@D9?547?5FC?$AA@ 004cd6b0     vm_x86.obj
 0002:000066bc       ??_C@_05FPPLAPPL@D8?507?$AA@ 004cd6bc     vm_x86.obj
 0002:000066c4       ??_C@_08EDMCLBON@D9?55F?5FC?$AA@ 004cd6c4     vm_x86.obj
 0002:000066d0       ??_C@_08PNEMPBHB@D8?567?504?$AA@ 004cd6d0     vm_x86.obj
 0002:000066dc       ??_C@_08DGBACCNE@D8?577?504?$AA@ 004cd6dc     vm_x86.obj
 0002:000066e8       ??_C@_08LFPHLGAB@D8?54f?504?$AA@ 004cd6e8     vm_x86.obj
 0002:000066f4       ??_C@_05OMJJPHJF@DB?507?$AA@ 004cd6f4     vm_x86.obj
 0002:000066fc       ??_C@_08NBFFEPLB@0F?5BE?507?$AA@ 004cd6fc     vm_x86.obj
 0002:00006708       ??_C@_08JGPFDFGB@0F?5BF?507?$AA@ 004cd708     vm_x86.obj
 0002:00006714       ??_C@_02LCBJKBKC@57?$AA@   004cd714     vm_x86.obj
 0002:00006718       ??_C@_05JCDPIEHG@8B?537?$AA@ 004cd718     vm_x86.obj
 0002:00006720       ??_C@_08OJKHKNOB@8B?57F?5FC?$AA@ 004cd720     vm_x86.obj
 0002:0000672c       ??_C@_02HNCEPCPJ@B9?$AA@   004cd72c     vm_x86.obj
 0002:00006730       ??_C@_05OKGNFCBD@23?5F0?$AA@ 004cd730     vm_x86.obj
 0002:00006738       ??_C@_05IMIIKANL@03?5F3?$AA@ 004cd738     vm_x86.obj
 0002:00006740       ??_C@_05CCLENIBL@23?5F8?$AA@ 004cd740     vm_x86.obj
 0002:00006748       ??_C@_05LKKMOIGM@03?5FB?$AA@ 004cd748     vm_x86.obj
 0002:00006750       ??_C@_05COGPPAE@F3?5A5?$AA@ 004cd750     vm_x86.obj
 0002:00006758       ??_C@_02IEDNOJBF@5F?$AA@   004cd758     vm_x86.obj
 0002:0000675c       ??_C@_02KPBALKNG@5E?$AA@   004cd75c     vm_x86.obj
 0002:00006760       ??_C@_08KBFJACGK@FF?524?585?$AA@ 004cd760     vm_x86.obj
 0002:0000676c       ??_C@_0CK@EFPLJADG@VM_CompileX86?3?5bad?5opcode?5?$CFi?5at?5@ 004cd76c     vm_x86.obj
 0002:00006798       ??_C@_0CJ@IMEHDLPA@VM?5file?5?$CFs?5compiled?5to?5?$CFi?5bytes?5@ 004cd798     vm_x86.obj
 0002:000067c4       ??_C@_0CD@CEBALJKM@opStack?5corrupted?5in?5compiled?5co@ 004cd7c4     vm_x86.obj
 0002:000067e8       ??_C@_0CI@DJIHNOJD@programStack?5corrupted?5in?5compil@ 004cd7e8     vm_x86.obj
 0002:00006810       ??_C@_0CE@GNNEKHHF@SV_BotFreeClient?3?5bad?5clientNum?3@ 004cd810     sv_bot.obj
 0002:00006834       ??_C@_09JMCENGKH@bot_debug?$AA@ 004cd834     sv_bot.obj
 0002:00006840       ??_C@_0BB@GFMPGHPP@bot_reachability?$AA@ 004cd840     sv_bot.obj
 0002:00006854       ??_C@_0P@PHABANOG@bot_groundonly?$AA@ 004cd854     sv_bot.obj
 0002:00006864       ??_C@_0BC@KEMOOJ@bot_highlightarea?$AA@ 004cd864     sv_bot.obj
 0002:00006878       ??_C@_0O@LHCIHOMB@?$FO3Warning?3?5?$CFs?$AA@ 004cd878     sv_bot.obj
 0002:00006888       ??_C@_0M@LKBEKEOF@?$FO1Error?3?5?$CFs?$AA@ 004cd888     sv_bot.obj
 0002:00006894       ??_C@_0M@GLOCHAGD@?$FO1Fatal?3?5?$CFs?$AA@ 004cd894     sv_bot.obj
 0002:000068a0       ??_C@_0L@CNJLHKJM@?$FO1Exit?3?5?$CFs?$AA@ 004cd8a0     sv_bot.obj
 0002:000068ac       ??_C@_0BE@HKMNOMAG@unknown?5print?5type?6?$AA@ 004cd8ac     sv_bot.obj
 0002:000068c0       ??_C@_0DA@ONPNGPHE@SV_Bot_HunkAlloc?3?5Alloc?5with?5mar@ 004cd8c0     sv_bot.obj
 0002:000068f0       ??_C@_0DC@ICCMFCJF@?$FO1Error?3?5SV_BotLibSetup?5without?5@ 004cd8f0     sv_bot.obj
 0002:00006924       ??_C@_0L@BKCPIMBP@bot_enable?$AA@ 004cd924     sv_bot.obj
 0002:00006930       ??_C@_0O@IHEJFHJE@bot_developer?$AA@ 004cd930     sv_bot.obj
 0002:00006940       ??_C@_0BC@OFKLJGBH@bot_maxdebugpolys?$AA@ 004cd940     sv_bot.obj
 0002:00006954       ??_C@_0BG@HILKKLKJ@bot_visualizejumppads?$AA@ 004cd954     sv_bot.obj
 0002:0000696c       ??_C@_0BE@HANIKEON@bot_forceclustering?$AA@ 004cd96c     sv_bot.obj
 0002:00006980       ??_C@_0BG@GJKIOMNG@bot_forcereachability?$AA@ 004cd980     sv_bot.obj
 0002:00006998       ??_C@_0P@HFCEKFCE@bot_forcewrite?$AA@ 004cd998     sv_bot.obj
 0002:000069a8       ??_C@_0BA@CHMPBPHA@bot_aasoptimize?$AA@ 004cd9a8     sv_bot.obj
 0002:000069b8       ??_C@_0BF@MDEDPJEF@bot_saveroutingcache?$AA@ 004cd9b8     sv_bot.obj
 0002:000069d0       ??_C@_0O@NKIABNEG@bot_thinktime?$AA@ 004cd9d0     sv_bot.obj
 0002:000069e0       ??_C@_0BF@BBFOCAKO@bot_reloadcharacters?$AA@ 004cd9e0     sv_bot.obj
 0002:000069f8       ??_C@_0O@HIGNEDPK@bot_testichat?$AA@ 004cd9f8     sv_bot.obj
 0002:00006a08       ??_C@_0O@BBHMLBKC@bot_testrchat?$AA@ 004cda08     sv_bot.obj
 0002:00006a18       ??_C@_0O@NEGDFLLI@bot_testsolid?$AA@ 004cda18     sv_bot.obj
 0002:00006a28       ??_C@_0BB@LICKAML@bot_testclusters?$AA@ 004cda28     sv_bot.obj
 0002:00006a3c       ??_C@_0N@JOELMLFL@bot_fastchat?$AA@ 004cda3c     sv_bot.obj
 0002:00006a4c       ??_C@_0L@JNAIAIAH@bot_nochat?$AA@ 004cda4c     sv_bot.obj
 0002:00006a58       ??_C@_09KJGEBPM@bot_pause?$AA@ 004cda58     sv_bot.obj
 0002:00006a64       ??_C@_0L@DIBKBFBJ@bot_report?$AA@ 004cda64     sv_bot.obj
 0002:00006a70       ??_C@_0M@HIPNFLBG@bot_grapple?$AA@ 004cda70     sv_bot.obj
 0002:00006a7c       ??_C@_0P@OLNMGHML@bot_rocketjump?$AA@ 004cda7c     sv_bot.obj
 0002:00006a8c       ??_C@_0O@ILENLOKO@bot_challenge?$AA@ 004cda8c     sv_bot.obj
 0002:00006a9c       ??_C@_0P@IGNPDGBD@bot_minplayers?$AA@ 004cda9c     sv_bot.obj
 0002:00006aac       ??_C@_0BD@MIDHDJEH@bot_interbreedchar?$AA@ 004cdaac     sv_bot.obj
 0002:00006ac0       ??_C@_02PKFBJPLJ@10?$AA@   004cdac0     sv_bot.obj
 0002:00006ac4       ??_C@_0BD@GLHGHIJE@bot_interbreedbots?$AA@ 004cdac4     sv_bot.obj
 0002:00006ad8       ??_C@_0BE@BBMLIECL@bot_interbreedcycle?$AA@ 004cdad8     sv_bot.obj
 0002:00006aec       ??_C@_0BE@IDNEOHBL@bot_interbreedwrite?$AA@ 004cdaec     sv_bot.obj
 0002:00006b00       ??_C@_0BF@NJDIPJLA@Game?5CD?5not?5in?5drive?$AA@ 004cdb00     sv_bot.obj
 0002:00006b18       __real@3fefae147ae147ae    004cdb18     sv_bot.obj
 0002:00006b20       __real@bfefae147ae147ae    004cdb20     sv_bot.obj
 0002:00006b28       ??_C@_0BG@FMLKELB@No?5player?5specified?4?6?$AA@ 004cdb28     sv_ccmds.obj
 0002:00006b40       ??_C@_0CA@COHLGPJ@Player?5?$CFs?5is?5not?5on?5the?5server?6?$AA@ 004cdb40     sv_ccmds.obj
 0002:00006b60       ??_C@_0BF@GAKLMKPI@Bad?5slot?5number?3?5?$CFs?6?$AA@ 004cdb60     sv_ccmds.obj
 0002:00006b78       ??_C@_0BF@BEBENGBA@Bad?5client?5slot?3?5?$CFi?6?$AA@ 004cdb78     sv_ccmds.obj
 0002:00006b90       ??_C@_0BJ@PDNIBEAG@Client?5?$CFi?5is?5not?5active?6?$AA@ 004cdb90     sv_ccmds.obj
 0002:00006bac       ??_C@_0BD@IOLJLANL@Can?8t?5find?5map?5?$CFs?6?$AA@ 004cdbac     sv_ccmds.obj
 0002:00006bc0       ??_C@_0L@GFINLBEC@g_gametype?$AA@ 004cdbc0     sv_ccmds.obj
 0002:00006bcc       ??_C@_02HJDGIJBC@sp?$AA@   004cdbcc     sv_ccmds.obj
 0002:00006bd0       ??_C@_0L@LPENDGCI@g_doWarmup?$AA@ 004cdbd0     sv_ccmds.obj
 0002:00006bdc       ??_C@_06JMKHDEMO@devmap?$AA@ 004cdbdc     sv_ccmds.obj
 0002:00006be4       ??_C@_08ICLMJBJO@spdevmap?$AA@ 004cdbe4     sv_ccmds.obj
 0002:00006bf0       ??_C@_0BI@BNNKLCPB@Server?5is?5not?5running?4?6?$AA@ 004cdbf0     sv_ccmds.obj
 0002:00006c08       ??_C@_0CA@KCGHPPMG@variable?5change?5?9?9?5restarting?4?6?$AA@ 004cdc08     sv_ccmds.obj
 0002:00006c28       ??_C@_0N@HLIAHCAN@map_restart?6?$AA@ 004cdc28     sv_ccmds.obj
 0002:00006c38       ??_C@_0DC@HPLLIPAB@SV_MapRestart_f?$CI?$CFd?$CJ?3?5dropped?5cli@ 004cdc38     sv_ccmds.obj
 0002:00006c70       ??_C@_0FB@IAPOMDOC@Usage?3?5kick?5?$DMplayer?5name?$DO?6kick?5a@ 004cdc70     sv_ccmds.obj
 0002:00006cc4       ??_C@_03NFKEKGGK@all?$AA@  004cdcc4     sv_ccmds.obj
 0002:00006cc8       ??_C@_0L@JGGOGHBB@was?5kicked?$AA@ 004cdcc8     sv_ccmds.obj
 0002:00006cd4       ??_C@_07GCOBEAMC@allbots?$AA@ 004cdcd4     sv_ccmds.obj
 0002:00006cdc       ??_C@_0BJ@BPEGMFB@Cannot?5kick?5host?5player?6?$AA@ 004cdcdc     sv_ccmds.obj
 0002:00006cf8       ??_C@_0L@GPCEIOHM@print?5?$CC?$CFs?$CC?$AA@ 004cdcf8     sv_ccmds.obj
 0002:00006d04       ??_C@_0BO@JNCGGNFP@Usage?3?5banUser?5?$DMplayer?5name?$DO?6?$AA@ 004cdd04     sv_ccmds.obj
 0002:00006d24       ??_C@_0BE@LNHBPGBP@banUser?5?$CFi?4?$CFi?4?$CFi?4?$CFi?$AA@ 004cdd24     sv_ccmds.obj
 0002:00006d38       ??_C@_0CA@IHMFJNLM@?$CFs?5was?5banned?5from?5coming?5back?6?$AA@ 004cdd38     sv_ccmds.obj
 0002:00006d58       ??_C@_0CC@FHLBNCJE@Usage?3?5banClient?5?$DMclient?5number?$DO@ 004cdd58     sv_ccmds.obj
 0002:00006d7c       ??_C@_0CA@OMEFHEIE@Usage?3?5kicknum?5?$DMclient?5number?$DO?6?$AA@ 004cdd7c     sv_ccmds.obj
 0002:00006d9c       ??_C@_08BLGHJHOM@map?3?5?$CFs?6?$AA@ 004cdd9c     sv_ccmds.obj
 0002:00006da8       ??_C@_0EJ@JCNPBNOM@num?5score?5ping?5name?5?5?5?5?5?5?5?5?5?5?5?5l@ 004cdda8     sv_ccmds.obj
 0002:00006df8       ??_C@_0EK@MBPBHBBK@?9?9?9?5?9?9?9?9?9?5?9?9?9?9?5?9?9?9?9?9?9?9?9?9?9?9?9?9?9?9?5?9@ 004cddf8     sv_ccmds.obj
 0002:00006e44       ??_C@_04OACLNE@?$CF3i?5?$AA@ 004cde44     sv_ccmds.obj
 0002:00006e4c       ??_C@_04CFILHEAI@?$CF5i?5?$AA@ 004cde4c     sv_ccmds.obj
 0002:00006e54       ??_C@_05FHKCJFKL@CNCT?5?$AA@ 004cde54     sv_ccmds.obj
 0002:00006e5c       ??_C@_05JIJJOLGO@ZMBI?5?$AA@ 004cde5c     sv_ccmds.obj
 0002:00006e64       ??_C@_04JNDHBDGN@?$CF4i?5?$AA@ 004cde64     sv_ccmds.obj
 0002:00006e6c       ??_C@_02PGJLIFGD@?$FO7?$AA@ 004cde6c     sv_ccmds.obj
 0002:00006e70       ??_C@_04IPICLMID@?$CF7i?5?$AA@ 004cde70     sv_ccmds.obj
 0002:00006e78       ??_C@_03NPMIIIHK@?$CF5i?$AA@ 004cde78     sv_ccmds.obj
 0002:00006e7c       ??_C@_04PJGPIPHP@?5?$CF5i?$AA@ 004cde7c     sv_ccmds.obj
 0002:00006e84       ??_C@_09KIHOHKKG@console?3?5?$AA@ 004cde84     sv_ccmds.obj
 0002:00006e90       ??_C@_0L@KDCLABHC@chat?5?$CC?$CFs?6?$CC?$AA@ 004cde90     sv_ccmds.obj
 0002:00006e9c       ??_C@_0BH@LAHBCPJF@Server?5info?5settings?3?6?$AA@ 004cde9c     sv_ccmds.obj
 0002:00006eb4       ??_C@_0BH@HBKMNNLG@System?5info?5settings?3?6?$AA@ 004cdeb4     sv_ccmds.obj
 0002:00006ecc       ??_C@_0BG@NIEOENOA@Usage?3?5info?5?$DMuserid?$DO?6?$AA@ 004cdecc     sv_ccmds.obj
 0002:00006ee4       ??_C@_09IIBHBCGO@userinfo?6?$AA@ 004cdee4     sv_ccmds.obj
 0002:00006ef0       ??_C@_09DDAOCEB@?9?9?9?9?9?9?9?9?6?$AA@ 004cdef0     sv_ccmds.obj
 0002:00006efc       ??_C@_0L@OMIGLNJO@killserver?$AA@ 004cdefc     sv_ccmds.obj
 0002:00006f08       ??_C@_09NCPIAHOP@heartbeat?$AA@ 004cdf08     sv_ccmds.obj
 0002:00006f14       ??_C@_04FNIJDBCC@kick?$AA@ 004cdf14     sv_ccmds.obj
 0002:00006f1c       ??_C@_07MNEAPDFN@banUser?$AA@ 004cdf1c     sv_ccmds.obj
 0002:00006f24       ??_C@_09NMALIMLK@banClient?$AA@ 004cdf24     sv_ccmds.obj
 0002:00006f30       ??_C@_0L@NBDAICFL@clientkick?$AA@ 004cdf30     sv_ccmds.obj
 0002:00006f3c       ??_C@_06DJIHEMFI@status?$AA@ 004cdf3c     sv_ccmds.obj
 0002:00006f44       ??_C@_0L@OJMFMOP@serverinfo?$AA@ 004cdf44     sv_ccmds.obj
 0002:00006f50       ??_C@_0L@JENAJOPJ@systeminfo?$AA@ 004cdf50     sv_ccmds.obj
 0002:00006f5c       ??_C@_08GCHPGJL@dumpuser?$AA@ 004cdf5c     sv_ccmds.obj
 0002:00006f68       ??_C@_0L@LFJOEPCG@sectorlist?$AA@ 004cdf68     sv_ccmds.obj
 0002:00006f74       ??_C@_03HBNNNHNM@map?$AA@  004cdf74     sv_ccmds.obj
 0002:00006f78       ??_C@_05JFDPDGMD@spmap?$AA@ 004cdf78     sv_ccmds.obj
 0002:00006f80       ??_C@_03BANJEMDJ@say?$AA@  004cdf80     sv_ccmds.obj
 0002:00006f84       ??_C@_02GFBACKGC@cp?$AA@   004cdf84     sv_client.obj
 0002:00006f88       ??_C@_08HNIAHLMM@download?$AA@ 004cdf88     sv_client.obj
 0002:00006f94       ??_C@_06EKEKFCEC@nextdl?$AA@ 004cdf94     sv_client.obj
 0002:00006f9c       ??_C@_0BF@JLJINJFC@challengeResponse?5?$CFi?$AA@ 004cdf9c     sv_client.obj
 0002:00006fb4       ??_C@_0BM@KDJKNJFI@authorize?5server?5timed?5out?6?$AA@ 004cdfb4     sv_client.obj
 0002:00006fd0       ??_C@_0BP@ECBEJKDB@sending?5getIpAuthorize?5for?5?$CFs?6?$AA@ 004cdfd0     sv_client.obj
 0002:00006ff0       ??_C@_0CG@IHMMCKIP@getIpAuthorize?5?$CFi?5?$CFi?4?$CFi?4?$CFi?4?$CFi?5?$CFs@ 004cdff0     sv_client.obj
 0002:00007018       ??_C@_0DB@LGFOIHIH@SV_AuthorizeIpPacket?3?5not?5from?5a@ 004ce018     sv_client.obj
 0002:0000704c       ??_C@_0CL@OHKPCOFN@SV_AuthorizeIpPacket?3?5challenge?5@ 004ce04c     sv_client.obj
 0002:00007078       ??_C@_0CD@NLEENFLL@print?6Server?5is?5not?5a?5demo?5serve@ 004ce078     sv_client.obj
 0002:0000709c       ??_C@_06MPKMECK@accept?$AA@ 004ce09c     sv_client.obj
 0002:000070a4       ??_C@_0CF@DFLDHJDB@print?6Awaiting?5CD?5key?5authorizat@ 004ce0a4     sv_client.obj
 0002:000070cc       ??_C@_09MBPDEDJD@print?6?$CFs?6?$AA@ 004ce0cc     sv_client.obj
 0002:000070d8       ??_C@_0CE@IHINFNJF@print?6Someone?5is?5using?5this?5CD?5K@ 004ce0d8     sv_client.obj
 0002:000070fc       ??_C@_0BG@MHNPDKDO@SVC_DirectConnect?5?$CI?$CJ?6?$AA@ 004ce0fc     sv_client.obj
 0002:00007114       ??_C@_0CI@CNIPOKOM@print?6Server?5uses?5protocol?5versi@ 004ce114     sv_client.obj
 0002:0000713c       ??_C@_0CG@NFNEGGLD@?5?5?5?5rejected?5connect?5from?5versio@ 004ce13c     sv_client.obj
 0002:00007164       ??_C@_0CC@CIJKAFKI@?$CFs?3reconnect?5rejected?5?3?5too?5soon@ 004ce164     sv_client.obj
 0002:00007188       ??_C@_0CI@EIEGJKNB@print?6No?5or?5bad?5challenge?5for?5ad@ 004ce188     sv_client.obj
 0002:000071b0       ??_C@_02GIIHKPLE@ip?$AA@   004ce1b0     sv_client.obj
 0002:000071b4       ??_C@_0CN@CCHCPFHI@Client?5?$CFi?5connecting?5with?5?$CFi?5cha@ 004ce1b4     sv_client.obj
 0002:000071e4       ??_C@_0CF@JPLKPOEC@print?6Server?5is?5for?5high?5pings?5o@ 004ce1e4     sv_client.obj
 0002:0000720c       ??_C@_0CG@PNAAMAJH@Client?5?$CFi?5rejected?5on?5a?5too?5low?5@ 004ce20c     sv_client.obj
 0002:00007234       ??_C@_0CE@KINDDLDA@print?6Server?5is?5for?5low?5pings?5on@ 004ce234     sv_client.obj
 0002:00007258       ??_C@_0CH@PHCNAHEM@Client?5?$CFi?5rejected?5on?5a?5too?5high@ 004ce258     sv_client.obj
 0002:00007280       ??_C@_0O@FLCHKEJG@?$CFs?3reconnect?6?$AA@ 004ce280     sv_client.obj
 0002:00007290       ??_C@_0BE@HMGKIAJD@only?5bots?5on?5server?$AA@ 004ce290     sv_client.obj
 0002:000072a4       ??_C@_0CB@OMBNPOIO@server?5is?5full?5on?5local?5connect?6@ 004ce2a4     sv_client.obj
 0002:000072c8       ??_C@_0BH@NCFENBBP@print?6Server?5is?5full?4?6?$AA@ 004ce2c8     sv_client.obj
 0002:000072e0       ??_C@_0BI@BLKLCACF@Rejected?5a?5connection?4?6?$AA@ 004ce2e0     sv_client.obj
 0002:000072f8       ??_C@_0CB@GOGCKONC@Game?5rejected?5a?5connection?3?5?$CFs?4?6@ 004ce2f8     sv_client.obj
 0002:0000731c       ??_C@_0CL@DFDOECNK@Going?5from?5CS_FREE?5to?5CS_CONNECT@ 004ce31c     sv_client.obj
 0002:00007348       ??_C@_0BB@FFPEABPI@print?5?$CC?$CFs?$FO7?5?$CFs?6?$CC?$AA@ 004ce348     sv_client.obj
 0002:0000735c       ??_C@_0BL@IKHIFDGN@Going?5to?5CS_ZOMBIE?5for?5?$CFs?6?$AA@ 004ce35c     sv_client.obj
 0002:00007378       ??_C@_0BA@PCPGFMFA@disconnect?5?$CC?$CFs?$CC?$AA@ 004ce378     sv_client.obj
 0002:00007388       ??_C@_0CB@EAILJHJ@SV_SendClientGameState?$CI?$CJ?5for?5?$CFs?6@ 004ce388     sv_client.obj
 0002:000073ac       ??_C@_0CN@KDBDIPIK@Going?5from?5CS_CONNECTED?5to?5CS_PR@ 004ce3ac     sv_client.obj
 0002:000073dc       ??_C@_0CK@GAFGMNPI@Going?5from?5CS_PRIMED?5to?5CS_ACTIV@ 004ce3dc     sv_client.obj
 0002:00007408       ??_C@_0CI@MOHODIAH@clientDownload?3?5?$CFd?5?3?5file?5?$CC?$CFs?$CC?5a@ 004ce408     sv_client.obj
 0002:00007430       ??_C@_0BJ@GCBEGMAA@clientDownload?3?5?$CFs?5Done?6?$AA@ 004ce430     sv_client.obj
 0002:0000744c       ??_C@_0DF@CGGBKJAN@clientDownload?3?5?$CFd?5?3?5client?5ackn@ 004ce44c     sv_client.obj
 0002:00007484       ??_C@_0CK@EEKHNEKF@clientDownload?3?5?$CFd?5?3?5file?5?$CC?$CFs?$CC?5c@ 004ce484     sv_client.obj
 0002:000074b0       ??_C@_0BA@KJHEBMDK@broken?5download?$AA@ 004ce4b0     sv_client.obj
 0002:000074c0       ??_C@_0CE@JIBLCLMP@clientDownload?3?5?$CFd?5?3?5begining?5?$CC?$CF@ 004ce4c0     sv_client.obj
 0002:000074e4       ??_C@_0DI@PLGAONGI@clientDownload?3?5?$CFd?5?3?5?$CC?$CFs?$CC?5cannot@ 004ce4e4     sv_client.obj
 0002:00007520       ??_C@_0GM@IJEBFDBA@Cannot?5autodownload?5Team?5Arena?5f@ 004ce520     sv_client.obj
 0002:0000758c       ??_C@_0CF@NHMNKNNJ@Cannot?5autodownload?5id?5pk3?5file?5@ 004ce58c     sv_client.obj
 0002:000075b4       ??_C@_0CM@JNECMCJP@clientDownload?3?5?$CFd?5?3?5?$CC?$CFs?$CC?5downlo@ 004ce5b4     sv_client.obj
 0002:000075e0       ??_C@_0KC@PMIAHGNA@Could?5not?5download?5?$CC?$CFs?$CC?5because?5@ 004ce5e0     sv_client.obj
 0002:00007688       ??_C@_0NL@DHILMFMH@Could?5not?5download?5?$CC?$CFs?$CC?5because?5@ 004ce688     sv_client.obj
 0002:00007764       ??_C@_0DE@PKCFFLAA@clientDownload?3?5?$CFd?5?3?5?$CC?$CFs?$CC?5file?5n@ 004ce764     sv_client.obj
 0002:00007798       ??_C@_0DE@NDHILGPJ@File?5?$CC?$CFs?$CC?5not?5found?5on?5server?5fo@ 004ce798     sv_client.obj
 0002:000077cc       ??_C@_04KOJKLCBG@1000?$AA@ 004ce7cc     sv_client.obj
 0002:000077d4       ??_C@_0L@FHBHENPL@sv_MaxRate?$AA@ 004ce7d4     sv_client.obj
 0002:000077e0       ??_C@_0CH@KLJBEJLM@clientDownload?3?5?$CFd?5?3?5writing?5blo@ 004ce7e0     sv_client.obj
 0002:00007808       ??_C@_0N@GGGDBMDO@disconnected?$AA@ 004ce808     sv_client.obj
 0002:00007818       ??_C@_0N@MIJFBLLA@vm?1cgame?4qvm?$AA@ 004ce818     sv_client.obj
 0002:00007828       ??_C@_09NGKOICNF@vm?1ui?4qvm?$AA@ 004ce828     sv_client.obj
 0002:00007834       ??_C@_0CN@FCJKPEIK@ignoring?5outdated?5cp?5command?5fro@ 004ce834     sv_client.obj
 0002:00007864       ??_C@_0DH@DJILMAML@Unpure?5client?5detected?4?5Invalid?5@ 004ce864     sv_client.obj
 0002:0000789c       ??_C@_0CA@PLBLJOEE@client?5text?5ignored?5for?5?$CFs?3?5?$CFs?6?$AA@ 004ce89c     sv_client.obj
 0002:000078bc       ??_C@_0BN@CDEFJJCC@clientCommand?3?5?$CFs?5?3?5?$CFi?5?3?5?$CFs?6?$AA@ 004ce8bc     sv_client.obj
 0002:000078dc       ??_C@_0CC@POHIDIAI@Client?5?$CFs?5lost?5?$CFi?5clientCommands@ 004ce8dc     sv_client.obj
 0002:00007900       ??_C@_0BH@DJCJEPBJ@Lost?5reliable?5commands?$AA@ 004ce900     sv_client.obj
 0002:00007918       ??_C@_0O@KIEOLJAH@cmdCount?5?$DM?51?6?$AA@ 004ce918     sv_client.obj
 0002:00007928       ??_C@_0CA@MHDHEKFF@cmdCount?5?$DO?5MAX_PACKET_USERCMDS?6?$AA@ 004ce928     sv_client.obj
 0002:00007948       ??_C@_0DA@HCALNAD@?$CFs?3?5didn?8t?5get?5cp?5command?0?5resen@ 004ce948     sv_client.obj
 0002:00007978       ??_C@_0BN@OHAOFFFB@Cannot?5validate?5pure?5client?$CB?$AA@ 004ce978     sv_client.obj
 0002:00007998       ??_C@_0DJ@EAHJJJGJ@?$CFs?5?3?5ignoring?5pre?5map_restart?5?1?5@ 004ce998     sv_client.obj
 0002:000079d4       ??_C@_0CD@KEGKAOCA@?$CFs?5?3?5dropped?5gamestate?0?5resendin@ 004ce9d4     sv_client.obj
 0002:000079f8       ??_C@_0CJ@KKMJLOKN@WARNING?3?5bad?5command?5byte?5for?5cl@ 004ce9f8     sv_client.obj
 0002:00007a24       ??_C@_0CA@HBFCCGAO@SV_SvEntityForGentity?3?5bad?5gEnt?$AA@ 004cea24     sv_game.obj
 0002:00007a44       ??_C@_0BH@MHCNIHPH@SV_SetBrushModel?3?5NULL?$AA@ 004cea44     sv_game.obj
 0002:00007a5c       ??_C@_0CJ@BCMBPMHM@SV_SetBrushModel?3?5?$CFs?5isn?8t?5a?5bru@ 004cea5c     sv_game.obj
 0002:00007a88       ??_C@_0CD@INNMELOE@SV_GetServerinfo?3?5bufferSize?5?$DN?$DN?5@ 004cea88     sv_game.obj
 0002:00007aac       ??_C@_0CA@HGKJAJPL@SV_GetUsercmd?3?5bad?5clientNum?3?$CFi?$AA@ 004ceaac     sv_game.obj
 0002:00007acc       ??_C@_0BJ@HAMMCDKL@Bad?5game?5system?5trap?3?5?$CFi?$AA@ 004ceacc     sv_game.obj
 0002:00007ae8       ??_C@_0BK@FFDIGEEK@VM_Restart?5on?5game?5failed?$AA@ 004ceae8     sv_game.obj
 0002:00007b04       ??_C@_06BLCJNLEL@qagame?$AA@ 004ceb04     sv_game.obj
 0002:00007b0c       ??_C@_0BJ@EAOELJMB@VM_Create?5on?5game?5failed?$AA@ 004ceb0c     sv_game.obj
 0002:00007b28       ??_C@_0CC@NDBLLBPI@SV_SetConfigstring?3?5bad?5index?5?$CFi@ 004ceb28     sv_init.obj
 0002:00007b4c       ??_C@_0M@BPLDJGIF@?$CFs?5?$CFi?5?$CC?$CFs?$CC?6?$AA@ 004ceb4c     sv_init.obj
 0002:00007b58       ??_C@_0M@MAONIEJF@cs?5?$CFi?5?$CC?$CFs?$CC?6?$AA@ 004ceb58     sv_init.obj
 0002:00007b64       ??_C@_0CF@GDNLOPIJ@SV_GetConfigstring?3?5bufferSize?5?$DN@ 004ceb64     sv_init.obj
 0002:00007b8c       ??_C@_0CC@GPKJPKM@SV_GetConfigstring?3?5bad?5index?5?$CFi@ 004ceb8c     sv_init.obj
 0002:00007bb0       ??_C@_0BO@HKNINECJ@SV_SetUserinfo?3?5bad?5index?5?$CFi?6?$AA@ 004cebb0     sv_init.obj
 0002:00007bd0       ??_C@_0CB@MDKHFBJG@SV_GetUserinfo?3?5bufferSize?5?$DN?$DN?5?$CFi@ 004cebd0     sv_init.obj
 0002:00007bf4       ??_C@_0BO@EFONBEDJ@SV_GetUserinfo?3?5bad?5index?5?$CFi?6?$AA@ 004cebf4     sv_init.obj
 0002:00007c14       ??_C@_0BM@HIHCAEOD@SV_Startup?3?5svs?4initialized?$AA@ 004cec14     sv_init.obj
 0002:00007c30       ??_C@_0CF@OFBEAHFI@?9?9?9?9?9?9?5Server?5Initialization?5?9?9?9@ 004cec30     sv_init.obj
 0002:00007c58       ??_C@_0O@JEFGAJAK@map_restart?50?$AA@ 004cec58     sv_init.obj
 0002:00007c68       ??_C@_0P@HEEKJLPJ@sv_mapChecksum?$AA@ 004cec68     sv_init.obj
 0002:00007c78       ??_C@_0CO@LKBABFKA@WARNING?3?5sv_pure?5set?5but?5no?5PK3?5@ 004cec78     sv_init.obj
 0002:00007ca8       ??_C@_0CF@MLCIJBNO@?9?9?9?9?9?9?9?9?9?9?9?9?9?9?9?9?9?9?9?9?9?9?9?9?9?9?9?9?9?9?9?9@ 004ceca8     sv_init.obj
 0002:00007cd0       ??_C@_07GMGCLCAP@dmflags?$AA@ 004cecd0     sv_init.obj
 0002:00007cd8       ??_C@_09GCIEGDDN@fraglimit?$AA@ 004cecd8     sv_init.obj
 0002:00007ce4       ??_C@_09KPHKOKCC@timelimit?$AA@ 004cece4     sv_init.obj
 0002:00007cf0       ??_C@_0M@DBAEPHIE@sv_keywords?$AA@ 004cecf0     sv_init.obj
 0002:00007cfc       ??_C@_05MIMHCHNF@nomap?$AA@ 004cecfc     sv_init.obj
 0002:00007d04       ??_C@_0BC@BAEHHBBD@sv_privateClients?$AA@ 004ced04     sv_init.obj
 0002:00007d18       ??_C@_06LNKFDEGN@noname?$AA@ 004ced18     sv_init.obj
 0002:00007d20       ??_C@_0M@NHCIKFPA@sv_hostname?$AA@ 004ced20     sv_init.obj
 0002:00007d2c       ??_C@_0L@KOGBCPKN@sv_maxRate?$AA@ 004ced2c     sv_init.obj
 0002:00007d38       ??_C@_0L@NEPCLPOH@sv_minPing?$AA@ 004ced38     sv_init.obj
 0002:00007d44       ??_C@_0L@DCJCBAAG@sv_maxPing?$AA@ 004ced44     sv_init.obj
 0002:00007d50       ??_C@_0BA@HMJAMCL@sv_floodProtect?$AA@ 004ced50     sv_init.obj
 0002:00007d60       ??_C@_0BD@HGHMKODF@sv_privatePassword?$AA@ 004ced60     sv_init.obj
 0002:00007d74       ??_C@_06JGIFLGEL@sv_fps?$AA@ 004ced74     sv_init.obj
 0002:00007d7c       ??_C@_0L@MKEICGA@sv_timeout?$AA@ 004ced7c     sv_init.obj
 0002:00007d88       ??_C@_0O@LLNJEMPF@sv_zombietime?$AA@ 004ced88     sv_init.obj
 0002:00007d98       ??_C@_0BB@MOCFKELF@sv_allowDownload?$AA@ 004ced98     sv_init.obj
 0002:00007dac       ??_C@_0L@NPBPHGHP@sv_master1?$AA@ 004cedac     sv_init.obj
 0002:00007db8       ??_C@_0L@PEDCCFLM@sv_master2?$AA@ 004cedb8     sv_init.obj
 0002:00007dc4       ??_C@_0L@ONCJBEPN@sv_master3?$AA@ 004cedc4     sv_init.obj
 0002:00007dd0       ??_C@_0L@KCGIICDK@sv_master4?$AA@ 004cedd0     sv_init.obj
 0002:00007ddc       ??_C@_0L@LLHDLDHL@sv_master5?$AA@ 004ceddc     sv_init.obj
 0002:00007de8       ??_C@_0BC@MCFEMHMF@sv_reconnectlimit?$AA@ 004cede8     sv_init.obj
 0002:00007dfc       ??_C@_0M@EFKNOLKP@sv_showloss?$AA@ 004cedfc     sv_init.obj
 0002:00007e08       ??_C@_0O@GOELPJCA@sv_padPackets?$AA@ 004cee08     sv_init.obj
 0002:00007e18       ??_C@_0BA@DJIAIMF@sv_lanForceRate?$AA@ 004cee18     sv_init.obj
 0002:00007e28       ??_C@_0O@IIGECOIK@sv_strictAuth?$AA@ 004cee28     sv_init.obj
 0002:00007e38       ??_C@_0BN@MINIHLBM@?9?9?9?9?9?5Server?5Shutdown?5?9?9?9?9?9?6?$AA@ 004cee38     sv_init.obj
 0002:00007e58       ??_C@_0BN@CHNIPINJ@?9?9?9?9?9?9?9?9?9?9?9?9?9?9?9?9?9?9?9?9?9?9?9?9?9?9?9?6?$AA@ 004cee58     sv_init.obj
 0002:00007e78       ??_C@_0CF@DKJKGIEJ@?$DN?$DN?$DN?$DN?$DN?5pending?5server?5commands?5?$DN?$DN@ 004cee78     sv_main.obj
 0002:00007ea0       ??_C@_0N@HPDJBMCC@cmd?5?$CF5d?3?5?$CFs?6?$AA@ 004ceea0     sv_main.obj
 0002:00007eb0       ??_C@_0BI@BCMAPBDO@Server?5command?5overflow?$AA@ 004ceeb0     sv_main.obj
 0002:00007ec8       ??_C@_0P@KHEIJHKL@broadcast?3?5?$CFs?6?$AA@ 004ceec8     sv_main.obj
 0002:00007ed8       ??_C@_0BO@EBNPOCKC@Couldn?8t?5resolve?5address?3?5?$CFs?6?$AA@ 004ceed8     sv_main.obj
 0002:00007ef8       ??_C@_0BJ@FPIJBFOP@Sending?5heartbeat?5to?5?$CFs?6?$AA@ 004ceef8     sv_main.obj
 0002:00007f14       ??_C@_0N@KDHOMFCK@QuakeArena?91?$AA@ 004cef14     sv_main.obj
 0002:00007f24       ??_C@_0O@MFJONBCN@heartbeat?5?$CFs?6?$AA@ 004cef24     sv_main.obj
 0002:00007f34       ??_C@_07CCFMBAIN@demo?5?$CFs?$AA@ 004cef34     sv_main.obj
 0002:00007f3c       ??_C@_0M@FDOKAKMK@?$CFi?5?$CFi?5?$CC?$CFs?$CC?6?$AA@ 004cef3c     sv_main.obj
 0002:00007f48       ??_C@_0BF@DMGFDDCI@statusResponse?6?$CFs?6?$CFs?$AA@ 004cef48     sv_main.obj
 0002:00007f60       ??_C@_04NDBBJLFP@pure?$AA@ 004cef60     sv_main.obj
 0002:00007f68       ??_C@_07OLCLJOOI@minPing?$AA@ 004cef68     sv_main.obj
 0002:00007f70       ??_C@_07NELDBAJ@maxPing?$AA@ 004cef70     sv_main.obj
 0002:00007f78       ??_C@_0BA@ECLOOOJB@infoResponse?6?$CFs?$AA@ 004cef78     sv_main.obj
 0002:00007f88       ??_C@_08HCILNBCA@print?6?$CFs?$AA@ 004cef88     sv_main.obj
 0002:00007f94       ??_C@_0BG@IKEHJABJ@Bad?5rcon?5from?5?$CFs?3?6?$CFs?6?$AA@ 004cef94     sv_main.obj
 0002:00007fac       ??_C@_0BC@EHLDDKCE@Rcon?5from?5?$CFs?3?6?$CFs?6?$AA@ 004cefac     sv_main.obj
 0002:00007fc0       ??_C@_0CE@LDGIIONG@No?5rconpassword?5set?5on?5the?5serve@ 004cefc0     sv_main.obj
 0002:00007fe4       ??_C@_0BD@LBHHIPJJ@Bad?5rconpassword?4?6?$AA@ 004cefe4     sv_main.obj
 0002:00007ff8       ??_C@_0BD@JKPIBMPL@SV?5packet?5?$CFs?5?3?5?$CFs?6?$AA@ 004ceff8     sv_main.obj
 0002:0000800c       ??_C@_07OICKPAFH@getinfo?$AA@ 004cf00c     sv_main.obj
 0002:00008014       ??_C@_0M@OJIOIONL@ipAuthorize?$AA@ 004cf014     sv_main.obj
 0002:00008020       ??_C@_0CH@NHBAICIE@bad?5connectionless?5packet?5from?5?$CF@ 004cf020     sv_main.obj
 0002:00008048       ??_C@_0CN@BLLAHKEO@SV_PacketEvent?3?5fixing?5up?5a?5tran@ 004cf048     sv_main.obj
 0002:00008078       ??_C@_0CP@OAICOBIP@Going?5from?5CS_ZOMBIE?5to?5CS_FREE?5@ 004cf078     sv_main.obj
 0002:000080a8       ??_C@_09KJPPMAOI@timed?5out?$AA@ 004cf0a8     sv_main.obj
 0002:000080b4       ??_C@_0BE@KDNEMLAA@Server?5was?5killed?4?6?$AA@ 004cf0b4     sv_main.obj
 0002:000080c8       ??_C@_0CH@OOPAJFOA@Restarting?5server?5due?5to?5time?5wr@ 004cf0c8     sv_main.obj
 0002:000080f0       ??_C@_0O@PKDALKNK@vstr?5nextmap?6?$AA@ 004cf0f0     sv_main.obj
 0002:00008100       ??_C@_0DG@CKJAOBCN@Restarting?5server?5due?5to?5numSnap@ 004cf100     sv_main.obj
 0002:00008138       ??_C@_0P@BKKOFHJN@map_restart?50?6?$AA@ 004cf138     sv_main.obj
 0002:00008148       ??_C@_0EO@MKKMHFAL@netchan?5queue?5is?5not?5properly?5in@ 004cf148     sv_net_chan.obj
 0002:00008198       ??_C@_0EK@ODEKMBHH@?$CD462?5Netchan_TransmitNextFragmen@ 004cf198     sv_net_chan.obj
 0002:000081e4       ??_C@_0DC@LPKBFGIK@?$CD462?5Netchan_TransmitNextFragmen@ 004cf1e4     sv_net_chan.obj
 0002:00008218       ??_C@_0DN@JABDKDJO@?$CD462?5Netchan_TransmitNextFragmen@ 004cf218     sv_net_chan.obj
 0002:00008258       ??_C@_0DF@MDAEODOK@?$CD462?5SV_Netchan_Transmit?3?5unsent@ 004cf258     sv_net_chan.obj
 0002:00008290       ??_C@_0CM@DLGJFOOO@?$CFs?3?5Delta?5request?5from?5out?5of?5da@ 004cf290     sv_snapshot.obj
 0002:000082bc       ??_C@_0CO@GHMJABCI@?$CFs?3?5Delta?5request?5from?5out?5of?5da@ 004cf2bc     sv_snapshot.obj
 0002:000082ec       ??_C@_0CI@IHBPJMCI@SV_QsortEntityStates?3?5duplicated@ 004cf2ec     sv_snapshot.obj
 0002:00008314       ??_C@_0BJ@OGOHIIMC@FIXING?5ENT?9?$DOS?4NUMBER?$CB?$CB?$CB?6?$AA@ 004cf314     sv_snapshot.obj
 0002:00008330       ??_C@_0BP@KFJNHKJA@SVF_CLIENTMASK?3?5cientNum?5?$DO?532?6?$AA@ 004cf330     sv_snapshot.obj
 0002:00008350       ??_C@_0CB@DGHKPLAI@svs?4nextSnapshotEntities?5wrapped@ 004cf350     sv_snapshot.obj
 0002:00008374       ??_C@_0CA@BILMKJDC@WARNING?3?5msg?5overflowed?5for?5?$CFs?6?$AA@ 004cf374     sv_snapshot.obj
 0002:00008394       ??_C@_0BI@IINMPMIE@sector?5?$CFi?3?5?$CFi?5entities?6?$AA@ 004cf394     sv_world.obj
 0002:000083ac       ??_C@_0DE@NOEMPBKJ@WARNING?3?5SV_UnlinkEntity?3?5not?5fo@ 004cf3ac     sv_world.obj
 0002:000083e0       ??_C@_0CI@LMCDEPAK@Object?5?$CFi?5touching?53?5areas?5at?5?$CFf@ 004cf3e0     sv_world.obj
 0002:00008408       ??_C@_0BL@IPEAAEPI@SV_AreaEntities?3?5MAXCOUNT?6?$AA@ 004cf408     sv_world.obj
 0002:00008424       __real@42000000            004cf424     sv_world.obj
 0002:00008428       _GUID_XAxis                004cf428     win_input.obj
 0002:00008438       _GUID_YAxis                004cf438     win_input.obj
 0002:00008448       _GUID_ZAxis                004cf448     win_input.obj
 0002:00008458       _GUID_SysMouse             004cf458     win_input.obj
 0002:00008468       ??_C@_0BN@PJMDGECC@Initializing?5DirectInput?4?4?4?6?$AA@ 004cf468     win_input.obj
 0002:00008488       ??_C@_0L@NKFBIDA@dinput?4dll?$AA@ 004cf488     win_input.obj
 0002:00008494       ??_C@_0BK@IKANOGNK@Couldn?8t?5load?5dinput?4dll?6?$AA@ 004cf494     win_input.obj
 0002:000084b0       ??_C@_0BD@BGJEDEPJ@DirectInputCreateA?$AA@ 004cf4b0     win_input.obj
 0002:000084c4       ??_C@_0BL@FLLJFGNK@Couldn?8t?5get?5DI?5proc?5addr?6?$AA@ 004cf4c4     win_input.obj
 0002:000084e0       ??_C@_0BL@ICIGFMME@iDirectInputCreate?5failed?6?$AA@ 004cf4e0     win_input.obj
 0002:000084fc       ??_C@_0BP@DAFJNOPB@Couldn?8t?5open?5DI?5mouse?5device?6?$AA@ 004cf4fc     win_input.obj
 0002:0000851c       ??_C@_0BO@BNCCIHMP@Couldn?8t?5set?5DI?5mouse?5format?6?$AA@ 004cf51c     win_input.obj
 0002:0000853c       ??_C@_0BM@NMAODKLJ@Couldn?8t?5set?5DI?5coop?5level?6?$AA@ 004cf53c     win_input.obj
 0002:00008558       ??_C@_0BM@EODFEMCB@Couldn?8t?5set?5DI?5buffersize?6?$AA@ 004cf558     win_input.obj
 0002:00008574       ??_C@_0BK@CCEBLJCF@DirectInput?5initialized?4?6?$AA@ 004cf574     win_input.obj
 0002:00008590       ??_C@_0CI@FHJNIMCC@Falling?5back?5to?5Win32?5mouse?5supp@ 004cf590     win_input.obj
 0002:000085b8       ??_C@_02PGHGPEOM@?91?$AA@  004cf5b8     win_input.obj
 0002:000085bc       ??_C@_08EEBOBCCE@in_mouse?$AA@ 004cf5bc     win_input.obj
 0002:000085c8       ??_C@_0BL@CONMJMEO@Mouse?5control?5not?5active?4?6?$AA@ 004cf5c8     win_input.obj
 0002:000085e4       ??_C@_0CD@NBEAJIAO@Disallowing?5DirectInput?5on?5NT?54?4@ 004cf5e4     win_input.obj
 0002:00008608       ??_C@_0CA@JLJBCBHD@Skipping?5check?5for?5DirectInput?6?$AA@ 004cf608     win_input.obj
 0002:00008628       ??_C@_0DA@FHIPFOFL@No?5window?5for?5DirectInput?5mouse?5@ 004cf628     win_input.obj
 0002:00008658       ??_C@_0CH@JLLNFJIJ@?6?9?9?9?9?9?9?9?5Input?5Initialization?5?9?9@ 004cf658     win_input.obj
 0002:00008680       ??_C@_08MKJIFFKA@midiinfo?$AA@ 004cf680     win_input.obj
 0002:0000868c       ??_C@_07KPEFKOPL@in_midi?$AA@ 004cf68c     win_input.obj
 0002:00008694       ??_C@_0M@MPFHODKD@in_midiport?$AA@ 004cf694     win_input.obj
 0002:000086a0       ??_C@_0P@JPEONNIO@in_midichannel?$AA@ 004cf6a0     win_input.obj
 0002:000086b0       ??_C@_0O@ILMLMLBN@in_mididevice?$AA@ 004cf6b0     win_input.obj
 0002:000086c0       ??_C@_0P@GHEMCIPL@in_logitechbug?$AA@ 004cf6c0     win_input.obj
 0002:000086d0       ??_C@_0M@MJEIGFNL@in_joystick?$AA@ 004cf6d0     win_input.obj
 0002:000086dc       ??_C@_04BBAKNJII@0?402?$AA@ 004cf6dc     win_input.obj
 0002:000086e4       ??_C@_0BA@FGPJKNGC@in_joyBallScale?$AA@ 004cf6e4     win_input.obj
 0002:000086f4       ??_C@_0BB@KLDPJBGL@in_debugjoystick?$AA@ 004cf6f4     win_input.obj
 0002:00008708       ??_C@_04FPIJCFHI@0?415?$AA@ 004cf708     win_input.obj
 0002:00008710       ??_C@_0O@CDIHIFMG@joy_threshold?$AA@ 004cf710     win_input.obj
 0002:00008720       ??_C@_0CE@IAFBHFFK@Proceeding?5with?5delayed?5mouse?5in@ 004cf720     win_input.obj
 0002:00008744       ??_C@_0N@JILGCMBC@r_fullscreen?$AA@ 004cf744     win_input.obj
 0002:00008754       ??_C@_07DDONFNPJ@3dfxvgl?$AA@ 004cf754     win_input.obj
 0002:0000875c       ??_C@_0L@LKKCCEBO@r_glDriver?$AA@ 004cf75c     win_input.obj
 0002:00008768       ??_C@_0BJ@HFLDAPPJ@Joystick?5is?5not?5active?4?6?$AA@ 004cf768     win_input.obj
 0002:00008784       ??_C@_0CK@HJHGOPLD@joystick?5not?5found?5?9?9?5driver?5not@ 004cf784     win_input.obj
 0002:000087b0       ??_C@_0CP@LGEKEFDA@joystick?5not?5found?5?9?9?5no?5valid?5j@ 004cf7b0     win_input.obj
 0002:000087e0       ??_C@_0DK@KEFPCM@joystick?5not?5found?5?9?9?5invalid?5jo@ 004cf7e0     win_input.obj
 0002:0000881c       ??_C@_0BB@MPGIOLMD@Joystick?5found?4?6?$AA@ 004cf81c     win_input.obj
 0002:00008830       ??_C@_0L@KFAEIOHL@Pname?3?5?$CFs?6?$AA@ 004cf830     win_input.obj
 0002:0000883c       ??_C@_0M@FCGKCNFI@OemVxD?3?5?$CFs?6?$AA@ 004cf83c     win_input.obj
 0002:00008848       ??_C@_0M@KEHKBEMN@RegKey?3?5?$CFs?6?$AA@ 004cf848     win_input.obj
 0002:00008854       ??_C@_0BF@PJBJAPDP@Numbuttons?3?5?$CFi?5?1?5?$CFi?6?$AA@ 004cf854     win_input.obj
 0002:0000886c       ??_C@_0P@IHBPICK@Axis?3?5?$CFi?5?1?5?$CFi?6?$AA@ 004cf86c     win_input.obj
 0002:0000887c       ??_C@_0M@EMGDDLAE@Caps?3?50x?$CFx?6?$AA@ 004cf87c     win_input.obj
 0002:00008888       ??_C@_07GBHJMAHC@HASPOV?6?$AA@ 004cf888     win_input.obj
 0002:00008890       ??_C@_07EMFEJGAN@no?5POV?6?$AA@ 004cf890     win_input.obj
 0002:00008898       ??_C@_0CJ@POKLHOLL@?$CF8x?5?$CF5i?5?$CF5?42f?5?$CF5?42f?5?$CF5?42f?5?$CF5?42f?5@ 004cf898     win_input.obj
 0002:000088c4       ??_C@_08BEHKFNNO@disabled?$AA@ 004cf8c4     win_input.obj
 0002:000088d0       ??_C@_07MHHIKOPA@enabled?$AA@ 004cf8d0     win_input.obj
 0002:000088d8       ??_C@_0BJ@JEGLDNKE@?6MIDI?5control?3?5?5?5?5?5?5?5?$CFs?6?$AA@ 004cf8d8     win_input.obj
 0002:000088f4       ??_C@_0BI@ONOGGNGI@port?3?5?5?5?5?5?5?5?5?5?5?5?5?5?5?5?$CFd?6?$AA@ 004cf8f4     win_input.obj
 0002:0000890c       ??_C@_0BI@MNCPBAID@channel?3?5?5?5?5?5?5?5?5?5?5?5?5?$CFd?6?$AA@ 004cf90c     win_input.obj
 0002:00008924       ??_C@_0BI@JCNHHIF@current?5device?3?5?5?5?5?5?$CFd?6?$AA@ 004cf924     win_input.obj
 0002:0000893c       ??_C@_0BI@MOFLADHH@number?5of?5devices?3?5?5?$CFd?6?$AA@ 004cf93c     win_input.obj
 0002:00008954       ??_C@_03ELIFGAKH@?$CK?$CK?$CK?$AA@ 004cf954     win_input.obj
 0002:00008958       ??_C@_03KHICJKCI@?4?4?4?$AA@ 004cf958     win_input.obj
 0002:0000895c       ??_C@_0BG@IFDHOHKE@device?5?$CF2d?3?5?5?5?5?5?5?5?$CFs?6?$AA@ 004cf95c     win_input.obj
 0002:00008974       ??_C@_0BL@MLLFNMAG@?4?4?4manufacturer?5ID?3?50x?$CFhx?6?$AA@ 004cf974     win_input.obj
 0002:00008990       ??_C@_0BL@JNGNJJBL@?4?4?4product?5ID?3?5?5?5?5?5?50x?$CFhx?6?$AA@ 004cf990     win_input.obj
 0002:000089ac       ??_C@_0CO@BDCKEEAF@WARNING?3?5could?5not?5open?5MIDI?5dev@ 004cf9ac     win_input.obj
 0002:000089e0       __real@3f00000000000000    004cf9e0     win_input.obj
 0002:000089e8       ??_C@_07PHOBPKGE@?$CFs?2?$CFs?2?$CK?$AA@ 004cf9e8     win_main.obj
 0002:000089f0       ??_C@_04EDLLLMBI@?$CFs?2?$CK?$AA@ 004cf9f0     win_main.obj
 0002:000089f8       ??_C@_05BMGBEOOC@?$CFs?2?$CFs?$AA@ 004cf9f8     win_main.obj
 0002:00008a00       ??_C@_06HKFIIKHL@?$CFs?2?$CK?$CFs?$AA@ 004cfa00     win_main.obj
 0002:00008a08       ??_C@_03HBAHNJNM@?6?$AN?$AI?$AA@ 004cfa08     win_main.obj
 0002:00008a0c       ??_C@_0CB@NFLEJIB@Sys_UnloadDll?5FreeLibrary?5failed@ 004cfa0c     win_main.obj
 0002:00008a30       ??_C@_09IAFMCHD@?$CFsx86?4dll?$AA@ 004cfa30     win_main.obj
 0002:00008a3c       ??_C@_0BE@FKPJANIK@com_blindlyLoadDLLs?$AA@ 004cfa3c     win_main.obj
 0002:00008a50       ??_C@_0BB@MEBOOCBB@Security?5Warning?$AA@ 004cfa50     win_main.obj
 0002:00008a68       ??_C@_0MP@OOOFDFBE@You?5are?5about?5to?5load?5a?5?4DLL?5exe@ 004cfa68     win_main.obj
 0002:00008b38       ??_C@_08OHGJLDCF@dllEntry?$AA@ 004cfb38     win_main.obj
 0002:00008b44       ??_C@_06MGMAGDAM@vmMain?$AA@ 004cfb44     win_main.obj
 0002:00008b4c       ??_C@_0BI@PJPKIIL@Sys_QueEvent?3?5overflow?6?$AA@ 004cfb4c     win_main.obj
 0002:00008b64       ??_C@_0L@PEIHAAKP@in_restart?$AA@ 004cfb64     win_main.obj
 0002:00008b70       ??_C@_0M@BPCAELNM@net_restart?$AA@ 004cfb70     win_main.obj
 0002:00008b7c       ??_C@_0BF@JBGMMOFJ@Couldn?8t?5get?5OS?5info?$AA@ 004cfb7c     win_main.obj
 0002:00008b94       ??_C@_0CN@HNJMBKHO@Quake3?5requires?5Windows?5version?5@ 004cfb94     win_main.obj
 0002:00008bc4       ??_C@_0BN@CHAFMCKP@Quake3?5doesn?8t?5run?5on?5Win32s?$AA@ 004cfbc4     win_main.obj
 0002:00008be4       ??_C@_05BONLKMPB@winnt?$AA@ 004cfbe4     win_main.obj
 0002:00008bec       ??_C@_04LLAMKKNO@arch?$AA@ 004cfbec     win_main.obj
 0002:00008bf4       ??_C@_05CLOEJEMN@win98?$AA@ 004cfbf4     win_main.obj
 0002:00008bfc       ??_C@_0N@HFCODOMN@win95?5osr2?4x?$AA@ 004cfbfc     win_main.obj
 0002:00008c0c       ??_C@_05JOEKOKIA@win95?$AA@ 004cfc0c     win_main.obj
 0002:00008c14       ??_C@_0BI@LPAECBNN@unknown?5Windows?5variant?$AA@ 004cfc14     win_main.obj
 0002:00008c2c       ??_C@_0O@JFLHKJDK@win_hinstance?$AA@ 004cfc2c     win_main.obj
 0002:00008c3c       ??_C@_0M@EGGCJNOO@win_wndproc?$AA@ 004cfc3c     win_main.obj
 0002:00008c48       ??_C@_06EEDLFOCL@detect?$AA@ 004cfc48     win_main.obj
 0002:00008c50       ??_C@_0O@PDIAGKHD@sys_cpustring?$AA@ 004cfc50     win_main.obj
 0002:00008c60       ??_C@_0BJ@GBJNEBBH@?4?4?4detecting?5CPU?0?5found?5?$AA@ 004cfc60     win_main.obj
 0002:00008c7c       ??_C@_07DCLBNMLN@generic?$AA@ 004cfc7c     win_main.obj
 0002:00008c84       ??_C@_0BC@MJACFOKB@x86?5?$CIpre?9Pentium?$CJ?$AA@ 004cfc84     win_main.obj
 0002:00008c98       ??_C@_0BH@DEPNLFPE@x86?5?$CIP5?1PPro?0?5non?9MMX?$CJ?$AA@ 004cfc98     win_main.obj
 0002:00008cb0       ??_C@_0BH@CIDJJMAD@x86?5?$CIP5?1Pentium2?0?5MMX?$CJ?$AA@ 004cfcb0     win_main.obj
 0002:00008cc8       ??_C@_0BC@EEDJECOE@Intel?5Pentium?5III?$AA@ 004cfcc8     win_main.obj
 0002:00008cdc       ??_C@_0O@FJOEEOAJ@AMD?5w?1?53DNow?$CB?$AA@ 004cfcdc     win_main.obj
 0002:00008cec       ??_C@_09DKIGPEEK@Alpha?5AXP?$AA@ 004cfcec     win_main.obj
 0002:00008cf8       ??_C@_0BF@GOCLOPNN@Unknown?5cpu?5type?5?$CFd?6?$AA@ 004cfcf8     win_main.obj
 0002:00008d10       ??_C@_0BI@JHAKIADL@?4?4?4forcing?5CPU?5type?5to?5?$AA@ 004cfd10     win_main.obj
 0002:00008d28       ??_C@_03MKEPLMIM@x87?$AA@  004cfd28     win_main.obj
 0002:00008d2c       ??_C@_03LABOKELA@mmx?$AA@  004cfd2c     win_main.obj
 0002:00008d30       ??_C@_05FIGNBJMO@3dnow?$AA@ 004cfd30     win_main.obj
 0002:00008d38       ??_C@_0L@PLDMOKFD@PentiumIII?$AA@ 004cfd38     win_main.obj
 0002:00008d44       ??_C@_03CIPMPAJL@axp?$AA@  004cfd44     win_main.obj
 0002:00008d48       ??_C@_0CF@BFIMMDPC@WARNING?3?5unknown?5sys_cpustring?5?8@ 004cfd48     win_main.obj
 0002:00008d70       ??_C@_09MHINEACI@sys_cpuid?$AA@ 004cfd70     win_main.obj
 0002:00008d7c       ??_C@_08ODGEKKOL@username?$AA@ 004cfd7c     win_main.obj
 0002:00008d88       ??_C@_0BH@ECMEJIDF@Working?5directory?3?5?$CFs?6?$AA@ 004cfd88     win_main.obj
 0002:00008da0       ??_C@_08KEJFHKFF@WSAEINTR?$AA@ 004cfda0     win_net.obj
 0002:00008dac       ??_C@_08LJKOCPDH@WSAEBADF?$AA@ 004cfdac     win_net.obj
 0002:00008db8       ??_C@_09EKFHKCJJ@WSAEACCES?$AA@ 004cfdb8     win_net.obj
 0002:00008dc4       ??_C@_0L@EEHHIAEC@WSAEDISCON?$AA@ 004cfdc4     win_net.obj
 0002:00008dd0       ??_C@_09BIHAGEEK@WSAEFAULT?$AA@ 004cfdd0     win_net.obj
 0002:00008ddc       ??_C@_09PDAAOFKK@WSAEINVAL?$AA@ 004cfddc     win_net.obj
 0002:00008de8       ??_C@_09IJIBIDKO@WSAEMFILE?$AA@ 004cfde8     win_net.obj
 0002:00008df4       ??_C@_0P@BLDHJENA@WSAEWOULDBLOCK?$AA@ 004cfdf4     win_net.obj
 0002:00008e04       ??_C@_0P@FHEJEBJC@WSAEINPROGRESS?$AA@ 004cfe04     win_net.obj
 0002:00008e14       ??_C@_0M@EAGDEEAC@WSAEALREADY?$AA@ 004cfe14     win_net.obj
 0002:00008e20       ??_C@_0M@MDGNMGJ@WSAENOTSOCK?$AA@ 004cfe20     win_net.obj
 0002:00008e2c       ??_C@_0BA@BLGPIJAD@WSAEDESTADDRREQ?$AA@ 004cfe2c     win_net.obj
 0002:00008e3c       ??_C@_0M@PJKLHKI@WSAEMSGSIZE?$AA@ 004cfe3c     win_net.obj
 0002:00008e48       ??_C@_0O@HCKGAENP@WSAEPROTOTYPE?$AA@ 004cfe48     win_net.obj
 0002:00008e58       ??_C@_0P@KODINEND@WSAENOPROTOOPT?$AA@ 004cfe58     win_net.obj
 0002:00008e68       ??_C@_0BD@EDJBJFH@WSAEPROTONOSUPPORT?$AA@ 004cfe68     win_net.obj
 0002:00008e7c       ??_C@_0BD@KNONLHOA@WSAESOCKTNOSUPPORT?$AA@ 004cfe7c     win_net.obj
 0002:00008e90       ??_C@_0O@IFNEEJHC@WSAEOPNOTSUPP?$AA@ 004cfe90     win_net.obj
 0002:00008ea0       ??_C@_0BA@KKILJDEG@WSAEPFNOSUPPORT?$AA@ 004cfea0     win_net.obj
 0002:00008eb0       ??_C@_0BA@DNDGDCNF@WSAEAFNOSUPPORT?$AA@ 004cfeb0     win_net.obj
 0002:00008ec0       ??_C@_0O@OPDDJBEB@WSAEADDRINUSE?$AA@ 004cfec0     win_net.obj
 0002:00008ed0       ??_C@_0BB@MBBPJMGK@WSAEADDRNOTAVAIL?$AA@ 004cfed0     win_net.obj
 0002:00008ee4       ??_C@_0M@BMNODHFM@WSAENETDOWN?$AA@ 004cfee4     win_net.obj
 0002:00008ef0       ??_C@_0P@MMGFNLEA@WSAENETUNREACH?$AA@ 004cfef0     win_net.obj
 0002:00008f00       ??_C@_0N@KABONKCJ@WSAENETRESET?$AA@ 004cff00     win_net.obj
 0002:00008f10       ??_C@_0BI@NPIHFCBB@WSWSAECONNABORTEDAEINTR?$AA@ 004cff10     win_net.obj
 0002:00008f28       ??_C@_0O@CIPFFFJE@WSAECONNRESET?$AA@ 004cff28     win_net.obj
 0002:00008f38       ??_C@_0L@OOBBNNPD@WSAENOBUFS?$AA@ 004cff38     win_net.obj
 0002:00008f44       ??_C@_0L@KMBJICHC@WSAEISCONN?$AA@ 004cff44     win_net.obj
 0002:00008f50       ??_C@_0M@BJHJCMPN@WSAENOTCONN?$AA@ 004cff50     win_net.obj
 0002:00008f5c       ??_C@_0N@JOJKMOCF@WSAESHUTDOWN?$AA@ 004cff5c     win_net.obj
 0002:00008f6c       ??_C@_0BA@COKPFEMB@WSAETOOMANYREFS?$AA@ 004cff6c     win_net.obj
 0002:00008f7c       ??_C@_0N@BJEDIOFA@WSAETIMEDOUT?$AA@ 004cff7c     win_net.obj
 0002:00008f8c       ??_C@_0BA@ECEEDLKJ@WSAECONNREFUSED?$AA@ 004cff8c     win_net.obj
 0002:00008f9c       ??_C@_08PGIMLMFD@WSAELOOP?$AA@ 004cff9c     win_net.obj
 0002:00008fa8       ??_C@_0BA@PCKIJCGI@WSAENAMETOOLONG?$AA@ 004cffa8     win_net.obj
 0002:00008fb8       ??_C@_0N@NJBKCOKK@WSAEHOSTDOWN?$AA@ 004cffb8     win_net.obj
 0002:00008fc8       ??_C@_0P@MDJAKAKC@WSASYSNOTREADY?$AA@ 004cffc8     win_net.obj
 0002:00008fd8       ??_C@_0BD@PKACBPOA@WSAVERNOTSUPPORTED?$AA@ 004cffd8     win_net.obj
 0002:00008fec       ??_C@_0BC@CLCHBKPK@WSANOTINITIALISED?$AA@ 004cffec     win_net.obj
 0002:00009000       ??_C@_0BC@JCJCFNAO@WSAHOST_NOT_FOUND?$AA@ 004d0000     win_net.obj
 0002:00009014       ??_C@_0N@LHDAEOPK@WSATRY_AGAIN?$AA@ 004d0014     win_net.obj
 0002:00009024       ??_C@_0P@HLNEBJNJ@WSANO_RECOVERY?$AA@ 004d0024     win_net.obj
 0002:00009034       ??_C@_0L@CBLHPKCP@WSANO_DATA?$AA@ 004d0034     win_net.obj
 0002:00009040       ??_C@_08LPKPOPGP@NO?5ERROR?$AA@ 004d0040     win_net.obj
 0002:0000904c       ??_C@_02NJNOFBBI@?$CFx?$AA@ 004d004c     win_net.obj
 0002:00009050       ??_C@_0BD@GIOPKJNJ@NET_GetPacket?3?5?$CFs?6?$AA@ 004d0050     win_net.obj
 0002:00009064       ??_C@_0BJ@NDNBFPLK@Oversize?5packet?5from?5?$CFs?6?$AA@ 004d0064     win_net.obj
 0002:00009080       ??_C@_0CB@JKHJHNNL@Sys_SendPacket?3?5bad?5address?5type@ 004d0080     win_net.obj
 0002:000090a4       ??_C@_0BE@DDOALEHF@NET_SendPacket?3?5?$CFs?6?$AA@ 004d00a4     win_net.obj
 0002:000090b8       ??_C@_0BB@DIPHJIFE@IP?3?5?$CFi?4?$CFi?4?$CFi?4?$CFi?6?$AA@ 004d00b8     win_net.obj
 0002:000090cc       ??_C@_0BK@FBACENIG@Opening?5IP?5socket?3?5?$CFs?3?$CFi?6?$AA@ 004d00cc     win_net.obj
 0002:000090e8       ??_C@_0CB@EGLAFCKD@Opening?5IP?5socket?3?5localhost?3?$CFi?6@ 004d00e8     win_net.obj
 0002:0000910c       ??_C@_0CF@MBEBDLFC@WARNING?3?5UDP_OpenSocket?3?5socket?3@ 004d010c     win_net.obj
 0002:00009134       ??_C@_0CM@DLFGJOIC@WARNING?3?5UDP_OpenSocket?3?5ioctl?5F@ 004d0134     win_net.obj
 0002:00009160       ??_C@_0DG@CIGPJCJC@WARNING?3?5UDP_OpenSocket?3?5setsock@ 004d0160     win_net.obj
 0002:00009198       ??_C@_0CD@BCJMGHPJ@WARNING?3?5UDP_OpenSocket?3?5bind?3?5?$CF@ 004d0198     win_net.obj
 0002:000091bc       ??_C@_0CF@BHILGHLE@Opening?5connection?5to?5SOCKS?5serv@ 004d01bc     win_net.obj
 0002:000091e4       ??_C@_0CE@LFANBIPO@WARNING?3?5NET_OpenSocks?3?5socket?3?5@ 004d01e4     win_net.obj
 0002:00009208       ??_C@_0CL@NFJLJMMA@WARNING?3?5NET_OpenSocks?3?5gethostb@ 004d0208     win_net.obj
 0002:00009238       ??_C@_0EF@JDPHELLH@WARNING?3?5NET_OpenSocks?3?5gethostb@ 004d0238     win_net.obj
 0002:00009280       ??_C@_0BM@KKEOEFCP@NET_OpenSocks?3?5connect?3?5?$CFs?6?$AA@ 004d0280     win_net.obj
 0002:0000929c       ??_C@_0BJ@OMJJFCJN@NET_OpenSocks?3?5send?3?5?$CFs?6?$AA@ 004d029c     win_net.obj
 0002:000092b8       ??_C@_0BJ@GIBPKBJF@NET_OpenSocks?3?5recv?3?5?$CFs?6?$AA@ 004d02b8     win_net.obj
 0002:000092d4       ??_C@_0BN@JGAEDBBB@NET_OpenSocks?3?5bad?5response?6?$AA@ 004d02d4     win_net.obj
 0002:000092f4       ??_C@_0BP@MFAELAIP@NET_OpenSocks?3?5request?5denied?6?$AA@ 004d02f4     win_net.obj
 0002:00009314       ??_C@_0CG@OEEMKDKJ@NET_OpenSocks?3?5authentication?5fa@ 004d0314     win_net.obj
 0002:0000933c       ??_C@_0CD@BALIMEMG@NET_OpenSocks?3?5request?5denied?3?5?$CF@ 004d033c     win_net.obj
 0002:00009360       ??_C@_0CO@JGEDJDD@NET_OpenSocks?3?5relay?5address?5is?5@ 004d0360     win_net.obj
 0002:00009390       ??_C@_0O@CBMKAPKN@Hostname?3?5?$CFs?6?$AA@ 004d0390     win_net.obj
 0002:000093a0       ??_C@_0L@CGPAFLOO@Alias?3?5?$CFs?6?$AA@ 004d03a0     win_net.obj
 0002:000093ac       ??_C@_06BGCGFJHC@net_ip?$AA@ 004d03ac     win_net.obj
 0002:000093b4       ??_C@_08HGBCFGPE@net_port?$AA@ 004d03b4     win_net.obj
 0002:000093c0       ??_C@_0CE@KJBINNKI@WARNING?3?5Couldn?8t?5allocate?5IP?5po@ 004d03c0     win_net.obj
 0002:000093e4       ??_C@_0CB@MIADMHKM@WARNING?3?5IPX_Socket?3?5socket?3?5?$CFs?6@ 004d03e4     win_net.obj
 0002:00009408       ??_C@_0CI@DCHMECMH@WARNING?3?5IPX_Socket?3?5ioctl?5FIONB@ 004d0408     win_net.obj
 0002:00009430       ??_C@_0DC@FPOBNHBG@WARNING?3?5IPX_Socket?3?5setsockopt?5@ 004d0430     win_net.obj
 0002:00009464       ??_C@_0BP@HGPMDKOP@WARNING?3?5IPX_Socket?3?5bind?3?5?$CFs?6?$AA@ 004d0464     win_net.obj
 0002:00009484       ??_C@_09CNLEKFIH@net_noudp?$AA@ 004d0484     win_net.obj
 0002:00009490       ??_C@_09OEINMMAE@net_noipx?$AA@ 004d0490     win_net.obj
 0002:0000949c       ??_C@_0BB@GKECMOEC@net_socksEnabled?$AA@ 004d049c     win_net.obj
 0002:000094b0       ??_C@_0BA@CEJBNOOE@net_socksServer?$AA@ 004d04b0     win_net.obj
 0002:000094c0       ??_C@_04KAIJODKO@1080?$AA@ 004d04c0     win_net.obj
 0002:000094c8       ??_C@_0O@DFGDDOCB@net_socksPort?$AA@ 004d04c8     win_net.obj
 0002:000094d8       ??_C@_0BC@MGKGECCL@net_socksUsername?$AA@ 004d04d8     win_net.obj
 0002:000094ec       ??_C@_0BC@POLDBMKP@net_socksPassword?$AA@ 004d04ec     win_net.obj
 0002:00009500       ??_C@_0DF@DFODMHFF@WARNING?3?5Winsock?5initialization?5@ 004d0500     win_net.obj
 0002:00009538       ??_C@_0BF@DNHJMPMJ@Winsock?5Initialized?6?$AA@ 004d0538     win_net.obj
 0002:00009550       ??_C@_06BALNJMNP@player?$AA@ 004d0550     win_shared.obj
 0002:00009558       _CLSID_DirectSound         004d0558     win_snd.obj
 0002:00009568       _CLSID_DirectSound8        004d0568     win_snd.obj
 0002:00009578       _IID_IDirectSound          004d0578     win_snd.obj
 0002:00009588       _IID_IDirectSound8         004d0588     win_snd.obj
 0002:00009598       ??_C@_0BB@MLKAOHBD@DSERR_BUFFERLOST?$AA@ 004d0598     win_snd.obj
 0002:000095ac       ??_C@_0BD@CHCMAAJB@DSERR_INVALIDCALLS?$AA@ 004d05ac     win_snd.obj
 0002:000095c0       ??_C@_0BD@MODBPMIE@DSERR_INVALIDPARAM?$AA@ 004d05c0     win_snd.obj
 0002:000095d4       ??_C@_0BG@FGFOLLAI@DSERR_PRIOLEVELNEEDED?$AA@ 004d05d4     win_snd.obj
 0002:000095ec       ??_C@_0BM@OJIPGJEH@Shutting?5down?5sound?5system?6?$AA@ 004d05ec     win_snd.obj
 0002:00009608       ??_C@_0BH@FLIOGFIE@Destroying?5DS?5buffers?6?$AA@ 004d0608     win_snd.obj
 0002:00009620       ??_C@_0BO@IJKEIGDF@?4?4?4setting?5NORMAL?5coop?5level?6?$AA@ 004d0620     win_snd.obj
 0002:00009640       ??_C@_0CI@NDEOJEHM@?4?4?4stopping?5and?5releasing?5sound?5@ 004d0640     win_snd.obj
 0002:00009668       ??_C@_0BN@HLLBEHBP@?4?4?4releasing?5primary?5buffer?6?$AA@ 004d0668     win_snd.obj
 0002:00009688       ??_C@_0BI@ONFOIEFD@?4?4?4releasing?5DS?5object?6?$AA@ 004d0688     win_snd.obj
 0002:000096a0       ??_C@_0BH@JMLLEGNC@?4?4?4freeing?5DSOUND?4DLL?6?$AA@ 004d06a0     win_snd.obj
 0002:000096b8       ??_C@_0BI@GGLFCNB@Completed?5successfully?6?$AA@ 004d06b8     win_snd.obj
 0002:000096d0       ??_C@_0BK@NKEBHAFI@Initializing?5DirectSound?6?$AA@ 004d06d0     win_snd.obj
 0002:000096ec       ??_C@_07GLGIIGGC@failed?6?$AA@ 004d06ec     win_snd.obj
 0002:000096f4       ??_C@_03DJDALPN@ok?6?$AA@  004d06f4     win_snd.obj
 0002:000096f8       ??_C@_0CH@HGNPMEEH@?4?4?4setting?5DSSCL_PRIORITY?5coop?5l@ 004d06f8     win_snd.obj
 0002:00009720       ??_C@_0BP@HGFEGEHO@?4?4?4creating?5secondary?5buffer?3?5?$AA@ 004d0720     win_snd.obj
 0002:00009740       ??_C@_0BG@MMNAOEAM@locked?5hardware?4?5?5ok?6?$AA@ 004d0740     win_snd.obj
 0002:00009758       ??_C@_0BJ@HLPNNPFF@forced?5to?5software?4?5?5ok?6?$AA@ 004d0758     win_snd.obj
 0002:00009774       ??_C@_0CC@IFPHFPKL@?$CK?$CK?$CK?5Looped?5sound?5play?5failed?5?$CK?$CK?$CK@ 004d0774     win_snd.obj
 0002:00009798       ??_C@_0BI@JNPGMFHC@?$CK?$CK?$CK?5GetCaps?5failed?5?$CK?$CK?$CK?6?$AA@ 004d0798     win_snd.obj
 0002:000097b0       ??_C@_0CC@OAOFCFJN@Couldn?8t?5get?5sound?5buffer?5status@ 004d07b0     win_snd.obj
 0002:000097d4       ??_C@_0DD@BGCOLCPM@SNDDMA_BeginPainting?3?5Lock?5faile@ 004d07d4     win_snd.obj
 0002:00009808       ??_C@_0CC@PKGMOMAO@sound?5SetCooperativeLevel?5failed@ 004d0808     win_snd.obj
 0002:0000982c       ??_C@_0O@LCHGAMCF@Q3?5WinConsole?$AA@ 004d082c     win_syscon.obj
 0002:0000983c       ??_C@_0BA@ODHMOKEJ@Quake?53?5Console?$AA@ 004d083c     win_syscon.obj
 0002:0000984c       ??_C@_0M@KGGAJAJ@Courier?5New?$AA@ 004d084c     win_syscon.obj
 0002:00009858       ??_C@_04NABONMNG@edit?$AA@ 004d0858     win_syscon.obj
 0002:00009860       ??_C@_06HFKPFKMP@button?$AA@ 004d0860     win_syscon.obj
 0002:00009868       ??_C@_04COAGEIMF@copy?$AA@ 004d0868     win_syscon.obj
 0002:00009870       ??_C@_0CN@FPBLKFON@Invalid?5visLevel?5?$CFd?5sent?5to?5Sys_@ 004d0870     win_syscon.obj
 0002:000098a0       ??_C@_06GGHJAEBN@static?$AA@ 004d08a0     win_syscon.obj
 0002:000098a8       ??_C@_0BF@JDMIOBEC@VID_AppActivate?3?5?$CFi?6?$AA@ 004d08a8     win_wndproc.obj
 0002:000098c0       ??_C@_08DCMOJFPA@vid_xpos?$AA@ 004d08c0     win_wndproc.obj
 0002:000098cc       ??_C@_08PKOLMEA@vid_ypos?$AA@ 004d08cc     win_wndproc.obj
 0002:000098d8       ??_C@_0BA@NAALPGKC@MSWHEEL_ROLLMSG?$AA@ 004d08d8     win_wndproc.obj
 0002:000098e8       ??_C@_0N@DAGNKKMD@vid_restart?6?$AA@ 004d08e8     win_wndproc.obj
 0002:00009900       __xmm@00000001000000010000000000000000 004d0900     win_wndproc.obj
 0002:00009910       ??_C@_0CH@FBKAEODK@?$CFs?3?5invalid?5entity?5number?5?$CFd?0?5?$FL0@ 004d0910     botlib:be_interface.obj
 0002:00009938       ??_C@_0CJ@LEPGCBMF@?$CFs?3?5bot?5library?5used?5before?5bein@ 004d0938     botlib:be_interface.obj
 0002:00009964       ??_C@_0L@KLADBGPO@botlib?4log?$AA@ 004d0964     botlib:be_interface.obj
 0002:00009970       ??_C@_0CH@HACDNLAK@?9?9?9?9?9?9?9?5BotLib?5Initialization?5?9?9@ 004d0970     botlib:be_interface.obj
 0002:00009998       ??_C@_03KGFMDCCC@128?$AA@  004d0998     botlib:be_interface.obj
 0002:0000999c       ??_C@_0L@JKCONGEA@maxclients?$AA@ 004d099c     botlib:be_interface.obj
 0002:000099a8       ??_C@_04MJHCKDHM@1024?$AA@ 004d09a8     botlib:be_interface.obj
 0002:000099b0       ??_C@_0M@KCCINJFC@maxentities?$AA@ 004d09b0     botlib:be_interface.obj
 0002:000099bc       ??_C@_0P@OCLCOFHK@BotLibShutdown?$AA@ 004d09bc     botlib:be_interface.obj
 0002:000099cc       ??_C@_0O@KCOEGEFI@BotStartFrame?$AA@ 004d09cc     botlib:be_interface.obj
 0002:000099dc       ??_C@_0L@DEHNJNME@BotLoadMap?$AA@ 004d09dc     botlib:be_interface.obj
 0002:000099e8       ??_C@_0CH@NEJLIBNP@?9?9?9?9?9?9?9?9?9?9?9?9?5Map?5Loading?5?9?9?9?9?9?9?9@ 004d09e8     botlib:be_interface.obj
 0002:00009a10       ??_C@_0CH@GPCMCKNF@?9?9?9?9?9?9?9?9?9?9?9?9?9?9?9?9?9?9?9?9?9?9?9?9?9?9?9?9?9?9?9?9@ 004d0a10     botlib:be_interface.obj
 0002:00009a38       ??_C@_0BA@EHNIKGDG@BotUpdateEntity?$AA@ 004d0a38     botlib:be_interface.obj
 0002:00009a48       ??_C@_0DE@FKKHEABJ@Mismatched?5BOTLIB_API_VERSION?3?5e@ 004d0a48     botlib:be_interface.obj
 0002:00009a7c       ??_C@_03MGHMBJCF@log?$AA@  004d0a7c     botlib:l_log.obj
 0002:00009a80       ??_C@_0BE@DPLJFOML@openlog?5?$DMfilename?$DO?6?$AA@ 004d0a80     botlib:l_log.obj
 0002:00009a94       ??_C@_0BP@DENECPGL@log?5file?5?$CFs?5is?5already?5opened?6?$AA@ 004d0a94     botlib:l_log.obj
 0002:00009ab4       ??_C@_0BM@MCGFOLNG@can?8t?5open?5the?5log?5file?5?$CFs?6?$AA@ 004d0ab4     botlib:l_log.obj
 0002:00009ad0       ??_C@_0P@OAMPMFKE@Opened?5log?5?$CFs?6?$AA@ 004d0ad0     botlib:l_log.obj
 0002:00009ae0       ??_C@_0BJ@GMGFLNFJ@can?8t?5close?5log?5file?5?$CFs?6?$AA@ 004d0ae0     botlib:l_log.obj
 0002:00009afc       ??_C@_0P@EBJFELDF@Closed?5log?5?$CFs?6?$AA@ 004d0afc     botlib:l_log.obj
 0002:00009b0c       __real@42700000            004d0b0c     botlib:l_log.obj
 0002:00009b10       __real@4024000000000000    004d0b10     botlib:l_libvar.obj
 0002:00009b18       ??_C@_07FNDAMPLK@evalint?$AA@ 004d0b18     botlib:l_precomp.obj
 0002:00009b20       ??_C@_02HEBPBKGD@if?$AA@   004d0b20     botlib:l_precomp.obj
 0002:00009b24       ??_C@_05LOELCHJN@ifdef?$AA@ 004d0b24     botlib:l_precomp.obj
 0002:00009b2c       ??_C@_06ENONKJGC@ifndef?$AA@ 004d0b2c     botlib:l_precomp.obj
 0002:00009b34       ??_C@_04GNFOIEOK@elif?$AA@ 004d0b34     botlib:l_precomp.obj
 0002:00009b3c       ??_C@_04FHMCPBIP@else?$AA@ 004d0b3c     botlib:l_precomp.obj
 0002:00009b44       ??_C@_05PAODFFED@endif?$AA@ 004d0b44     botlib:l_precomp.obj
 0002:00009b4c       ??_C@_07FHOHOHLG@include?$AA@ 004d0b4c     botlib:l_precomp.obj
 0002:00009b54       ??_C@_06EPMMJFDC@define?$AA@ 004d0b54     botlib:l_precomp.obj
 0002:00009b5c       ??_C@_05PKCPKOLM@undef?$AA@ 004d0b5c     botlib:l_precomp.obj
 0002:00009b64       ??_C@_04HJPCFDOP@line?$AA@ 004d0b64     botlib:l_precomp.obj
 0002:00009b6c       ??_C@_06PGFLMPLC@pragma?$AA@ 004d0b6c     botlib:l_precomp.obj
 0002:00009b74       ??_C@_04KGAGIKCD@eval?$AA@ 004d0b74     botlib:l_precomp.obj
 0002:00009b7c       ??_C@_09BLDJOION@evalfloat?$AA@ 004d0b7c     botlib:l_precomp.obj
 0002:00009b88       ??_C@_0BG@GBKGLIDE@file?5?$CFs?0?5line?5?$CFd?3?5?$CFs?6?$AA@ 004d0b88     botlib:l_precomp.obj
 0002:00009ba0       ??_C@_0BI@DBGANKKJ@?$CFs?5recursively?5included?$AA@ 004d0ba0     botlib:l_precomp.obj
 0002:00009bb8       ??_C@_0BE@PFGKJJGH@out?5of?5token?5space?6?$AA@ 004d0bb8     botlib:l_precomp.obj
 0002:00009bcc       ??_C@_0P@IFDFMCIL@missing?5?$CDendif?$AA@ 004d0bcc     botlib:l_precomp.obj
 0002:00009bdc       ??_C@_0BI@CAHOPMH@define?5?$CFs?5missing?5parms?$AA@ 004d0bdc     botlib:l_precomp.obj
 0002:00009bf4       ??_C@_0CE@LBMAFIHE@define?5with?5more?5than?5?$CFd?5paramet@ 004d0bf4     botlib:l_precomp.obj
 0002:00009c18       ??_C@_0BO@CIDPMME@define?5?$CFs?5with?5too?5many?5parms?$AA@ 004d0c18     botlib:l_precomp.obj
 0002:00009c38       ??_C@_0BN@LKHLCMOF@define?5?$CFs?5has?5too?5many?5parms?$AA@ 004d0c38     botlib:l_precomp.obj
 0002:00009c58       ??_C@_0BF@PPHAFKBJ@define?5?$CFs?5incomplete?$AA@ 004d0c58     botlib:l_precomp.obj
 0002:00009c70       ??_C@_01IHBHIGKO@?0?$AA@   004d0c70     botlib:l_precomp.obj
 0002:00009c74       ??_C@_0BB@HBCKCGHH@too?5many?5comma?8s?$AA@ 004d0c74     botlib:l_precomp.obj
 0002:00009c88       ??_C@_0BF@GHJFDBAE@too?5few?5define?5parms?$AA@ 004d0c88     botlib:l_precomp.obj
 0002:00009ca0       ??_C@_0BH@FGJBFJMP@can?8t?5stringize?5tokens?$AA@ 004d0ca0     botlib:l_precomp.obj
 0002:00009cb8       ??_C@_0CO@FIAHGJJO@stringizing?5operator?5without?5def@ 004d0cb8     botlib:l_precomp.obj
 0002:00009ce8       ??_C@_0BH@DDBOIAKK@can?8t?5merge?5?$CFs?5with?5?$CFs?$AA@ 004d0ce8     botlib:l_precomp.obj
 0002:00009d00       ??_C@_0BL@MDEODINB@?$CDinclude?5without?5file?5name?$AA@ 004d0d00     botlib:l_precomp.obj
 0002:00009d1c       ??_C@_0BM@MKHAAFFA@?$CDinclude?5missing?5trailing?5?$DO?$AA@ 004d0d1c     botlib:l_precomp.obj
 0002:00009d38       ??_C@_0CH@BILCEFJF@?$CDinclude?5without?5file?5name?5betwe@ 004d0d38     botlib:l_precomp.obj
 0002:00009d60       ??_C@_0BC@ELACKGMC@file?5?$CFs?5not?5found?$AA@ 004d0d60     botlib:l_precomp.obj
 0002:00009d74       ??_C@_0BD@IELPOLI@undef?5without?5name?$AA@ 004d0d74     botlib:l_precomp.obj
 0002:00009d88       ??_C@_0BI@LCFFDKMI@expected?5name?0?5found?5?$CFs?$AA@ 004d0d88     botlib:l_precomp.obj
 0002:00009da0       ??_C@_0P@CHOGDKAE@can?8t?5undef?5?$CFs?$AA@ 004d0da0     botlib:l_precomp.obj
 0002:00009db0       ??_C@_0BF@EDHDDJPD@?$CDdefine?5without?5name?$AA@ 004d0db0     botlib:l_precomp.obj
 0002:00009dc8       ??_C@_0CG@PGNFJILG@expected?5name?5after?5?$CDdefine?0?5fou@ 004d0dc8     botlib:l_precomp.obj
 0002:00009df0       ??_C@_0BC@PNHKPGCD@can?8t?5redefine?5?$CFs?$AA@ 004d0df0     botlib:l_precomp.obj
 0002:00009e04       ??_C@_0BD@PFJBIMHG@redefinition?5of?5?$CFs?$AA@ 004d0e04     botlib:l_precomp.obj
 0002:00009e18       ??_C@_0BK@OHINAMCG@expected?5define?5parameter?$AA@ 004d0e18     botlib:l_precomp.obj
 0002:00009e34       ??_C@_0BJ@CDAIKNHD@invalid?5define?5parameter?$AA@ 004d0e34     botlib:l_precomp.obj
 0002:00009e50       ??_C@_0BP@HPJAJOKD@two?5the?5same?5define?5parameters?$AA@ 004d0e50     botlib:l_precomp.obj
 0002:00009e70       ??_C@_0CB@JHGJFPBB@define?5parameters?5not?5terminated@ 004d0e70     botlib:l_precomp.obj
 0002:00009e94       ??_C@_0BG@PHCEBIF@define?5not?5terminated?$AA@ 004d0e94     botlib:l_precomp.obj
 0002:00009eac       ??_C@_0CF@FNOAJAKF@recursive?5define?5?$CIremoved?5recurs@ 004d0eac     botlib:l_precomp.obj
 0002:00009ed4       ??_C@_02IEBMKJDF@?$CD?$CD?$AA@ 004d0ed4     botlib:l_precomp.obj
 0002:00009ed8       ??_C@_0BJ@FCHLMCOB@define?5with?5misplaced?5?$CD?$CD?$AA@ 004d0ed8     botlib:l_precomp.obj
 0002:00009ef4       ??_C@_07GADFAJMP@?$CKextern?$AA@ 004d0ef4     botlib:l_precomp.obj
 0002:00009efc       ??_C@_0BE@IMBJDEPK@?$CDifdef?5without?5name?$AA@ 004d0efc     botlib:l_precomp.obj
 0002:00009f10       ??_C@_0CF@NLPAJGLD@expected?5name?5after?5?$CDifdef?0?5foun@ 004d0f10     botlib:l_precomp.obj
 0002:00009f38       ??_C@_0BA@NPOEMJCD@misplaced?5?$CDelse?$AA@ 004d0f38     botlib:l_precomp.obj
 0002:00009f48       ??_C@_0BC@LGACBGNI@?$CDelse?5after?5?$CDelse?$AA@ 004d0f48     botlib:l_precomp.obj
 0002:00009f5c       ??_C@_0BB@CPALJMLI@misplaced?5?$CDendif?$AA@ 004d0f5c     botlib:l_precomp.obj
 0002:00009f70       ??_C@_0BK@PKFCEECE@syntax?5error?5in?5?$CDif?1?$CDelif?$AA@ 004d0f70     botlib:l_precomp.obj
 0002:00009f8c       ??_C@_07MJAJDDLG@defined?$AA@ 004d0f8c     botlib:l_precomp.obj
 0002:00009f94       ??_C@_0BP@FCIAONAD@undefined?5name?5?$CFs?5in?5?$CDif?1?$CDelif?$AA@ 004d0f94     botlib:l_precomp.obj
 0002:00009fb4       ??_C@_0CC@OHHFNCNF@defined?5without?5name?5in?5?$CDif?1?$CDeli@ 004d0fb4     botlib:l_precomp.obj
 0002:00009fd8       ??_C@_0BE@PAMHPFIE@out?5of?5value?5space?6?$AA@ 004d0fd8     botlib:l_precomp.obj
 0002:00009fec       ??_C@_0BP@FNAPCIDI@defined?5without?5?$CJ?5in?5?$CDif?1?$CDelif?$AA@ 004d0fec     botlib:l_precomp.obj
 0002:0000a00c       ??_C@_0CC@DNHHPAPI@misplaced?5minus?5sign?5in?5?$CDif?1?$CDeli@ 004d100c     botlib:l_precomp.obj
 0002:0000a030       ??_C@_0BJ@FLJMGJFD@too?5many?5?$CJ?5in?5?$CDif?1?$CDelsif?$AA@ 004d1030     botlib:l_precomp.obj
 0002:0000a04c       ??_C@_0DA@OGPMIBNF@illigal?5operator?5?$CFs?5on?5floating?5@ 004d104c     botlib:l_precomp.obj
 0002:0000a07c       ??_C@_0CA@FEDLLKBK@?$CB?5or?5?$HO?5after?5value?5in?5?$CDif?1?$CDelif?$AA@ 004d107c     botlib:l_precomp.obj
 0002:0000a09c       ??_C@_0BL@GBPPHEGE@?$CL?$CL?5or?5?9?9?5used?5in?5?$CDif?1?$CDelif?$AA@ 004d109c     botlib:l_precomp.obj
 0002:0000a0b8       ??_C@_0CI@GGOHGOKI@operator?5?$CFs?5after?5operator?5in?5?$CDi@ 004d10b8     botlib:l_precomp.obj
 0002:0000a0e0       ??_C@_0CB@PFAFLJI@invalid?5operator?5?$CFs?5in?5?$CDif?1?$CDelif@ 004d10e0     botlib:l_precomp.obj
 0002:0000a104       ??_C@_0BH@OFGCJCOE@out?5of?5operator?5space?6?$AA@ 004d1104     botlib:l_precomp.obj
 0002:0000a11c       ??_C@_0BI@ONNIJHPK@unknown?5?$CFs?5in?5?$CDif?1?$CDelif?$AA@ 004d111c     botlib:l_precomp.obj
 0002:0000a134       ??_C@_0BP@NIBGGAAE@trailing?5operator?5in?5?$CDif?1?$CDelif?$AA@ 004d1134     botlib:l_precomp.obj
 0002:0000a154       ??_C@_0BI@MJMEGLFD@too?5many?5?$CI?5in?5?$CDif?1?$CDelif?$AA@ 004d1154     botlib:l_precomp.obj
 0002:0000a16c       ??_C@_0BL@BNPPJONA@mising?5values?5in?5?$CDif?1?$CDelif?$AA@ 004d116c     botlib:l_precomp.obj
 0002:0000a188       ??_C@_0BN@HMNACNG@divide?5by?5zero?5in?5?$CDif?1?$CDelif?6?$AA@ 004d1188     botlib:l_precomp.obj
 0002:0000a1a8       ??_C@_0BJ@JILHHGIH@?3?5without?5?$DP?5in?5?$CDif?1?$CDelif?$AA@ 004d11a8     botlib:l_precomp.obj
 0002:0000a1c4       ??_C@_0BH@CHBBNAOH@?$DP?5after?5?$DP?5in?5?$CDif?1?$CDelif?$AA@ 004d11c4     botlib:l_precomp.obj
 0002:0000a1dc       ??_C@_0BJ@GGKGDEMC@no?5value?5after?5?$CDif?1?$CDelif?$AA@ 004d11dc     botlib:l_precomp.obj
 0002:0000a1f8       ??_C@_0BP@GDBMMIIP@can?8t?5evaluate?5?$CFs?0?5not?5defined?$AA@ 004d11f8     botlib:l_precomp.obj
 0002:0000a218       ??_C@_0BC@JLPCHENH@can?8t?5evaluate?5?$CFs?$AA@ 004d1218     botlib:l_precomp.obj
 0002:0000a22c       ??_C@_0CH@DDGJDDBD@no?5leading?5?$CI?5after?5$evalint?1$eva@ 004d122c     botlib:l_precomp.obj
 0002:0000a254       ??_C@_0BE@NEDCJHGJ@nothing?5to?5evaluate?$AA@ 004d1254     botlib:l_precomp.obj
 0002:0000a268       ??_C@_0BA@OFHILMEG@misplaced?5?$CDelif?$AA@ 004d1268     botlib:l_precomp.obj
 0002:0000a278       ??_C@_0BO@PLIOJNDH@?$CDline?5directive?5not?5supported?$AA@ 004d1278     botlib:l_precomp.obj
 0002:0000a298       ??_C@_0BF@PIGJJAAO@?$CDerror?5directive?3?5?$CFs?$AA@ 004d1298     botlib:l_precomp.obj
 0002:0000a2b0       ??_C@_0CA@KICMIAFO@?$CDpragma?5directive?5not?5supported?$AA@ 004d12b0     botlib:l_precomp.obj
 0002:0000a2d0       ??_C@_05NBLIHODN@?$CF1?42f?$AA@ 004d12d0     botlib:l_precomp.obj
 0002:0000a2d8       ??_C@_0BF@PIJDPBJF@found?5?$CD?5without?5name?$AA@ 004d12d8     botlib:l_precomp.obj
 0002:0000a2f0       ??_C@_0BH@CKLPJCIG@found?5?$CD?5at?5end?5of?5line?$AA@ 004d12f0     botlib:l_precomp.obj
 0002:0000a308       ??_C@_0CB@OMHFNJIL@unknown?5precompiler?5directive?5?$CFs@ 004d1308     botlib:l_precomp.obj
 0002:0000a32c       ??_C@_0BF@GDJCPOIP@found?5$?5without?5name?$AA@ 004d132c     botlib:l_precomp.obj
 0002:0000a344       ??_C@_0BH@KCNOOMN@found?5$?5at?5end?5of?5line?$AA@ 004d1344     botlib:l_precomp.obj
 0002:0000a35c       ??_C@_0CB@GIDBGAHO@string?5longer?5than?5MAX_TOKEN?5?$CFd?6@ 004d135c     botlib:l_precomp.obj
 0002:0000a380       ??_C@_0BK@JEDPJDDM@couldn?8t?5find?5expected?5?$CFs?$AA@ 004d1380     botlib:l_precomp.obj
 0002:0000a39c       ??_C@_0BG@PHOMHNKB@expected?5?$CFs?0?5found?5?$CFs?$AA@ 004d139c     botlib:l_precomp.obj
 0002:0000a3b4       ??_C@_0BN@ECGBICMG@couldn?8t?5read?5expected?5token?$AA@ 004d13b4     botlib:l_precomp.obj
 0002:0000a3d4       ??_C@_06ICGJLFIM@string?$AA@ 004d13d4     botlib:l_precomp.obj
 0002:0000a3dc       ??_C@_07IDLNMGBF@literal?$AA@ 004d13dc     botlib:l_precomp.obj
 0002:0000a3e4       ??_C@_06EBGNBFIA@number?$AA@ 004d13e4     botlib:l_precomp.obj
 0002:0000a3ec       ??_C@_0M@CCLOEHNM@punctuation?$AA@ 004d13ec     botlib:l_precomp.obj
 0002:0000a3f8       ??_C@_0BI@DOMAOFAI@expected?5a?5?$CFs?0?5found?5?$CFs?$AA@ 004d13f8     botlib:l_precomp.obj
 0002:0000a410       ??_C@_07EEKBCPDP@decimal?$AA@ 004d1410     botlib:l_precomp.obj
 0002:0000a418       ??_C@_05NANFMDJ@octal?$AA@ 004d1418     botlib:l_precomp.obj
 0002:0000a420       ??_C@_06FNFBAEBE@binary?$AA@ 004d1420     botlib:l_precomp.obj
 0002:0000a428       ??_C@_05BOODDNDJ@?5long?$AA@ 004d1428     botlib:l_precomp.obj
 0002:0000a430       ??_C@_09GBGALIGL@?5unsigned?$AA@ 004d1430     botlib:l_precomp.obj
 0002:0000a43c       ??_C@_06EOECJFKG@?5float?$AA@ 004d143c     botlib:l_precomp.obj
 0002:0000a444       ??_C@_08LLKPIPDF@?5integer?$AA@ 004d1444     botlib:l_precomp.obj
 0002:0000a450       ??_C@_08EFPOOAED@found?5?$CFs?$AA@ 004d1450     botlib:l_precomp.obj
 0002:0000a45c       ??_C@_0CD@DCDKNJKM@file?5?$CFs?5still?5open?5in?5precompile@ 004d145c     botlib:l_precomp.obj
 0002:0000a480       ??_C@_0BC@CLICPINC@AAS?5initialized?4?6?$AA@ 004d1480     botlib:be_aas_main.obj
 0002:0000a494       ??_C@_0L@MNCDALON@forcewrite?$AA@ 004d1494     botlib:be_aas_main.obj
 0002:0000a4a0       ??_C@_0M@MFMPGCMK@aasoptimize?$AA@ 004d14a0     botlib:be_aas_main.obj
 0002:0000a4ac       ??_C@_0BI@PECGHGFB@?$CFs?5written?5succesfully?6?$AA@ 004d14ac     botlib:be_aas_main.obj
 0002:0000a4c4       ??_C@_0BD@KNDGFCCN@couldn?8t?5write?5?$CFs?6?$AA@ 004d14c4     botlib:be_aas_main.obj
 0002:0000a4d8       ??_C@_0BB@FOPILIHM@showcacheupdates?$AA@ 004d14d8     botlib:be_aas_main.obj
 0002:0000a4ec       ??_C@_0BA@OBLODKFG@showmemoryusage?$AA@ 004d14ec     botlib:be_aas_main.obj
 0002:0000a4fc       ??_C@_0L@JEKILDFB@memorydump?$AA@ 004d14fc     botlib:be_aas_main.obj
 0002:0000a508       ??_C@_0BB@GMCJAANP@saveroutingcache?$AA@ 004d1508     botlib:be_aas_main.obj
 0002:0000a51c       ??_C@_0M@BMODPEIJ@maps?1?$CFs?4aas?$AA@ 004d151c     botlib:be_aas_main.obj
 0002:0000a528       ??_C@_0L@EBHNEODC@loaded?5?$CFs?6?$AA@ 004d1528     botlib:be_aas_main.obj
 0002:0000a534       ??_C@_0P@MCFJEJDN@AAS?5shutdown?4?6?$AA@ 004d1534     botlib:be_aas_main.obj
 0002:0000a544       ??_C@_0BO@MBNJNHCC@AAS_UpdateEntity?3?5not?5loaded?6?$AA@ 004d1544     botlib:be_aas_entity.obj
 0002:0000a564       ??_C@_0CK@IABHHEBM@AAS_EntityInfo?3?5aasworld?5not?5ini@ 004d1564     botlib:be_aas_entity.obj
 0002:0000a590       ??_C@_0CI@DHABDHGE@AAS_EntityInfo?3?5entnum?5?$CFd?5out?5of@ 004d1590     botlib:be_aas_entity.obj
 0002:0000a5b8       ??_C@_0CO@GOHMBDIM@AAS_EntityModelindex?3?5entnum?5?$CFd?5@ 004d15b8     botlib:be_aas_entity.obj
 0002:0000a5e8       ??_C@_0CI@MHKPMBGB@AAS_EntityType?3?5entnum?5?$CFd?5out?5of@ 004d15e8     botlib:be_aas_entity.obj
 0002:0000a610       ??_C@_0CM@KBCKFNEI@AAS_EntityModelNum?3?5entnum?5?$CFd?5ou@ 004d1610     botlib:be_aas_entity.obj
 0002:0000a63c       __real@47c34f80            004d163c     botlib:be_aas_entity.obj
 0002:0000a640       ??_C@_0DE@DAMFACPE@AAS_PresenceTypeBoundingBox?3?5unk@ 004d1640     botlib:be_aas_sample.obj
 0002:0000a674       ??_C@_04MHGDGELL@6144?$AA@ 004d1674     botlib:be_aas_sample.obj
 0002:0000a67c       ??_C@_0N@PMPJOGOE@max_aaslinks?$AA@ 004d167c     botlib:be_aas_sample.obj
 0002:0000a68c       ??_C@_0BF@KNNPFKDB@empty?5aas?5link?5heap?6?$AA@ 004d168c     botlib:be_aas_sample.obj
 0002:0000a6a4       ??_C@_0CC@DPIPPCFJ@AAS_PointAreaNum?3?5aas?5not?5loaded@ 004d16a4     botlib:be_aas_sample.obj
 0002:0000a6c8       ??_C@_0CL@HEHPOKDE@AAS_AreaPresenceType?3?5invalid?5ar@ 004d16c8     botlib:be_aas_sample.obj
 0002:0000a6f4       ??_C@_0CG@KBEHGJIJ@AAS_TraceBoundingBox?3?5stack?5over@ 004d16f4     botlib:be_aas_sample.obj
 0002:0000a71c       ??_C@_0CA@MKOIMAGJ@AAS_TraceAreas?3?5stack?5overflow?6?$AA@ 004d171c     botlib:be_aas_sample.obj
 0002:0000a73c       ??_C@_0CA@PMAJPFFP@AAS_LinkEntity?3?5aas?5not?5loaded?6?$AA@ 004d173c     botlib:be_aas_sample.obj
 0002:0000a75c       ??_C@_0CA@CLALHCAJ@AAS_LinkEntity?3?5stack?5overflow?6?$AA@ 004d175c     botlib:be_aas_sample.obj
 0002:0000a77c       ??_C@_0CH@FGLCKOMK@AAS_AreaInfo?3?5areanum?5?$CFd?5out?5of?5@ 004d177c     botlib:be_aas_sample.obj
 0002:0000a7a4       __real@3a83126f            004d17a4     botlib:be_aas_sample.obj
 0002:0000a7a8       __real@3f7fbe77            004d17a8     botlib:be_aas_sample.obj
 0002:0000a7b0       __xmm@41700000000000000000000000000000 004d17b0     botlib:be_aas_sample.obj
 0002:0000a7c0       __xmm@41700000417000004200000041700000 004d17c0     botlib:be_aas_sample.obj
 0002:0000a7d0       __xmm@c1700000000000000000000000000000 004d17d0     botlib:be_aas_sample.obj
 0002:0000a7e0       __xmm@c1700000c1700000c1c00000c1700000 004d17e0     botlib:be_aas_sample.obj
 0002:0000a7f0       ??_C@_0BK@JKILNG@trigger_push?5start?5solid?6?$AA@ 004d17f0     botlib:be_aas_reach.obj
 0002:0000a80c       ??_C@_06JJLAMBGK@target?$AA@ 004d180c     botlib:be_aas_reach.obj
 0002:0000a814       ??_C@_0L@FEPNPAJD@targetname?$AA@ 004d1814     botlib:be_aas_reach.obj
 0002:0000a820       ??_C@_0CH@FACFDAAG@trigger_push?5without?5target?5enti@ 004d1820     botlib:be_aas_reach.obj
 0002:0000a848       ??_C@_06NHCMNMEH@origin?$AA@ 004d1848     botlib:be_aas_reach.obj
 0002:0000a850       ??_C@_0BL@CJDBHLDC@trigger_push?5without?5time?6?$AA@ 004d1850     botlib:be_aas_reach.obj
 0002:0000a86c       ??_C@_09CNJINBGN@classname?$AA@ 004d186c     botlib:be_aas_reach.obj
 0002:0000a878       ??_C@_0N@CCJDLJOF@trigger_push?$AA@ 004d1878     botlib:be_aas_reach.obj
 0002:0000a888       ??_C@_0CH@EKLAGLOI@trigger_push?5not?5in?5any?5jump?5pad@ 004d1888     botlib:be_aas_reach.obj
 0002:0000a8b0       ??_C@_0CH@PFPOMNKK@AAS_BestReachableArea?3?5aas?5not?5l@ 004d18b0     botlib:be_aas_reach.obj
 0002:0000a8d8       ??_C@_0BJ@PIPGKHBD@AAS_MAX_REACHABILITYSIZE?$AA@ 004d18d8     botlib:be_aas_reach.obj
 0002:0000a8f4       ??_C@_0CO@CAIPEICN@AAS_AreaReachability?3?5areanum?5?$CFd@ 004d18f4     botlib:be_aas_reach.obj
 0002:0000a924       ??_C@_0M@GAOGDGCN@bot_notteam?$AA@ 004d1924     botlib:be_aas_reach.obj
 0002:0000a930       ??_C@_0BB@LKHFHPEP@trigger_multiple?$AA@ 004d1930     botlib:be_aas_reach.obj
 0002:0000a944       ??_C@_0BP@HIGEPBIN@trigger_multiple?5model?5?$DN?5?$CC?$CFs?$CC?6?$AA@ 004d1944     botlib:be_aas_reach.obj
 0002:0000a964       ??_C@_0DG@BADEBAMF@trigger_multiple?5at?5?$CF1?40f?5?$CF1?40f?5@ 004d1964     botlib:be_aas_reach.obj
 0002:0000a99c       ??_C@_0BC@GJLLMIEM@target_teleporter?$AA@ 004d199c     botlib:be_aas_reach.obj
 0002:0000a9b0       ??_C@_0CC@NGDNGGBL@target_teleporter?5without?5target@ 004d19b0     botlib:be_aas_reach.obj
 0002:0000a9d4       ??_C@_0BB@COMMHECA@trigger_teleport?$AA@ 004d19d4     botlib:be_aas_reach.obj
 0002:0000a9e8       ??_C@_0BP@MFGNJEFC@trigger_teleport?5model?5?$DN?5?$CC?$CFs?$CC?6?$AA@ 004d19e8     botlib:be_aas_reach.obj
 0002:0000aa08       ??_C@_0DG@PNPCBHNC@trigger_teleport?5at?5?$CF1?40f?5?$CF1?40f?5@ 004d1a08     botlib:be_aas_reach.obj
 0002:0000aa40       ??_C@_0CO@NOOGBJFD@teleporter?5without?5misc_teleport@ 004d1a40     botlib:be_aas_reach.obj
 0002:0000aa70       ??_C@_0CM@CLBMAOHE@teleporter?5destination?5?$CI?$CFs?$CJ?5with@ 004d1a70     botlib:be_aas_reach.obj
 0002:0000aa9c       ??_C@_0CG@CEMGMOAN@teleporter?5destination?5?$CI?$CFs?$CJ?5in?5s@ 004d1a9c     botlib:be_aas_reach.obj
 0002:0000aac4       ??_C@_05FECBCJJD@angle?$AA@ 004d1ac4     botlib:be_aas_reach.obj
 0002:0000aacc       ??_C@_0CK@HGLAMBGC@teleported?5into?5slime?5or?5lava?5at@ 004d1acc     botlib:be_aas_reach.obj
 0002:0000aaf8       ??_C@_0CC@HLGOOKDO@trigger_multiple?5not?5in?5any?5area@ 004d1af8     botlib:be_aas_reach.obj
 0002:0000ab1c       ??_C@_09HCDLIOGG@func_plat?$AA@ 004d1b1c     botlib:be_aas_reach.obj
 0002:0000ab28       ??_C@_0BJ@LDMJPEKH@func_plat?5without?5model?6?$AA@ 004d1b28     botlib:be_aas_reach.obj
 0002:0000ab44       ??_C@_0CF@BDBFALFG@func_plat?5with?5invalid?5model?5num@ 004d1b44     botlib:be_aas_reach.obj
 0002:0000ab6c       ??_C@_03MHHCOBAB@lip?$AA@  004d1b6c     botlib:be_aas_reach.obj
 0002:0000ab70       ??_C@_06LNLHEAAG@height?$AA@ 004d1b70     botlib:be_aas_reach.obj
 0002:0000ab78       ??_C@_0N@BAMIHEIF@func_bobbing?$AA@ 004d1b78     botlib:be_aas_reach.obj
 0002:0000ab88       ??_C@_0BM@HGBLGKHA@func_bobbing?5without?5model?6?$AA@ 004d1b88     botlib:be_aas_reach.obj
 0002:0000aba4       ??_C@_0CI@BJOEBEBE@func_bobbing?5with?5invalid?5model?5@ 004d1ba4     botlib:be_aas_reach.obj
 0002:0000abcc       ??_C@_0L@HLIKNEFC@spawnflags?$AA@ 004d1bcc     botlib:be_aas_reach.obj
 0002:0000abd8       ??_C@_0EN@JGFDJKIH@funcbob?5model?5?$CFd?0?5start?5?$DN?5?$HL?$CF1?41f@ 004d1bd8     botlib:be_aas_reach.obj
 0002:0000ac28       ??_C@_0CC@PCNLLMDF@funcbob?5reach?5from?5area?5?$CFd?5to?5?$CFd@ 004d1c28     botlib:be_aas_reach.obj
 0002:0000ac4c       ??_C@_0CN@NDLDAEHG@found?5a?5trigger_push?5with?5veloci@ 004d1c4c     botlib:be_aas_reach.obj
 0002:0000ac7c       ??_C@_0CE@GGDNMGF@area?5?$CFd?5center?5?$CFf?5?$CFf?5?$CFf?5in?5solid@ 004d1c7c     botlib:be_aas_reach.obj
 0002:0000aca0       ??_C@_0BA@EKKMHIH@item_armor_body?$AA@ 004d1ca0     botlib:be_aas_reach.obj
 0002:0000acb0       ??_C@_0BC@FPPLPJIL@item_armor_combat?$AA@ 004d1cb0     botlib:be_aas_reach.obj
 0002:0000acc4       ??_C@_0BB@PBGAONGH@item_health_mega?$AA@ 004d1cc4     botlib:be_aas_reach.obj
 0002:0000acd8       ??_C@_0BH@DGCCJPLM@weapon_grenadelauncher?$AA@ 004d1cd8     botlib:be_aas_reach.obj
 0002:0000acf0       ??_C@_0BG@HJKONAJE@weapon_rocketlauncher?$AA@ 004d1cf0     botlib:be_aas_reach.obj
 0002:0000ad08       ??_C@_0BB@OCCEAFCD@weapon_lightning?$AA@ 004d1d08     botlib:be_aas_reach.obj
 0002:0000ad1c       ??_C@_0BB@LBHAKENA@weapon_plasmagun?$AA@ 004d1d1c     botlib:be_aas_reach.obj
 0002:0000ad30       ??_C@_0P@FEPBKEBF@weapon_railgun?$AA@ 004d1d30     botlib:be_aas_reach.obj
 0002:0000ad40       ??_C@_0L@JBGNLNGG@weapon_bfg?$AA@ 004d1d40     botlib:be_aas_reach.obj
 0002:0000ad4c       ??_C@_09MDKNIFFH@item_quad?$AA@ 004d1d4c     botlib:be_aas_reach.obj
 0002:0000ad58       ??_C@_0L@MMGPPPDM@item_regen?$AA@ 004d1d58     botlib:be_aas_reach.obj
 0002:0000ad64       ??_C@_0BF@ILDMGFED@item_invulnerability?$AA@ 004d1d64     botlib:be_aas_reach.obj
 0002:0000ad7c       ??_C@_0CE@GABHNCEE@?$CFs?5in?5solid?5at?5?$CI?$CF1?41f?5?$CF1?41f?5?$CF1?41@ 004d1d7c     botlib:be_aas_reach.obj
 0002:0000ada0       ??_C@_0BG@HCGBEFOB@?$CFd?5weapon?5jump?5areas?6?$AA@ 004d1da0     botlib:be_aas_reach.obj
 0002:0000adb8       ??_C@_0BN@PENKEBEJ@calculating?5reachability?4?4?4?6?$AA@ 004d1db8     botlib:be_aas_reach.obj
 0002:0000add8       ??_C@_08PLEDPJBP@?$AN?$CF6?41f?$CF?$CF?$AA@ 004d1dd8     botlib:be_aas_reach.obj
 0002:0000ade4       ??_C@_0CM@JBJKNNFH@?6please?5wait?5while?5storing?5reach@ 004d1de4     botlib:be_aas_reach.obj
 0002:0000ae10       ??_C@_0BJ@MGEPEAF@calculating?5clusters?4?4?4?6?$AA@ 004d1e10     botlib:be_aas_reach.obj
 0002:0000ae2c       ??_C@_0BC@HJNNPMHF@forcereachability?$AA@ 004d1e2c     botlib:be_aas_reach.obj
 0002:0000ae40       ??_C@_0N@PBBHPDFE@grapplereach?$AA@ 004d1e40     botlib:be_aas_reach.obj
 0002:0000ae50       __real@3f866666            004d1e50     botlib:be_aas_reach.obj
 0002:0000ae54       __real@3f8ccccd            004d1e54     botlib:be_aas_reach.obj
 0002:0000ae58       __real@3f99999a            004d1e58     botlib:be_aas_reach.obj
 0002:0000ae60       __real@3fd0c15240000000    004d1e60     botlib:be_aas_reach.obj
 0002:0000ae68       __real@3fe6666666666666    004d1e68     botlib:be_aas_reach.obj
 0002:0000ae70       __real@4020000000000000    004d1e70     botlib:be_aas_reach.obj
 0002:0000ae78       __real@4049000000000000    004d1e78     botlib:be_aas_reach.obj
 0002:0000ae80       __real@4059000000000000    004d1e80     botlib:be_aas_reach.obj
 0002:0000ae88       __real@40a00000            004d1e88     botlib:be_aas_reach.obj
 0002:0000ae90       __real@41124f8000000000    004d1e90     botlib:be_aas_reach.obj
 0002:0000ae98       __real@41200000            004d1e98     botlib:be_aas_reach.obj
 0002:0000ae9c       __real@41c00000            004d1e9c     botlib:be_aas_reach.obj
 0002:0000aea0       __real@42400000            004d1ea0     botlib:be_aas_reach.obj
 0002:0000aea4       __real@42480000            004d1ea4     botlib:be_aas_reach.obj
 0002:0000aea8       __real@42800000            004d1ea8     botlib:be_aas_reach.obj
 0002:0000aeac       __real@43000000            004d1eac     botlib:be_aas_reach.obj
 0002:0000aeb0       __real@43160000            004d1eb0     botlib:be_aas_reach.obj
 0002:0000aeb4       __real@43400000            004d1eb4     botlib:be_aas_reach.obj
 0002:0000aeb8       __real@43700000            004d1eb8     botlib:be_aas_reach.obj
 0002:0000aebc       __real@43960000            004d1ebc     botlib:be_aas_reach.obj
 0002:0000aec0       __real@43c80000            004d1ec0     botlib:be_aas_reach.obj
 0002:0000aec4       __real@43fa0000            004d1ec4     botlib:be_aas_reach.obj
 0002:0000aec8       __real@44480000            004d1ec8     botlib:be_aas_reach.obj
 0002:0000aecc       __real@44fa0000            004d1ecc     botlib:be_aas_reach.obj
 0002:0000aed0       __real@497423f0            004d1ed0     botlib:be_aas_reach.obj
 0002:0000aed4       __real@80000000            004d1ed4     botlib:be_aas_reach.obj
 0002:0000aed8       __real@c61c3c00            004d1ed8     botlib:be_aas_reach.obj
 0002:0000aedc       ??_C@_0BH@IMJGLBBE@?$CFd?5area?5cache?5updates?6?$AA@ 004d1edc     botlib:be_aas_route.obj
 0002:0000aef4       ??_C@_0BJ@FFMFFMFH@?$CFd?5portal?5cache?5updates?6?$AA@ 004d1ef4     botlib:be_aas_route.obj
 0002:0000af10       ??_C@_0BI@PLPAKMFI@?$CFd?5bytes?5routing?5cache?6?$AA@ 004d1f10     botlib:be_aas_route.obj
 0002:0000af28       ??_C@_0DA@BGBJJEEH@AAS_EnableRoutingArea?3?5areanum?5?$CF@ 004d1f28     botlib:be_aas_route.obj
 0002:0000af58       ??_C@_0CK@NIAJBAAO@area?5?$CFd?5has?5more?5than?5128?5reacha@ 004d1f58     botlib:be_aas_route.obj
 0002:0000af84       ??_C@_0M@FIEIFMAA@maps?1?$CFs?4rcd?$AA@ 004d1f84     botlib:be_aas_route.obj
 0002:0000af90       ??_C@_0BJ@HCPGIGFI@Unable?5to?5open?5file?3?5?$CFs?6?$AA@ 004d1f90     botlib:be_aas_route.obj
 0002:0000afac       ??_C@_0BM@DAFGPIEG@?6route?5cache?5written?5to?5?$CFs?6?$AA@ 004d1fac     botlib:be_aas_route.obj
 0002:0000afc8       ??_C@_0CD@PPPFMKKL@written?5?$CFd?5bytes?5of?5routing?5cach@ 004d1fc8     botlib:be_aas_route.obj
 0002:0000afec       ??_C@_0BO@JKLJGLEA@?$CFs?5is?5not?5a?5route?5cache?5dump?6?$AA@ 004d1fec     botlib:be_aas_route.obj
 0002:0000b00c       ??_C@_0DE@BIPEEDLP@route?5cache?5dump?5has?5wrong?5versi@ 004d200c     botlib:be_aas_route.obj
 0002:0000b040       ??_C@_04DPPBKBGP@4096?$AA@ 004d2040     botlib:be_aas_route.obj
 0002:0000b048       ??_C@_0BB@KOMOOHGO@max_routingcache?$AA@ 004d2048     botlib:be_aas_route.obj
 0002:0000b05c       ??_C@_0DH@NEAPKHCH@AAS_AreaTravelTimeToGoalArea?3?5ar@ 004d205c     botlib:be_aas_route.obj
 0002:0000b094       ??_C@_0DL@EBFGAMIN@AAS_AreaTravelTimeToGoalArea?3?5go@ 004d2094     botlib:be_aas_route.obj
 0002:0000b0d0       ??_C@_0DD@INGMKBAA@AAS_NextAreaReachability?3?5areanu@ 004d20d0     botlib:be_aas_route.obj
 0002:0000b108       ??_C@_0EB@MCKKKILC@AAS_NextAreaReachability?3?5reachn@ 004d2108     botlib:be_aas_route.obj
 0002:0000b14c       __real@3ea8f5c3            004d214c     botlib:be_aas_route.obj
 0002:0000b150       __real@3fa66666            004d2150     botlib:be_aas_route.obj
 0002:0000b154       __real@42200000            004d2154     botlib:be_aas_route.obj
 0002:0000b160       __xmm@00000001000000010000000100000001 004d2160     botlib:be_aas_route.obj
 0002:0000b170       __xmm@00000008000000040000000200000001 004d2170     botlib:be_aas_route.obj
 0002:0000b180       __xmm@00000100000000800000002000000010 004d2180     botlib:be_aas_route.obj
 0002:0000b190       __xmm@00001000000008000000040000000200 004d2190     botlib:be_aas_route.obj
 0002:0000b1a0       __xmm@00010000000080000000400000002000 004d21a0     botlib:be_aas_route.obj
 0002:0000b1b0       ??_C@_0BE@ICPCLNOB@?$CFd?5midrange?5area?5?$CFd?$AA@ 004d21b0     botlib:be_aas_routealt.obj
 0002:0000b1c4       __real@3f4ccccd            004d21c4     botlib:be_aas_routealt.obj
 0002:0000b1c8       ??_C@_0BJ@JBOKGNLE@bsp?5entity?5out?5of?5range?6?$AA@ 004d21c8     botlib:be_aas_bspq3.obj
 0002:0000b1e4       ??_C@_0M@HBEEPJK@?$CFlf?5?$CFlf?5?$CFlf?$AA@ 004d21e4     botlib:be_aas_bspq3.obj
 0002:0000b1f0       ??_C@_07IJNKCNKH@entdata?$AA@ 004d21f0     botlib:be_aas_bspq3.obj
 0002:0000b1f8       ??_C@_01HCONENDN@?$HL?$AA@ 004d21f8     botlib:be_aas_bspq3.obj
 0002:0000b1fc       ??_C@_0M@HDEGANAK@invalid?5?$CFs?6?$AA@ 004d21fc     botlib:be_aas_bspq3.obj
 0002:0000b208       ??_C@_0BP@POHMEOEC@too?5many?5entities?5in?5BSP?5file?6?$AA@ 004d2208     botlib:be_aas_bspq3.obj
 0002:0000b228       ??_C@_01CELHOKLL@?$HN?$AA@ 004d2228     botlib:be_aas_bspq3.obj
 0002:0000b22c       ??_C@_0L@MIANKDAD@missing?5?$HN?6?$AA@ 004d222c     botlib:be_aas_bspq3.obj
 0002:0000b238       ??_C@_01DHDKHMHF@6?$AA@    004d2238     botlib:be_aas_move.obj
 0002:0000b23c       ??_C@_0O@KFCMEAKP@phys_friction?$AA@ 004d223c     botlib:be_aas_move.obj
 0002:0000b24c       ??_C@_0P@HGIEEKKG@phys_stopspeed?$AA@ 004d224c     botlib:be_aas_move.obj
 0002:0000b25c       ??_C@_0N@KOBDBIMP@phys_gravity?$AA@ 004d225c     botlib:be_aas_move.obj
 0002:0000b26c       ??_C@_0BD@IPGBHKKJ@phys_waterfriction?$AA@ 004d226c     botlib:be_aas_move.obj
 0002:0000b280       ??_C@_03FKNPJMHG@400?$AA@  004d2280     botlib:be_aas_move.obj
 0002:0000b284       ??_C@_0BC@IMACIKDE@phys_watergravity?$AA@ 004d2284     botlib:be_aas_move.obj
 0002:0000b298       ??_C@_03MEIMHAKB@320?$AA@  004d2298     botlib:be_aas_move.obj
 0002:0000b29c       ??_C@_0BB@IJKKLCCL@phys_maxvelocity?$AA@ 004d229c     botlib:be_aas_move.obj
 0002:0000b2b0       ??_C@_0BF@KDOBLJFP@phys_maxwalkvelocity?$AA@ 004d22b0     botlib:be_aas_move.obj
 0002:0000b2c8       ??_C@_0BH@IOAMOCDB@phys_maxcrouchvelocity?$AA@ 004d22c8     botlib:be_aas_move.obj
 0002:0000b2e0       ??_C@_03GLMKKOKP@150?$AA@  004d22e0     botlib:be_aas_move.obj
 0002:0000b2e4       ??_C@_0BF@PMDEEHNA@phys_maxswimvelocity?$AA@ 004d22e4     botlib:be_aas_move.obj
 0002:0000b2fc       ??_C@_0BE@FFIPDPFP@phys_walkaccelerate?$AA@ 004d22fc     botlib:be_aas_move.obj
 0002:0000b310       ??_C@_0BD@NNGBBLHI@phys_airaccelerate?$AA@ 004d2310     botlib:be_aas_move.obj
 0002:0000b324       ??_C@_0BE@LDJBDLBF@phys_swimaccelerate?$AA@ 004d2324     botlib:be_aas_move.obj
 0002:0000b338       ??_C@_02CLJDCEPA@19?$AA@   004d2338     botlib:be_aas_move.obj
 0002:0000b33c       ??_C@_0N@OLIJKDDL@phys_maxstep?$AA@ 004d233c     botlib:be_aas_move.obj
 0002:0000b34c       ??_C@_03IMEEBDJM@0?47?$AA@ 004d234c     botlib:be_aas_move.obj
 0002:0000b350       ??_C@_0BC@JMNKLJNN@phys_maxsteepness?$AA@ 004d2350     botlib:be_aas_move.obj
 0002:0000b364       ??_C@_02DCIIBFLB@18?$AA@   004d2364     botlib:be_aas_move.obj
 0002:0000b368       ??_C@_0BC@BGLDKCMB@phys_maxwaterjump?$AA@ 004d2368     botlib:be_aas_move.obj
 0002:0000b37c       ??_C@_02NCPIBIBE@33?$AA@   004d237c     botlib:be_aas_move.obj
 0002:0000b380       ??_C@_0BA@MNKPJHJN@phys_maxbarrier?$AA@ 004d2380     botlib:be_aas_move.obj
 0002:0000b390       ??_C@_03HKPLNFCP@270?$AA@  004d2390     botlib:be_aas_move.obj
 0002:0000b394       ??_C@_0N@CKBIGONB@phys_jumpvel?$AA@ 004d2394     botlib:be_aas_move.obj
 0002:0000b3a4       ??_C@_02PMJKFNFC@40?$AA@   004d23a4     botlib:be_aas_move.obj
 0002:0000b3a8       ??_C@_0BA@IDFBNLKN@phys_falldelta5?$AA@ 004d23a8     botlib:be_aas_move.obj
 0002:0000b3b8       ??_C@_02PPBOIJDM@60?$AA@   004d23b8     botlib:be_aas_move.obj
 0002:0000b3bc       ??_C@_0BB@HAKLBAKB@phys_falldelta10?$AA@ 004d23bc     botlib:be_aas_move.obj
 0002:0000b3d0       ??_C@_0N@JKBBEPHH@rs_waterjump?$AA@ 004d23d0     botlib:be_aas_move.obj
 0002:0000b3e0       ??_C@_02PNFIDHGF@50?$AA@   004d23e0     botlib:be_aas_move.obj
 0002:0000b3e4       ??_C@_0M@MEFOEMOE@rs_teleport?$AA@ 004d23e4     botlib:be_aas_move.obj
 0002:0000b3f0       ??_C@_0P@PHELIMLJ@rs_barrierjump?$AA@ 004d23f0     botlib:be_aas_move.obj
 0002:0000b400       ??_C@_03MHAIKEMP@300?$AA@  004d2400     botlib:be_aas_move.obj
 0002:0000b404       ??_C@_0P@LHMFFEKL@rs_startcrouch?$AA@ 004d2404     botlib:be_aas_move.obj
 0002:0000b414       ??_C@_03OCGDPLBD@500?$AA@  004d2414     botlib:be_aas_move.obj
 0002:0000b418       ??_C@_0BA@GKDMJAIB@rs_startgrapple?$AA@ 004d2418     botlib:be_aas_move.obj
 0002:0000b428       ??_C@_02PONMODAL@70?$AA@   004d2428     botlib:be_aas_move.obj
 0002:0000b42c       ??_C@_0BF@EEBNNHGL@rs_startwalkoffledge?$AA@ 004d242c     botlib:be_aas_move.obj
 0002:0000b444       ??_C@_0N@DFNGJGCB@rs_startjump?$AA@ 004d2444     botlib:be_aas_move.obj
 0002:0000b454       ??_C@_0O@KLDHKDPG@rs_rocketjump?$AA@ 004d2454     botlib:be_aas_move.obj
 0002:0000b464       ??_C@_0L@NKJOKCB@rs_bfgjump?$AA@ 004d2464     botlib:be_aas_move.obj
 0002:0000b470       ??_C@_03HJHPABEB@250?$AA@  004d2470     botlib:be_aas_move.obj
 0002:0000b474       ??_C@_0L@BDNLAFIB@rs_jumppad?$AA@ 004d2474     botlib:be_aas_move.obj
 0002:0000b480       ??_C@_0BI@BFCKOPFL@rs_aircontrolledjumppad?$AA@ 004d2480     botlib:be_aas_move.obj
 0002:0000b498       ??_C@_0L@EDHEJKKK@rs_funcbob?$AA@ 004d2498     botlib:be_aas_move.obj
 0002:0000b4a4       ??_C@_0BB@CHLHBMFH@rs_startelevator?$AA@ 004d24a4     botlib:be_aas_move.obj
 0002:0000b4b8       ??_C@_0P@DKDPFKAP@rs_falldamage5?$AA@ 004d24b8     botlib:be_aas_move.obj
 0002:0000b4c8       ??_C@_0BA@EIMKLMOE@rs_falldamage10?$AA@ 004d24c8     botlib:be_aas_move.obj
 0002:0000b4d8       ??_C@_0BB@EFAOPOH@rs_maxfallheight?$AA@ 004d24d8     botlib:be_aas_move.obj
 0002:0000b4ec       ??_C@_03FMBEFOJN@450?$AA@  004d24ec     botlib:be_aas_move.obj
 0002:0000b4f0       ??_C@_0BF@BABOLIN@rs_maxjumpfallheight?$AA@ 004d24f0     botlib:be_aas_move.obj
 0002:0000b508       ??_C@_0BO@BLKMJPOB@PredictMovement?3?5start?5solid?6?$AA@ 004d2508     botlib:be_aas_move.obj
 0002:0000b528       __real@4010000000000000    004d2528     botlib:be_aas_move.obj
 0002:0000b530       __real@4014000000000000    004d2530     botlib:be_aas_move.obj
 0002:0000b538       __real@4069000000000000    004d2538     botlib:be_aas_move.obj
 0002:0000b540       __real@4099000000000000    004d2540     botlib:be_aas_move.obj
 0002:0000b548       __real@41b00000            004d2548     botlib:be_aas_move.obj
 0002:0000b54c       __real@c3960000            004d254c     botlib:be_aas_move.obj
 0002:0000b550       ??_C@_06BCNPLFHG@say?5?$CFs?$AA@ 004d2550     botlib:be_ea.obj
 0002:0000b558       ??_C@_0M@CICLJBLC@say_team?5?$CFs?$AA@ 004d2558     botlib:be_ea.obj
 0002:0000b564       __real@c3c80000            004d2564     botlib:be_ea.obj
 0002:0000b568       ??_C@_01JOAMLHOP@?9?$AA@   004d2568     botlib:be_ai_weight.obj
 0002:0000b56c       ??_C@_0BM@HDMBEFIO@negative?5value?5set?5to?5zero?6?$AA@ 004d256c     botlib:be_ai_weight.obj
 0002:0000b588       ??_C@_0BJ@GLODEBJK@invalid?5return?5value?5?$CFs?6?$AA@ 004d2588     botlib:be_ai_weight.obj
 0002:0000b5a4       ??_C@_07HHFEDLHG@balance?$AA@ 004d25a4     botlib:be_ai_weight.obj
 0002:0000b5ac       ??_C@_01ICJEACDI@?$DL?$AA@ 004d25ac     botlib:be_ai_weight.obj
 0002:0000b5b0       ??_C@_07DLHCIBDH@default?$AA@ 004d25b0     botlib:be_ai_weight.obj
 0002:0000b5b8       ??_C@_04CKOINMPC@case?$AA@ 004d25b8     botlib:be_ai_weight.obj
 0002:0000b5c0       ??_C@_0BO@EHFJJING@switch?5already?5has?5a?5default?6?$AA@ 004d25c0     botlib:be_ai_weight.obj
 0002:0000b5e0       ??_C@_06LNOFJDNM@return?$AA@ 004d25e0     botlib:be_ai_weight.obj
 0002:0000b5e8       ??_C@_06DOPOGBGP@switch?$AA@ 004d25e8     botlib:be_ai_weight.obj
 0002:0000b5f0       ??_C@_0BB@EGNLBCLO@invalid?5name?5?$CFs?6?$AA@ 004d25f0     botlib:be_ai_weight.obj
 0002:0000b604       ??_C@_0BI@OGAGPDGB@switch?5without?5default?6?$AA@ 004d2604     botlib:be_ai_weight.obj
 0002:0000b61c       ??_C@_0CL@HHMEIDHK@weightFileList?5was?5full?5trying?5t@ 004d261c     botlib:be_ai_weight.obj
 0002:0000b648       ??_C@_08LPOJGGC@botfiles?$AA@ 004d2648     botlib:be_ai_weight.obj
 0002:0000b654       ??_C@_0BD@IJKNLBNC@counldn?8t?5load?5?$CFs?6?$AA@ 004d2654     botlib:be_ai_weight.obj
 0002:0000b668       ??_C@_06CMCBKMCB@weight?$AA@ 004d2668     botlib:be_ai_weight.obj
 0002:0000b670       ??_C@_0BI@EPKIMGGL@too?5many?5fuzzy?5weights?6?$AA@ 004d2670     botlib:be_ai_weight.obj
 0002:0000b688       ??_C@_0DB@HDMANNJK@cannot?5interbreed?5weight?5configs@ 004d2688     botlib:be_ai_weight.obj
 0002:0000b6bc       ??_C@_0DD@CNDDMNEB@cannot?5interbreed?5weight?5configs@ 004d26bc     botlib:be_ai_weight.obj
 0002:0000b6f0       ??_C@_0DA@LJPOKDON@cannot?5interbreed?5weight?5configs@ 004d26f0     botlib:be_ai_weight.obj
 0002:0000b720       ??_C@_0DG@IEMEEKLE@cannot?5interbreed?5weight?5configs@ 004d2720     botlib:be_ai_weight.obj
 0002:0000b758       ??_C@_04GPMDFGEJ@type?$AA@ 004d2758     botlib:be_ai_goal.obj
 0002:0000b760       ??_C@_05FKHKFDID@index?$AA@ 004d2760     botlib:be_ai_goal.obj
 0002:0000b768       ??_C@_0M@JFIMPIHC@respawntime?$AA@ 004d2768     botlib:be_ai_goal.obj
 0002:0000b774       ??_C@_04FIAKMPII@mins?$AA@ 004d2774     botlib:be_ai_goal.obj
 0002:0000b77c       ??_C@_04IFBFDIKF@maxs?$AA@ 004d277c     botlib:be_ai_goal.obj
 0002:0000b784       ??_C@_0CD@HELJPMIG@goal?5state?5handle?5?$CFd?5out?5of?5rang@ 004d2784     botlib:be_ai_goal.obj
 0002:0000b7a8       ??_C@_0BH@PLLAAOAM@invalid?5goal?5state?5?$CFd?6?$AA@ 004d27a8     botlib:be_ai_goal.obj
 0002:0000b7c0       ??_C@_03CPCFKGMH@256?$AA@  004d27c0     botlib:be_ai_goal.obj
 0002:0000b7c4       ??_C@_0N@FCIHMPOM@max_iteminfo?$AA@ 004d27c4     botlib:be_ai_goal.obj
 0002:0000b7d4       ??_C@_0BD@IBDAAGDO@max_iteminfo?5?$DN?5?$CFd?6?$AA@ 004d27d4     botlib:be_ai_goal.obj
 0002:0000b7e8       ??_C@_08ENCMGJPE@iteminfo?$AA@ 004d27e8     botlib:be_ai_goal.obj
 0002:0000b7f4       ??_C@_0CA@FLCFPAIO@more?5than?5?$CFd?5item?5info?5defined?6?$AA@ 004d27f4     botlib:be_ai_goal.obj
 0002:0000b814       ??_C@_0BH@JEMDOFNP@unknown?5definition?5?$CFs?6?$AA@ 004d2814     botlib:be_ai_goal.obj
 0002:0000b82c       ??_C@_0BF@PNCKGICK@no?5item?5info?5loaded?6?$AA@ 004d282c     botlib:be_ai_goal.obj
 0002:0000b844       ??_C@_0CI@LHHPPLNO@item?5info?5?$CFd?5?$CC?$CFs?$CC?5has?5no?5fuzzy?5w@ 004d2844     botlib:be_ai_goal.obj
 0002:0000b86c       ??_C@_0P@HIDOFLAM@max_levelitems?$AA@ 004d286c     botlib:be_ai_goal.obj
 0002:0000b87c       ??_C@_0BE@OPAGCKFM@out?5of?5level?5items?6?$AA@ 004d287c     botlib:be_ai_goal.obj
 0002:0000b890       ??_C@_0BA@BFKBOHOP@target_location?$AA@ 004d2890     botlib:be_ai_goal.obj
 0002:0000b8a0       ??_C@_07ONPBMBOP@message?$AA@ 004d28a0     botlib:be_ai_goal.obj
 0002:0000b8a8       ??_C@_09BLMHBGJ@info_camp?$AA@ 004d28a8     botlib:be_ai_goal.obj
 0002:0000b8b4       ??_C@_05CCGOGOBM@range?$AA@ 004d28b4     botlib:be_ai_goal.obj
 0002:0000b8bc       ??_C@_06NLFCANPD@random?$AA@ 004d28bc     botlib:be_ai_goal.obj
 0002:0000b8c4       ??_C@_0CJ@BCICAJAI@camp?5spot?5at?5?$CF1?41f?5?$CF1?41f?5?$CF1?41f?5i@ 004d28c4     botlib:be_ai_goal.obj
 0002:0000b8f0       ??_C@_0BC@GDDPKONG@?$CFd?5map?5locations?6?$AA@ 004d28f0     botlib:be_ai_goal.obj
 0002:0000b904       ??_C@_0P@NDPOMACK@?$CFd?5camp?5spots?6?$AA@ 004d2904     botlib:be_ai_goal.obj
 0002:0000b914       ??_C@_0BJ@GPKBNKNM@item?5?$CFs?5has?5modelindex?50?$AA@ 004d2914     botlib:be_ai_goal.obj
 0002:0000b930       ??_C@_0BJ@KFHJJGAI@entity?5?$CFs?5unknown?5item?$AN?6?$AA@ 004d2930     botlib:be_ai_goal.obj
 0002:0000b94c       ??_C@_0BI@INFPJMMC@item?5?$CFs?5without?5origin?6?$AA@ 004d294c     botlib:be_ai_goal.obj
 0002:0000b964       ??_C@_0CJ@NOFKLOEA@item?5?$CFs?5reachable?5from?5jumppad?5a@ 004d2964     botlib:be_ai_goal.obj
 0002:0000b990       ??_C@_07DDCDJNBH@notfree?$AA@ 004d2990     botlib:be_ai_goal.obj
 0002:0000b998       ??_C@_07CLBNBEAH@notteam?$AA@ 004d2998     botlib:be_ai_goal.obj
 0002:0000b9a0       ??_C@_09FDFEENEB@notsingle?$AA@ 004d29a0     botlib:be_ai_goal.obj
 0002:0000b9ac       ??_C@_06NFBNODNO@notbot?$AA@ 004d29ac     botlib:be_ai_goal.obj
 0002:0000b9b4       ??_C@_0N@PAECNMEH@item_botroam?$AA@ 004d29b4     botlib:be_ai_goal.obj
 0002:0000b9c4       ??_C@_0DC@LLNGFMLL@?$CFs?5not?5reachable?5for?5bots?5at?5?$CI?$CF1@ 004d29c4     botlib:be_ai_goal.obj
 0002:0000b9f8       ??_C@_0BG@FGIAGNA@found?5?$CFd?5level?5items?6?$AA@ 004d29f8     botlib:be_ai_goal.obj
 0002:0000ba10       ??_C@_0CI@HLDADGI@avoid?5goal?5?$CFs?0?5number?5?$CFd?5for?5?$CFf?5@ 004d2a10     botlib:be_ai_goal.obj
 0002:0000ba38       ??_C@_06BNEENKNB@?$CFd?3?5?$CFs?$AA@ 004d2a38     botlib:be_ai_goal.obj
 0002:0000ba40       ??_C@_0BE@BBIKOMDL@goal?5heap?5overflow?6?$AA@ 004d2a40     botlib:be_ai_goal.obj
 0002:0000ba54       ??_C@_0BH@LPPOHIHL@couldn?8t?5load?5weights?6?$AA@ 004d2a54     botlib:be_ai_goal.obj
 0002:0000ba6c       ??_C@_0BO@OFOCDAPF@invalid?5goal?5state?5handle?5?$CFd?6?$AA@ 004d2a6c     botlib:be_ai_goal.obj
 0002:0000ba8c       ??_C@_07HBEMBONH@items?4c?$AA@ 004d2a8c     botlib:be_ai_goal.obj
 0002:0000ba94       ??_C@_0L@LFADFAG@itemconfig?$AA@ 004d2a94     botlib:be_ai_goal.obj
 0002:0000baa0       ??_C@_0BL@DEFNFIDM@couldn?8t?5load?5item?5config?6?$AA@ 004d2aa0     botlib:be_ai_goal.obj
 0002:0000babc       ??_C@_0O@DPNHINNN@droppedweight?$AA@ 004d2abc     botlib:be_ai_goal.obj
 0002:0000bad0       __real@3f826e978d4fdf3b    004d2ad0     botlib:be_ai_goal.obj
 0002:0000bad8       __real@41f00000            004d2ad8     botlib:be_ai_goal.obj
 0002:0000badc       ??_C@_0CD@LBGJLEMH@move?5state?5handle?5?$CFd?5out?5of?5rang@ 004d2adc     botlib:be_ai_move.obj
 0002:0000bb00       ??_C@_0BH@MIGCOJAJ@invalid?5move?5state?5?$CFd?6?$AA@ 004d2b00     botlib:be_ai_move.obj
 0002:0000bb18       ??_C@_0BJ@OFCFCBJP@no?5entity?5with?5model?5?$CFd?6?$AA@ 004d2b18     botlib:be_ai_move.obj
 0002:0000bb34       ??_C@_0CF@KPCLGMGH@entity?5?$CFs?5model?5number?5out?5of?5ra@ 004d2b34     botlib:be_ai_move.obj
 0002:0000bb5c       ??_C@_09KJCKJKEG@func_door?$AA@ 004d2b5c     botlib:be_ai_move.obj
 0002:0000bb68       ??_C@_0M@OOBMECJN@func_static?$AA@ 004d2b68     botlib:be_ai_move.obj
 0002:0000bb74       ??_C@_0CN@FCEPHGNO@BotFuncBobStartEnd?3?5no?5entity?5wi@ 004d2b74     botlib:be_ai_move.obj
 0002:0000bba4       ??_C@_0CE@HLPLILDO@travel?5type?5?$CFd?5not?5implemented?5y@ 004d2ba4     botlib:be_ai_move.obj
 0002:0000bbc8       ??_C@_0CO@IHIDPMNN@client?5?$CFd?3?5on?5func_plat?5without?5@ 004d2bc8     botlib:be_ai_move.obj
 0002:0000bbf8       ??_C@_0DB@HHOLNPFB@client?5?$CFd?3?5on?5func_bobbing?5witho@ 004d2bf8     botlib:be_ai_move.obj
 0002:0000bc2c       ??_C@_0CM@EECBHCFO@client?5?$CFd?5didn?8t?5find?5jumppad?5re@ 004d2c2c     botlib:be_ai_move.obj
 0002:0000bc58       ??_C@_0CL@OINLALFH@?$CIlast?$CJ?5travel?5type?5?$CFd?5not?5implem@ 004d2c58     botlib:be_ai_move.obj
 0002:0000bc84       ??_C@_07PBGODEDP@sv_step?$AA@ 004d2c84     botlib:be_ai_move.obj
 0002:0000bc8c       ??_C@_0O@GNGGPGPK@sv_maxbarrier?$AA@ 004d2c8c     botlib:be_ai_move.obj
 0002:0000bc9c       ??_C@_0L@FKMMBKBD@sv_gravity?$AA@ 004d2c9c     botlib:be_ai_move.obj
 0002:0000bca8       ??_C@_0BJ@HPPOPPGN@weapindex_rocketlauncher?$AA@ 004d2ca8     botlib:be_ai_move.obj
 0002:0000bcc4       ??_C@_01LAKCGALK@9?$AA@    004d2cc4     botlib:be_ai_move.obj
 0002:0000bcc8       ??_C@_0BB@HLFMNGMC@weapindex_bfg10k?$AA@ 004d2cc8     botlib:be_ai_move.obj
 0002:0000bcdc       ??_C@_0BC@JLHLAKEN@weapindex_grapple?$AA@ 004d2cdc     botlib:be_ai_move.obj
 0002:0000bcf0       ??_C@_0BC@GDFOAKDA@entitytypemissile?$AA@ 004d2cf0     botlib:be_ai_move.obj
 0002:0000bd04       ??_C@_0P@DMONFFLF@offhandgrapple?$AA@ 004d2d04     botlib:be_ai_move.obj
 0002:0000bd14       ??_C@_09OCNPEJFF@grappleon?$AA@ 004d2d14     botlib:be_ai_move.obj
 0002:0000bd20       ??_C@_0O@KJJPDGKD@cmd_grappleon?$AA@ 004d2d20     botlib:be_ai_move.obj
 0002:0000bd30       ??_C@_0L@CGFHOHKL@grappleoff?$AA@ 004d2d30     botlib:be_ai_move.obj
 0002:0000bd3c       ??_C@_0P@HCMCPAPN@cmd_grappleoff?$AA@ 004d2d3c     botlib:be_ai_move.obj
 0002:0000bd50       __real@3fd999999999999a    004d2d50     botlib:be_ai_move.obj
 0002:0000bd58       __real@402e000000000000    004d2d58     botlib:be_ai_move.obj
 0002:0000bd60       __real@4044000000000000    004d2d60     botlib:be_ai_move.obj
 0002:0000bd68       __real@4051800000000000    004d2d68     botlib:be_ai_move.obj
 0002:0000bd70       __real@40c00000            004d2d70     botlib:be_ai_move.obj
 0002:0000bd74       __real@41100000            004d2d74     botlib:be_ai_move.obj
 0002:0000bd78       __real@41500000            004d2d78     botlib:be_ai_move.obj
 0002:0000bd7c       __real@41a00000            004d2d7c     botlib:be_ai_move.obj
 0002:0000bd80       __real@428c0000            004d2d80     botlib:be_ai_move.obj
 0002:0000bd84       __real@43480000            004d2d84     botlib:be_ai_move.obj
 0002:0000bd88       __real@437a0000            004d2d88     botlib:be_ai_move.obj
 0002:0000bd8c       __real@bf000000            004d2d8c     botlib:be_ai_move.obj
 0002:0000bd90       __real@bfe999999999999a    004d2d90     botlib:be_ai_move.obj
 0002:0000bd98       __real@c0000000            004d2d98     botlib:be_ai_move.obj
 0002:0000bd9c       ??_C@_05KJNJLLGA@level?$AA@ 004d2d9c     botlib:be_ai_weap.obj
 0002:0000bda4       ??_C@_0M@PNPIEPHK@weaponindex?$AA@ 004d2da4     botlib:be_ai_weap.obj
 0002:0000bdb0       ??_C@_05GECEPKB@flags?$AA@ 004d2db0     botlib:be_ai_weap.obj
 0002:0000bdb8       ??_C@_0L@BOMCPGNF@projectile?$AA@ 004d2db8     botlib:be_ai_weap.obj
 0002:0000bdc4       ??_C@_0P@NGONDBIO@numprojectiles?$AA@ 004d2dc4     botlib:be_ai_weap.obj
 0002:0000bdd4       ??_C@_07IIBPOHMF@hspread?$AA@ 004d2dd4     botlib:be_ai_weap.obj
 0002:0000bddc       ??_C@_07OBCOMENM@vspread?$AA@ 004d2ddc     botlib:be_ai_weap.obj
 0002:0000bde4       ??_C@_0N@OKFAMOHD@acceleration?$AA@ 004d2de4     botlib:be_ai_weap.obj
 0002:0000bdf4       ??_C@_06HCMEEBKG@recoil?$AA@ 004d2df4     botlib:be_ai_weap.obj
 0002:0000bdfc       ??_C@_06KLHHMIGM@offset?$AA@ 004d2dfc     botlib:be_ai_weap.obj
 0002:0000be04       ??_C@_0M@ONPMIPEC@angleoffset?$AA@ 004d2e04     botlib:be_ai_weap.obj
 0002:0000be10       ??_C@_0P@NJBBMHGK@extrazvelocity?$AA@ 004d2e10     botlib:be_ai_weap.obj
 0002:0000be20       ??_C@_0L@FCOOONPA@ammoamount?$AA@ 004d2e20     botlib:be_ai_weap.obj
 0002:0000be2c       ??_C@_09KNCLBKIN@ammoindex?$AA@ 004d2e2c     botlib:be_ai_weap.obj
 0002:0000be38       ??_C@_08IFCMKJCD@activate?$AA@ 004d2e38     botlib:be_ai_weap.obj
 0002:0000be44       ??_C@_06DGFOANMH@reload?$AA@ 004d2e44     botlib:be_ai_weap.obj
 0002:0000be4c       ??_C@_06IGOPKBLH@spinup?$AA@ 004d2e4c     botlib:be_ai_weap.obj
 0002:0000be54       ??_C@_08PFGPOMOJ@spindown?$AA@ 004d2e54     botlib:be_ai_weap.obj
 0002:0000be60       ??_C@_06GJOIPFFF@damage?$AA@ 004d2e60     botlib:be_ai_weap.obj
 0002:0000be68       ??_C@_06KGHINEPG@radius?$AA@ 004d2e68     botlib:be_ai_weap.obj
 0002:0000be70       ??_C@_09DOEGBGAO@visdamage?$AA@ 004d2e70     botlib:be_ai_weap.obj
 0002:0000be7c       ??_C@_0L@LLALLABI@damagetype?$AA@ 004d2e7c     botlib:be_ai_weap.obj
 0002:0000be88       ??_C@_09OLKAIEMO@healthinc?$AA@ 004d2e88     botlib:be_ai_weap.obj
 0002:0000be94       ??_C@_04GHHNIPCF@push?$AA@ 004d2e94     botlib:be_ai_weap.obj
 0002:0000be9c       ??_C@_0L@NJHJLKG@detonation?$AA@ 004d2e9c     botlib:be_ai_weap.obj
 0002:0000bea8       ??_C@_06DPMIMFNG@bounce?$AA@ 004d2ea8     botlib:be_ai_weap.obj
 0002:0000beb0       ??_C@_0L@PPIMOAKE@bouncefric?$AA@ 004d2eb0     botlib:be_ai_weap.obj
 0002:0000bebc       ??_C@_0L@BHIFJKKK@bouncestop?$AA@ 004d2ebc     botlib:be_ai_weap.obj
 0002:0000bec8       ??_C@_0BM@JHOEFCAC@weapon?5number?5out?5of?5range?6?$AA@ 004d2ec8     botlib:be_ai_weap.obj
 0002:0000bee4       ??_C@_0P@IAKNEENP@max_weaponinfo?$AA@ 004d2ee4     botlib:be_ai_weap.obj
 0002:0000bef4       ??_C@_0BF@IEGKFMLK@max_weaponinfo?5?$DN?5?$CFd?6?$AA@ 004d2ef4     botlib:be_ai_weap.obj
 0002:0000bf0c       ??_C@_0BD@NPBGALBJ@max_projectileinfo?$AA@ 004d2f0c     botlib:be_ai_weap.obj
 0002:0000bf20       ??_C@_0BJ@DEOLMOJN@max_projectileinfo?5?$DN?5?$CFd?6?$AA@ 004d2f20     botlib:be_ai_weap.obj
 0002:0000bf3c       ??_C@_0L@DNADMFPA@weaponinfo?$AA@ 004d2f3c     botlib:be_ai_weap.obj
 0002:0000bf48       ??_C@_0CK@BMAKINJL@weapon?5info?5number?5?$CFd?5out?5of?5ran@ 004d2f48     botlib:be_ai_weap.obj
 0002:0000bf74       ??_C@_0P@ECOEJLJA@projectileinfo?$AA@ 004d2f74     botlib:be_ai_weap.obj
 0002:0000bf84       ??_C@_0CI@CKKHFCFJ@more?5than?5?$CFd?5projectiles?5defined@ 004d2f84     botlib:be_ai_weap.obj
 0002:0000bfac       ??_C@_0BN@CDKNOAJI@unknown?5definition?5?$CFs?5in?5?$CFs?6?$AA@ 004d2fac     botlib:be_ai_weap.obj
 0002:0000bfcc       ??_C@_0BN@NFAIFCED@weapon?5?$CFd?5has?5no?5name?5in?5?$CFs?6?$AA@ 004d2fcc     botlib:be_ai_weap.obj
 0002:0000bfec       ??_C@_0CD@BOCMCBMN@weapon?5?$CFs?5has?5no?5projectile?5in?5?$CF@ 004d2fec     botlib:be_ai_weap.obj
 0002:0000c010       ??_C@_0CL@PNIBMIGN@weapon?5?$CFs?5uses?5undefined?5project@ 004d3010     botlib:be_ai_weap.obj
 0002:0000c03c       ??_C@_0BH@BCLPAAIH@no?5weapon?5info?5loaded?6?$AA@ 004d303c     botlib:be_ai_weap.obj
 0002:0000c054       ??_C@_0CA@KGGEKGMG@couldn?8t?5load?5weapon?5config?5?$CFs?6?$AA@ 004d3054     botlib:be_ai_weap.obj
 0002:0000c074       ??_C@_09DEBEJFNC@weapons?4c?$AA@ 004d3074     botlib:be_ai_weap.obj
 0002:0000c080       ??_C@_0N@LAFMGPOO@weaponconfig?$AA@ 004d3080     botlib:be_ai_weap.obj
 0002:0000c090       ??_C@_0CB@OGKBNMGI@couldn?8t?5load?5the?5weapon?5config?6@ 004d3090     botlib:be_ai_weap.obj
 0002:0000c0b4       ??_C@_0CD@PNOBECBL@chat?5state?5handle?5?$CFd?5out?5of?5rang@ 004d30b4     botlib:be_ai_chat.obj
 0002:0000c0d8       ??_C@_0BH@BOBFFKKN@invalid?5chat?5state?5?$CFd?6?$AA@ 004d30d8     botlib:be_ai_chat.obj
 0002:0000c0f0       ??_C@_0N@CLOBICAF@max_messages?$AA@ 004d30f0     botlib:be_ai_chat.obj
 0002:0000c100       ??_C@_0BM@BPJKPONG@empty?5console?5message?5heap?6?$AA@ 004d3100     botlib:be_ai_chat.obj
 0002:0000c11c       ??_C@_0BM@OMAMOJNI@more?5than?532?5context?5levels?$AA@ 004d311c     botlib:be_ai_chat.obj
 0002:0000c138       ??_C@_0L@DLODIKAH@too?5many?5?$HN?$AA@ 004d3138     botlib:be_ai_chat.obj
 0002:0000c144       ??_C@_01OHGJGJJP@?$FL?$AA@ 004d3144     botlib:be_ai_chat.obj
 0002:0000c148       ??_C@_0N@BBKGEIBC@empty?5string?$AA@ 004d3148     botlib:be_ai_chat.obj
 0002:0000c158       ??_C@_01LBDDMOBJ@?$FN?$AA@ 004d3158     botlib:be_ai_chat.obj
 0002:0000c15c       ??_C@_0CI@PKNFOMEN@synonym?5must?5have?5at?5least?5two?5e@ 004d315c     botlib:be_ai_chat.obj
 0002:0000c184       ??_C@_0O@EIFOHJCH@unexpected?5?$CFs?$AA@ 004d3184     botlib:be_ai_chat.obj
 0002:0000c194       ??_C@_09DKCHGKCM@missing?5?$HN?$AA@ 004d3194     botlib:be_ai_chat.obj
 0002:0000c1a0       ??_C@_0BH@MIBABKMH@chat?5message?5too?5long?6?$AA@ 004d31a0     botlib:be_ai_chat.obj
 0002:0000c1b8       ??_C@_08MPPNLMAG@?$CFcv?$CFld?$CFc?$AA@ 004d31b8     botlib:be_ai_chat.obj
 0002:0000c1c4       ??_C@_07NHACKFHP@?$CFcr?$CFs?$CFc?$AA@ 004d31c4     botlib:be_ai_chat.obj
 0002:0000c1cc       ??_C@_0BO@IKGHDNCH@unknown?5message?5component?5?$CFs?6?$AA@ 004d31cc     botlib:be_ai_chat.obj
 0002:0000c1ec       ??_C@_02KGHIDFGE@?$HN?6?$AA@ 004d31ec     botlib:be_ai_chat.obj
 0002:0000c1f0       ??_C@_0BC@BAMLPFKF@unknown?5random?5?$CFs?$AA@ 004d31f0     botlib:be_ai_chat.obj
 0002:0000c204       ??_C@_01DNKMNLPK@?$HM?$AA@ 004d3204     botlib:be_ai_chat.obj
 0002:0000c208       ??_C@_0CJ@LJIMHIAM@can?8t?5have?5more?5than?5?$CFd?5match?5va@ 004d3208     botlib:be_ai_chat.obj
 0002:0000c234       ??_C@_0CI@ELCFAGFH@not?5allowed?5to?5have?5adjacent?5var@ 004d3234     botlib:be_ai_chat.obj
 0002:0000c25c       ??_C@_0BC@KAKFIJOK@invalid?5token?5?$CFs?6?$AA@ 004d325c     botlib:be_ai_chat.obj
 0002:0000c270       ??_C@_0BM@HHFBANAI@expected?5integer?0?5found?5?$CFs?6?$AA@ 004d3270     botlib:be_ai_chat.obj
 0002:0000c28c       ??_C@_0CJ@BGCLGFPJ@BotMatchVariable?3?5variable?5out?5o@ 004d328c     botlib:be_ai_chat.obj
 0002:0000c2b8       ??_C@_0BP@IFMKLFPG@?$CFs?5?$DN?5?$HL?$CC?$CFs?$CC?$HN?5?1?1MISSING?5RANDOM?$AN?6?$AA@ 004d32b8     botlib:be_ai_chat.obj
 0002:0000c2d8       ??_C@_0EA@MFJADLPG@BotCheckChatMessageIntegrety?3?5me@ 004d32d8     botlib:be_ai_chat.obj
 0002:0000c318       ??_C@_01HNPIGOCE@?$CG?$AA@ 004d3318     botlib:be_ai_chat.obj
 0002:0000c31c       ??_C@_01DCLJPIOD@?$CB?$AA@ 004d331c     botlib:be_ai_chat.obj
 0002:0000c320       ??_C@_06GJLDEJIL@female?$AA@ 004d3320     botlib:be_ai_chat.obj
 0002:0000c328       ??_C@_02MOLGKLA@it?$AA@    004d3328     botlib:be_ai_chat.obj
 0002:0000c32c       ??_C@_02KCPFEJNG@?$HL?6?$AA@ 004d332c     botlib:be_ai_chat.obj
 0002:0000c330       ??_C@_0FB@GIBDPBLM@one?5of?5the?5match?5templates?5does?5@ 004d3330     botlib:be_ai_chat.obj
 0002:0000c384       ??_C@_0CO@FOMEJLFB@the?5key?5?$CFs?5with?5prefix?5?$CB?5is?5insi@ 004d3384     botlib:be_ai_chat.obj
 0002:0000c3b8       ??_C@_0EA@FPBKDDJB@the?5key?5?$CFs?5with?5prefix?5?$CB?5is?5insi@ 004d33b8     botlib:be_ai_chat.obj
 0002:0000c3f8       ??_C@_0BO@PNMCIEEB@all?5keys?5have?5a?5?$CG?5or?5?$CB?5prefix?$AA@ 004d33f8     botlib:be_ai_chat.obj
 0002:0000c418       ??_C@_0FP@CMPNKFLO@variables?5from?5the?5match?5templat@ 004d3418     botlib:be_ai_chat.obj
 0002:0000c478       ??_C@_0BF@NHLDPIBI@expected?5?$FL?0?5found?5?$CFs?$AA@ 004d3478     botlib:be_ai_chat.obj
 0002:0000c490       ??_C@_01MNNFJEPP@?$DM?$AA@ 004d3490     botlib:be_ai_chat.obj
 0002:0000c494       ??_C@_01PPODPGHN@?$DO?$AA@ 004d3494     botlib:be_ai_chat.obj
 0002:0000c498       ??_C@_0L@GIBMDEGE@no?5rchats?6?$AA@ 004d3498     botlib:be_ai_chat.obj
 0002:0000c4a4       ??_C@_04BLJLMHHG@chat?$AA@ 004d34a4     botlib:be_ai_chat.obj
 0002:0000c4ac       ??_C@_0BI@CHLNDHKD@expected?5type?5found?5?$CFs?6?$AA@ 004d34ac     botlib:be_ai_chat.obj
 0002:0000c4c4       ??_C@_0BN@OAGFKFDD@couldn?8t?5find?5chat?5?$CFs?5in?5?$CFs?6?$AA@ 004d34c4     botlib:be_ai_chat.obj
 0002:0000c4e4       ??_C@_0BD@KLGBKGBL@loaded?5?$CFs?5from?5?$CFs?6?$AA@ 004d34e4     botlib:be_ai_chat.obj
 0002:0000c4f8       ??_C@_0DF@IIKAMBDG@ichatdata?5table?5full?$DL?5couldn?8t?5l@ 004d34f8     botlib:be_ai_chat.obj
 0002:0000c530       ??_C@_0BP@MBDJBKIB@couldn?8t?5load?5chat?5?$CFs?5from?5?$CFs?6?$AA@ 004d3530     botlib:be_ai_chat.obj
 0002:0000c550       ??_C@_0DH@JNLFODLL@BotConstructChat?3?5message?5?$CFs?5var@ 004d3550     botlib:be_ai_chat.obj
 0002:0000c588       ??_C@_0CH@JOHLJANI@BotConstructChat?3?5message?5?$CFs?5too@ 004d3588     botlib:be_ai_chat.obj
 0002:0000c5b0       ??_C@_0CM@GBHEGLKK@BotConstructChat?3?5unknown?5random@ 004d35b0     botlib:be_ai_chat.obj
 0002:0000c5dc       ??_C@_0CJ@EDLCIPGI@BotConstructChat?3?5message?5?$CC?$CFs?$CC?5t@ 004d35dc     botlib:be_ai_chat.obj
 0002:0000c608       ??_C@_0DE@BBIMJEKM@BotConstructChat?3?5message?5?$CC?$CFs?$CC?5i@ 004d3608     botlib:be_ai_chat.obj
 0002:0000c63c       ??_C@_0CF@FFFEONNP@too?5many?5expansions?5in?5chat?5mess@ 004d363c     botlib:be_ai_chat.obj
 0002:0000c664       ??_C@_0BG@DAIPIBLI@?$CFs?5has?5?$CFd?5chat?5lines?6?$AA@ 004d3664     botlib:be_ai_chat.obj
 0002:0000c67c       ??_C@_0BF@JOLBPMPB@?9?9?9?9?9?9?9?9?9?9?9?9?9?9?9?9?9?9?9?6?$AA@ 004d367c     botlib:be_ai_chat.obj
 0002:0000c694       ??_C@_0L@LOJGBKIG@tell?5?$CFd?5?$CFs?$AA@ 004d3694     botlib:be_ai_chat.obj
 0002:0000c6a0       ??_C@_05JALDHADD@syn?4c?$AA@ 004d36a0     botlib:be_ai_chat.obj
 0002:0000c6a8       ??_C@_07PKBHNKPF@synfile?$AA@ 004d36a8     botlib:be_ai_chat.obj
 0002:0000c6b0       ??_C@_05OGJCAIGA@rnd?4c?$AA@ 004d36b0     botlib:be_ai_chat.obj
 0002:0000c6b8       ??_C@_07DFFPFLEN@rndfile?$AA@ 004d36b8     botlib:be_ai_chat.obj
 0002:0000c6c0       ??_C@_07DAECBMIF@match?4c?$AA@ 004d36c0     botlib:be_ai_chat.obj
 0002:0000c6c8       ??_C@_09MIMFOEJ@matchfile?$AA@ 004d36c8     botlib:be_ai_chat.obj
 0002:0000c6d4       ??_C@_06GCPOGFCC@nochat?$AA@ 004d36d4     botlib:be_ai_chat.obj
 0002:0000c6dc       ??_C@_07BGFNFHIM@rchat?4c?$AA@ 004d36dc     botlib:be_ai_chat.obj
 0002:0000c6e4       ??_C@_09DMEAFLAH@rchatfile?$AA@ 004d36e4     botlib:be_ai_chat.obj
 0002:0000c6f0       ??_C@_0CC@MOFCJGCF@character?5handle?5?$CFd?5out?5of?5range@ 004d36f0     botlib:be_ai_char.obj
 0002:0000c714       ??_C@_0BG@MOINIJPL@invalid?5character?5?$CFd?6?$AA@ 004d3714     botlib:be_ai_char.obj
 0002:0000c72c       ??_C@_09MAKFBPDF@skill?5?$CFd?6?$AA@ 004d372c     botlib:be_ai_char.obj
 0002:0000c738       ??_C@_08GMEDCLD@?5?$CF4d?5?$CFd?6?$AA@ 004d3738     botlib:be_ai_char.obj
 0002:0000c744       ??_C@_08FEAOGNN@?5?$CF4d?5?$CFf?6?$AA@ 004d3744     botlib:be_ai_char.obj
 0002:0000c750       ??_C@_08BPKNIHEG@?5?$CF4d?5?$CFs?6?$AA@ 004d3750     botlib:be_ai_char.obj
 0002:0000c75c       ??_C@_05ODMCMJAJ@skill?$AA@ 004d375c     botlib:be_ai_char.obj
 0002:0000c764       ??_C@_0CC@HINMPLM@expected?5integer?5index?0?5found?5?$CFs@ 004d3764     botlib:be_ai_char.obj
 0002:0000c788       ??_C@_0CL@PPLBNLNK@characteristic?5index?5out?5of?5rang@ 004d3788     botlib:be_ai_char.obj
 0002:0000c7b4       ??_C@_0CH@LHHMLMDG@characteristic?5?$CFd?5already?5initia@ 004d37b4     botlib:be_ai_char.obj
 0002:0000c7dc       ??_C@_0CN@FGECCABF@expected?5integer?0?5float?5or?5strin@ 004d37dc     botlib:be_ai_char.obj
 0002:0000c80c       ??_C@_0CA@CAABAEMN@loaded?5cached?5skill?5?$CFf?5from?5?$CFs?6?$AA@ 004d380c     botlib:be_ai_char.obj
 0002:0000c82c       ??_C@_0BJ@BENINHOI@loaded?5skill?5?$CFd?5from?5?$CFs?6?$AA@ 004d382c     botlib:be_ai_char.obj
 0002:0000c848       ??_C@_0BO@KHBDCBON@couldn?8t?5find?5skill?5?$CFd?5in?5?$CFs?6?$AA@ 004d3848     botlib:be_ai_char.obj
 0002:0000c868       ??_C@_0BB@OCLCLNLB@bots?1default_c?4c?$AA@ 004d3868     botlib:be_ai_char.obj
 0002:0000c87c       ??_C@_0CI@IHIPEHPF@loaded?5cached?5default?5skill?5?$CFd?5f@ 004d387c     botlib:be_ai_char.obj
 0002:0000c8a4       ??_C@_0CB@LJBGGHEP@loaded?5default?5skill?5?$CFd?5from?5?$CFs?6@ 004d38a4     botlib:be_ai_char.obj
 0002:0000c8c8       ??_C@_0BJ@EMLEGOCJ@loaded?5skill?5?$CFf?5from?5?$CFs?6?$AA@ 004d38c8     botlib:be_ai_char.obj
 0002:0000c8e4       ??_C@_0CI@NPODPODE@loaded?5cached?5default?5skill?5?$CFf?5f@ 004d38e4     botlib:be_ai_char.obj
 0002:0000c90c       ??_C@_0CB@OBHKNOIO@loaded?5default?5skill?5?$CFf?5from?5?$CFs?6@ 004d390c     botlib:be_ai_char.obj
 0002:0000c930       ??_C@_0CB@MKGIENMG@couldn?8t?5load?5any?5skill?5from?5?$CFs?6@ 004d3930     botlib:be_ai_char.obj
 0002:0000c954       ??_C@_0CC@FCGCALKF@characteristic?5?$CFd?5does?5not?5exist@ 004d3954     botlib:be_ai_char.obj
 0002:0000c978       ??_C@_0CG@PKODDELM@characteristic?5?$CFd?5is?5not?5initial@ 004d3978     botlib:be_ai_char.obj
 0002:0000c9a0       ??_C@_0CC@DHDJPPBG@characteristic?5?$CFd?5is?5not?5a?5float@ 004d39a0     botlib:be_ai_char.obj
 0002:0000c9c4       ??_C@_0DC@DHJFBIJH@cannot?5bound?5characteristic?5?$CFd?5b@ 004d39c4     botlib:be_ai_char.obj
 0002:0000c9f8       ??_C@_0CE@LLNBHBFO@characteristic?5?$CFd?5is?5not?5a?5integ@ 004d39f8     botlib:be_ai_char.obj
 0002:0000ca1c       ??_C@_0DC@DAOEBMME@cannot?5bound?5characteristic?5?$CFd?5b@ 004d3a1c     botlib:be_ai_char.obj
 0002:0000ca50       ??_C@_0CD@JOPFDMMO@characteristic?5?$CFd?5is?5not?5a?5strin@ 004d3a50     botlib:be_ai_char.obj
 0002:0000ca74       ??_C@_0DA@GJMCOLIK@GeneticParentsAndChildSelection?3@ 004d3a74     botlib:be_ai_gen.obj
 0002:0000caa4       ??_C@_0DF@LNJENCAM@GeneticParentsAndChildSelection?3@ 004d3aa4     botlib:be_ai_gen.obj
 0002:0000cadc       ??_C@_03IKFCCPFF@?$DO?$DO?$DN?$AA@ 004d3adc     botlib:l_script.obj
 0002:0000cae0       ??_C@_03CDNPDDLA@?$DM?$DM?$DN?$AA@ 004d3ae0     botlib:l_script.obj
 0002:0000cae4       ??_C@_02PPKAJPJL@?$CG?$CG?$AA@ 004d3ae4     botlib:l_script.obj
 0002:0000cae8       ??_C@_02NONPIBCD@?$HM?$HM?$AA@ 004d3ae8     botlib:l_script.obj
 0002:0000caec       ??_C@_02EEKDKGMJ@?$DO?$DN?$AA@ 004d3aec     botlib:l_script.obj
 0002:0000caf0       ??_C@_02EHCHHCKH@?$DM?$DN?$AA@ 004d3af0     botlib:l_script.obj
 0002:0000caf4       ??_C@_02EGOFBIJA@?$DN?$DN?$AA@ 004d3af4     botlib:l_script.obj
 0002:0000caf8       ??_C@_02FDNJECIE@?$CB?$DN?$AA@ 004d3af8     botlib:l_script.obj
 0002:0000cafc       ??_C@_02FPIMKNGF@?$CK?$DN?$AA@ 004d3afc     botlib:l_script.obj
 0002:0000cb00       ??_C@_02FJEHGPIO@?1?$DN?$AA@ 004d3b00     botlib:l_script.obj
 0002:0000cb04       ??_C@_02FENAOKFI@?$CF?$DN?$AA@ 004d3b04     botlib:l_script.obj
 0002:0000cb08       ??_C@_02FOEOMHFC@?$CL?$DN?$AA@ 004d3b08     botlib:l_script.obj
 0002:0000cb0c       ??_C@_02FKMDLLOA@?9?$DN?$AA@ 004d3b0c     botlib:l_script.obj
 0002:0000cb10       ??_C@_02ECNGHCIF@?$CL?$CL?$AA@ 004d3b10     botlib:l_script.obj
 0002:0000cb14       ??_C@_02BAABKJLB@?9?9?$AA@ 004d3b14     botlib:l_script.obj
 0002:0000cb18       ??_C@_02FGJGFEAB@?$CG?$DN?$AA@ 004d3b18     botlib:l_script.obj
 0002:0000cb1c       ??_C@_02DHLNPPGH@?$HM?$DN?$AA@ 004d3b1c     botlib:l_script.obj
 0002:0000cb20       ??_C@_02MHEGNOJ@?$FO?$DN?$AA@ 004d3b20     botlib:l_script.obj
 0002:0000cb24       ??_C@_02GPIOPFAK@?$DO?$DO?$AA@ 004d3b24     botlib:l_script.obj
 0002:0000cb28       ??_C@_02FODMEDOG@?$DM?$DM?$AA@ 004d3b28     botlib:l_script.obj
 0002:0000cb2c       ??_C@_02HBOOOICD@?9?$DO?$AA@ 004d3b2c     botlib:l_script.obj
 0002:0000cb30       ??_C@_02FNAGIBCP@?4?$CK?$AA@ 004d3b30     botlib:l_script.obj
 0002:0000cb34       ??_C@_01NBENCBCI@?$CK?$AA@ 004d3b34     botlib:l_script.obj
 0002:0000cb38       ??_C@_01FGNFDNOH@?$CF?$AA@ 004d3b38     botlib:l_script.obj
 0002:0000cb3c       ??_C@_01MIFGBAGJ@?$CL?$AA@ 004d3b3c     botlib:l_script.obj
 0002:0000cb40       ??_C@_01JKBOJNNK@?$FO?$AA@ 004d3b40     botlib:l_script.obj
 0002:0000cb44       ??_C@_01PJKLJHI@?$HO?$AA@  004d3b44     botlib:l_script.obj
 0002:0000cb48       ??_C@_01OGPIMHDM@?$DP?$AA@ 004d3b48     botlib:l_script.obj
 0002:0000cb4c       ??_C@_01IPJKGB@?$CD?$AA@   004d3b4c     botlib:l_script.obj
 0002:0000cb50       ??_C@_01EPMOAMKG@$?$AA@    004d3b50     botlib:l_script.obj
 0002:0000cb54       ??_C@_0CE@DDEEFDJP@too?5large?5value?5in?5escape?5charac@ 004d3b54     botlib:l_script.obj
 0002:0000cb78       ??_C@_0BE@LNBHEDIG@unknown?5escape?5char?$AA@ 004d3b78     botlib:l_script.obj
 0002:0000cb8c       ??_C@_0CC@MBLDNBAM@string?5longer?5than?5MAX_TOKEN?5?$DN?5?$CF@ 004d3b8c     botlib:l_script.obj
 0002:0000cbb0       ??_C@_0BH@PEPCDKK@missing?5trailing?5quote?$AA@ 004d3bb0     botlib:l_script.obj
 0002:0000cbc8       ??_C@_0BJ@FPJNGGBK@newline?5inside?5string?5?$CFs?$AA@ 004d3bc8     botlib:l_script.obj
 0002:0000cbe4       ??_C@_0CA@MNDCIFOG@name?5longer?5than?5MAX_TOKEN?5?$DN?5?$CFd?$AA@ 004d3be4     botlib:l_script.obj
 0002:0000cc04       ??_C@_0CO@IEAAEMOC@hexadecimal?5number?5longer?5than?5M@ 004d3c04     botlib:l_script.obj
 0002:0000cc34       ??_C@_0CJ@GOJFKF@binary?5number?5longer?5than?5MAX_TO@ 004d3c34     botlib:l_script.obj
 0002:0000cc60       ??_C@_0CC@HHKGPIHJ@number?5longer?5than?5MAX_TOKEN?5?$DN?5?$CF@ 004d3c60     botlib:l_script.obj
 0002:0000cc84       ??_C@_0CL@IOHHDOB@primitive?5token?5longer?5than?5MAX_@ 004d3c84     botlib:l_script.obj
 0002:0000ccb0       ??_C@_0BB@HHMOOKCN@can?8t?5read?5token?$AA@ 004d3cb0     botlib:l_script.obj
 0002:0000ccc4       ??_C@_0BP@BHDDOFIL@BUG?3?5wrong?5punctuation?5subtype?$AA@ 004d3cc4     botlib:l_script.obj
 0002:0000cce4       ??_C@_05GFOLEBJA@?$CFs?1?$CFs?$AA@ 004d3ce4     botlib:l_script.obj
 0002:0000ccec       ??_C@_0BF@OFBIEKCH@AAS?5data?5optimized?4?6?$AA@ 004d3cec     botlib:be_aas_optimize.obj
 0002:0000cd04       ??_C@_0BF@NHJNBHCO@no?5portal?5of?5area?5?$CFd?$AA@ 004d3d04     botlib:be_aas_cluster.obj
 0002:0000cd1c       ??_C@_0DG@OCGFOOPH@portal?5area?5?$CFd?5is?5seperating?5mor@ 004d3d1c     botlib:be_aas_cluster.obj
 0002:0000cd54       ??_C@_0BI@KOKCMCHN@AAS_MAX_PORTALINDEXSIZE?$AA@ 004d3d54     botlib:be_aas_cluster.obj
 0002:0000cd6c       ??_C@_0CO@OFKPJKFO@AAS_FloodClusterAreas_r?3?5areanum@ 004d3d6c     botlib:be_aas_cluster.obj
 0002:0000cd9c       ??_C@_0CL@KPDIAOMF@cluster?5?$CFd?5touched?5cluster?5?$CFd?5at@ 004d3d9c     botlib:be_aas_cluster.obj
 0002:0000cdc8       ??_C@_0BB@KELFLMDE@AAS_MAX_CLUSTERS?$AA@ 004d3dc8     botlib:be_aas_cluster.obj
 0002:0000cddc       ??_C@_0BA@ILOODELG@AAS_MAX_PORTALS?$AA@ 004d3ddc     botlib:be_aas_cluster.obj
 0002:0000cdec       ??_C@_0BA@DKADLPCK@MAX_PORTALAREAS?$AA@ 004d3dec     botlib:be_aas_cluster.obj
 0002:0000cdfc       ??_C@_0BG@IDPPIMFG@possible?5portal?3?5?$CFd?$AN?6?$AA@ 004d3dfc     botlib:be_aas_cluster.obj
 0002:0000ce14       ??_C@_0BM@COFAHJCM@?$AN?$CF6d?5possible?5portal?5areas?6?$AA@ 004d3e14     botlib:be_aas_cluster.obj
 0002:0000ce30       ??_C@_0CG@PPPPLOAP@portal?5area?5?$CFd?5has?5no?5front?5clus@ 004d3e30     botlib:be_aas_cluster.obj
 0002:0000ce58       ??_C@_0CF@HNGHLOBA@portal?5area?5?$CFd?5has?5no?5back?5clust@ 004d3e58     botlib:be_aas_cluster.obj
 0002:0000ce80       ??_C@_0CC@ECEDAPMJ@area?5?$CFd?5is?5a?5forced?5portal?5area?$AN@ 004d3e80     botlib:be_aas_cluster.obj
 0002:0000cea4       ??_C@_0BJ@EOFLMLFD@?$CF6d?5forced?5portal?5areas?6?$AA@ 004d3ea4     botlib:be_aas_cluster.obj
 0002:0000cec0       ??_C@_0BA@BADKHCEE@forceclustering?$AA@ 004d3ec0     botlib:be_aas_cluster.obj
 0002:0000ced0       ??_C@_0BK@CDJHMKCM@?$AN?$CF6d?5removed?5portal?5areas?$AA@ 004d3ed0     botlib:be_aas_cluster.obj
 0002:0000ceec       ??_C@_04HHNGKENO@?$AN?$CF6d?$AA@ 004d3eec     botlib:be_aas_cluster.obj
 0002:0000cef4       ??_C@_0BF@LLJPMAL@portal?5?$CFd?3?5area?5?$CFd?$AN?6?$AA@ 004d3ef4     botlib:be_aas_cluster.obj
 0002:0000cf0c       ??_C@_0BF@HJCLOJDI@?$CF6d?5portals?5created?6?$AA@ 004d3f0c     botlib:be_aas_cluster.obj
 0002:0000cf24       ??_C@_0BG@IEMHKDCK@?$CF6d?5clusters?5created?6?$AA@ 004d3f24     botlib:be_aas_cluster.obj
 0002:0000cf3c       ??_C@_0CG@PPPOPFBK@cluster?5?$CFd?5has?5?$CFd?5reachability?5a@ 004d3f3c     botlib:be_aas_cluster.obj
 0002:0000cf64       ??_C@_0BO@NNGLPCLI@?$CF6i?5total?5reachability?5areas?6?$AA@ 004d3f64     botlib:be_aas_cluster.obj
 0002:0000cf84       ??_C@_0DB@NFDNPBEJ@?$CF6i?5AAS?5memory?1CPU?5usage?5?$CIthe?5lo@ 004d3f84     botlib:be_aas_cluster.obj
 0002:0000cfb8       ??_C@_0CA@GEEFHEDJ@AAS?5file?5not?5sequentially?5read?6?$AA@ 004d3fb8     botlib:be_aas_file.obj
 0002:0000cfd8       ??_C@_0BI@DBJMMGKJ@can?8t?5seek?5to?5aas?5lump?6?$AA@ 004d3fd8     botlib:be_aas_file.obj
 0002:0000cff0       ??_C@_0BD@DAIGMAGG@trying?5to?5load?5?$CFs?6?$AA@ 004d3ff0     botlib:be_aas_file.obj
 0002:0000d004       ??_C@_0P@MNCIOHOD@can?8t?5open?5?$CFs?6?$AA@ 004d4004     botlib:be_aas_file.obj
 0002:0000d014       ??_C@_0BH@HDNIDKDF@?$CFs?5is?5not?5an?5AAS?5file?6?$AA@ 004d4014     botlib:be_aas_file.obj
 0002:0000d02c       ??_C@_0CD@IPFFEFDG@aas?5file?5?$CFs?5is?5version?5?$CFi?0?5not?5?$CF@ 004d402c     botlib:be_aas_file.obj
 0002:0000d050       ??_C@_0BM@NDIFACPH@aas?5file?5?$CFs?5is?5out?5of?5date?6?$AA@ 004d4050     botlib:be_aas_file.obj
 0002:0000d06c       ??_C@_0M@JKCPKPL@writing?5?$CFs?6?$AA@ 004d406c     botlib:be_aas_file.obj
 0002:0000d078       ??_C@_0BC@CBHACCGB@error?5opening?5?$CFs?6?$AA@ 004d4078     botlib:be_aas_file.obj
 0002:0000d08c       ??_C@_0CC@POKHHIP@expected?5unsigned?5value?0?5found?5?$CF@ 004d408c     botlib:l_struct.obj
 0002:0000d0b0       ??_C@_0BK@KDOFCJEJ@unexpected?5punctuation?5?$CFs?$AA@ 004d40b0     botlib:l_struct.obj
 0002:0000d0cc       ??_C@_0BK@IFJFBCJ@expected?5number?0?5found?5?$CFs?$AA@ 004d40cc     botlib:l_struct.obj
 0002:0000d0e8       ??_C@_0BB@EFFDGMEA@unexpected?5float?$AA@ 004d40e8     botlib:l_struct.obj
 0002:0000d0fc       ??_C@_0BM@MDDDOOGF@float?5out?5of?5range?5?$FL?$CFf?0?5?$CFf?$FN?$AA@ 004d40fc     botlib:l_struct.obj
 0002:0000d118       ??_C@_0BP@CBDFEHDO@value?5?$CFd?5out?5of?5range?5?$FL?$CFd?0?5?$CFd?$FN?$AA@ 004d4118     botlib:l_struct.obj
 0002:0000d138       ??_C@_0BP@LFCOICHJ@value?5?$CFd?5out?5of?5range?5?$FL?$CFf?0?5?$CFf?$FN?$AA@ 004d4138     botlib:l_struct.obj
 0002:0000d158       ??_C@_0BL@GLPBJIMC@unknown?5structure?5field?5?$CFs?$AA@ 004d4158     botlib:l_struct.obj
 0002:0000d174       ??_C@_0BO@KOGKDPOB@BUG?3?5no?5sub?5structure?5defined?$AA@ 004d4174     botlib:l_struct.obj
 0002:0000d194       ??_C@_0BL@DCLIMJHG@expected?5a?5comma?0?5found?5?$CFs?$AA@ 004d4194     botlib:l_struct.obj
 0002:0000d1b0       ??_C@_0BB@CPBKKPEN@Mode?5?50?3?5320x240?$AA@ 004d41b0     renderer:tr_init.obj
 0002:0000d1c4       ??_C@_0BB@MMHLKHAE@Mode?5?51?3?5400x300?$AA@ 004d41c4     renderer:tr_init.obj
 0002:0000d1d8       ??_C@_0BB@BIPDPPJI@Mode?5?52?3?5512x384?$AA@ 004d41d8     renderer:tr_init.obj
 0002:0000d1ec       ??_C@_0BB@LBLJFEKK@Mode?5?53?3?5640x480?$AA@ 004d41ec     renderer:tr_init.obj
 0002:0000d200       ??_C@_0BB@NNFNOODL@Mode?5?54?3?5800x600?$AA@ 004d4200     renderer:tr_init.obj
 0002:0000d214       ??_C@_0BB@IJBLHFE@Mode?5?55?3?5960x720?$AA@ 004d4214     renderer:tr_init.obj
 0002:0000d228       ??_C@_0BC@HHENFJOI@Mode?5?56?3?51024x768?$AA@ 004d4228     renderer:tr_init.obj
 0002:0000d23c       ??_C@_0BC@MHGKJHNA@Mode?5?57?3?51152x864?$AA@ 004d423c     renderer:tr_init.obj
 0002:0000d250       ??_C@_0BD@DKPOHKD@Mode?5?58?3?51280x1024?$AA@ 004d4250     renderer:tr_init.obj
 0002:0000d264       ??_C@_0BD@JNNBKNHO@Mode?5?59?3?51600x1200?$AA@ 004d4264     renderer:tr_init.obj
 0002:0000d278       ??_C@_0BD@HLKNJPO@Mode?510?3?52048x1536?$AA@ 004d4278     renderer:tr_init.obj
 0002:0000d28c       ??_C@_0BI@OEAPLIMI@Mode?511?3?5856x480?5?$CIwide?$CJ?$AA@ 004d428c     renderer:tr_init.obj
 0002:0000d2a4       ??_C@_0CK@MCFFPBMM@WARNING?3?5cvar?5?8?$CFs?8?5must?5be?5integ@ 004d42a4     renderer:tr_init.obj
 0002:0000d2d0       ??_C@_0CL@IJJEPBFD@WARNING?3?5cvar?5?8?$CFs?8?5out?5of?5range?5@ 004d42d0     renderer:tr_init.obj
 0002:0000d2fc       ??_C@_0CL@BOALOAHK@WARNING?3?5cvar?5?8?$CFs?8?5out?5of?5range?5@ 004d42fc     renderer:tr_init.obj
 0002:0000d328       ??_C@_0BA@LLPLHEDK@GL_INVALID_ENUM?$AA@ 004d4328     renderer:tr_init.obj
 0002:0000d338       ??_C@_0BB@HDIPJELP@GL_INVALID_VALUE?$AA@ 004d4338     renderer:tr_init.obj
 0002:0000d34c       ??_C@_0BF@NFNGKHIL@GL_INVALID_OPERATION?$AA@ 004d434c     renderer:tr_init.obj
 0002:0000d364       ??_C@_0BC@DLCDMCHH@GL_STACK_OVERFLOW?$AA@ 004d4364     renderer:tr_init.obj
 0002:0000d378       ??_C@_0BD@KAJAFKFC@GL_STACK_UNDERFLOW?$AA@ 004d4378     renderer:tr_init.obj
 0002:0000d38c       ??_C@_0BB@JMBJBKGI@GL_OUT_OF_MEMORY?$AA@ 004d438c     renderer:tr_init.obj
 0002:0000d3a0       ??_C@_0BD@GFONGFHN@GL_CheckErrors?3?5?$CFs?$AA@ 004d43a0     renderer:tr_init.obj
 0002:0000d3b4       ??_C@_0BJ@GLPJAIDL@screenshots?1shot9999?4tga?$AA@ 004d43b4     renderer:tr_init.obj
 0002:0000d3d0       ??_C@_0BN@MIOHCEKC@screenshots?1shot?$CFi?$CFi?$CFi?$CFi?4tga?$AA@ 004d43d0     renderer:tr_init.obj
 0002:0000d3f0       ??_C@_0BJ@JEAMDKOE@screenshots?1shot9999?4jpg?$AA@ 004d43f0     renderer:tr_init.obj
 0002:0000d40c       ??_C@_0BN@DHBCBGHN@screenshots?1shot?$CFi?$CFi?$CFi?$CFi?4jpg?$AA@ 004d440c     renderer:tr_init.obj
 0002:0000d42c       ??_C@_0BC@PIIMIPAI@levelshots?1?$CFs?4tga?$AA@ 004d442c     renderer:tr_init.obj
 0002:0000d440       ??_C@_09CKEIHHKG@Wrote?5?$CFs?6?$AA@ 004d4440     renderer:tr_init.obj
 0002:0000d44c       ??_C@_09EFOFPGPE@levelshot?$AA@ 004d444c     renderer:tr_init.obj
 0002:0000d458       ??_C@_06MJMIHDAA@silent?$AA@ 004d4458     renderer:tr_init.obj
 0002:0000d460       ??_C@_0BD@HBDKKBCK@screenshots?1?$CFs?4tga?$AA@ 004d4460     renderer:tr_init.obj
 0002:0000d474       ??_C@_0CE@KCEHNJII@ScreenShot?3?5Couldn?8t?5create?5a?5fi@ 004d4474     renderer:tr_init.obj
 0002:0000d498       ??_C@_0BD@IOMPJDPF@screenshots?1?$CFs?4jpg?$AA@ 004d4498     renderer:tr_init.obj
 0002:0000d4ac       ??_C@_08KIHLFLPI@windowed?$AA@ 004d44ac     renderer:tr_init.obj
 0002:0000d4b8       ??_C@_0L@GIACNHMO@fullscreen?$AA@ 004d44b8     renderer:tr_init.obj
 0002:0000d4c4       ??_C@_0BA@JPIMJDLP@?6GL_VENDOR?3?5?$CFs?6?$AA@ 004d44c4     renderer:tr_init.obj
 0002:0000d4d4       ??_C@_0BB@GPBJMNCI@GL_RENDERER?3?5?$CFs?6?$AA@ 004d44d4     renderer:tr_init.obj
 0002:0000d4e8       ??_C@_0BA@IECAGHEM@GL_VERSION?3?5?$CFs?6?$AA@ 004d44e8     renderer:tr_init.obj
 0002:0000d4f8       ??_C@_0BD@KJCGIEGA@GL_EXTENSIONS?3?5?$CFs?6?$AA@ 004d44f8     renderer:tr_init.obj
 0002:0000d50c       ??_C@_0BJ@DOKOKCEC@GL_MAX_TEXTURE_SIZE?3?5?$CFd?6?$AA@ 004d450c     renderer:tr_init.obj
 0002:0000d528       ??_C@_0CA@JDLIPENJ@GL_MAX_ACTIVE_TEXTURES_ARB?3?5?$CFd?6?$AA@ 004d4528     renderer:tr_init.obj
 0002:0000d548       ??_C@_0DJ@HCPGCGMA@?6PIXELFORMAT?3?5color?$CI?$CFd?9bits?$CJ?5Z?$CI?$CF@ 004d4548     renderer:tr_init.obj
 0002:0000d584       ??_C@_0BJ@PKACHHCP@MODE?3?5?$CFd?0?5?$CFd?5x?5?$CFd?5?$CFs?5hz?3?$AA@ 004d4584     renderer:tr_init.obj
 0002:0000d5a0       ??_C@_03PMGGPEJJ@?$CFd?6?$AA@ 004d45a0     renderer:tr_init.obj
 0002:0000d5a4       ??_C@_04KNPIFONP@N?1A?6?$AA@ 004d45a4     renderer:tr_init.obj
 0002:0000d5ac       ??_C@_0CH@FPMGOKFJ@GAMMA?3?5hardware?5w?1?5?$CFd?5overbright@ 004d45ac     renderer:tr_init.obj
 0002:0000d5d4       ??_C@_0CH@DOFMLBBC@GAMMA?3?5software?5w?1?5?$CFd?5overbright@ 004d45d4     renderer:tr_init.obj
 0002:0000d5fc       ??_C@_08IFLGILAF@CPU?3?5?$CFs?6?$AA@ 004d45fc     renderer:tr_init.obj
 0002:0000d608       ??_C@_0BH@MKBIGIHK@rendering?5primitives?3?5?$AA@ 004d4608     renderer:tr_init.obj
 0002:0000d620       ??_C@_05IKLLBJL@none?6?$AA@ 004d4620     renderer:tr_init.obj
 0002:0000d628       ??_C@_0BH@GKJMINED@single?5glDrawElements?6?$AA@ 004d4628     renderer:tr_init.obj
 0002:0000d640       ??_C@_0BJ@OLJGLICH@multiple?5glArrayElement?6?$AA@ 004d4640     renderer:tr_init.obj
 0002:0000d65c       ??_C@_0DE@COMDCGLO@multiple?5glColor4ubv?5?$CL?5glTexCoor@ 004d465c     renderer:tr_init.obj
 0002:0000d690       ??_C@_0BB@GDPDBBGK@texturemode?3?5?$CFs?6?$AA@ 004d4690     renderer:tr_init.obj
 0002:0000d6a4       ??_C@_0M@HJDEHNFH@picmip?3?5?$CFd?6?$AA@ 004d46a4     renderer:tr_init.obj
 0002:0000d6b0       ??_C@_0BC@OJIGLCBE@texture?5bits?3?5?$CFd?6?$AA@ 004d46b0     renderer:tr_init.obj
 0002:0000d6c4       ??_C@_0BC@IPPCAGDE@multitexture?3?5?$CFs?6?$AA@ 004d46c4     renderer:tr_init.obj
 0002:0000d6d8       ??_C@_0BM@JNLAHAFE@compiled?5vertex?5arrays?3?5?$CFs?6?$AA@ 004d46d8     renderer:tr_init.obj
 0002:0000d6f4       ??_C@_0BA@EDNGJAE@texenv?5add?3?5?$CFs?6?$AA@ 004d46f4     renderer:tr_init.obj
 0002:0000d704       ??_C@_0BJ@OONJCCFB@compressed?5textures?3?5?$CFs?6?$AA@ 004d4704     renderer:tr_init.obj
 0002:0000d720       ??_C@_0CL@DPDADBAH@HACK?3?5using?5vertex?5lightmap?5appr@ 004d4720     renderer:tr_init.obj
 0002:0000d74c       ??_C@_0BO@BGGGCGOF@HACK?3?5ragePro?5approximations?6?$AA@ 004d474c     renderer:tr_init.obj
 0002:0000d76c       ??_C@_0BO@MIJCEOJG@HACK?3?5riva128?5approximations?6?$AA@ 004d476c     renderer:tr_init.obj
 0002:0000d78c       ??_C@_0CD@ECDDMNLK@Using?5dual?5processor?5acceleratio@ 004d478c     renderer:tr_init.obj
 0002:0000d7b0       ??_C@_0BC@IFPCCECI@Forcing?5glFinish?6?$AA@ 004d47b0     renderer:tr_init.obj
 0002:0000d7c4       ??_C@_08EMLDNFIC@opengl32?$AA@ 004d47c4     renderer:tr_init.obj
 0002:0000d7d0       ??_C@_0BC@HJALDEG@r_allowExtensions?$AA@ 004d47d0     renderer:tr_init.obj
 0002:0000d7e4       ??_C@_0BK@GPIDLLEE@r_ext_compressed_textures?$AA@ 004d47e4     renderer:tr_init.obj
 0002:0000d800       ??_C@_0BE@GKOFPKJD@r_ext_gamma_control?$AA@ 004d4800     renderer:tr_init.obj
 0002:0000d814       ??_C@_0BD@DEGOFCOI@r_ext_multitexture?$AA@ 004d4814     renderer:tr_init.obj
 0002:0000d828       ??_C@_0BM@FKPHHJJN@r_ext_compiled_vertex_array?$AA@ 004d4828     renderer:tr_init.obj
 0002:0000d844       ??_C@_0BG@OKHMCNAA@r_ext_texture_env_add?$AA@ 004d4844     renderer:tr_init.obj
 0002:0000d85c       ??_C@_08PHNBMEML@r_picmip?$AA@ 004d485c     renderer:tr_init.obj
 0002:0000d868       ??_C@_0BC@PNEOFHC@r_roundImagesDown?$AA@ 004d4868     renderer:tr_init.obj
 0002:0000d87c       ??_C@_0BB@PCBDDBLH@r_colorMipLevels?$AA@ 004d487c     renderer:tr_init.obj
 0002:0000d890       ??_C@_0BB@OJJFINJB@r_detailtextures?$AA@ 004d4890     renderer:tr_init.obj
 0002:0000d8a4       ??_C@_0O@HAOJHCNC@r_texturebits?$AA@ 004d48a4     renderer:tr_init.obj
 0002:0000d8b4       ??_C@_0M@FAHBKNDA@r_colorbits?$AA@ 004d48b4     renderer:tr_init.obj
 0002:0000d8c0       ??_C@_08DKALIKIA@r_stereo?$AA@ 004d48c0     renderer:tr_init.obj
 0002:0000d8cc       ??_C@_0O@HILFODLB@r_stencilbits?$AA@ 004d48cc     renderer:tr_init.obj
 0002:0000d8dc       ??_C@_0M@MLADPBHK@r_depthbits?$AA@ 004d48dc     renderer:tr_init.obj
 0002:0000d8e8       ??_C@_0BB@FCPGIIJJ@r_overBrightBits?$AA@ 004d48e8     renderer:tr_init.obj
 0002:0000d8fc       ??_C@_0BA@EIFIPMEJ@r_ignorehwgamma?$AA@ 004d48fc     renderer:tr_init.obj
 0002:0000d90c       ??_C@_06LBAPPDBG@r_mode?$AA@ 004d490c     renderer:tr_init.obj
 0002:0000d914       ??_C@_04ILPBONMK@1600?$AA@ 004d4914     renderer:tr_init.obj
 0002:0000d91c       ??_C@_0O@EAAAAJJP@r_customwidth?$AA@ 004d491c     renderer:tr_init.obj
 0002:0000d92c       ??_C@_0P@HHMLCCLC@r_customheight?$AA@ 004d492c     renderer:tr_init.obj
 0002:0000d93c       ??_C@_0P@PMHAFEHO@r_customaspect?$AA@ 004d493c     renderer:tr_init.obj
 0002:0000d94c       ??_C@_0BA@MPIFMBGH@r_simpleMipMaps?$AA@ 004d494c     renderer:tr_init.obj
 0002:0000d95c       ??_C@_0O@LOOKMMOO@r_vertexLight?$AA@ 004d495c     renderer:tr_init.obj
 0002:0000d96c       ??_C@_0P@BJDDOIJN@r_uifullscreen?$AA@ 004d496c     renderer:tr_init.obj
 0002:0000d97c       ??_C@_0P@CEFBGCNE@r_subdivisions?$AA@ 004d497c     renderer:tr_init.obj
 0002:0000d98c       ??_C@_05KECOIEHL@r_smp?$AA@ 004d498c     renderer:tr_init.obj
 0002:0000d994       ??_C@_0BB@JLILKIBL@r_ignoreFastPath?$AA@ 004d4994     renderer:tr_init.obj
 0002:0000d9a8       ??_C@_0BB@FFCENIEG@r_displayRefresh?$AA@ 004d49a8     renderer:tr_init.obj
 0002:0000d9bc       ??_C@_0N@JEFJGNMG@r_fullbright?$AA@ 004d49bc     renderer:tr_init.obj
 0002:0000d9cc       ??_C@_0BE@MNKOGJGK@r_mapOverBrightBits?$AA@ 004d49cc     renderer:tr_init.obj
 0002:0000d9e0       ??_C@_0M@IIHNMIDC@r_intensity?$AA@ 004d49e0     renderer:tr_init.obj
 0002:0000d9ec       ??_C@_0P@ODPAICMO@r_singleShader?$AA@ 004d49ec     renderer:tr_init.obj
 0002:0000d9fc       ??_C@_0BA@EEHBLFFN@r_lodCurveError?$AA@ 004d49fc     renderer:tr_init.obj
 0002:0000da0c       ??_C@_09MCCGJPLJ@r_lodbias?$AA@ 004d4a0c     renderer:tr_init.obj
 0002:0000da18       ??_C@_08PDJPECIC@r_flares?$AA@ 004d4a18     renderer:tr_init.obj
 0002:0000da24       ??_C@_07HFGKHFPM@r_znear?$AA@ 004d4a24     renderer:tr_init.obj
 0002:0000da2c       ??_C@_0BB@FAMAENF@r_ignoreGLErrors?$AA@ 004d4a2c     renderer:tr_init.obj
 0002:0000da40       ??_C@_09DKHGHCIK@r_fastsky?$AA@ 004d4a40     renderer:tr_init.obj
 0002:0000da4c       ??_C@_09JENCIPDG@r_drawSun?$AA@ 004d4a4c     renderer:tr_init.obj
 0002:0000da58       ??_C@_0P@CEODIJEF@r_dynamiclight?$AA@ 004d4a58     renderer:tr_init.obj
 0002:0000da68       ??_C@_0O@PLDNGPHO@r_dlightBacks?$AA@ 004d4a68     renderer:tr_init.obj
 0002:0000da78       ??_C@_08BHIHIACG@r_finish?$AA@ 004d4a78     renderer:tr_init.obj
 0002:0000da84       ??_C@_0BJ@PCPDHFJH@GL_LINEAR_MIPMAP_NEAREST?$AA@ 004d4a84     renderer:tr_init.obj
 0002:0000daa0       ??_C@_0O@BGKNIDHM@r_textureMode?$AA@ 004d4aa0     renderer:tr_init.obj
 0002:0000dab0       ??_C@_0P@HNMDPIEI@r_swapInterval?$AA@ 004d4ab0     renderer:tr_init.obj
 0002:0000dac0       ??_C@_07OFDDGDHB@r_gamma?$AA@ 004d4ac0     renderer:tr_init.obj
 0002:0000dac8       ??_C@_0BA@BPCDNPON@r_facePlaneCull?$AA@ 004d4ac8     renderer:tr_init.obj
 0002:0000dad8       ??_C@_0M@FCDKDOFO@r_railWidth?$AA@ 004d4ad8     renderer:tr_init.obj
 0002:0000dae4       ??_C@_0BA@KIFPEIFH@r_railCoreWidth?$AA@ 004d4ae4     renderer:tr_init.obj
 0002:0000daf4       ??_C@_0BE@JCAJHBHI@r_railSegmentLength?$AA@ 004d4af4     renderer:tr_init.obj
 0002:0000db08       ??_C@_0N@MNJJLPGP@r_primitives?$AA@ 004d4b08     renderer:tr_init.obj
 0002:0000db18       ??_C@_03JFFPCCNN@0?46?$AA@ 004d4b18     renderer:tr_init.obj
 0002:0000db1c       ??_C@_0P@PCFMEOGO@r_ambientScale?$AA@ 004d4b1c     renderer:tr_init.obj
 0002:0000db2c       ??_C@_0BA@JKEOFBGN@r_directedScale?$AA@ 004d4b2c     renderer:tr_init.obj
 0002:0000db3c       ??_C@_0N@MJCHINNC@r_showImages?$AA@ 004d4b3c     renderer:tr_init.obj
 0002:0000db4c       ??_C@_0N@CLEJOIDB@r_debuglight?$AA@ 004d4b4c     renderer:tr_init.obj
 0002:0000db5c       ??_C@_0M@FAFKFKNC@r_debugSort?$AA@ 004d4b5c     renderer:tr_init.obj
 0002:0000db68       ??_C@_0P@FPGBOPOJ@r_printShaders?$AA@ 004d4b68     renderer:tr_init.obj
 0002:0000db78       ??_C@_0P@IMHHMLJH@r_saveFontData?$AA@ 004d4b78     renderer:tr_init.obj
 0002:0000db88       ??_C@_0L@IBLKDFNO@r_nocurves?$AA@ 004d4b88     renderer:tr_init.obj
 0002:0000db94       ??_C@_0M@BIOFCHNF@r_drawworld?$AA@ 004d4b94     renderer:tr_init.obj
 0002:0000dba0       ??_C@_0L@GFIPPKI@r_lightmap?$AA@ 004d4ba0     renderer:tr_init.obj
 0002:0000dbac       ??_C@_0N@KANAPLNL@r_portalOnly?$AA@ 004d4bac     renderer:tr_init.obj
 0002:0000dbbc       ??_C@_0M@IGENIJKG@r_flareSize?$AA@ 004d4bbc     renderer:tr_init.obj
 0002:0000dbc8       ??_C@_01COCBENDE@7?$AA@    004d4bc8     renderer:tr_init.obj
 0002:0000dbcc       ??_C@_0M@PNEBDHMB@r_flareFade?$AA@ 004d4bcc     renderer:tr_init.obj
 0002:0000dbd8       ??_C@_09NNHMNIOD@r_showSmp?$AA@ 004d4bd8     renderer:tr_init.obj
 0002:0000dbe4       ??_C@_0O@DPCGOEGM@r_skipBackEnd?$AA@ 004d4be4     renderer:tr_init.obj
 0002:0000dbf4       ??_C@_0BC@NCGFPEJB@r_measureOverdraw?$AA@ 004d4bf4     renderer:tr_init.obj
 0002:0000dc08       ??_C@_0L@DPLFJPIH@r_lodscale?$AA@ 004d4c08     renderer:tr_init.obj
 0002:0000dc14       ??_C@_0M@HGMGOPHP@r_norefresh?$AA@ 004d4c14     renderer:tr_init.obj
 0002:0000dc20       ??_C@_0P@JAKGJBEE@r_drawentities?$AA@ 004d4c20     renderer:tr_init.obj
 0002:0000dc30       ??_C@_08EKMCNKBJ@r_ignore?$AA@ 004d4c30     renderer:tr_init.obj
 0002:0000dc3c       ??_C@_08GDHICAID@r_nocull?$AA@ 004d4c3c     renderer:tr_init.obj
 0002:0000dc48       ??_C@_07IFOJIEEJ@r_novis?$AA@ 004d4c48     renderer:tr_init.obj
 0002:0000dc50       ??_C@_0O@EGPFGENM@r_showcluster?$AA@ 004d4c50     renderer:tr_init.obj
 0002:0000dc60       ??_C@_08ILOBJANK@r_speeds?$AA@ 004d4c60     renderer:tr_init.obj
 0002:0000dc6c       ??_C@_09HIPDJBIH@r_verbose?$AA@ 004d4c6c     renderer:tr_init.obj
 0002:0000dc78       ??_C@_09GELDECFH@r_logFile?$AA@ 004d4c78     renderer:tr_init.obj
 0002:0000dc84       ??_C@_08IPIKLPHC@r_nobind?$AA@ 004d4c84     renderer:tr_init.obj
 0002:0000dc90       ??_C@_0L@FFKAMJAN@r_showtris?$AA@ 004d4c90     renderer:tr_init.obj
 0002:0000dc9c       ??_C@_09KIABLACG@r_showsky?$AA@ 004d4c9c     renderer:tr_init.obj
 0002:0000dca8       ??_C@_0O@FPMANPKI@r_shownormals?$AA@ 004d4ca8     renderer:tr_init.obj
 0002:0000dcb8       ??_C@_07CLHDHFMP@r_clear?$AA@ 004d4cb8     renderer:tr_init.obj
 0002:0000dcc0       ??_C@_0P@MNPHBPLD@r_offsetfactor?$AA@ 004d4cc0     renderer:tr_init.obj
 0002:0000dcd0       ??_C@_02NNFLKHCP@?92?$AA@  004d4cd0     renderer:tr_init.obj
 0002:0000dcd4       ??_C@_0O@BAMKGKDI@r_offsetunits?$AA@ 004d4cd4     renderer:tr_init.obj
 0002:0000dce4       ??_C@_07KHDMNPGL@GL_BACK?$AA@ 004d4ce4     renderer:tr_init.obj
 0002:0000dcec       ??_C@_0N@EIKBMIBB@r_drawBuffer?$AA@ 004d4cec     renderer:tr_init.obj
 0002:0000dcfc       ??_C@_09OGELGAJA@r_lockpvs?$AA@ 004d4cfc     renderer:tr_init.obj
 0002:0000dd08       ??_C@_0M@LGLKLKOB@r_noportals?$AA@ 004d4d08     renderer:tr_init.obj
 0002:0000dd14       ??_C@_0L@MAOLAFLC@cg_shadows?$AA@ 004d4d14     renderer:tr_init.obj
 0002:0000dd20       ??_C@_0L@CKEBPMHC@r_maxpolys?$AA@ 004d4d20     renderer:tr_init.obj
 0002:0000dd2c       ??_C@_0P@NIPCLOBB@r_maxpolyverts?$AA@ 004d4d2c     renderer:tr_init.obj
 0002:0000dd3c       ??_C@_09JBMKNKFJ@imagelist?$AA@ 004d4d3c     renderer:tr_init.obj
 0002:0000dd48       ??_C@_0L@LGFNICHF@shaderlist?$AA@ 004d4d48     renderer:tr_init.obj
 0002:0000dd54       ??_C@_08HGIBIHIO@skinlist?$AA@ 004d4d54     renderer:tr_init.obj
 0002:0000dd60       ??_C@_09EOKHBMCA@modellist?$AA@ 004d4d60     renderer:tr_init.obj
 0002:0000dd6c       ??_C@_08JNNJIBJE@modelist?$AA@ 004d4d6c     renderer:tr_init.obj
 0002:0000dd78       ??_C@_0L@CMHOPIGK@screenshot?$AA@ 004d4d78     renderer:tr_init.obj
 0002:0000dd84       ??_C@_0P@HMAPNEDH@screenshotJPEG?$AA@ 004d4d84     renderer:tr_init.obj
 0002:0000dd94       ??_C@_07KOAACKLB@gfxinfo?$AA@ 004d4d94     renderer:tr_init.obj
 0002:0000dd9c       ??_C@_0BE@MDHPNILD@?9?9?9?9?9?5R_Init?5?9?9?9?9?9?6?$AA@ 004d4d9c     renderer:tr_init.obj
 0002:0000ddb0       ??_C@_0CH@LEDEAOCO@WARNING?3?5tess?4xyz?5not?516?5byte?5al@ 004d4db0     renderer:tr_init.obj
 0002:0000ddd8       ??_C@_0BF@GNBIIAHE@glGetError?$CI?$CJ?5?$DN?50x?$CFx?6?$AA@ 004d4dd8     renderer:tr_init.obj
 0002:0000ddf0       ??_C@_0BN@PMHALLBM@?9?9?9?9?9?5finished?5R_Init?5?9?9?9?9?9?6?$AA@ 004d4df0     renderer:tr_init.obj
 0002:0000de10       ??_C@_0BD@IGCMANBD@RE_Shutdown?$CI?5?$CFi?5?$CJ?6?$AA@ 004d4e10     renderer:tr_init.obj
 0002:0000de24       ??_C@_0M@KILDDLLK@shaderstate?$AA@ 004d4e24     renderer:tr_init.obj
 0002:0000de30       ??_C@_0DB@JNEJBLCB@Mismatched?5REF_API_VERSION?3?5expe@ 004d4e30     renderer:tr_init.obj
 0002:0000de64       __real@3a800000            004d4e64     renderer:tr_init.obj
 0002:0000de68       __real@3b000000            004d4e68     renderer:tr_init.obj
 0002:0000de6c       __real@3b800000            004d4e6c     renderer:tr_init.obj
 0002:0000de70       __real@3f50624de0000000    004d4e70     renderer:tr_init.obj
 0002:0000de78       __real@4030000000000000    004d4e78     renderer:tr_init.obj
 0002:0000de80       __real@43c00000            004d4e80     renderer:tr_init.obj
 0002:0000de84       __real@447fc000            004d4e84     renderer:tr_init.obj
 0002:0000de88       ??_C@_0BN@KFFAINND@RE_RegisterModel?3?5NULL?5name?6?$AA@ 004d4e88     renderer:tr_model.obj
 0002:0000dea8       ??_C@_0BO@FCMCBBHN@Model?5name?5exceeds?5MAX_QPATH?6?$AA@ 004d4ea8     renderer:tr_model.obj
 0002:0000dec8       ??_C@_0DC@CLACIFFN@RE_RegisterModel?3?5R_AllocModel?$CI?$CJ@ 004d4ec8     renderer:tr_model.obj
 0002:0000defc       ??_C@_07BEDDCCPM@_?$CFd?4md3?$AA@ 004d4efc     renderer:tr_model.obj
 0002:0000df04       ??_C@_0CJ@CAIMAAFD@RE_RegisterModel?3?5unknown?5fileid@ 004d4f04     renderer:tr_model.obj
 0002:0000df30       ??_C@_0DD@KHJJKPOK@R_LoadMD3?3?5?$CFs?5has?5wrong?5version?5@ 004d4f30     renderer:tr_model.obj
 0002:0000df64       ??_C@_0BN@JENBICHP@R_LoadMD3?3?5?$CFs?5has?5no?5frames?6?$AA@ 004d4f64     renderer:tr_model.obj
 0002:0000df84       ??_C@_0DH@KLLOOHPD@R_LoadMD3?3?5?$CFs?5has?5more?5than?5?$CFi?5v@ 004d4f84     renderer:tr_model.obj
 0002:0000dfbc       ??_C@_0DL@BKDLJMAM@R_LoadMD3?3?5?$CFs?5has?5more?5than?5?$CFi?5t@ 004d4fbc     renderer:tr_model.obj
 0002:0000dff8       ??_C@_0DD@KJJDGJEK@R_LoadMD4?3?5?$CFs?5has?5wrong?5version?5@ 004d4ff8     renderer:tr_model.obj
 0002:0000e02c       ??_C@_0BN@PNDGAECH@R_LoadMD4?3?5?$CFs?5has?5no?5frames?6?$AA@ 004d502c     renderer:tr_model.obj
 0002:0000e04c       ??_C@_0P@FDGJGCED@?$CF8i?5?3?5?$CI?$CFi?$CJ?5?$CFs?6?$AA@ 004d504c     renderer:tr_model.obj
 0002:0000e05c       ??_C@_0BE@IACJADAH@?$CF8i?5?3?5Total?5models?6?$AA@ 004d505c     renderer:tr_model.obj
 0002:0000e070       ??_C@_0BF@OHALGONN@GL_Bind?3?5NULL?5image?6?$AA@ 004d5070     renderer:tr_backend.obj
 0002:0000e088       ??_C@_0CH@FGOKGHHN@glActiveTextureARB?$CI?5GL_TEXTURE0_@ 004d5088     renderer:tr_backend.obj
 0002:0000e0b0       ??_C@_0CN@IOHHKBOP@glClientActiveTextureARB?$CI?5GL_TEX@ 004d50b0     renderer:tr_backend.obj
 0002:0000e0e0       ??_C@_0CH@EBJBHDDO@glActiveTextureARB?$CI?5GL_TEXTURE1_@ 004d50e0     renderer:tr_backend.obj
 0002:0000e108       ??_C@_0CN@JJAMLFKM@glClientActiveTextureARB?$CI?5GL_TEX@ 004d5108     renderer:tr_backend.obj
 0002:0000e138       ??_C@_0BM@MKDPKBLD@GL_SelectTexture?3?5unit?5?$DN?5?$CFi?$AA@ 004d5138     renderer:tr_backend.obj
 0002:0000e154       ??_C@_0CE@DIKCONAP@GL_TexEnv?3?5invalid?5env?5?8?$CFd?8?5pass@ 004d5154     renderer:tr_backend.obj
 0002:0000e178       ??_C@_0CI@JNKBENCF@GL_State?3?5invalid?5src?5blend?5stat@ 004d5178     renderer:tr_backend.obj
 0002:0000e1a0       ??_C@_0CI@MPNHLHAM@GL_State?3?5invalid?5dst?5blend?5stat@ 004d51a0     renderer:tr_backend.obj
 0002:0000e1c8       ??_C@_0DB@BADIHKNP@Draw_StretchRaw?3?5size?5not?5a?5powe@ 004d51c8     renderer:tr_backend.obj
 0002:0000e1fc       ??_C@_0CC@BHAIMEHO@qglTexSubImage2D?5?$CFi?0?5?$CFi?3?5?$CFi?5msec@ 004d51fc     renderer:tr_backend.obj
 0002:0000e220       ??_C@_0BM@CDGHDPNH@?$CFi?5msec?5to?5draw?5all?5images?6?$AA@ 004d5220     renderer:tr_backend.obj
 0002:0000e23c       ??_C@_0DG@CHHALGE@?$CK?$CK?$CK?$CK?$CK?$CK?$CK?$CK?$CK?$CK?$CK?$CK?$CK?$CK?$CK?$CK?$CK?5RB_SwapBuffers@ 004d523c     renderer:tr_backend.obj
 0002:0000e278       __real@3fd3333333333333    004d5278     renderer:tr_backend.obj
 0002:0000e280       ??_C@_0L@PCHCEECD@GL_NEAREST?$AA@ 004d5280     renderer:tr_image.obj
 0002:0000e28c       ??_C@_09MNJDEIIG@GL_LINEAR?$AA@ 004d528c     renderer:tr_image.obj
 0002:0000e298       ??_C@_0BK@DIHBBLKN@GL_NEAREST_MIPMAP_NEAREST?$AA@ 004d5298     renderer:tr_image.obj
 0002:0000e2b4       ??_C@_0BJ@HEAOEMHH@GL_NEAREST_MIPMAP_LINEAR?$AA@ 004d52b4     renderer:tr_image.obj
 0002:0000e2d0       ??_C@_0BI@EMKCPMIG@GL_LINEAR_MIPMAP_LINEAR?$AA@ 004d52d0     renderer:tr_image.obj
 0002:0000e2e8       ??_C@_0CI@FNBBMLKI@Refusing?5to?5set?5trilinear?5on?5a?5v@ 004d52e8     renderer:tr_image.obj
 0002:0000e310       ??_C@_0BB@GBGIGKBA@bad?5filter?5name?6?$AA@ 004d5310     renderer:tr_image.obj
 0002:0000e324       ??_C@_03NDENAIGM@no?5?$AA@ 004d5324     renderer:tr_image.obj
 0002:0000e328       ??_C@_03ICICOMAL@yes?$AA@  004d5328     renderer:tr_image.obj
 0002:0000e32c       ??_C@_0DG@JCJHFFAO@?6?5?5?5?5?5?5?9w?9?9?5?9h?9?9?5?9mm?9?5?9TMU?9?5?9if?9@ 004d532c     renderer:tr_image.obj
 0002:0000e364       ??_C@_0BJ@LLKIDIMA@?$CF4i?3?5?$CF4i?5?$CF4i?5?5?$CFs?5?5?5?$CFd?5?5?5?$AA@ 004d5364     renderer:tr_image.obj
 0002:0000e380       ??_C@_05KKFAOHIA@I?5?5?5?5?$AA@ 004d5380     renderer:tr_image.obj
 0002:0000e388       ??_C@_05OACLJHN@IA?5?5?5?$AA@ 004d5388     renderer:tr_image.obj
 0002:0000e390       ??_C@_05HJHMIBAN@RGB?5?5?$AA@ 004d5390     renderer:tr_image.obj
 0002:0000e398       ??_C@_05DAGJCABK@RGBA?5?$AA@ 004d5398     renderer:tr_image.obj
 0002:0000e3a0       ??_C@_05LCHCLIED@RGBA8?$AA@ 004d53a0     renderer:tr_image.obj
 0002:0000e3a8       ??_C@_04BJEMBBJI@RGB8?$AA@ 004d53a8     renderer:tr_image.obj
 0002:0000e3b0       ??_C@_05IBJBGJJN@S3TC?5?$AA@ 004d53b0     renderer:tr_image.obj
 0002:0000e3b8       ??_C@_05BOMHPHEP@RGBA4?$AA@ 004d53b8     renderer:tr_image.obj
 0002:0000e3c0       ??_C@_05GDJBOAJG@RGB5?5?$AA@ 004d53c0     renderer:tr_image.obj
 0002:0000e3c8       ??_C@_05IKJLKKIL@?$DP?$DP?$DP?$DP?5?$AA@ 004d53c8     renderer:tr_image.obj
 0002:0000e3d0       ??_C@_05PEEGEOBJ@rept?5?$AA@ 004d53d0     renderer:tr_image.obj
 0002:0000e3d8       ??_C@_05JEKGNKMI@clmp?5?$AA@ 004d53d8     renderer:tr_image.obj
 0002:0000e3e0       ??_C@_04MDKIEGGJ@?5?$CFs?6?$AA@ 004d53e0     renderer:tr_image.obj
 0002:0000e3e8       ??_C@_0M@MOFGFFHA@?5?9?9?9?9?9?9?9?9?9?6?$AA@ 004d53e8     renderer:tr_image.obj
 0002:0000e3f4       ??_C@_0CK@EIAOBKGB@?5?$CFi?5total?5texels?5?$CInot?5including?5@ 004d53f4     renderer:tr_image.obj
 0002:0000e420       ??_C@_0BD@GJNNOEIC@?5?$CFi?5total?5images?6?6?$AA@ 004d5420     renderer:tr_image.obj
 0002:0000e434       ??_C@_0BL@CFNJBMFH@ResampleTexture?3?5max?5width?$AA@ 004d5434     renderer:tr_image.obj
 0002:0000e450       ??_C@_0CB@COPOFLLF@R_CreateImage?3?5?$CC?$CFs?$CC?5is?5too?5long?6@ 004d5450     renderer:tr_image.obj
 0002:0000e474       ??_C@_09DIHLIDNM@?$CKlightmap?$AA@ 004d5474     renderer:tr_image.obj
 0002:0000e480       ??_C@_0CD@JDGPJFMH@R_CreateImage?3?5MAX_DRAWIMAGES?5hi@ 004d5480     renderer:tr_image.obj
 0002:0000e4a4       ??_C@_0DG@EEIFLDDF@LoadBMP?3?5only?5Windows?9style?5BMP?5@ 004d54a4     renderer:tr_image.obj
 0002:0000e4e0       ??_C@_0EA@NGPBBGNH@LoadBMP?3?5header?5size?5does?5not?5ma@ 004d54e0     renderer:tr_image.obj
 0002:0000e520       ??_C@_0DF@KOIMKIGD@LoadBMP?3?5only?5uncompressed?5BMP?5f@ 004d5520     renderer:tr_image.obj
 0002:0000e558       ??_C@_0DM@FILABPHO@LoadBMP?3?5monochrome?5and?54?9bit?5BM@ 004d5558     renderer:tr_image.obj
 0002:0000e594       ??_C@_0CP@HFFCJEDA@LoadBMP?3?5illegal?5pixel_size?5?8?$CFd?8@ 004d5594     renderer:tr_image.obj
 0002:0000e5c4       ??_C@_0CF@ENHIPICL@Bad?5pcx?5file?5?$CFs?5?$CI?$CFi?5x?5?$CFi?$CJ?5?$CI?$CFi?5x?5@ 004d55c4     renderer:tr_image.obj
 0002:0000e5ec       ??_C@_0BK@PFOMPPID@PCX?5file?5?$CFs?5was?5malformed?$AA@ 004d55ec     renderer:tr_image.obj
 0002:0000e608       ??_C@_0EJ@MFOPHNJO@LoadTGA?3?5Only?5type?52?5?$CIRGB?$CJ?0?53?5?$CIg@ 004d5608     renderer:tr_image.obj
 0002:0000e654       ??_C@_0CC@LANFMKPP@LoadTGA?3?5colormaps?5not?5supported@ 004d5654     renderer:tr_image.obj
 0002:0000e678       ??_C@_0DM@DMKLIHNL@LoadTGA?3?5Only?532?5or?524?5bit?5image@ 004d5678     renderer:tr_image.obj
 0002:0000e6b4       ??_C@_0CP@LECNENMO@LoadTGA?3?5illegal?5pixel_size?5?8?$CFd?8@ 004d56b4     renderer:tr_image.obj
 0002:0000e6e8       ??_C@_0EB@OLGCIND@WARNING?3?5?8?$CFs?8?5TGA?5file?5header?5de@ 004d56e8     renderer:tr_image.obj
 0002:0000e72c       ??_C@_04JCAPCJAP@?4tga?$AA@ 004d572c     renderer:tr_image.obj
 0002:0000e734       ??_C@_04IBGELPJM@?4pcx?$AA@ 004d5734     renderer:tr_image.obj
 0002:0000e73c       ??_C@_04LJDDIHIK@?4bmp?$AA@ 004d573c     renderer:tr_image.obj
 0002:0000e744       ??_C@_04GNPKBLNA@?4jpg?$AA@ 004d5744     renderer:tr_image.obj
 0002:0000e74c       ??_C@_06LLGHKAEB@?$CKwhite?$AA@ 004d574c     renderer:tr_image.obj
 0002:0000e754       ??_C@_0DB@JBEOHFBI@WARNING?3?5reused?5image?5?$CFs?5with?5mi@ 004d5754     renderer:tr_image.obj
 0002:0000e788       ??_C@_0DG@MEFHLIGB@WARNING?3?5reused?5image?5?$CFs?5with?5mi@ 004d5788     renderer:tr_image.obj
 0002:0000e7c0       ??_C@_0DK@MNCNIICN@WARNING?3?5reused?5image?5?$CFs?5with?5mi@ 004d57c0     renderer:tr_image.obj
 0002:0000e7fc       ??_C@_0O@HNBMHJNF@trying?5?$CFs?4?4?4?6?$AA@ 004d57fc     renderer:tr_image.obj
 0002:0000e80c       ??_C@_07MNOAAFDD@?$CKdlight?$AA@ 004d580c     renderer:tr_image.obj
 0002:0000e814       ??_C@_04MFNGOGOF@?$CKfog?$AA@ 004d5814     renderer:tr_image.obj
 0002:0000e81c       ??_C@_08KPIGECMN@?$CKdefault?$AA@ 004d581c     renderer:tr_image.obj
 0002:0000e828       ??_C@_0P@IACCPHGD@?$CKidentityLight?$AA@ 004d5828     renderer:tr_image.obj
 0002:0000e838       ??_C@_08HHPIHCEN@?$CKscratch?$AA@ 004d5838     renderer:tr_image.obj
 0002:0000e844       ??_C@_03NBLACKLF@3?40?$AA@ 004d5844     renderer:tr_image.obj
 0002:0000e848       ??_C@_0CG@DBBAHOML@Empty?5name?5passed?5to?5RE_Register@ 004d5848     renderer:tr_image.obj
 0002:0000e870       ??_C@_0BN@KCHDLGKI@Skin?5name?5exceeds?5MAX_QPATH?6?$AA@ 004d5870     renderer:tr_image.obj
 0002:0000e890       ??_C@_0DA@INLCLALN@WARNING?3?5RE_RegisterSkin?$CI?5?8?$CFs?8?5?$CJ@ 004d5890     renderer:tr_image.obj
 0002:0000e8c0       ??_C@_05JNLGGGIB@?4skin?$AA@ 004d58c0     renderer:tr_image.obj
 0002:0000e8c8       ??_C@_04MGKOECLF@tag_?$AA@ 004d58c8     renderer:tr_image.obj
 0002:0000e8d0       ??_C@_0P@BKIAPLDF@?$DMdefault?5skin?$DO?$AA@ 004d58d0     renderer:tr_image.obj
 0002:0000e8e0       ??_C@_0BA@EEMBKHGA@?5?5?5?5?5?5?5?$CFs?5?$DN?5?$CFs?6?$AA@ 004d58e0     renderer:tr_image.obj
 0002:0000e8f0       __real@3d000000            004d58f0     renderer:tr_image.obj
 0002:0000e8f8       __real@3f60000000000000    004d58f8     renderer:tr_image.obj
 0002:0000e900       __real@3f700000            004d5900     renderer:tr_image.obj
 0002:0000e908       __real@3fe8000000000000    004d5908     renderer:tr_image.obj
 0002:0000e910       __real@3fef000000000000    004d5910     renderer:tr_image.obj
 0002:0000e918       __real@406fe00000000000    004d5918     renderer:tr_image.obj
 0002:0000e920       __real@40f00000            004d5920     renderer:tr_image.obj
 0002:0000e924       __real@457a0000            004d5924     renderer:tr_image.obj
 0002:0000e928       __real@c37f0000            004d5928     renderer:tr_image.obj
 0002:0000e930       __xmm@3f0000003f0000003f0000003f000000 004d5930     renderer:tr_image.obj
 0002:0000e940       __xmm@3f8000003f8000003f8000003f800000 004d5940     renderer:tr_image.obj
 0002:0000e950       __xmm@437f0000437f0000437f0000437f0000 004d5950     renderer:tr_image.obj
 0002:0000e960       ??_C@_0EE@IJFCGEK@?$CFi?1?$CFi?5shaders?1surfs?5?$CFi?5leafs?5?$CFi?5@ 004d5960     renderer:tr_cmds.obj
 0002:0000e9a4       ??_C@_0DK@PDABEOHF@?$CIpatch?$CJ?5?$CFi?5sin?5?$CFi?5sclip?5?5?$CFi?5sout@ 004d59a4     renderer:tr_cmds.obj
 0002:0000e9e0       ??_C@_0DI@CLNINGCE@?$CImd3?$CJ?5?$CFi?5sin?5?$CFi?5sclip?5?5?$CFi?5sout?5?$CF@ 004d59e0     renderer:tr_cmds.obj
 0002:0000ea18       ??_C@_0BB@ODENPAFM@viewcluster?3?5?$CFi?6?$AA@ 004d5a18     renderer:tr_cmds.obj
 0002:0000ea2c       ??_C@_0CN@IIFCDMCN@dlight?5srf?3?$CFi?5?5culled?3?$CFi?5?5verts?3@ 004d5a2c     renderer:tr_cmds.obj
 0002:0000ea5c       ??_C@_0M@CAGENDME@zFar?3?5?$CF?40f?6?$AA@ 004d5a5c     renderer:tr_cmds.obj
 0002:0000ea68       ??_C@_0CD@NLAAGEFK@flare?5adds?3?$CFi?5tests?3?$CFi?5renders?3?$CF@ 004d5a68     renderer:tr_cmds.obj
 0002:0000ea8c       ??_C@_0BM@JMNGBMDE@Trying?5SMP?5acceleration?4?4?4?6?$AA@ 004d5a8c     renderer:tr_cmds.obj
 0002:0000eaa8       ??_C@_0P@HOCIIEJB@?4?4?4succeeded?4?6?$AA@ 004d5aa8     renderer:tr_cmds.obj
 0002:0000eab8       ??_C@_0M@IPNOCDNB@?4?4?4failed?4?6?$AA@ 004d5ab8     renderer:tr_cmds.obj
 0002:0000eac4       ??_C@_0CA@BOMALFJA@R_GetCommandBuffer?3?5bad?5size?5?$CFi?$AA@ 004d5ac4     renderer:tr_cmds.obj
 0002:0000eae4       ??_C@_0DK@JPMHOIDD@Warning?3?5not?5enough?5stencil?5bits@ 004d5ae4     renderer:tr_cmds.obj
 0002:0000eb20       ??_C@_0EK@OFLLHINH@Warning?3?5stencil?5shadows?5and?5ove@ 004d5b20     renderer:tr_cmds.obj
 0002:0000eb6c       ??_C@_0CP@PGCGPPGN@RE_BeginFrame?$CI?$CJ?5?9?5glGetError?$CI?$CJ?5f@ 004d5b6c     renderer:tr_cmds.obj
 0002:0000eb9c       ??_C@_0DJ@HLGALEHO@RE_BeginFrame?3?5Stereo?5is?5enabled@ 004d5b9c     renderer:tr_cmds.obj
 0002:0000ebd8       ??_C@_0DK@NPPAJLCP@RE_BeginFrame?3?5Stereo?5is?5disable@ 004d5bd8     renderer:tr_cmds.obj
 0002:0000ec14       ??_C@_08PENMMOEI@GL_FRONT?$AA@ 004d5c14     renderer:tr_cmds.obj
 0002:0000ec20       __real@49742400            004d5c20     renderer:tr_cmds.obj
 0002:0000ec24       ??_C@_0M@GGCLEKFK@?$CKlightmap?$CFd?$AA@ 004d5c24     renderer:tr_bsp.obj
 0002:0000ec30       ??_C@_0BO@HMCELCP@Brightest?5lightmap?5value?3?5?$CFd?6?$AA@ 004d5c30     renderer:tr_bsp.obj
 0002:0000ec50       ??_C@_0BP@JJDMICKK@ShaderForShaderNum?3?5bad?5num?5?$CFi?$AA@ 004d5c50     renderer:tr_bsp.obj
 0002:0000ec70       ??_C@_0CH@FEFMAIEG@WARNING?3?5MAX_FACE_POINTS?5exceede@ 004d5c70     renderer:tr_bsp.obj
 0002:0000ec98       ??_C@_0BO@KFEJELLI@Bad?5index?5in?5triangle?5surface?$AA@ 004d5c98     renderer:tr_bsp.obj
 0002:0000ecb8       ??_C@_0BI@IDNDEPDA@stitched?5?$CFd?5LoD?5cracks?6?$AA@ 004d5cb8     renderer:tr_bsp.obj
 0002:0000ecd0       ??_C@_0BP@LNMBABNB@LoadMap?3?5funny?5lump?5size?5in?5?$CFs?$AA@ 004d5cd0     renderer:tr_bsp.obj
 0002:0000ecf0       ??_C@_0BA@PMNKLNK@Bad?5surfaceType?$AA@ 004d5cf0     renderer:tr_bsp.obj
 0002:0000ed00       ??_C@_0DH@BPCGGBHH@?4?4?4loaded?5?$CFd?5faces?0?5?$CFi?5meshes?0?5?$CF@ 004d5d00     renderer:tr_bsp.obj
 0002:0000ed38       ??_C@_03COCDEFBB@?$CK?$CFd?$AA@ 004d5d38     renderer:tr_bsp.obj
 0002:0000ed3c       ??_C@_0BN@GDFIOGDD@fog?5brushNumber?5out?5of?5range?$AA@ 004d5d3c     renderer:tr_bsp.obj
 0002:0000ed5c       ??_C@_0CC@KODOEMIA@fog?5brush?5sideNumber?5out?5of?5rang@ 004d5d5c     renderer:tr_bsp.obj
 0002:0000ed80       ??_C@_0BO@IHAFNPEE@WARNING?3?5light?5grid?5mismatch?6?$AA@ 004d5d80     renderer:tr_bsp.obj
 0002:0000eda0       ??_C@_0BC@LEFDABNE@vertexremapshader?$AA@ 004d5da0     renderer:tr_bsp.obj
 0002:0000edb4       ??_C@_0DC@JPJBKBBA@WARNING?3?5no?5semi?5colon?5in?5vertex@ 004d5db4     renderer:tr_bsp.obj
 0002:0000ede8       ??_C@_0M@NEKNPMKB@remapshader?$AA@ 004d5de8     renderer:tr_bsp.obj
 0002:0000edf4       ??_C@_0CM@EJOCAFMB@WARNING?3?5no?5semi?5colon?5in?5shader@ 004d5df4     renderer:tr_bsp.obj
 0002:0000ee20       ??_C@_08PLHKIFFJ@gridsize?$AA@ 004d5e20     renderer:tr_bsp.obj
 0002:0000ee2c       ??_C@_08OEKJENGB@?$CFf?5?$CFf?5?$CFf?$AA@ 004d5e2c     renderer:tr_bsp.obj
 0002:0000ee38       ??_C@_0DA@HFMADLDH@ERROR?3?5attempted?5to?5redundantly?5@ 004d5e38     renderer:tr_bsp.obj
 0002:0000ee68       ??_C@_0BO@FKKONKDO@RE_LoadWorldMap?3?5?$CFs?5not?5found?$AA@ 004d5e68     renderer:tr_bsp.obj
 0002:0000ee88       ??_C@_0DP@JCKGEGMK@RE_LoadWorldMap?3?5?$CFs?5has?5wrong?5ve@ 004d5e88     renderer:tr_bsp.obj
 0002:0000eec8       __real@3d810625            004d5ec8     renderer:tr_bsp.obj
 0002:0000eecc       __real@3f2f5c29            004d5ecc     renderer:tr_bsp.obj
 0002:0000eed0       ??_C@_06EENFNEPD@detail?$AA@ 004d5ed0     renderer:tr_shader.obj
 0002:0000eed8       ??_C@_02BMJICGCB@rt?$AA@   004d5ed8     renderer:tr_shader.obj
 0002:0000eedc       ??_C@_02MNOEILMP@bk?$AA@   004d5edc     renderer:tr_shader.obj
 0002:0000eee0       ??_C@_02HCNENIII@lf?$AA@   004d5ee0     renderer:tr_shader.obj
 0002:0000eee4       ??_C@_02HLHCNIN@ft?$AA@    004d5ee4     renderer:tr_shader.obj
 0002:0000eee8       ??_C@_02HNLLPFKA@up?$AA@   004d5ee8     renderer:tr_shader.obj
 0002:0000eeec       ??_C@_02LEBOADDI@dn?$AA@   004d5eec     renderer:tr_shader.obj
 0002:0000eef0       ??_C@_03BNEOMJOP@sky?$AA@  004d5ef0     renderer:tr_shader.obj
 0002:0000eef4       ??_C@_05ELAABIKM@water?$AA@ 004d5ef4     renderer:tr_shader.obj
 0002:0000eefc       ??_C@_05IBOCMEGH@slime?$AA@ 004d5efc     renderer:tr_shader.obj
 0002:0000ef04       ??_C@_04MKBPEMMM@lava?$AA@ 004d5f04     renderer:tr_shader.obj
 0002:0000ef0c       ??_C@_0L@BLJOELF@playerclip?$AA@ 004d5f0c     renderer:tr_shader.obj
 0002:0000ef18       ??_C@_0M@IHNOGBMG@monsterclip?$AA@ 004d5f18     renderer:tr_shader.obj
 0002:0000ef24       ??_C@_06IBIIOGMH@nodrop?$AA@ 004d5f24     renderer:tr_shader.obj
 0002:0000ef2c       ??_C@_08POKGLNIM@nonsolid?$AA@ 004d5f2c     renderer:tr_shader.obj
 0002:0000ef38       ??_C@_05JIFNPOFN@trans?$AA@ 004d5f38     renderer:tr_shader.obj
 0002:0000ef40       ??_C@_0L@GMELLABP@structural?$AA@ 004d5f40     renderer:tr_shader.obj
 0002:0000ef4c       ??_C@_0L@PPDFKPM@areaportal?$AA@ 004d5f4c     renderer:tr_shader.obj
 0002:0000ef58       ??_C@_0O@GEGDJGOB@clusterportal?$AA@ 004d5f58     renderer:tr_shader.obj
 0002:0000ef68       ??_C@_0L@BIKHJKPM@donotenter?$AA@ 004d5f68     renderer:tr_shader.obj
 0002:0000ef74       ??_C@_03KJMBPJEB@fog?$AA@  004d5f74     renderer:tr_shader.obj
 0002:0000ef78       ??_C@_0M@FCGGILAO@lightfilter?$AA@ 004d5f78     renderer:tr_shader.obj
 0002:0000ef84       ??_C@_0M@GKGEABAN@alphashadow?$AA@ 004d5f84     renderer:tr_shader.obj
 0002:0000ef90       ??_C@_04NPKLNGDP@hint?$AA@ 004d5f90     renderer:tr_shader.obj
 0002:0000ef98       ??_C@_05BFPPMEOD@slick?$AA@ 004d5f98     renderer:tr_shader.obj
 0002:0000efa0       ??_C@_08FFFCKPOA@noimpact?$AA@ 004d5fa0     renderer:tr_shader.obj
 0002:0000efac       ??_C@_07LDNMIKIJ@nomarks?$AA@ 004d5fac     renderer:tr_shader.obj
 0002:0000efb4       ??_C@_06GGMOHJIJ@ladder?$AA@ 004d5fb4     renderer:tr_shader.obj
 0002:0000efbc       ??_C@_08IPOHNGKE@nodamage?$AA@ 004d5fbc     renderer:tr_shader.obj
 0002:0000efc8       ??_C@_0L@BIBBDCEB@metalsteps?$AA@ 004d5fc8     renderer:tr_shader.obj
 0002:0000efd4       ??_C@_05DLDJBIMA@flesh?$AA@ 004d5fd4     renderer:tr_shader.obj
 0002:0000efdc       ??_C@_07PPLNNCCH@nosteps?$AA@ 004d5fdc     renderer:tr_shader.obj
 0002:0000efe4       ??_C@_06MEFHFNAK@nodraw?$AA@ 004d5fe4     renderer:tr_shader.obj
 0002:0000efec       ??_C@_0L@CHECABJO@pointlight?$AA@ 004d5fec     renderer:tr_shader.obj
 0002:0000eff8       ??_C@_0L@MKEHCLJM@nolightmap?$AA@ 004d5ff8     renderer:tr_shader.obj
 0002:0000f004       ??_C@_08LLBHFIEL@nodlight?$AA@ 004d6004     renderer:tr_shader.obj
 0002:0000f010       ??_C@_04BEGKODDK@dust?$AA@ 004d6010     renderer:tr_shader.obj
 0002:0000f018       ??_C@_0CN@KBGEEHMK@WARNING?3?5R_RemapShader?3?5shader?5?$CF@ 004d6018     renderer:tr_shader.obj
 0002:0000f048       ??_C@_0DB@FEBDLGIJ@WARNING?3?5R_RemapShader?3?5new?5shad@ 004d6048     renderer:tr_shader.obj
 0002:0000f07c       ??_C@_0CN@BPDNDCOG@WARNING?3?5missing?5parenthesis?5in?5@ 004d607c     renderer:tr_shader.obj
 0002:0000f0ac       ??_C@_0DA@MPCOKHDD@WARNING?3?5missing?5vector?5element?5@ 004d60ac     renderer:tr_shader.obj
 0002:0000f0dc       ??_C@_03GMILPAPI@GT0?$AA@  004d60dc     renderer:tr_shader.obj
 0002:0000f0e0       ??_C@_05IDNDOPIB@LT128?$AA@ 004d60e0     renderer:tr_shader.obj
 0002:0000f0e8       ??_C@_05LEJEKBHA@GE128?$AA@ 004d60e8     renderer:tr_shader.obj
 0002:0000f0f0       ??_C@_0DF@FIOFMDKK@WARNING?3?5invalid?5alphaFunc?5name?5@ 004d60f0     renderer:tr_shader.obj
 0002:0000f128       ??_C@_06BFJLKKJK@GL_ONE?$AA@ 004d6128     renderer:tr_shader.obj
 0002:0000f130       ??_C@_07BEGJIDM@GL_ZERO?$AA@ 004d6130     renderer:tr_shader.obj
 0002:0000f138       ??_C@_0N@EHMDOGOC@GL_DST_COLOR?$AA@ 004d6138     renderer:tr_shader.obj
 0002:0000f148       ??_C@_0BH@GMGAKMMA@GL_ONE_MINUS_DST_COLOR?$AA@ 004d6148     renderer:tr_shader.obj
 0002:0000f160       ??_C@_0N@JHLDDEOJ@GL_SRC_ALPHA?$AA@ 004d6160     renderer:tr_shader.obj
 0002:0000f170       ??_C@_0BH@LMBAHOML@GL_ONE_MINUS_SRC_ALPHA?$AA@ 004d6170     renderer:tr_shader.obj
 0002:0000f188       ??_C@_0N@DDMEICAJ@GL_DST_ALPHA?$AA@ 004d6188     renderer:tr_shader.obj
 0002:0000f198       ??_C@_0BH@BIGHMICL@GL_ONE_MINUS_DST_ALPHA?$AA@ 004d6198     renderer:tr_shader.obj
 0002:0000f1b0       ??_C@_0BG@GMACLBML@GL_SRC_ALPHA_SATURATE?$AA@ 004d61b0     renderer:tr_shader.obj
 0002:0000f1c8       ??_C@_0EG@NFEMCCHE@WARNING?3?5unknown?5blend?5mode?5?8?$CFs?8@ 004d61c8     renderer:tr_shader.obj
 0002:0000f210       ??_C@_0N@ODLEFAAC@GL_SRC_COLOR?$AA@ 004d6210     renderer:tr_shader.obj
 0002:0000f220       ??_C@_0BH@MIBHBKCA@GL_ONE_MINUS_SRC_COLOR?$AA@ 004d6220     renderer:tr_shader.obj
 0002:0000f238       ??_C@_03BLEJJJBH@sin?$AA@  004d6238     renderer:tr_shader.obj
 0002:0000f23c       ??_C@_06ICDKOIFG@square?$AA@ 004d623c     renderer:tr_shader.obj
 0002:0000f244       ??_C@_08FOPOJBJM@triangle?$AA@ 004d6244     renderer:tr_shader.obj
 0002:0000f250       ??_C@_08PDBODDPM@sawtooth?$AA@ 004d6250     renderer:tr_shader.obj
 0002:0000f25c       ??_C@_0BA@CLNFMHNL@inversesawtooth?$AA@ 004d625c     renderer:tr_shader.obj
 0002:0000f26c       ??_C@_05GPLCCBII@noise?$AA@ 004d626c     renderer:tr_shader.obj
 0002:0000f274       ??_C@_0DD@DLNAFJMK@WARNING?3?5invalid?5genfunc?5name?5?8?$CF@ 004d6274     renderer:tr_shader.obj
 0002:0000f2a8       ??_C@_0CP@DKEEEEHD@WARNING?3?5missing?5waveform?5parm?5i@ 004d62a8     renderer:tr_shader.obj
 0002:0000f2d8       ??_C@_0CN@JIBKBGGH@ERROR?3?5too?5many?5tcMod?5stages?5in?5@ 004d62d8     renderer:tr_shader.obj
 0002:0000f308       ??_C@_04GJNAKLFI@turb?$AA@ 004d6308     renderer:tr_shader.obj
 0002:0000f310       ??_C@_0DC@NOBDKEOI@WARNING?3?5missing?5tcMod?5turb?5parm@ 004d6310     renderer:tr_shader.obj
 0002:0000f344       ??_C@_0CM@KOGGLEIE@WARNING?3?5missing?5tcMod?5turb?5in?5s@ 004d6344     renderer:tr_shader.obj
 0002:0000f370       ??_C@_05MHMEBBGO@scale?$AA@ 004d6370     renderer:tr_shader.obj
 0002:0000f378       ??_C@_0CN@BBMLEDFN@WARNING?3?5missing?5scale?5parms?5in?5@ 004d6378     renderer:tr_shader.obj
 0002:0000f3a8       ??_C@_06FJKBNFNG@scroll?$AA@ 004d63a8     renderer:tr_shader.obj
 0002:0000f3b0       ??_C@_0DE@KNBGFEPJ@WARNING?3?5missing?5scale?5scroll?5pa@ 004d63b0     renderer:tr_shader.obj
 0002:0000f3e4       ??_C@_07LEPFLFDH@stretch?$AA@ 004d63e4     renderer:tr_shader.obj
 0002:0000f3ec       ??_C@_0CP@GCKFKABP@WARNING?3?5missing?5stretch?5parms?5i@ 004d63ec     renderer:tr_shader.obj
 0002:0000f41c       ??_C@_09IFONHNKG@transform?$AA@ 004d641c     renderer:tr_shader.obj
 0002:0000f428       ??_C@_0DB@HCGDEMJB@WARNING?3?5missing?5transform?5parms@ 004d6428     renderer:tr_shader.obj
 0002:0000f45c       ??_C@_06CEHMNFAL@rotate?$AA@ 004d645c     renderer:tr_shader.obj
 0002:0000f464       ??_C@_0DE@CPIKJPCO@WARNING?3?5missing?5tcMod?5rotate?5pa@ 004d6464     renderer:tr_shader.obj
 0002:0000f498       ??_C@_0BA@JHGJPDGP@entityTranslate?$AA@ 004d6498     renderer:tr_shader.obj
 0002:0000f4a8       ??_C@_0CM@BIKEMJGH@WARNING?3?5unknown?5tcMod?5?8?$CFs?8?5in?5s@ 004d64a8     renderer:tr_shader.obj
 0002:0000f4d4       ??_C@_0CA@OOLPPJGG@WARNING?3?5no?5matching?5?8?$HN?8?5found?6?$AA@ 004d64d4     renderer:tr_shader.obj
 0002:0000f4f4       ??_C@_0DN@CLBKOKJO@WARNING?3?5missing?5parameter?5for?5?8@ 004d64f4     renderer:tr_shader.obj
 0002:0000f534       ??_C@_0M@BDLBCOHL@$whiteimage?$AA@ 004d6534     renderer:tr_shader.obj
 0002:0000f540       ??_C@_09CGLCLDGP@$lightmap?$AA@ 004d6540     renderer:tr_shader.obj
 0002:0000f54c       ??_C@_0DN@EAKLECLL@WARNING?3?5R_FindImageFile?5could?5n@ 004d654c     renderer:tr_shader.obj
 0002:0000f58c       ??_C@_08DEEDKPOB@clampmap?$AA@ 004d658c     renderer:tr_shader.obj
 0002:0000f598       ??_C@_0EC@FAEJMGED@WARNING?3?5missing?5parameter?5for?5?8@ 004d6598     renderer:tr_shader.obj
 0002:0000f5dc       ??_C@_07BMBIACGE@animMap?$AA@ 004d65dc     renderer:tr_shader.obj
 0002:0000f5e8       ??_C@_0EC@PDBNEELC@WARNING?3?5missing?5parameter?5for?5?8@ 004d65e8     renderer:tr_shader.obj
 0002:0000f62c       ??_C@_08GGBNKEBM@videoMap?$AA@ 004d662c     renderer:tr_shader.obj
 0002:0000f638       ??_C@_0ED@JEBNHGPN@WARNING?3?5missing?5parameter?5for?5?8@ 004d6638     renderer:tr_shader.obj
 0002:0000f67c       ??_C@_09MIGNOGJD@alphaFunc?$AA@ 004d667c     renderer:tr_shader.obj
 0002:0000f688       ??_C@_0ED@OOIKPLLE@WARNING?3?5missing?5parameter?5for?5?8@ 004d6688     renderer:tr_shader.obj
 0002:0000f6cc       ??_C@_09MEFHBDPK@depthfunc?$AA@ 004d66cc     renderer:tr_shader.obj
 0002:0000f6d8       ??_C@_0ED@GFKIPHND@WARNING?3?5missing?5parameter?5for?5?8@ 004d66d8     renderer:tr_shader.obj
 0002:0000f71c       ??_C@_06GOLCIEJE@lequal?$AA@ 004d671c     renderer:tr_shader.obj
 0002:0000f724       ??_C@_05OAKNMNI@equal?$AA@ 004d6724     renderer:tr_shader.obj
 0002:0000f72c       ??_C@_0DA@BIDNCEP@WARNING?3?5unknown?5depthfunc?5?8?$CFs?8?5@ 004d672c     renderer:tr_shader.obj
 0002:0000f75c       ??_C@_09OFNNOJFC@blendfunc?$AA@ 004d675c     renderer:tr_shader.obj
 0002:0000f768       ??_C@_0DE@LHICOKDF@WARNING?3?5missing?5parm?5for?5blendF@ 004d6768     renderer:tr_shader.obj
 0002:0000f79c       ??_C@_03BDGOHNNK@add?$AA@  004d679c     renderer:tr_shader.obj
 0002:0000f7a0       ??_C@_06EOIELIPE@filter?$AA@ 004d67a0     renderer:tr_shader.obj
 0002:0000f7a8       ??_C@_05BIODCFPJ@blend?$AA@ 004d67a8     renderer:tr_shader.obj
 0002:0000f7b0       ??_C@_06FMMGNFCK@rgbGen?$AA@ 004d67b0     renderer:tr_shader.obj
 0002:0000f7b8       ??_C@_0DH@BMDJGBJJ@WARNING?3?5missing?5parameters?5for?5@ 004d67b8     renderer:tr_shader.obj
 0002:0000f7f0       ??_C@_04LJEDCPFL@wave?$AA@ 004d67f0     renderer:tr_shader.obj
 0002:0000f7f8       ??_C@_05BNCCCJPP@const?$AA@ 004d67f8     renderer:tr_shader.obj
 0002:0000f800       ??_C@_08LBJOIDDC@identity?$AA@ 004d6800     renderer:tr_shader.obj
 0002:0000f80c       ??_C@_0BB@LOAKDOL@identityLighting?$AA@ 004d680c     renderer:tr_shader.obj
 0002:0000f820       ??_C@_06GOJKNBFM@entity?$AA@ 004d6820     renderer:tr_shader.obj
 0002:0000f828       ??_C@_0P@HLCEDLEK@oneMinusEntity?$AA@ 004d6828     renderer:tr_shader.obj
 0002:0000f838       ??_C@_06HLKHCFCI@vertex?$AA@ 004d6838     renderer:tr_shader.obj
 0002:0000f840       ??_C@_0M@NFGCOAEO@exactVertex?$AA@ 004d6840     renderer:tr_shader.obj
 0002:0000f84c       ??_C@_0BA@JGIIOMOF@lightingDiffuse?$AA@ 004d684c     renderer:tr_shader.obj
 0002:0000f85c       ??_C@_0P@GOBJMPDO@oneMinusVertex?$AA@ 004d685c     renderer:tr_shader.obj
 0002:0000f86c       ??_C@_0DH@IFLDHGBE@WARNING?3?5unknown?5rgbGen?5paramete@ 004d686c     renderer:tr_shader.obj
 0002:0000f8a4       ??_C@_08MKJGOHMF@alphaGen?$AA@ 004d68a4     renderer:tr_shader.obj
 0002:0000f8b0       ??_C@_0DJ@COAGBCFB@WARNING?3?5missing?5parameters?5for?5@ 004d68b0     renderer:tr_shader.obj
 0002:0000f8ec       ??_C@_0BB@IPMOEOM@lightingSpecular?$AA@ 004d68ec     renderer:tr_shader.obj
 0002:0000f900       ??_C@_06JAELEMPN@portal?$AA@ 004d6900     renderer:tr_shader.obj
 0002:0000f908       ??_C@_0FI@HDECGDLN@WARNING?3?5missing?5range?5parameter@ 004d6908     renderer:tr_shader.obj
 0002:0000f960       ??_C@_0DJ@CNPGHDHL@WARNING?3?5unknown?5alphaGen?5parame@ 004d6960     renderer:tr_shader.obj
 0002:0000f99c       ??_C@_06PILMGBAG@texgen?$AA@ 004d699c     renderer:tr_shader.obj
 0002:0000f9a4       ??_C@_05LDLNDDHA@tcGen?$AA@ 004d69a4     renderer:tr_shader.obj
 0002:0000f9ac       ??_C@_0CN@NPBJMNFM@WARNING?3?5missing?5texgen?5parm?5in?5@ 004d69ac     renderer:tr_shader.obj
 0002:0000f9dc       ??_C@_0M@PINLHHEI@environment?$AA@ 004d69dc     renderer:tr_shader.obj
 0002:0000f9e8       ??_C@_08GFIHGMBN@lightmap?$AA@ 004d69e8     renderer:tr_shader.obj
 0002:0000f9f4       ??_C@_07JDHEGGGP@texture?$AA@ 004d69f4     renderer:tr_shader.obj
 0002:0000f9fc       ??_C@_04BHIIPFEC@base?$AA@ 004d69fc     renderer:tr_shader.obj
 0002:0000fa04       ??_C@_06NBFPPGEG@vector?$AA@ 004d6a04     renderer:tr_shader.obj
 0002:0000fa0c       ??_C@_0CN@BFINHNOM@WARNING?3?5unknown?5texgen?5parm?5in?5@ 004d6a0c     renderer:tr_shader.obj
 0002:0000fa3c       ??_C@_05CLHILOEI@tcMod?$AA@ 004d6a3c     renderer:tr_shader.obj
 0002:0000fa44       ??_C@_0L@LLDCFDJB@depthwrite?$AA@ 004d6a44     renderer:tr_shader.obj
 0002:0000fa50       ??_C@_0DA@LHNAOODG@WARNING?3?5unknown?5parameter?5?8?$CFs?8?5@ 004d6a50     renderer:tr_shader.obj
 0002:0000fa80       ??_C@_0CN@BAHOFFDJ@WARNING?3?5missing?5deform?5parm?5in?5@ 004d6a80     renderer:tr_shader.obj
 0002:0000fab0       ??_C@_0CF@BCAMFONL@WARNING?3?5MAX_SHADER_DEFORMS?5in?5?8@ 004d6ab0     renderer:tr_shader.obj
 0002:0000fad8       ??_C@_0BB@OOOFIDJN@projectionShadow?$AA@ 004d6ad8     renderer:tr_shader.obj
 0002:0000faec       ??_C@_0L@OJCKPKMG@autosprite?$AA@ 004d6aec     renderer:tr_shader.obj
 0002:0000faf8       ??_C@_0M@JPJOBJAO@autosprite2?$AA@ 004d6af8     renderer:tr_shader.obj
 0002:0000fb04       ??_C@_04CIMGMMMG@text?$AA@ 004d6b04     renderer:tr_shader.obj
 0002:0000fb0c       ??_C@_05BONBJFEO@bulge?$AA@ 004d6b0c     renderer:tr_shader.obj
 0002:0000fb14       ??_C@_0DL@MGCKFNID@WARNING?3?5missing?5deformVertexes?5@ 004d6b14     renderer:tr_shader.obj
 0002:0000fb50       ??_C@_0DF@DFJPIOJM@WARNING?3?5missing?5deformVertexes?5@ 004d6b50     renderer:tr_shader.obj
 0002:0000fb88       ??_C@_0EL@ODFGAGPK@WARNING?3?5illegal?5div?5value?5of?50?5@ 004d6b88     renderer:tr_shader.obj
 0002:0000fbd4       ??_C@_06IKLLLDHL@normal?$AA@ 004d6bd4     renderer:tr_shader.obj
 0002:0000fbdc       ??_C@_04HDMMNHEL@move?$AA@ 004d6bdc     renderer:tr_shader.obj
 0002:0000fbe8       ??_C@_0ED@LOPFOKI@WARNING?3?5unknown?5deformVertexes?5@ 004d6be8     renderer:tr_shader.obj
 0002:0000fc2c       ??_C@_0DG@PHBLMGGL@WARNING?3?5?8skyParms?8?5missing?5para@ 004d6c2c     renderer:tr_shader.obj
 0002:0000fc64       ??_C@_09ELMIAJNO@?$CFs_?$CFs?4tga?$AA@ 004d6c64     renderer:tr_shader.obj
 0002:0000fc70       ??_C@_0DA@IOEIMDIA@WARNING?3?5missing?5sort?5parameter?5@ 004d6c70     renderer:tr_shader.obj
 0002:0000fca0       ??_C@_06CJCOLNBB@opaque?$AA@ 004d6ca0     renderer:tr_shader.obj
 0002:0000fca8       ??_C@_05CFEEDGHM@decal?$AA@ 004d6ca8     renderer:tr_shader.obj
 0002:0000fcb0       ??_C@_0L@FKGCKOHC@seeThrough?$AA@ 004d6cb0     renderer:tr_shader.obj
 0002:0000fcbc       ??_C@_06BDPMPKBB@banner?$AA@ 004d6cbc     renderer:tr_shader.obj
 0002:0000fcc4       ??_C@_08FEMHJDBF@additive?$AA@ 004d6cc4     renderer:tr_shader.obj
 0002:0000fcd0       ??_C@_07NHJEPDMH@nearest?$AA@ 004d6cd0     renderer:tr_shader.obj
 0002:0000fcd8       ??_C@_0L@DDGNHNOE@underwater?$AA@ 004d6cd8     renderer:tr_shader.obj
 0002:0000fce4       ??_C@_0DL@HHKDKKCO@WARNING?3?5expecting?5?8?$HL?8?0?5found?5?8?$CF@ 004d6ce4     renderer:tr_shader.obj
 0002:0000fd20       ??_C@_0CJ@CFIAOEJP@WARNING?3?5no?5concluding?5?8?$HN?8?5in?5sh@ 004d6d20     renderer:tr_shader.obj
 0002:0000fd4c       ??_C@_03FOCNPFKF@qer?$AA@  004d6d4c     renderer:tr_shader.obj
 0002:0000fd50       ??_C@_09BFMCMBDI@q3map_sun?$AA@ 004d6d50     renderer:tr_shader.obj
 0002:0000fd5c       ??_C@_0P@FJMHOEJC@deformVertexes?$AA@ 004d6d5c     renderer:tr_shader.obj
 0002:0000fd6c       ??_C@_08MFDEDCHM@tesssize?$AA@ 004d6d6c     renderer:tr_shader.obj
 0002:0000fd78       ??_C@_09LCMIMMJI@clampTime?$AA@ 004d6d78     renderer:tr_shader.obj
 0002:0000fd84       ??_C@_05MHKELFFB@q3map?$AA@ 004d6d84     renderer:tr_shader.obj
 0002:0000fd8c       ??_C@_0M@EHMHKHGD@surfaceParm?$AA@ 004d6d8c     renderer:tr_shader.obj
 0002:0000fd98       ??_C@_09LMLIDNFN@nomipmaps?$AA@ 004d6d98     renderer:tr_shader.obj
 0002:0000fda4       ??_C@_08DIOICGND@nopicmip?$AA@ 004d6da4     renderer:tr_shader.obj
 0002:0000fdb0       ??_C@_0O@DGEGEFGN@polygonOffset?$AA@ 004d6db0     renderer:tr_shader.obj
 0002:0000fdc0       ??_C@_0P@CACIGKMN@entityMergable?$AA@ 004d6dc0     renderer:tr_shader.obj
 0002:0000fdd0       ??_C@_08FMKCJPFI@fogParms?$AA@ 004d6dd0     renderer:tr_shader.obj
 0002:0000fddc       ??_C@_0DN@BCDJHKBE@WARNING?3?5missing?5parm?5for?5?8fogPa@ 004d6ddc     renderer:tr_shader.obj
 0002:0000fe1c       ??_C@_08OPCHEDJ@skyparms?$AA@ 004d6e1c     renderer:tr_shader.obj
 0002:0000fe28       ??_C@_05OEPGNJB@light?$AA@ 004d6e28     renderer:tr_shader.obj
 0002:0000fe30       ??_C@_04DDCLEDDO@cull?$AA@ 004d6e30     renderer:tr_shader.obj
 0002:0000fe38       ??_C@_0CM@CKHAANCG@WARNING?3?5missing?5cull?5parms?5in?5s@ 004d6e38     renderer:tr_shader.obj
 0002:0000fe64       ??_C@_04CGFJFPFD@none?$AA@ 004d6e64     renderer:tr_shader.obj
 0002:0000fe6c       ??_C@_08INIPHAGC@twosided?$AA@ 004d6e6c     renderer:tr_shader.obj
 0002:0000fe78       ??_C@_07DBNODEFN@disable?$AA@ 004d6e78     renderer:tr_shader.obj
 0002:0000fe80       ??_C@_04JFCNHLLM@back?$AA@ 004d6e80     renderer:tr_shader.obj
 0002:0000fe88       ??_C@_08EHJFDP@backside?$AA@ 004d6e88     renderer:tr_shader.obj
 0002:0000fe94       ??_C@_09LHPHMEAL@backsided?$AA@ 004d6e94     renderer:tr_shader.obj
 0002:0000fea0       ??_C@_0DA@HDFMABOL@WARNING?3?5invalid?5cull?5parm?5?8?$CFs?8?5@ 004d6ea0     renderer:tr_shader.obj
 0002:0000fed0       ??_C@_04PIMMHFGE@sort?$AA@ 004d6ed0     renderer:tr_shader.obj
 0002:0000fed8       ??_C@_0DI@PJHAFAJB@WARNING?3?5unknown?5general?5shader?5@ 004d6ed8     renderer:tr_shader.obj
 0002:0000ff10       ??_C@_0DE@FPIJLKBK@WARNING?3?5GeneratePermanentShader@ 004d6f10     renderer:tr_shader.obj
 0002:0000ff44       ??_C@_0CF@HBDBMHII@Shader?5?$CFs?5has?5a?5stage?5with?5no?5im@ 004d6f44     renderer:tr_shader.obj
 0002:0000ff6c       ??_C@_0DK@CGNDAAJI@WARNING?3?5shader?5?8?$CFs?8?5has?5lightma@ 004d6f6c     renderer:tr_shader.obj
 0002:0000ffa8       ??_C@_0N@CFLHIGKB@?$CKSHADER?$CK?5?$CFs?6?$AA@ 004d6fa8     renderer:tr_shader.obj
 0002:0000ffb8       ??_C@_0CD@LPOFEGPO@Couldn?8t?5find?5image?5for?5shader?5?$CF@ 004d6fb8     renderer:tr_shader.obj
 0002:0000ffdc       ??_C@_0BP@BKKCKGLL@Shader?5name?5exceeds?5MAX_QPATH?6?$AA@ 004d6fdc     renderer:tr_shader.obj
 0002:0000fffc       ??_C@_0DA@NIHGGMJL@R_GetShaderByHandle?3?5out?5of?5rang@ 004d6ffc     renderer:tr_shader.obj
 0002:0001002c       ??_C@_02OMLKHGOL@L?5?$AA@  004d702c     renderer:tr_shader.obj
 0002:00010030       ??_C@_02KNHHEEKP@?5?5?$AA@ 004d7030     renderer:tr_shader.obj
 0002:00010034       ??_C@_06GDNDLH@MT?$CIa?$CJ?5?$AA@ 004d7034     renderer:tr_shader.obj
 0002:0001003c       ??_C@_06EKLFGMAP@MT?$CIm?$CJ?5?$AA@ 004d703c     renderer:tr_shader.obj
 0002:00010044       ??_C@_06DHLNCDIF@MT?$CId?$CJ?5?$AA@ 004d7044     renderer:tr_shader.obj
 0002:0001004c       ??_C@_06GGLIPOFD@?5?5?5?5?5?5?$AA@ 004d704c     renderer:tr_shader.obj
 0002:00010054       ??_C@_02ODGLENGE@E?5?$AA@  004d7054     renderer:tr_shader.obj
 0002:00010058       ??_C@_04MJPKGGAG@gen?5?$AA@ 004d7058     renderer:tr_shader.obj
 0002:00010060       ??_C@_04KFCMJFIC@sky?5?$AA@ 004d7060     renderer:tr_shader.obj
 0002:00010068       ??_C@_04KHAPFJPB@lmmt?$AA@ 004d7068     renderer:tr_shader.obj
 0002:00010070       ??_C@_04PIMDLBBI@vlt?5?$AA@ 004d7070     renderer:tr_shader.obj
 0002:00010078       ??_C@_04PFOHOKJK@?5?5?5?5?$AA@ 004d7078     renderer:tr_shader.obj
 0002:00010080       ??_C@_0BC@HCKKJGI@?3?5?$CFs?5?$CIDEFAULTED?$CJ?6?$AA@ 004d7080     renderer:tr_shader.obj
 0002:00010094       ??_C@_05BBKJDEBM@?3?5?$CFs?6?$AA@ 004d7094     renderer:tr_shader.obj
 0002:0001009c       ??_C@_0BC@OGEMBECL@?$CFi?5total?5shaders?6?$AA@ 004d709c     renderer:tr_shader.obj
 0002:000100b0       ??_C@_07OMEBBDEO@scripts?$AA@ 004d70b0     renderer:tr_shader.obj
 0002:000100b8       ??_C@_0CA@KEAFAHPN@WARNING?3?5no?5shader?5files?5found?6?$AA@ 004d70b8     renderer:tr_shader.obj
 0002:000100d8       ??_C@_0L@NIPFIBOE@scripts?1?$CFs?$AA@ 004d70d8     renderer:tr_shader.obj
 0002:000100e4       ??_C@_0BB@NGOCHMHE@?4?4?4loading?5?8?$CFs?8?6?$AA@ 004d70e4     renderer:tr_shader.obj
 0002:000100f8       ??_C@_09IOAPNCJN@?$DMdefault?$DO?$AA@ 004d70f8     renderer:tr_shader.obj
 0002:00010104       ??_C@_0BB@GHMCCJHM@?$DMstencil?5shadow?$DO?$AA@ 004d7104     renderer:tr_shader.obj
 0002:00010118       ??_C@_0M@NEGJIMEO@flareShader?$AA@ 004d7118     renderer:tr_shader.obj
 0002:00010124       ??_C@_03OHFMDAD@sun?$AA@   004d7124     renderer:tr_shader.obj
 0002:00010128       ??_C@_0BG@IIJFOJD@Initializing?5Shaders?6?$AA@ 004d7128     renderer:tr_shader.obj
 0002:00010140       __real@0000000000000000    004d7140     renderer:tr_shader.obj
 0002:00010148       __real@44000000            004d7148     renderer:tr_shader.obj
 0002:0001014c       ??_C@_0DB@OOIIKJEH@?4?4?4WARNING?3?5fullscreen?5unavailab@ 004d714c     renderer:win_glimp.obj
 0002:00010180       ??_C@_0CP@LOAGJHPF@?4?4?4WARNING?3?5could?5not?5set?5the?5gi@ 004d7180     renderer:win_glimp.obj
 0002:000101b0       ??_C@_0CA@MIGGKPBC@?4?4?4GLW_ChoosePFD?$CI?5?$CFd?0?5?$CFd?0?5?$CFd?5?$CJ?6?$AA@ 004d71b0     renderer:win_glimp.obj
 0002:000101d0       ??_C@_0CB@BNBOIMIK@?4?4?4numPFDs?5?$DO?5MAX_PFDS?5?$CI?$CFd?5?$DO?5?$CFd?$CJ?6@ 004d71d0     renderer:win_glimp.obj
 0002:000101f4       ??_C@_0BC@PCEJAFPG@?4?4?4?$CFd?5PFDs?5found?6?$AA@ 004d71f4     renderer:win_glimp.obj
 0002:00010208       ??_C@_0CL@NNOBGMMI@?4?4?4PFD?5?$CFd?5rejected?0?5software?5acc@ 004d7208     renderer:win_glimp.obj
 0002:00010234       ??_C@_0BO@IIFIFIHJ@?4?4?4PFD?5?$CFd?5rejected?0?5not?5RGBA?6?$AA@ 004d7234     renderer:win_glimp.obj
 0002:00010254       ??_C@_0DH@LPNFLFIF@?4?4?4PFD?5?$CFd?5rejected?0?5improper?5fla@ 004d7254     renderer:win_glimp.obj
 0002:0001028c       ??_C@_0CD@MIKCGIGN@?4?4?4no?5hardware?5acceleration?5foun@ 004d728c     renderer:win_glimp.obj
 0002:000102b0       ??_C@_0BN@NPGHGFAF@?4?4?4using?5software?5emulation?6?$AA@ 004d72b0     renderer:win_glimp.obj
 0002:000102d0       ??_C@_0BL@GLEAHEND@?4?4?4MCD?5acceleration?5found?6?$AA@ 004d72d0     renderer:win_glimp.obj
 0002:000102ec       ??_C@_0CA@FJLHLOEE@?4?4?4hardware?5acceleration?5found?6?$AA@ 004d72ec     renderer:win_glimp.obj
 0002:0001030c       ??_C@_0BN@HOGCJCBA@?4?4?4attempting?5to?5use?5stereo?6?$AA@ 004d730c     renderer:win_glimp.obj
 0002:0001032c       ??_C@_0BJ@NAMOHALF@?4?4?4GLW_ChoosePFD?5failed?6?$AA@ 004d732c     renderer:win_glimp.obj
 0002:00010348       ??_C@_0BM@PDCKOEHH@?4?4?4PIXELFORMAT?5?$CFd?5selected?6?$AA@ 004d7348     renderer:win_glimp.obj
 0002:00010364       ??_C@_0BO@GMOIKBFJ@?4?4?4qwglSetPixelFormat?5failed?6?$AA@ 004d7364     renderer:win_glimp.obj
 0002:00010384       ??_C@_0BK@HLFJBFLM@?4?4?4SetPixelFormat?5failed?6?$AA@ 004d7384     renderer:win_glimp.obj
 0002:000103a0       ??_C@_0BJ@JOAMHKMN@?4?4?4creating?5GL?5context?3?5?$AA@ 004d73a0     renderer:win_glimp.obj
 0002:000103bc       ??_C@_0L@IMJOIOGF@succeeded?6?$AA@ 004d73bc     renderer:win_glimp.obj
 0002:000103c8       ??_C@_0BM@NECBPBKH@?4?4?4making?5context?5current?3?5?$AA@ 004d73c8     renderer:win_glimp.obj
 0002:000103e4       ??_C@_0BM@FJOJLJJF@Initializing?5OpenGL?5driver?6?$AA@ 004d73e4     renderer:win_glimp.obj
 0002:00010400       ??_C@_0BA@NBCOEONH@?4?4?4getting?5DC?3?5?$AA@ 004d7400     renderer:win_glimp.obj
 0002:00010410       ??_C@_0BA@DAJDIPF@?4?4?4failed?5hard?6?$AA@ 004d7410     renderer:win_glimp.obj
 0002:00010420       ??_C@_0CO@OKBCOKJN@?4?4?4failed?5to?5find?5an?5appropriate@ 004d7420     renderer:win_glimp.obj
 0002:00010450       ??_C@_0CJ@LGOKIJGB@?4?4?4failed?5to?5select?5stereo?5pixel@ 004d7450     renderer:win_glimp.obj
 0002:0001047c       ??_C@_0P@CMLELHDI@Quake?53?3?5Arena?$AA@ 004d747c     renderer:win_glimp.obj
 0002:0001048c       ??_C@_0DC@PEKLGHAL@GLW_CreateWindow?3?5could?5not?5regi@ 004d748c     renderer:win_glimp.obj
 0002:000104c0       ??_C@_0BM@HPOGBHED@?4?4?4registered?5window?5class?6?$AA@ 004d74c0     renderer:win_glimp.obj
 0002:000104dc       ??_C@_0CM@COMDHHBB@GLW_CreateWindow?$CI?$CJ?5?9?5Couldn?8t?5cr@ 004d74dc     renderer:win_glimp.obj
 0002:00010508       ??_C@_0CB@HNOFCKCK@?4?4?4created?5window?$EA?$CFd?0?$CFd?5?$CI?$CFdx?$CFd?$CJ?6@ 004d7508     renderer:win_glimp.obj
 0002:0001052c       ??_C@_0DD@ODIDMMC@?4?4?4window?5already?5present?0?5Creat@ 004d752c     renderer:win_glimp.obj
 0002:00010560       ??_C@_0BC@OMPFMAKF@restart?5required?6?$AA@ 004d7560     renderer:win_glimp.obj
 0002:00010574       ??_C@_0L@MPLECDLO@bad?5param?6?$AA@ 004d7574     renderer:win_glimp.obj
 0002:00010580       ??_C@_0L@GDLHKFGA@bad?5flags?6?$AA@ 004d7580     renderer:win_glimp.obj
 0002:0001058c       ??_C@_0BE@MJDAFIPL@DISP_CHANGE_FAILED?6?$AA@ 004d758c     renderer:win_glimp.obj
 0002:000105a0       ??_C@_09LGNMDMPD@bad?5mode?6?$AA@ 004d75a0     renderer:win_glimp.obj
 0002:000105ac       ??_C@_0N@EAFANHAA@not?5updated?6?$AA@ 004d75ac     renderer:win_glimp.obj
 0002:000105bc       ??_C@_0BC@MOLHDJNJ@unknown?5error?5?$CFd?6?$AA@ 004d75bc     renderer:win_glimp.obj
 0002:000105d0       ??_C@_01ELNMCGJD@W?$AA@    004d75d0     renderer:win_glimp.obj
 0002:000105d4       ??_C@_02OFDPNJAI@FS?$AA@   004d75d4     renderer:win_glimp.obj
 0002:000105d8       ??_C@_0BE@MPKDPDGP@?4?4?4setting?5mode?5?$CFd?3?$AA@ 004d75d8     renderer:win_glimp.obj
 0002:000105ec       ??_C@_0P@CDOCDADM@?5invalid?5mode?6?$AA@ 004d75ec     renderer:win_glimp.obj
 0002:000105fc       ??_C@_0L@LHPMKOFC@?5?$CFd?5?$CFd?5?$CFs?6?$AA@ 004d75fc     renderer:win_glimp.obj
 0002:00010608       ??_C@_0BI@JLHDKHCN@Low?5Desktop?5Color?5Depth?$AA@ 004d7608     renderer:win_glimp.obj
 0002:00010620       ??_C@_0BAN@LMLOHOBE@It?5is?5highly?5unlikely?5that?5a?5cor@ 004d7620     renderer:win_glimp.obj
 0002:00010730       ??_C@_0BL@OCIMBLIP@?4?4?4using?5colorsbits?5of?5?$CFd?6?$AA@ 004d7730     renderer:win_glimp.obj
 0002:00010750       ??_C@_0EA@MNHMDDEA@WARNING?3?4?4?4changing?5depth?5not?5su@ 004d7750     renderer:win_glimp.obj
 0002:00010790       ??_C@_0CG@CGPOLEAL@?4?4?4using?5desktop?5display?5depth?5o@ 004d7790     renderer:win_glimp.obj
 0002:000107b8       ??_C@_0CP@IJJINLOI@?4?4?4already?5fullscreen?0?5avoiding?5@ 004d77b8     renderer:win_glimp.obj
 0002:000107e8       ??_C@_0BP@IICPPCNA@?4?4?4restoring?5display?5settings?6?$AA@ 004d77e8     renderer:win_glimp.obj
 0002:00010808       ??_C@_0BB@LCGMGEBN@?4?4?4calling?5CDS?3?5?$AA@ 004d7808     renderer:win_glimp.obj
 0002:0001081c       ??_C@_08KJDHGAC@failed?0?5?$AA@ 004d781c     renderer:win_glimp.obj
 0002:00010828       ??_C@_0CC@JHAFIJOJ@?4?4?4trying?5next?5higher?5resolution@ 004d7828     renderer:win_glimp.obj
 0002:0001084c       ??_C@_04CFDEAMPI@?5ok?6?$AA@ 004d784c     renderer:win_glimp.obj
 0002:00010854       ??_C@_09EAENAJAK@?5failed?0?5?$AA@ 004d7854     renderer:win_glimp.obj
 0002:00010860       ??_C@_0CE@KMKFALLM@?$CK?$CK?$CK?5IGNORING?5OPENGL?5EXTENSIONS?5?$CK@ 004d7860     renderer:win_glimp.obj
 0002:00010884       ??_C@_0CA@PKLDCBMC@Initializing?5OpenGL?5extensions?6?$AA@ 004d7884     renderer:win_glimp.obj
 0002:000108a4       ??_C@_0L@LMFIOPIG@GL_S3_s3tc?$AA@ 004d78a4     renderer:win_glimp.obj
 0002:000108b0       ??_C@_0BF@DKAGBHJJ@?4?4?4using?5GL_S3_s3tc?6?$AA@ 004d78b0     renderer:win_glimp.obj
 0002:000108c8       ??_C@_0BI@EOFEGDJG@?4?4?4ignoring?5GL_S3_s3tc?6?$AA@ 004d78c8     renderer:win_glimp.obj
 0002:000108e0       ??_C@_0BJ@PEHOEDEJ@?4?4?4GL_S3_s3tc?5not?5found?6?$AA@ 004d78e0     renderer:win_glimp.obj
 0002:000108fc       ??_C@_0BE@BKNIHLLE@EXT_texture_env_add?$AA@ 004d78fc     renderer:win_glimp.obj
 0002:00010910       ??_C@_0CB@HEALHJO@?4?4?4using?5GL_EXT_texture_env_add?6@ 004d7910     renderer:win_glimp.obj
 0002:00010934       ??_C@_0CE@CLIBMNDC@?4?4?4ignoring?5GL_EXT_texture_env_a@ 004d7934     renderer:win_glimp.obj
 0002:00010958       ??_C@_0CF@GHBNFILH@?4?4?4GL_EXT_texture_env_add?5not?5fo@ 004d7958     renderer:win_glimp.obj
 0002:00010980       ??_C@_0BD@IINOPBDD@wglSwapIntervalEXT?$AA@ 004d7980     renderer:win_glimp.obj
 0002:00010994       ??_C@_0BP@OPLBKLEE@?4?4?4using?5WGL_EXT_swap_control?6?$AA@ 004d7994     renderer:win_glimp.obj
 0002:000109b4       ??_C@_0CD@FCNOKLOJ@?4?4?4WGL_EXT_swap_control?5not?5foun@ 004d79b4     renderer:win_glimp.obj
 0002:000109d8       ??_C@_0BE@MEMOPMEA@GL_ARB_multitexture?$AA@ 004d79d8     renderer:win_glimp.obj
 0002:000109ec       ??_C@_0BF@GFGCIEPA@glMultiTexCoord2fARB?$AA@ 004d79ec     renderer:win_glimp.obj
 0002:00010a04       ??_C@_0BD@IKCKKKNH@glActiveTextureARB?$AA@ 004d7a04     renderer:win_glimp.obj
 0002:00010a18       ??_C@_0BJ@PBJNGLJH@glClientActiveTextureARB?$AA@ 004d7a18     renderer:win_glimp.obj
 0002:00010a34       ??_C@_0BO@NHKDBIBP@?4?4?4using?5GL_ARB_multitexture?6?$AA@ 004d7a34     renderer:win_glimp.obj
 0002:00010a54       ??_C@_0DF@HBIOMIEF@?4?4?4not?5using?5GL_ARB_multitexture@ 004d7a54     renderer:win_glimp.obj
 0002:00010a8c       ??_C@_0CB@EPJPPON@?4?4?4ignoring?5GL_ARB_multitexture?6@ 004d7a8c     renderer:win_glimp.obj
 0002:00010ab0       ??_C@_0CC@BHBHALAE@?4?4?4GL_ARB_multitexture?5not?5found@ 004d7ab0     renderer:win_glimp.obj
 0002:00010ad4       ??_C@_0BN@LBNKGIPJ@GL_EXT_compiled_vertex_array?$AA@ 004d7ad4     renderer:win_glimp.obj
 0002:00010af4       ??_C@_0CH@MAMJLLDH@?4?4?4using?5GL_EXT_compiled_vertex_@ 004d7af4     renderer:win_glimp.obj
 0002:00010b1c       ??_C@_0BA@FALFDEFM@glLockArraysEXT?$AA@ 004d7b1c     renderer:win_glimp.obj
 0002:00010b2c       ??_C@_0BC@CIFHOEOG@glUnlockArraysEXT?$AA@ 004d7b2c     renderer:win_glimp.obj
 0002:00010b40       ??_C@_0BD@GEBMCHJI@bad?5getprocaddress?$AA@ 004d7b40     renderer:win_glimp.obj
 0002:00010b54       ??_C@_0CK@OCNDKECL@?4?4?4ignoring?5GL_EXT_compiled_vert@ 004d7b54     renderer:win_glimp.obj
 0002:00010b80       ??_C@_0CL@NDHIPFLH@?4?4?4GL_EXT_compiled_vertex_array?5@ 004d7b80     renderer:win_glimp.obj
 0002:00010bac       ??_C@_0BH@FENLDGLL@WGL_3DFX_gamma_control?$AA@ 004d7bac     renderer:win_glimp.obj
 0002:00010bc4       ??_C@_0BK@KEAJKABC@wglGetDeviceGammaRamp3DFX?$AA@ 004d7bc4     renderer:win_glimp.obj
 0002:00010be0       ??_C@_0BK@KFCHIHMN@wglSetDeviceGammaRamp3DFX?$AA@ 004d7be0     renderer:win_glimp.obj
 0002:00010bfc       ??_C@_0CB@NILMOBGI@?4?4?4using?5WGL_3DFX_gamma_control?6@ 004d7bfc     renderer:win_glimp.obj
 0002:00010c20       ??_C@_0CE@PEHNJLME@?4?4?4ignoring?5WGL_3DFX_gamma_contr@ 004d7c20     renderer:win_glimp.obj
 0002:00010c44       ??_C@_0CF@IOEIOODM@?4?4?4WGL_3DFX_gamma_control?5not?5fo@ 004d7c44     renderer:win_glimp.obj
 0002:00010c6c       ??_C@_0CM@FMNDEFGP@GLW_CheckOSVersion?$CI?$CJ?5?9?5GetVersio@ 004d7c6c     renderer:win_glimp.obj
 0002:00010c98       ??_C@_0CJ@LKNJIDNA@?4?4?4assuming?5?8?$CFs?8?5is?5a?5standalone@ 004d7c98     renderer:win_glimp.obj
 0002:00010cc4       ??_C@_0BF@HNMFJNCH@FX_GLIDE_NO_SPLASH?$DN0?$AA@ 004d7cc4     renderer:win_glimp.obj
 0002:00010cdc       ??_C@_0CK@JALFOIED@GLimp_EndFrame?$CI?$CJ?5?9?5SwapBuffers?$CI?$CJ@ 004d7cdc     renderer:win_glimp.obj
 0002:00010d08       ??_C@_0DF@FDLDJCGG@GLW_StartOpenGL?$CI?$CJ?5?9?5could?5not?5lo@ 004d7d08     renderer:win_glimp.obj
 0002:00010d40       ??_C@_0BA@KCKFOAHI@?$CIuninitialized?$CJ?$AA@ 004d7d40     renderer:win_glimp.obj
 0002:00010d50       ??_C@_0BE@NPAMJJ@r_lastValidRenderer?$AA@ 004d7d50     renderer:win_glimp.obj
 0002:00010d64       ??_C@_0BP@CDHFKDJO@Initializing?5OpenGL?5subsystem?6?$AA@ 004d7d64     renderer:win_glimp.obj
 0002:00010d84       ??_C@_0CL@HLGCEFDK@GLimp_Init?$CI?$CJ?5?9?5incorrect?5operati@ 004d7d84     renderer:win_glimp.obj
 0002:00010db0       ??_C@_0BC@BNBBBHDE@r_allowSoftwareGL?$AA@ 004d7db0     renderer:win_glimp.obj
 0002:00010dc4       ??_C@_0BB@OKGMNIFP@r_maskMinidriver?$AA@ 004d7dc4     renderer:win_glimp.obj
 0002:00010dd8       ??_C@_0BL@NGHEFHNP@voodoo?5graphics?11?5tmu?12?5mb?$AA@ 004d7dd8     renderer:win_glimp.obj
 0002:00010df4       ??_C@_08HEOMHBGA@rage?5128?$AA@ 004d7df4     renderer:win_glimp.obj
 0002:00010e00       ??_C@_07GFKNCEDE@rage128?$AA@ 004d7e00     renderer:win_glimp.obj
 0002:00010e08       ??_C@_08IANPNEIM@savage3d?$AA@ 004d7e08     renderer:win_glimp.obj
 0002:00010e14       ??_C@_0L@NHHNJFPM@s3?5savage4?$AA@ 004d7e14     renderer:win_glimp.obj
 0002:00010e20       ??_C@_0O@NHGMKMHI@r_texturemode?$AA@ 004d7e20     renderer:win_glimp.obj
 0002:00010e30       ??_C@_07BFKHNPB@banshee?$AA@ 004d7e30     renderer:win_glimp.obj
 0002:00010e38       ??_C@_07MMKJOGPH@voodoo3?$AA@ 004d7e38     renderer:win_glimp.obj
 0002:00010e40       ??_C@_06ONPIAGPG@glzicd?$AA@ 004d7e40     renderer:win_glimp.obj
 0002:00010e48       ??_C@_08NCCEAIGL@rage?5pro?$AA@ 004d7e48     renderer:win_glimp.obj
 0002:00010e54       ??_C@_08PAOHCFPG@Rage?5Pro?$AA@ 004d7e54     renderer:win_glimp.obj
 0002:00010e60       ??_C@_07MDGFFNDP@ragepro?$AA@ 004d7e60     renderer:win_glimp.obj
 0002:00010e68       ??_C@_09COBMGPLJ@permedia2?$AA@ 004d7e68     renderer:win_glimp.obj
 0002:00010e74       ??_C@_08PNDBLPLJ@riva?5128?$AA@ 004d7e74     renderer:win_glimp.obj
 0002:00010e80       ??_C@_09EPIMANLC@riva?5tnt?5?$AA@ 004d7e80     renderer:win_glimp.obj
 0002:00010e8c       ??_C@_06ODACHPEO@failed?$AA@ 004d7e8c     renderer:win_glimp.obj
 0002:00010e94       ??_C@_07IPNMCAN@success?$AA@ 004d7e94     renderer:win_glimp.obj
 0002:00010e9c       ??_C@_0CA@JNAAMPLK@Shutting?5down?5OpenGL?5subsystem?6?$AA@ 004d7e9c     renderer:win_glimp.obj
 0002:00010ebc       ??_C@_0CF@DDBFDAN@?4?4?4wglMakeCurrent?$CI?5NULL?0?5NULL?5?$CJ?3@ 004d7ebc     renderer:win_glimp.obj
 0002:00010ee4       ??_C@_0BM@DJONDHEF@?4?4?4deleting?5GL?5context?3?5?$CFs?6?$AA@ 004d7ee4     renderer:win_glimp.obj
 0002:00010f00       ??_C@_0BF@HIPDEIDH@?4?4?4releasing?5DC?3?5?$CFs?6?$AA@ 004d7f00     renderer:win_glimp.obj
 0002:00010f18       ??_C@_0BG@IPNGMJMJ@?4?4?4destroying?5window?6?$AA@ 004d7f18     renderer:win_glimp.obj
 0002:00010f30       ??_C@_0BG@EPMPCICE@?4?4?4resetting?5display?6?$AA@ 004d7f30     renderer:win_glimp.obj
 0002:00010f48       ??_C@_0BJ@ONIEGCNG@R_PointInLeaf?3?5bad?5model?$AA@ 004d7f48     renderer:tr_world.obj
 0002:00010f64       ??_C@_0BF@BAHPENBA@cluster?3?$CFi?5?5area?3?$CFi?6?$AA@ 004d7f64     renderer:tr_world.obj
 0002:00010f7c       ??_C@_0BA@MBJODGEL@amb?3?$CFi?5?5dir?3?$CFi?6?$AA@ 004d7f7c     renderer:tr_light.obj
 0002:00010f90       __real@bfa999999999999a    004d7f90     renderer:tr_marks.obj
 0002:00010f98       ??_C@_0CO@ICFMIPOA@WARNING?3?5RE_AddPolyToScene?3?5NULL@ 004d7f98     renderer:tr_scene.obj
 0002:00010fc8       ??_C@_0EE@FBLEADKI@WARNING?3?5RE_AddPolyToScene?3?5r_ma@ 004d7fc8     renderer:tr_scene.obj
 0002:0001100c       ??_C@_0CG@DEMNJENN@RE_AddRefEntityToScene?3?5bad?5reTy@ 004d800c     renderer:tr_scene.obj
 0002:00011034       ??_C@_0BN@KPIPFFIJ@?$DN?$DN?$DN?$DN?$DN?$DN?5RE_RenderScene?5?$DN?$DN?$DN?$DN?$DN?6?$AA@ 004d8034     renderer:tr_scene.obj
 0002:00011054       ??_C@_0BP@KOPNJDAJ@R_RenderScene?3?5NULL?5worldmodel?$AA@ 004d8054     renderer:tr_scene.obj
 0002:00011074       ??_C@_0DF@KGACFLBL@RE_RegisterFont?3?5Too?5many?5fonts?5@ 004d8074     renderer:tr_font.obj
 0002:000110ac       ??_C@_0BH@EJJGLAMJ@fonts?1fontImage_?$CFi?4dat?$AA@ 004d80ac     renderer:tr_font.obj
 0002:000110c4       ??_C@_0CO@EOJAGHCM@RE_RegisterFont?3?5FreeType?5code?5n@ 004d80c4     renderer:tr_font.obj
 0002:000110f4       ??_C@_08IGAOJPMH@GL_FALSE?$AA@ 004d80f4     renderer:win_qgl.obj
 0002:00011100       ??_C@_07IMBILHHE@GL_TRUE?$AA@ 004d8100     renderer:win_qgl.obj
 0002:00011108       ??_C@_0BJ@JDBKNKDM@OUT?5OF?5RANGE?5FOR?5BOOLEAN?$AA@ 004d8108     renderer:win_qgl.obj
 0002:00011124       ??_C@_09BFDFBJNI@GL_ALWAYS?$AA@ 004d8124     renderer:win_qgl.obj
 0002:00011130       ??_C@_08LNFBFHMF@GL_NEVER?$AA@ 004d8130     renderer:win_qgl.obj
 0002:0001113c       ??_C@_09NMLJOAOO@GL_LEQUAL?$AA@ 004d813c     renderer:win_qgl.obj
 0002:00011148       ??_C@_07JFDMNHE@GL_LESS?$AA@ 004d8148     renderer:win_qgl.obj
 0002:00011150       ??_C@_08IDALKOKJ@GL_EQUAL?$AA@ 004d8150     renderer:win_qgl.obj
 0002:0001115c       ??_C@_0L@FFMBBKLC@GL_GREATER?$AA@ 004d815c     renderer:win_qgl.obj
 0002:00011168       ??_C@_09NOLOLEBE@GL_GEQUAL?$AA@ 004d8168     renderer:win_qgl.obj
 0002:00011174       ??_C@_0M@OOEKJBLI@GL_NOTEQUAL?$AA@ 004d8174     renderer:win_qgl.obj
 0002:00011180       ??_C@_0BA@GHBGOAFD@?$CB?$CB?$CB?5UNKNOWN?5?$CB?$CB?$CB?$AA@ 004d8180     renderer:win_qgl.obj
 0002:00011190       ??_C@_0N@DPCLFMKI@GL_TRIANGLES?$AA@ 004d8190     renderer:win_qgl.obj
 0002:000111a0       ??_C@_0BC@IJJHLCGE@GL_TRIANGLE_STRIP?$AA@ 004d81a0     renderer:win_qgl.obj
 0002:000111b4       ??_C@_0BA@JPEIIGD@GL_TRIANGLE_FAN?$AA@ 004d81b4     renderer:win_qgl.obj
 0002:000111c4       ??_C@_08PKCGEEFJ@GL_QUADS?$AA@ 004d81c4     renderer:win_qgl.obj
 0002:000111d0       ??_C@_0O@NHDLAEKB@GL_QUAD_STRIP?$AA@ 004d81d0     renderer:win_qgl.obj
 0002:000111e0       ??_C@_0L@PLGFHCPP@GL_POLYGON?$AA@ 004d81e0     renderer:win_qgl.obj
 0002:000111ec       ??_C@_09NNGDFGOK@GL_POINTS?$AA@ 004d81ec     renderer:win_qgl.obj
 0002:000111f8       ??_C@_08LJNPFFPO@GL_LINES?$AA@ 004d81f8     renderer:win_qgl.obj
 0002:00011204       ??_C@_0O@JMNICDEE@GL_LINE_STRIP?$AA@ 004d8204     renderer:win_qgl.obj
 0002:00011214       ??_C@_0N@FABIPFMG@GL_LINE_LOOP?$AA@ 004d8214     renderer:win_qgl.obj
 0002:00011224       ??_C@_04OPBHEPOC@0x?$CFx?$AA@ 004d8224     renderer:win_qgl.obj
 0002:0001122c       ??_C@_0O@ELNGFGOK@GL_TEXTURE_2D?$AA@ 004d822c     renderer:win_qgl.obj
 0002:0001123c       ??_C@_08JFOCFHII@GL_BLEND?$AA@ 004d823c     renderer:win_qgl.obj
 0002:00011248       ??_C@_0O@IFJMGEGG@GL_DEPTH_TEST?$AA@ 004d8248     renderer:win_qgl.obj
 0002:00011258       ??_C@_0N@KIJKCNGC@GL_CULL_FACE?$AA@ 004d8258     renderer:win_qgl.obj
 0002:00011268       ??_C@_0P@NHDEGKDG@GL_CLIP_PLANE0?$AA@ 004d8268     renderer:win_qgl.obj
 0002:00011278       ??_C@_0P@IEOMEBHC@GL_COLOR_ARRAY?$AA@ 004d8278     renderer:win_qgl.obj
 0002:00011288       ??_C@_0BH@LLLOJEAO@GL_TEXTURE_COORD_ARRAY?$AA@ 004d8288     renderer:win_qgl.obj
 0002:000112a0       ??_C@_0BA@JFHJMJII@GL_VERTEX_ARRAY?$AA@ 004d82a0     renderer:win_qgl.obj
 0002:000112b0       ??_C@_0O@LGFCICFJ@GL_ALPHA_TEST?$AA@ 004d82b0     renderer:win_qgl.obj
 0002:000112c0       ??_C@_0BA@OMMJCFDD@GL_STENCIL_TEST?$AA@ 004d82c0     renderer:win_qgl.obj
 0002:000112d0       ??_C@_07LFHLDIGA@GL_BYTE?$AA@ 004d82d0     renderer:win_qgl.obj
 0002:000112d8       ??_C@_0BB@COPABHLN@GL_UNSIGNED_BYTE?$AA@ 004d82d8     renderer:win_qgl.obj
 0002:000112ec       ??_C@_08JIKLIIFH@GL_SHORT?$AA@ 004d82ec     renderer:win_qgl.obj
 0002:000112f8       ??_C@_0BC@GAFCKNBB@GL_UNSIGNED_SHORT?$AA@ 004d82f8     renderer:win_qgl.obj
 0002:0001130c       ??_C@_06GDCJNGFG@GL_INT?$AA@ 004d830c     renderer:win_qgl.obj
 0002:00011314       ??_C@_0BA@IMMELLJG@GL_UNSIGNED_INT?$AA@ 004d8314     renderer:win_qgl.obj
 0002:00011324       ??_C@_08CAFAKAJG@GL_FLOAT?$AA@ 004d8324     renderer:win_qgl.obj
 0002:00011330       ??_C@_09KPJJGMBD@GL_DOUBLE?$AA@ 004d8330     renderer:win_qgl.obj
 0002:0001133c       ??_C@_08PCDPFMDL@glAccum?6?$AA@ 004d833c     renderer:win_qgl.obj
 0002:00011348       ??_C@_0BJ@HDENBGFH@glAlphaFunc?$CI?50x?$CFx?0?5?$CFf?5?$CJ?6?$AA@ 004d8348     renderer:win_qgl.obj
 0002:00011364       ??_C@_0BH@BMLLFOBA@glAreTexturesResident?6?$AA@ 004d8364     renderer:win_qgl.obj
 0002:0001137c       ??_C@_0BA@NIMHNGKH@glArrayElement?6?$AA@ 004d837c     renderer:win_qgl.obj
 0002:0001138c       ??_C@_0P@JLNLBFBE@glBegin?$CI?5?$CFs?5?$CJ?6?$AA@ 004d838c     renderer:win_qgl.obj
 0002:0001139c       ??_C@_0BL@HPKHNJKH@glBindTexture?$CI?50x?$CFx?0?5?$CFu?5?$CJ?6?$AA@ 004d839c     renderer:win_qgl.obj
 0002:000113b8       ??_C@_09DMBKNKAB@glBitmap?6?$AA@ 004d83b8     renderer:win_qgl.obj
 0002:000113c4       ??_C@_0BH@LNGGJGMM@glBlendFunc?$CI?5?$CFs?0?5?$CFs?5?$CJ?6?$AA@ 004d83c4     renderer:win_qgl.obj
 0002:000113dc       ??_C@_0BC@PGBDBDGL@glCallList?$CI?5?$CFu?5?$CJ?6?$AA@ 004d83dc     renderer:win_qgl.obj
 0002:000113f0       ??_C@_0N@LIOIEBNO@glCallLists?6?$AA@ 004d83f0     renderer:win_qgl.obj
 0002:00011400       ??_C@_0BB@IDDIBIDC@glClear?$CI?50x?$CFx?5?$DN?5?$AA@ 004d8400     renderer:win_qgl.obj
 0002:00011414       ??_C@_0BF@BFPFMDEP@GL_COLOR_BUFFER_BIT?5?$AA@ 004d8414     renderer:win_qgl.obj
 0002:0001142c       ??_C@_0BF@KJOBCEGC@GL_DEPTH_BUFFER_BIT?5?$AA@ 004d842c     renderer:win_qgl.obj
 0002:00011444       ??_C@_0BH@KKNFMDIJ@GL_STENCIL_BUFFER_BIT?5?$AA@ 004d8444     renderer:win_qgl.obj
 0002:0001145c       ??_C@_0BF@BIJIMNGE@GL_ACCUM_BUFFER_BIT?5?$AA@ 004d845c     renderer:win_qgl.obj
 0002:00011474       ??_C@_02MNMNLDAI@?$CJ?6?$AA@ 004d8474     renderer:win_qgl.obj
 0002:00011478       ??_C@_0O@IIACIDEG@glClearAccum?6?$AA@ 004d8478     renderer:win_qgl.obj
 0002:00011488       ??_C@_0O@MCNBJGHD@glClearColor?6?$AA@ 004d8488     renderer:win_qgl.obj
 0002:00011498       ??_C@_0BE@FCIHELMM@glClearDepth?$CI?5?$CFf?5?$CJ?6?$AA@ 004d8498     renderer:win_qgl.obj
 0002:000114ac       ??_C@_0O@PPKHDEOL@glClearIndex?6?$AA@ 004d84ac     renderer:win_qgl.obj
 0002:000114bc       ??_C@_0BG@MJOLJGGJ@glClearStencil?$CI?5?$CFd?5?$CJ?6?$AA@ 004d84bc     renderer:win_qgl.obj
 0002:000114d4       ??_C@_0N@OBAJGAJH@glClipPlane?6?$AA@ 004d84d4     renderer:win_qgl.obj
 0002:000114e4       ??_C@_0L@KNBMCMLJ@glColor3b?6?$AA@ 004d84e4     renderer:win_qgl.obj
 0002:000114f0       ??_C@_0M@BFBEGOLK@glColor3bv?6?$AA@ 004d84f0     renderer:win_qgl.obj
 0002:000114fc       ??_C@_0L@KJJBFAAL@glColor3d?6?$AA@ 004d84fc     renderer:win_qgl.obj
 0002:00011508       ??_C@_0M@DAHPDBGG@glColor3dv?6?$AA@ 004d8508     renderer:win_qgl.obj
 0002:00011514       ??_C@_0L@KKBFIEGF@glColor3f?6?$AA@ 004d8514     renderer:win_qgl.obj
 0002:00011520       ??_C@_0M@JKHGPJON@glColor3fv?6?$AA@ 004d8520     renderer:win_qgl.obj
 0002:0001152c       ??_C@_0L@KBEJMDFI@glColor3i?6?$AA@ 004d852c     renderer:win_qgl.obj
 0002:00011538       ??_C@_0M@MCBFOJLL@glColor3iv?6?$AA@ 004d8538     renderer:win_qgl.obj
 0002:00011544       ??_C@_0L@LAPIOFPO@glColor3s?6?$AA@ 004d8544     renderer:win_qgl.obj
 0002:00011550       ??_C@_0M@PNLBFOEA@glColor3sv?6?$AA@ 004d8550     renderer:win_qgl.obj
 0002:0001155c       ??_C@_0M@MDPFAKDA@glColor3ub?6?$AA@ 004d855c     renderer:win_qgl.obj
 0002:00011568       ??_C@_0N@IBBOLMBI@glColor3ubv?6?$AA@ 004d8568     renderer:win_qgl.obj
 0002:00011578       ??_C@_0M@MPKAOFNB@glColor3ui?6?$AA@ 004d8578     renderer:win_qgl.obj
 0002:00011584       ??_C@_0N@FGBPDLBJ@glColor3uiv?6?$AA@ 004d8584     renderer:win_qgl.obj
 0002:00011594       ??_C@_0M@NOBBMDHH@glColor3us?6?$AA@ 004d8594     renderer:win_qgl.obj
 0002:000115a0       ??_C@_0N@GJLLIMOC@glColor3usv?6?$AA@ 004d85a0     renderer:win_qgl.obj
 0002:000115b0       ??_C@_0L@DAMLBEAA@glColor4b?6?$AA@ 004d85b0     renderer:win_qgl.obj
 0002:000115bc       ??_C@_0M@KHDELCKK@glColor4bv?6?$AA@ 004d85bc     renderer:win_qgl.obj
 0002:000115c8       ??_C@_0L@DEEGGILC@glColor4d?6?$AA@ 004d85c8     renderer:win_qgl.obj
 0002:000115d4       ??_C@_0M@ICFPONHG@glColor4dv?6?$AA@ 004d85d4     renderer:win_qgl.obj
 0002:000115e0       ??_C@_0BK@GLHDEOI@glColor4f?$CI?5?$CFf?0?$CFf?0?$CFf?0?$CFf?5?$CJ?6?$AA@ 004d85e0     renderer:win_qgl.obj
 0002:000115fc       ??_C@_0BL@NGEGGGIG@glColor4fv?$CI?5?$CFf?0?$CFf?0?$CFf?0?$CFf?5?$CJ?6?$AA@ 004d85fc     renderer:win_qgl.obj
 0002:00011618       ??_C@_0L@DMJOPLOB@glColor4i?6?$AA@ 004d8618     renderer:win_qgl.obj
 0002:00011624       ??_C@_0M@HADFDFKL@glColor4iv?6?$AA@ 004d8624     renderer:win_qgl.obj
 0002:00011630       ??_C@_0L@CNCPNNEH@glColor4s?6?$AA@ 004d8630     renderer:win_qgl.obj
 0002:0001163c       ??_C@_0M@EPJBICFA@glColor4sv?6?$AA@ 004d863c     renderer:win_qgl.obj
 0002:00011648       ??_C@_0N@JMBLIMKA@glColor4ubv?6?$AA@ 004d8648     renderer:win_qgl.obj
 0002:00011658       ??_C@_0M@HNIADJMB@glColor4ui?6?$AA@ 004d8658     renderer:win_qgl.obj
 0002:00011664       ??_C@_0N@ELBKALKB@glColor4uiv?6?$AA@ 004d8664     renderer:win_qgl.obj
 0002:00011674       ??_C@_0M@GMDBBPGH@glColor4us?6?$AA@ 004d8674     renderer:win_qgl.obj
 0002:00011680       ??_C@_0N@HELOLMFK@glColor4usv?6?$AA@ 004d8680     renderer:win_qgl.obj
 0002:00011690       ??_C@_0N@NJANOBDC@glColorMask?6?$AA@ 004d8690     renderer:win_qgl.obj
 0002:000116a0       ??_C@_0BB@KJLCDMPM@glColorMaterial?6?$AA@ 004d86a0     renderer:win_qgl.obj
 0002:000116b4       ??_C@_0CD@MDNBONKN@glColorPointer?$CI?5?$CFd?0?5?$CFs?0?5?$CFd?0?5MEM?5@ 004d86b4     renderer:win_qgl.obj
 0002:000116d8       ??_C@_0O@FNIGMMMF@glCopyPixels?6?$AA@ 004d86d8     renderer:win_qgl.obj
 0002:000116e8       ??_C@_0BC@NAEEIAAJ@glCopyTexImage1D?6?$AA@ 004d86e8     renderer:win_qgl.obj
 0002:000116fc       ??_C@_0BC@MCPBCPOH@glCopyTexImage2D?6?$AA@ 004d86fc     renderer:win_qgl.obj
 0002:00011710       ??_C@_0BF@LJHMNDOI@glCopyTexSubImage1D?6?$AA@ 004d8710     renderer:win_qgl.obj
 0002:00011728       ??_C@_0BF@KLMJHMAG@glCopyTexSubImage2D?6?$AA@ 004d8728     renderer:win_qgl.obj
 0002:00011740       ??_C@_0BC@HLKMMCBJ@glCullFace?$CI?5?$CFs?5?$CJ?6?$AA@ 004d8740     renderer:win_qgl.obj
 0002:00011754       ??_C@_0P@JIJNGNMF@glDeleteLists?6?$AA@ 004d8754     renderer:win_qgl.obj
 0002:00011764       ??_C@_0BC@PJPFPBNP@glDeleteTextures?6?$AA@ 004d8764     renderer:win_qgl.obj
 0002:00011778       ??_C@_0BD@KINJHKOL@glDepthFunc?$CI?5?$CFs?5?$CJ?6?$AA@ 004d8778     renderer:win_qgl.obj
 0002:0001178c       ??_C@_0BD@KOOMMBOM@glDepthMask?$CI?5?$CFs?5?$CJ?6?$AA@ 004d878c     renderer:win_qgl.obj
 0002:000117a0       ??_C@_0BI@GLOECODG@glDepthRange?$CI?5?$CFf?0?5?$CFf?5?$CJ?6?$AA@ 004d87a0     renderer:win_qgl.obj
 0002:000117b8       ??_C@_0BB@JJCKFOMA@glDisable?$CI?5?$CFs?5?$CJ?6?$AA@ 004d87b8     renderer:win_qgl.obj
 0002:000117cc       ??_C@_0BM@DMNJOMNK@glDisableClientState?$CI?5?$CFs?5?$CJ?6?$AA@ 004d87cc     renderer:win_qgl.obj
 0002:000117e8       ??_C@_0O@KKMGEGEI@glDrawArrays?6?$AA@ 004d87e8     renderer:win_qgl.obj
 0002:000117f8       ??_C@_0O@NAIEGBKI@glDrawBuffer?6?$AA@ 004d87f8     renderer:win_qgl.obj
 0002:00011808       ??_C@_0CD@GPAGANOP@glDrawElements?$CI?5?$CFs?0?5?$CFd?0?5?$CFs?0?5MEM?5@ 004d8808     renderer:win_qgl.obj
 0002:0001182c       ??_C@_0O@EMNCJNMC@glDrawPixels?6?$AA@ 004d882c     renderer:win_qgl.obj
 0002:0001183c       ??_C@_0M@EJLMLIDA@glEdgeFlag?6?$AA@ 004d883c     renderer:win_qgl.obj
 0002:00011848       ??_C@_0BD@CIGMNIB@glEdgeFlagPointer?6?$AA@ 004d8848     renderer:win_qgl.obj
 0002:0001185c       ??_C@_0N@IBJEPFKK@glEdgeFlagv?6?$AA@ 004d885c     renderer:win_qgl.obj
 0002:0001186c       ??_C@_0BA@OGCEDJJI@glEnable?$CI?5?$CFs?5?$CJ?6?$AA@ 004d886c     renderer:win_qgl.obj
 0002:0001187c       ??_C@_0BL@HACNJHBM@glEnableClientState?$CI?5?$CFs?5?$CJ?6?$AA@ 004d887c     renderer:win_qgl.obj
 0002:00011898       ??_C@_06KNGPEBLE@glEnd?6?$AA@ 004d8898     renderer:win_qgl.obj
 0002:000118a0       ??_C@_0L@DEPEENDO@glEndList?6?$AA@ 004d88a0     renderer:win_qgl.obj
 0002:000118ac       ??_C@_0P@CCLLNLGD@glEvalCoord1d?6?$AA@ 004d88ac     renderer:win_qgl.obj
 0002:000118bc       ??_C@_0BA@HDJNPCIH@glEvalCoord1dv?6?$AA@ 004d88bc     renderer:win_qgl.obj
 0002:000118cc       ??_C@_0P@CBDPAPAN@glEvalCoord1f?6?$AA@ 004d88cc     renderer:win_qgl.obj
 0002:000118dc       ??_C@_0BA@NJJEDKAM@glEvalCoord1fv?6?$AA@ 004d88dc     renderer:win_qgl.obj
 0002:000118ec       ??_C@_0P@DAAOHEIN@glEvalCoord2d?6?$AA@ 004d88ec     renderer:win_qgl.obj
 0002:000118fc       ??_C@_0BA@DEDNIIFH@glEvalCoord2dv?6?$AA@ 004d88fc     renderer:win_qgl.obj
 0002:0001190c       ??_C@_0P@DDIKKAOD@glEvalCoord2f?6?$AA@ 004d890c     renderer:win_qgl.obj
 0002:0001191c       ??_C@_0BA@JODEEANM@glEvalCoord2fv?6?$AA@ 004d891c     renderer:win_qgl.obj
 0002:0001192c       ??_C@_0N@NMAEIMBN@glEvalMesh1?6?$AA@ 004d892c     renderer:win_qgl.obj
 0002:0001193c       ??_C@_0N@NOECDCEE@glEvalMesh2?6?$AA@ 004d893c     renderer:win_qgl.obj
 0002:0001194c       ??_C@_0O@HDACINEI@glEvalPoint1?6?$AA@ 004d894c     renderer:win_qgl.obj
 0002:0001195c       ??_C@_0O@HBEEDDBB@glEvalPoint2?6?$AA@ 004d895c     renderer:win_qgl.obj
 0002:0001196c       ??_C@_0BC@LPBOOEHF@glFeedbackBuffer?6?$AA@ 004d896c     renderer:win_qgl.obj
 0002:00011980       ??_C@_09HLIDOBK@glFinish?6?$AA@ 004d8980     renderer:win_qgl.obj
 0002:0001198c       ??_C@_08KMOCPHF@glFlush?6?$AA@ 004d898c     renderer:win_qgl.obj
 0002:00011998       ??_C@_07NOMCDGOK@glFogf?6?$AA@ 004d8998     renderer:win_qgl.obj
 0002:000119a0       ??_C@_08OHAFLAOO@glFogfv?6?$AA@ 004d89a0     renderer:win_qgl.obj
 0002:000119ac       ??_C@_07NFJOHBNH@glFogi?6?$AA@ 004d89ac     renderer:win_qgl.obj
 0002:000119b4       ??_C@_08LPGGKALI@glFogiv?6?$AA@ 004d89b4     renderer:win_qgl.obj
 0002:000119c0       ??_C@_0N@NMLNMEBP@glFrontFace?6?$AA@ 004d89c0     renderer:win_qgl.obj
 0002:000119d0       ??_C@_0L@LMAEODIN@glFrustum?6?$AA@ 004d89d0     renderer:win_qgl.obj
 0002:000119dc       ??_C@_0M@HHPKAAJL@glGenLists?6?$AA@ 004d89dc     renderer:win_qgl.obj
 0002:000119e8       ??_C@_0P@JMFCBDJL@glGenTextures?6?$AA@ 004d89e8     renderer:win_qgl.obj
 0002:000119f8       ??_C@_0P@LIIGLEFN@glGetBooleanv?6?$AA@ 004d89f8     renderer:win_qgl.obj
 0002:00011a08       ??_C@_0BA@IPIJIHMN@glGetClipPlane?6?$AA@ 004d8a08     renderer:win_qgl.obj
 0002:00011a18       ??_C@_0O@ECLHFBEH@glGetDoublev?6?$AA@ 004d8a18     renderer:win_qgl.obj
 0002:00011a28       ??_C@_0M@NNLCAJOK@glGetError?6?$AA@ 004d8a28     renderer:win_qgl.obj
 0002:00011a34       ??_C@_0N@HLHLNAFJ@glGetFloatv?6?$AA@ 004d8a34     renderer:win_qgl.obj
 0002:00011a44       ??_C@_0P@EBNDNMKL@glGetIntegerv?6?$AA@ 004d8a44     renderer:win_qgl.obj
 0002:00011a54       ??_C@_0O@CMPPCHPE@glGetLightfv?6?$AA@ 004d8a54     renderer:win_qgl.obj
 0002:00011a64       ??_C@_0O@HEJMDHKC@glGetLightiv?6?$AA@ 004d8a64     renderer:win_qgl.obj
 0002:00011a74       ??_C@_0M@MBNHELAF@glGetMapdv?6?$AA@ 004d8a74     renderer:win_qgl.obj
 0002:00011a80       ??_C@_0M@GLNOIDIO@glGetMapfv?6?$AA@ 004d8a80     renderer:win_qgl.obj
 0002:00011a8c       ??_C@_0M@DDLNJDNI@glGetMapiv?6?$AA@ 004d8a8c     renderer:win_qgl.obj
 0002:00011a98       ??_C@_0BB@NFOCGLEJ@glGetMaterialfv?6?$AA@ 004d8a98     renderer:win_qgl.obj
 0002:00011aac       ??_C@_0BB@INIBHLBP@glGetMaterialiv?6?$AA@ 004d8aac     renderer:win_qgl.obj
 0002:00011ac0       ??_C@_0BB@BAHJMCIF@glGetPixelMapfv?6?$AA@ 004d8ac0     renderer:win_qgl.obj
 0002:00011ad4       ??_C@_0BC@BFPMNNEI@glGetPixelMapuiv?6?$AA@ 004d8ad4     renderer:win_qgl.obj
 0002:00011ae8       ??_C@_0BC@CKFIGKLD@glGetPixelMapusv?6?$AA@ 004d8ae8     renderer:win_qgl.obj
 0002:00011afc       ??_C@_0P@ONOIGCPP@glGetPointerv?6?$AA@ 004d8afc     renderer:win_qgl.obj
 0002:00011b0c       ??_C@_0BF@EMKGEEI@glGetPolygonStipple?6?$AA@ 004d8b0c     renderer:win_qgl.obj
 0002:00011b24       ??_C@_0N@LGGJBJIH@glGetString?6?$AA@ 004d8b24     renderer:win_qgl.obj
 0002:00011b34       ??_C@_0P@FGPABIKP@glGetTexEnvfv?6?$AA@ 004d8b34     renderer:win_qgl.obj
 0002:00011b44       ??_C@_0P@OJDAIPJ@glGetTexEnviv?6?$AA@ 004d8b44     renderer:win_qgl.obj
 0002:00011b54       ??_C@_0P@FBDBONIN@glGetTexGendv?6?$AA@ 004d8b54     renderer:win_qgl.obj
 0002:00011b64       ??_C@_0P@PLDICFAG@glGetTexGenfv?6?$AA@ 004d8b64     renderer:win_qgl.obj
 0002:00011b74       ??_C@_0P@KDFLDFFA@glGetTexGeniv?6?$AA@ 004d8b74     renderer:win_qgl.obj
 0002:00011b84       ??_C@_0P@GDNIDBKL@glGetTexImage?6?$AA@ 004d8b84     renderer:win_qgl.obj
 0002:00011b94       ??_C@_0BK@OBIOIGJJ@glGetTexLevelParameterfv?6?$AA@ 004d8b94     renderer:win_qgl.obj
 0002:00011bb0       ??_C@_0BK@LJONJGMP@glGetTexLevelParameteriv?6?$AA@ 004d8bb0     renderer:win_qgl.obj
 0002:00011bcc       ??_C@_0BF@IPLIDKOM@glGetTexParameterfv?6?$AA@ 004d8bcc     renderer:win_qgl.obj
 0002:00011be4       ??_C@_0BF@NHNLCKLK@glGetTexParameteriv?6?$AA@ 004d8be4     renderer:win_qgl.obj
 0002:00011bfc       ??_C@_0BG@MNKJGBKM@glHint?$CI?50x?$CFx?0?50x?$CFx?5?$CJ?6?$AA@ 004d8bfc     renderer:win_qgl.obj
 0002:00011c14       ??_C@_0N@FKAIDDBG@glIndexMask?6?$AA@ 004d8c14     renderer:win_qgl.obj
 0002:00011c24       ??_C@_0BA@NOPNNKJG@glIndexPointer?6?$AA@ 004d8c24     renderer:win_qgl.obj
 0002:00011c34       ??_C@_09KBEPKCDK@glIndexd?6?$AA@ 004d8c34     renderer:win_qgl.obj
 0002:00011c40       ??_C@_0L@GBKJOPKO@glIndexdv?6?$AA@ 004d8c40     renderer:win_qgl.obj
 0002:00011c4c       ??_C@_09KCMLHGFE@glIndexf?6?$AA@ 004d8c4c     renderer:win_qgl.obj
 0002:00011c58       ??_C@_0L@MLKACHCF@glIndexfv?6?$AA@ 004d8c58     renderer:win_qgl.obj
 0002:00011c64       ??_C@_09KJJHDBGJ@glIndexi?6?$AA@ 004d8c64     renderer:win_qgl.obj
 0002:00011c70       ??_C@_0L@JDMDDHHD@glIndexiv?6?$AA@ 004d8c70     renderer:win_qgl.obj
 0002:00011c7c       ??_C@_09LICGBHMP@glIndexs?6?$AA@ 004d8c7c     renderer:win_qgl.obj
 0002:00011c88       ??_C@_0L@KMGHIAII@glIndexsv?6?$AA@ 004d8c88     renderer:win_qgl.obj
 0002:00011c94       ??_C@_0L@JCCDNEPI@glIndexub?6?$AA@ 004d8c94     renderer:win_qgl.obj
 0002:00011ca0       ??_C@_0M@BEPACAEE@glIndexubv?6?$AA@ 004d8ca0     renderer:win_qgl.obj
 0002:00011cac       ??_C@_0N@CDMKHFL@glInitNames?6?$AA@ 004d8cac     renderer:win_qgl.obj
 0002:00011cbc       ??_C@_0BF@DPBGJABO@glInterleavedArrays?6?$AA@ 004d8cbc     renderer:win_qgl.obj
 0002:00011cd4       ??_C@_0N@MCLKFGMJ@glIsEnabled?6?$AA@ 004d8cd4     renderer:win_qgl.obj
 0002:00011ce4       ??_C@_09ECGOBBBP@glIsList?6?$AA@ 004d8ce4     renderer:win_qgl.obj
 0002:00011cf0       ??_C@_0N@KCFONENE@glIsTexture?6?$AA@ 004d8cf0     renderer:win_qgl.obj
 0002:00011d00       ??_C@_0P@BJPDMKCI@glLightModelf?6?$AA@ 004d8d00     renderer:win_qgl.obj
 0002:00011d10       ??_C@_0BA@JCKICCIO@glLightModelfv?6?$AA@ 004d8d10     renderer:win_qgl.obj
 0002:00011d20       ??_C@_0P@BCKPINBF@glLightModeli?6?$AA@ 004d8d20     renderer:win_qgl.obj
 0002:00011d30       ??_C@_0BA@MKMLDCNI@glLightModeliv?6?$AA@ 004d8d30     renderer:win_qgl.obj
 0002:00011d40       ??_C@_09BLFOEPBJ@glLightf?6?$AA@ 004d8d40     renderer:win_qgl.obj
 0002:00011d4c       ??_C@_0L@MDHEIPDB@glLightfv?6?$AA@ 004d8d4c     renderer:win_qgl.obj
 0002:00011d58       ??_C@_09BAACAICE@glLighti?6?$AA@ 004d8d58     renderer:win_qgl.obj
 0002:00011d64       ??_C@_0L@JLBHJPGH@glLightiv?6?$AA@ 004d8d64     renderer:win_qgl.obj
 0002:00011d70       ??_C@_0P@LKIDALDN@glLineStipple?6?$AA@ 004d8d70     renderer:win_qgl.obj
 0002:00011d80       ??_C@_0N@KOBEAJHG@glLineWidth?6?$AA@ 004d8d80     renderer:win_qgl.obj
 0002:00011d90       ??_C@_0M@OHCLBBNL@glListBase?6?$AA@ 004d8d90     renderer:win_qgl.obj
 0002:00011d9c       ??_C@_0BA@KAKDDCOF@glLoadIdentity?6?$AA@ 004d8d9c     renderer:win_qgl.obj
 0002:00011dac       ??_C@_0P@IBFFJEIA@glLoadMatrixd?6?$AA@ 004d8dac     renderer:win_qgl.obj
 0002:00011dbc       ??_C@_0P@ICNBEAOO@glLoadMatrixf?6?$AA@ 004d8dbc     renderer:win_qgl.obj
 0002:00011dcc       ??_C@_0M@KHFCCBO@glLoadName?6?$AA@ 004d8dcc     renderer:win_qgl.obj
 0002:00011dd8       ??_C@_0L@MFDAICIH@glLogicOp?6?$AA@ 004d8dd8     renderer:win_qgl.obj
 0002:00011de4       ??_C@_08EELAIOPD@glMap1d?6?$AA@ 004d8de4     renderer:win_qgl.obj
 0002:00011df0       ??_C@_08EHDEFKJN@glMap1f?6?$AA@ 004d8df0     renderer:win_qgl.obj
 0002:00011dfc       ??_C@_08FGAFCBBN@glMap2d?6?$AA@ 004d8dfc     renderer:win_qgl.obj
 0002:00011e08       ??_C@_08FFIBPFHD@glMap2f?6?$AA@ 004d8e08     renderer:win_qgl.obj
 0002:00011e14       ??_C@_0N@JLEJCNNK@glMapGrid1d?6?$AA@ 004d8e14     renderer:win_qgl.obj
 0002:00011e24       ??_C@_0N@JIMNPJLE@glMapGrid1f?6?$AA@ 004d8e24     renderer:win_qgl.obj
 0002:00011e34       ??_C@_0N@IJPMICDE@glMapGrid2d?6?$AA@ 004d8e34     renderer:win_qgl.obj
 0002:00011e44       ??_C@_0N@IKHIFGFK@glMapGrid2f?6?$AA@ 004d8e44     renderer:win_qgl.obj
 0002:00011e54       ??_C@_0N@IPPFJFJM@glMaterialf?6?$AA@ 004d8e54     renderer:win_qgl.obj
 0002:00011e64       ??_C@_0O@FODCFDEE@glMaterialfv?6?$AA@ 004d8e64     renderer:win_qgl.obj
 0002:00011e74       ??_C@_0N@IEKJNCKB@glMateriali?6?$AA@ 004d8e74     renderer:win_qgl.obj
 0002:00011e84       ??_C@_0O@GFBEDBC@glMaterialiv?6?$AA@ 004d8e84     renderer:win_qgl.obj
 0002:00011e94       ??_C@_0O@PFEMKMME@glMatrixMode?6?$AA@ 004d8e94     renderer:win_qgl.obj
 0002:00011ea4       ??_C@_0P@FGNGIEHH@glMultMatrixd?6?$AA@ 004d8ea4     renderer:win_qgl.obj
 0002:00011eb4       ??_C@_0P@FFFCFABJ@glMultMatrixf?6?$AA@ 004d8eb4     renderer:win_qgl.obj
 0002:00011ec4       ??_C@_0L@LNPNEJOG@glNewList?6?$AA@ 004d8ec4     renderer:win_qgl.obj
 0002:00011ed0       ??_C@_0M@EJNLJMHO@glNormal3b?6?$AA@ 004d8ed0     renderer:win_qgl.obj
 0002:00011edc       ??_C@_0N@BAPAPOBJ@glNormal3bv?6?$AA@ 004d8edc     renderer:win_qgl.obj
 0002:00011eec       ??_C@_0M@ENFGOAMM@glNormal3d?6?$AA@ 004d8eec     renderer:win_qgl.obj
 0002:00011ef8       ??_C@_0N@DFJLKBMF@glNormal3dv?6?$AA@ 004d8ef8     renderer:win_qgl.obj
 0002:00011f08       ??_C@_0M@EONCDEKC@glNormal3f?6?$AA@ 004d8f08     renderer:win_qgl.obj
 0002:00011f14       ??_C@_0N@JPJCGJEO@glNormal3fv?6?$AA@ 004d8f14     renderer:win_qgl.obj
 0002:00011f24       ??_C@_0M@EFIOHDJP@glNormal3i?6?$AA@ 004d8f24     renderer:win_qgl.obj
 0002:00011f30       ??_C@_0N@MHPBHJBI@glNormal3iv?6?$AA@ 004d8f30     renderer:win_qgl.obj
 0002:00011f40       ??_C@_0M@FEDPFFDJ@glNormal3s?6?$AA@ 004d8f40     renderer:win_qgl.obj
 0002:00011f4c       ??_C@_0N@PIFFMOOD@glNormal3sv?6?$AA@ 004d8f4c     renderer:win_qgl.obj
 0002:00011f5c       ??_C@_0BB@MKGIKLEH@glNormalPointer?6?$AA@ 004d8f5c     renderer:win_qgl.obj
 0002:00011f70       ??_C@_08BJLNOGOG@glOrtho?6?$AA@ 004d8f70     renderer:win_qgl.obj
 0002:00011f7c       ??_C@_0P@BCPFLAHE@glPassThrough?6?$AA@ 004d8f7c     renderer:win_qgl.obj
 0002:00011f8c       ??_C@_0O@JLKJPKII@glPixelMapfv?6?$AA@ 004d8f8c     renderer:win_qgl.obj
 0002:00011f9c       ??_C@_0P@GLMGHBMN@glPixelMapuiv?6?$AA@ 004d8f9c     renderer:win_qgl.obj
 0002:00011fac       ??_C@_0P@FEGCMGDG@glPixelMapusv?6?$AA@ 004d8fac     renderer:win_qgl.obj
 0002:00011fbc       ??_C@_0P@CBEBJBCL@glPixelStoref?6?$AA@ 004d8fbc     renderer:win_qgl.obj
 0002:00011fcc       ??_C@_0P@CKBNNGBG@glPixelStorei?6?$AA@ 004d8fcc     renderer:win_qgl.obj
 0002:00011fdc       ??_C@_0BC@PCIFIHCI@glPixelTransferf?6?$AA@ 004d8fdc     renderer:win_qgl.obj
 0002:00011ff0       ??_C@_0BC@PJNJMABF@glPixelTransferi?6?$AA@ 004d8ff0     renderer:win_qgl.obj
 0002:00012004       ??_C@_0N@LKLMDEO@glPixelZoom?6?$AA@ 004d9004     renderer:win_qgl.obj
 0002:00012014       ??_C@_0N@HFMOHJLJ@glPointSize?6?$AA@ 004d9014     renderer:win_qgl.obj
 0002:00012024       ??_C@_0BN@GGKAIPLL@glPolygonMode?$CI?50x?$CFx?0?50x?$CFx?5?$CJ?6?$AA@ 004d9024     renderer:win_qgl.obj
 0002:00012044       ??_C@_0BB@JCDHAKOE@glPolygonOffset?6?$AA@ 004d9044     renderer:win_qgl.obj
 0002:00012058       ??_C@_0BC@CHIKJHAK@glPolygonStipple?6?$AA@ 004d9058     renderer:win_qgl.obj
 0002:0001206c       ??_C@_0N@BPIBIAIA@glPopAttrib?6?$AA@ 004d906c     renderer:win_qgl.obj
 0002:0001207c       ??_C@_0BD@ECDMKECN@glPopClientAttrib?6?$AA@ 004d907c     renderer:win_qgl.obj
 0002:00012090       ??_C@_0N@GMHJAAAA@glPopMatrix?6?$AA@ 004d9090     renderer:win_qgl.obj
 0002:000120a0       ??_C@_0L@FNACPBGC@glPopName?6?$AA@ 004d90a0     renderer:win_qgl.obj
 0002:000120ac       ??_C@_0BG@BHACENHH@glPrioritizeTextures?6?$AA@ 004d90ac     renderer:win_qgl.obj
 0002:000120c4       ??_C@_0O@DPFPMJA@glPushAttrib?6?$AA@ 004d90c4     renderer:win_qgl.obj
 0002:000120d4       ??_C@_0BE@IMKJMGKH@glPushClientAttrib?6?$AA@ 004d90d4     renderer:win_qgl.obj
 0002:000120e8       ??_C@_0O@HAANHMBA@glPushMatrix?6?$AA@ 004d90e8     renderer:win_qgl.obj
 0002:000120f8       ??_C@_0M@PHDHNHLF@glPushName?6?$AA@ 004d90f8     renderer:win_qgl.obj
 0002:00012104       ??_C@_0P@NEMPOAMF@glRasterPot2d?6?$AA@ 004d9104     renderer:win_qgl.obj
 0002:00012114       ??_C@_0BA@FBNLLANJ@glRasterPos2dv?6?$AA@ 004d9114     renderer:win_qgl.obj
 0002:00012124       ??_C@_0P@GFGLOILL@glRasterPos2f?6?$AA@ 004d9124     renderer:win_qgl.obj
 0002:00012134       ??_C@_0BA@LPJHMLHE@glRasterPos2if?6?$AA@ 004d9134     renderer:win_qgl.obj
 0002:00012144       ??_C@_0BA@KDLBGIAE@glRasterPos2iv?6?$AA@ 004d9144     renderer:win_qgl.obj
 0002:00012154       ??_C@_0P@HPIGIJCA@glRasterPos2s?6?$AA@ 004d9154     renderer:win_qgl.obj
 0002:00012164       ??_C@_0BA@JMBFNPPP@glRasterPos2sv?6?$AA@ 004d9164     renderer:win_qgl.obj
 0002:00012174       ??_C@_0P@NOFDFLLA@glRasterPos3d?6?$AA@ 004d9174     renderer:win_qgl.obj
 0002:00012184       ??_C@_0BA@GMLLJJGJ@glRasterPos3dv?6?$AA@ 004d9184     renderer:win_qgl.obj
 0002:00012194       ??_C@_0P@NNNHIPNO@glRasterPos3f?6?$AA@ 004d9194     renderer:win_qgl.obj
 0002:000121a4       ??_C@_0BA@MGLCFBOC@glRasterPos3fv?6?$AA@ 004d91a4     renderer:win_qgl.obj
 0002:000121b4       ??_C@_0P@NGILMIOD@glRasterPos3i?6?$AA@ 004d91b4     renderer:win_qgl.obj
 0002:000121c4       ??_C@_0BA@JONBEBLE@glRasterPos3iv?6?$AA@ 004d91c4     renderer:win_qgl.obj
 0002:000121d4       ??_C@_0P@MHDKOOEF@glRasterPos3s?6?$AA@ 004d91d4     renderer:win_qgl.obj
 0002:000121e4       ??_C@_0BA@KBHFPGEP@glRasterPos3sv?6?$AA@ 004d91e4     renderer:win_qgl.obj
 0002:000121f4       ??_C@_0P@EDIEGDAJ@glRasterPos4d?6?$AA@ 004d91f4     renderer:win_qgl.obj
 0002:00012204       ??_C@_0BA@NOJLEFHJ@glRasterPos4dv?6?$AA@ 004d9204     renderer:win_qgl.obj
 0002:00012214       ??_C@_0P@EAAALHGH@glRasterPos4f?6?$AA@ 004d9214     renderer:win_qgl.obj
 0002:00012224       ??_C@_0BA@HEJCINPC@glRasterPos4fv?6?$AA@ 004d9224     renderer:win_qgl.obj
 0002:00012234       ??_C@_0P@ELFMPAFK@glRasterPos4i?6?$AA@ 004d9234     renderer:win_qgl.obj
 0002:00012244       ??_C@_0BA@CMPBJNKE@glRasterPos4iv?6?$AA@ 004d9244     renderer:win_qgl.obj
 0002:00012254       ??_C@_0P@FKONNGPM@glRasterPos4s?6?$AA@ 004d9254     renderer:win_qgl.obj
 0002:00012264       ??_C@_0BA@BDFFCKFP@glRasterPos4sv?6?$AA@ 004d9264     renderer:win_qgl.obj
 0002:00012274       ??_C@_0O@CBCBIGEI@glReadBuffer?6?$AA@ 004d9274     renderer:win_qgl.obj
 0002:00012284       ??_C@_0O@LNHHHKCC@glReadPixels?6?$AA@ 004d9284     renderer:win_qgl.obj
 0002:00012294       ??_C@_08MFDNGFJP@glRectd?6?$AA@ 004d9294     renderer:win_qgl.obj
 0002:000122a0       ??_C@_09MHHBMKAO@glRectdv?6?$AA@ 004d92a0     renderer:win_qgl.obj
 0002:000122ac       ??_C@_08MGLJLBPB@glRectf?6?$AA@ 004d92ac     renderer:win_qgl.obj
 0002:000122b8       ??_C@_09GNHIACIF@glRectfv?6?$AA@ 004d92b8     renderer:win_qgl.obj
 0002:000122c4       ??_C@_08MNOFPGMM@glRecti?6?$AA@ 004d92c4     renderer:win_qgl.obj
 0002:000122d0       ??_C@_09DFBLBCND@glRectiv?6?$AA@ 004d92d0     renderer:win_qgl.obj
 0002:000122dc       ??_C@_08NMFENAGK@glRects?6?$AA@ 004d92dc     renderer:win_qgl.obj
 0002:000122e8       ??_C@_09KLPKFCI@glRectsv?6?$AA@ 004d92e8     renderer:win_qgl.obj
 0002:000122f4       ??_C@_0O@CHJAMNBA@glRenderMode?6?$AA@ 004d92f4     renderer:win_qgl.obj
 0002:00012304       ??_C@_0L@BNDHBADO@glRotated?6?$AA@ 004d9304     renderer:win_qgl.obj
 0002:00012310       ??_C@_0L@BOLDMEFA@glRotatef?6?$AA@ 004d9310     renderer:win_qgl.obj
 0002:0001231c       ??_C@_09NCENJCJJ@glScaled?6?$AA@ 004d931c     renderer:win_qgl.obj
 0002:00012328       ??_C@_09NBMJEGPH@glScalef?6?$AA@ 004d9328     renderer:win_qgl.obj
 0002:00012334       ??_C@_0BN@PMDENLCH@glScissor?$CI?5?$CFd?0?5?$CFd?0?5?$CFd?0?5?$CFd?5?$CJ?6?$AA@ 004d9334     renderer:win_qgl.obj
 0002:00012354       ??_C@_0BA@LPJAJLDO@glSelectBuffer?6?$AA@ 004d9354     renderer:win_qgl.obj
 0002:00012364       ??_C@_0O@FCFIILII@glShadeModel?6?$AA@ 004d9364     renderer:win_qgl.obj
 0002:00012374       ??_C@_0P@EPHCPMAF@glStencilFunc?6?$AA@ 004d9374     renderer:win_qgl.obj
 0002:00012384       ??_C@_0P@BMLFODHO@glStencilMask?6?$AA@ 004d9384     renderer:win_qgl.obj
 0002:00012394       ??_C@_0N@MHDGPGEA@glStencilOp?6?$AA@ 004d9394     renderer:win_qgl.obj
 0002:000123a4       ??_C@_0O@OMKJIGDN@glTexCoord1d?6?$AA@ 004d93a4     renderer:win_qgl.obj
 0002:000123b4       ??_C@_0P@PPIAJMCJ@glTexCoord1dv?6?$AA@ 004d93b4     renderer:win_qgl.obj
 0002:000123c4       ??_C@_0O@OPCNFCFD@glTexCoord1f?6?$AA@ 004d93c4     renderer:win_qgl.obj
 0002:000123d4       ??_C@_0P@FFIJFEKC@glTexCoord1fv?6?$AA@ 004d93d4     renderer:win_qgl.obj
 0002:000123e4       ??_C@_0O@OEHBBFGO@glTexCoord1i?6?$AA@ 004d93e4     renderer:win_qgl.obj
 0002:000123f4       ??_C@_0P@NOKEEPE@glTexCoord1iv?6?$AA@ 004d93f4     renderer:win_qgl.obj
 0002:00012404       ??_C@_0O@PFMADDMI@glTexCoord1s?6?$AA@ 004d9404     renderer:win_qgl.obj
 0002:00012414       ??_C@_0P@DCEOPDAP@glTexCoord1sv?6?$AA@ 004d9414     renderer:win_qgl.obj
 0002:00012424       ??_C@_0O@POBMCJND@glTexCoord2d?6?$AA@ 004d9424     renderer:win_qgl.obj
 0002:00012434       ??_C@_0P@LICAOGPJ@glTexCoord2dv?6?$AA@ 004d9434     renderer:win_qgl.obj
 0002:00012444       ??_C@_0O@PNJIPNLN@glTexCoord2f?6?$AA@ 004d9444     renderer:win_qgl.obj
 0002:00012454       ??_C@_0P@BCCJCOHC@glTexCoord2fv?6?$AA@ 004d9454     renderer:win_qgl.obj
 0002:00012464       ??_C@_0O@PGMELKIA@glTexCoord2i?6?$AA@ 004d9464     renderer:win_qgl.obj
 0002:00012474       ??_C@_0P@EKEKDOCE@glTexCoord2iv?6?$AA@ 004d9474     renderer:win_qgl.obj
 0002:00012484       ??_C@_0O@OHHFJMCG@glTexCoord2s?6?$AA@ 004d9484     renderer:win_qgl.obj
 0002:00012494       ??_C@_0P@HFOOIJNP@glTexCoord2sv?6?$AA@ 004d9494     renderer:win_qgl.obj
 0002:000124a4       ??_C@_0O@EGKAEOLG@glTexCoord3d?6?$AA@ 004d94a4     renderer:win_qgl.obj
 0002:000124b4       ??_C@_0P@IFEAMPEJ@glTexCoord3dv?6?$AA@ 004d94b4     renderer:win_qgl.obj
 0002:000124c4       ??_C@_0O@EFCEJKNI@glTexCoord3f?6?$AA@ 004d94c4     renderer:win_qgl.obj
 0002:000124d4       ??_C@_0P@CPEJAHMC@glTexCoord3fv?6?$AA@ 004d94d4     renderer:win_qgl.obj
 0002:000124e4       ??_C@_0O@EOHINNOF@glTexCoord3i?6?$AA@ 004d94e4     renderer:win_qgl.obj
 0002:000124f4       ??_C@_0P@HHCKBHJE@glTexCoord3iv?6?$AA@ 004d94f4     renderer:win_qgl.obj
 0002:00012504       ??_C@_0O@FPMJPLED@glTexCoord3s?6?$AA@ 004d9504     renderer:win_qgl.obj
 0002:00012514       ??_C@_0P@EIIOKAGP@glTexCoord3sv?6?$AA@ 004d9514     renderer:win_qgl.obj
 0002:00012524       ??_C@_0O@NLHHHGAP@glTexCoord4d?6?$AA@ 004d9524     renderer:win_qgl.obj
 0002:00012534       ??_C@_0P@DHGABDFJ@glTexCoord4dv?6?$AA@ 004d9534     renderer:win_qgl.obj
 0002:00012544       ??_C@_0O@NIPDKCGB@glTexCoord4f?6?$AA@ 004d9544     renderer:win_qgl.obj
 0002:00012554       ??_C@_0P@JNGJNLNC@glTexCoord4fv?6?$AA@ 004d9554     renderer:win_qgl.obj
 0002:00012564       ??_C@_0O@NDKPOFFM@glTexCoord4i?6?$AA@ 004d9564     renderer:win_qgl.obj
 0002:00012574       ??_C@_0P@MFAKMLIE@glTexCoord4iv?6?$AA@ 004d9574     renderer:win_qgl.obj
 0002:00012584       ??_C@_0O@MCBOMDPK@glTexCoord4s?6?$AA@ 004d9584     renderer:win_qgl.obj
 0002:00012594       ??_C@_0P@PKKOHMHP@glTexCoord4sv?6?$AA@ 004d9594     renderer:win_qgl.obj
 0002:000125a4       ??_C@_0CG@PCDFCPLA@glTexCoordPointer?$CI?5?$CFd?0?5?$CFs?0?5?$CFd?0?5M@ 004d95a4     renderer:win_qgl.obj
 0002:000125cc       ??_C@_0BN@OFAECEEA@glTexEnvf?$CI?50x?$CFx?0?50x?$CFx?0?5?$CFf?5?$CJ?6?$AA@ 004d95cc     renderer:win_qgl.obj
 0002:000125ec       ??_C@_0M@LNBBKFDI@glTexEnvfv?6?$AA@ 004d95ec     renderer:win_qgl.obj
 0002:000125f8       ??_C@_0BP@OOICOAPD@glTexEnvi?$CI?50x?$CFx?0?50x?$CFx?0?50x?$CFx?5?$CJ?6?$AA@ 004d95f8     renderer:win_qgl.obj
 0002:00012618       ??_C@_0M@OFHCLFGO@glTexEnviv?6?$AA@ 004d9618     renderer:win_qgl.obj
 0002:00012624       ??_C@_0L@GDDJMABA@glTexGend?6?$AA@ 004d9624     renderer:win_qgl.obj
 0002:00012630       ??_C@_0M@LKNAFABK@glTexGendv?6?$AA@ 004d9630     renderer:win_qgl.obj
 0002:0001263c       ??_C@_0L@GALNBEHO@glTexGenf?6?$AA@ 004d963c     renderer:win_qgl.obj
 0002:00012648       ??_C@_0M@BANJJIJB@glTexGenfv?6?$AA@ 004d9648     renderer:win_qgl.obj
 0002:00012654       ??_C@_0L@GLOBFDED@glTexGeni?6?$AA@ 004d9654     renderer:win_qgl.obj
 0002:00012660       ??_C@_0M@EILKIIMH@glTexGeniv?6?$AA@ 004d9660     renderer:win_qgl.obj
 0002:0001266c       ??_C@_0O@DNKLIMPL@glTexImage1D?6?$AA@ 004d966c     renderer:win_qgl.obj
 0002:0001267c       ??_C@_0O@CPBOCDBF@glTexImage2D?6?$AA@ 004d967c     renderer:win_qgl.obj
 0002:0001268c       ??_C@_0CD@PAPIOALP@glTexParameterf?$CI?50x?$CFx?0?50x?$CFx?0?5?$CFf?5@ 004d968c     renderer:win_qgl.obj
 0002:000126b0       ??_C@_0BC@KMPIMJKO@glTexParameterfv?6?$AA@ 004d96b0     renderer:win_qgl.obj
 0002:000126c4       ??_C@_0CF@OBKPAONE@glTexParameteri?$CI?50x?$CFx?0?50x?$CFx?0?50x?$CF@ 004d96c4     renderer:win_qgl.obj
 0002:000126ec       ??_C@_0BC@PEJLNJPI@glTexParameteriv?6?$AA@ 004d96ec     renderer:win_qgl.obj
 0002:00012700       ??_C@_0BB@JDDMMEFO@glTexSubImage1D?6?$AA@ 004d9700     renderer:win_qgl.obj
 0002:00012714       ??_C@_0BB@IBIJGLLA@glTexSubImage2D?6?$AA@ 004d9714     renderer:win_qgl.obj
 0002:00012728       ??_C@_0O@HIFANJBI@glTranslated?6?$AA@ 004d9728     renderer:win_qgl.obj
 0002:00012738       ??_C@_0O@HLNEANHG@glTranslatef?6?$AA@ 004d9738     renderer:win_qgl.obj
 0002:00012748       ??_C@_0M@KIAKGGGC@glVertex2d?6?$AA@ 004d9748     renderer:win_qgl.obj
 0002:00012754       ??_C@_0N@EBAHDKM@glVertex2dv?6?$AA@ 004d9754     renderer:win_qgl.obj
 0002:00012764       ??_C@_0M@KLIOLCAM@glVertex2f?6?$AA@ 004d9764     renderer:win_qgl.obj
 0002:00012770       ??_C@_0N@KOBJLLCH@glVertex2fv?6?$AA@ 004d9770     renderer:win_qgl.obj
 0002:00012780       ??_C@_0M@KANCPFDB@glVertex2i?6?$AA@ 004d9780     renderer:win_qgl.obj
 0002:0001278c       ??_C@_0N@PGHKKLHB@glVertex2iv?6?$AA@ 004d978c     renderer:win_qgl.obj
 0002:0001279c       ??_C@_0M@LBGDNDJH@glVertex2s?6?$AA@ 004d979c     renderer:win_qgl.obj
 0002:000127a8       ??_C@_0N@MJNOBMIK@glVertex2sv?6?$AA@ 004d97a8     renderer:win_qgl.obj
 0002:000127b8       ??_C@_0M@BALGABAH@glVertex3d?6?$AA@ 004d97b8     renderer:win_qgl.obj
 0002:000127c4       ??_C@_0N@DJHAFKBM@glVertex3dv?6?$AA@ 004d97c4     renderer:win_qgl.obj
 0002:000127d4       ??_C@_0M@BDDCNFGJ@glVertex3f?6?$AA@ 004d97d4     renderer:win_qgl.obj
 0002:000127e0       ??_C@_0N@JDHJJCJH@glVertex3fv?6?$AA@ 004d97e0     renderer:win_qgl.obj
 0002:000127f0       ??_C@_0M@BIGOJCFE@glVertex3i?6?$AA@ 004d97f0     renderer:win_qgl.obj
 0002:000127fc       ??_C@_0N@MLBKICMB@glVertex3iv?6?$AA@ 004d97fc     renderer:win_qgl.obj
 0002:0001280c       ??_C@_0M@JNPLEPC@glVertex3s?6?$AA@ 004d980c     renderer:win_qgl.obj
 0002:00012818       ??_C@_0N@PELODFDK@glVertex3sv?6?$AA@ 004d9818     renderer:win_qgl.obj
 0002:00012828       ??_C@_0M@INGBDJLO@glVertex4d?6?$AA@ 004d9828     renderer:win_qgl.obj
 0002:00012834       ??_C@_0N@ILFAIGAM@glVertex4dv?6?$AA@ 004d9834     renderer:win_qgl.obj
 0002:00012844       ??_C@_0M@IOOFONNA@glVertex4f?6?$AA@ 004d9844     renderer:win_qgl.obj
 0002:00012850       ??_C@_0N@CBFJEOIH@glVertex4fv?6?$AA@ 004d9850     renderer:win_qgl.obj
 0002:00012860       ??_C@_0M@IFLJKKON@glVertex4i?6?$AA@ 004d9860     renderer:win_qgl.obj
 0002:0001286c       ??_C@_0N@HJDKFONB@glVertex4iv?6?$AA@ 004d986c     renderer:win_qgl.obj
 0002:0001287c       ??_C@_0M@JEAIIMEL@glVertex4s?6?$AA@ 004d987c     renderer:win_qgl.obj
 0002:00012888       ??_C@_0N@EGJOOJCK@glVertex4sv?6?$AA@ 004d9888     renderer:win_qgl.obj
 0002:00012898       ??_C@_0CE@FOOALGBI@glVertexPointer?$CI?5?$CFd?0?5?$CFs?0?5?$CFd?0?5MEM@ 004d9898     renderer:win_qgl.obj
 0002:000128bc       ??_C@_0BO@LKDIICAC@glViewport?$CI?5?$CFd?0?5?$CFd?0?5?$CFd?0?5?$CFd?5?$CJ?6?$AA@ 004d98bc     renderer:win_qgl.obj
 0002:000128dc       ??_C@_0BG@MCOGEHEL@?4?4?4shutting?5down?5QGL?6?$AA@ 004d98dc     renderer:win_qgl.obj
 0002:000128f4       ??_C@_0BJ@IIAEBML@?4?4?4unloading?5OpenGL?5DLL?6?$AA@ 004d98f4     renderer:win_qgl.obj
 0002:00012910       ??_C@_07OOGNMJEI@Glide3X?$AA@ 004d9910     renderer:win_qgl.obj
 0002:00012918       ??_C@_0BF@OEJFCMGM@?4?4?4initializing?5QGL?6?$AA@ 004d9918     renderer:win_qgl.obj
 0002:00012930       ??_C@_0EE@CEOMEOHB@?4?4?4WARNING?3?5missing?5Glide?5instal@ 004d9930     renderer:win_qgl.obj
 0002:00012974       ??_C@_0CF@ECPGGODN@?4?4?4calling?5LoadLibrary?$CI?5?8?$CFs?4dll?8@ 004d9974     renderer:win_qgl.obj
 0002:0001299c       ??_C@_07LNIJJMEN@glAccum?$AA@ 004d999c     renderer:win_qgl.obj
 0002:000129a4       ??_C@_0M@BJGLMKCC@glAlphaFunc?$AA@ 004d99a4     renderer:win_qgl.obj
 0002:000129b0       ??_C@_0BG@DHOKJLEP@glAreTexturesResident?$AA@ 004d99b0     renderer:win_qgl.obj
 0002:000129c8       ??_C@_0P@CKCIJELG@glArrayElement?$AA@ 004d99c8     renderer:win_qgl.obj
 0002:000129d8       ??_C@_07FCOIFMD@glBegin?$AA@ 004d99d8     renderer:win_qgl.obj
 0002:000129e0       ??_C@_0O@JKKCIBGC@glBindTexture?$AA@ 004d99e0     renderer:win_qgl.obj
 0002:000129f0       ??_C@_08PJOLDJDK@glBitmap?$AA@ 004d99f0     renderer:win_qgl.obj
 0002:000129fc       ??_C@_0M@PFBKOKOH@glBlendFunc?$AA@ 004d99fc     renderer:win_qgl.obj
 0002:00012a08       ??_C@_0L@CIPLDIDL@glCallList?$AA@ 004d9a08     renderer:win_qgl.obj
 0002:00012a14       ??_C@_0M@LFDBDICJ@glCallLists?$AA@ 004d9a14     renderer:win_qgl.obj
 0002:00012a20       ??_C@_07IBAPPAHJ@glClear?$AA@ 004d9a20     renderer:win_qgl.obj
 0002:00012a28       ??_C@_0N@OKAMEJMG@glClearAccum?$AA@ 004d9a28     renderer:win_qgl.obj
 0002:00012a38       ??_C@_0N@OGLMDNKC@glClearColor?$AA@ 004d9a38     renderer:win_qgl.obj
 0002:00012a48       ??_C@_0N@LJIELNG@glClearDepth?$AA@ 004d9a48     renderer:win_qgl.obj
 0002:00012a58       ??_C@_0N@EIILHCMH@glClearIndex?$AA@ 004d9a58     renderer:win_qgl.obj
 0002:00012a68       ??_C@_0P@KBLPBBFP@glClearStencil?$AA@ 004d9a68     renderer:win_qgl.obj
 0002:00012a78       ??_C@_0M@OHCNGGFF@glClipPlane?$AA@ 004d9a78     renderer:win_qgl.obj
 0002:00012a84       ??_C@_09JLHBBGHE@glColor3b?$AA@ 004d9a84     renderer:win_qgl.obj
 0002:00012a90       ??_C@_0L@COJGBKED@glColor3bv?$AA@ 004d9a90     renderer:win_qgl.obj
 0002:00012a9c       ??_C@_09MNCLLBPC@glColor3d?$AA@ 004d9a9c     renderer:win_qgl.obj
 0002:00012aa8       ??_C@_0L@CKBLGGPB@glColor3dv?$AA@ 004d9aa8     renderer:win_qgl.obj
 0002:00012ab4       ??_C@_09PPBNNDHA@glColor3f?$AA@ 004d9ab4     renderer:win_qgl.obj
 0002:00012ac0       ??_C@_0L@CJJPLCJP@glColor3fv?$AA@ 004d9ac0     renderer:win_qgl.obj
 0002:00012acc       ??_C@_09HIIFMPLP@glColor3i?$AA@ 004d9acc     renderer:win_qgl.obj
 0002:00012ad8       ??_C@_0L@CCMDPFKC@glColor3iv?$AA@ 004d9ad8     renderer:win_qgl.obj
 0002:00012ae4       ??_C@_09MIKIDFGE@glColor3s?$AA@ 004d9ae4     renderer:win_qgl.obj
 0002:00012af0       ??_C@_0L@DDHCNDAE@glColor3sv?$AA@ 004d9af0     renderer:win_qgl.obj
 0002:00012afc       ??_C@_0L@BJFBHIOD@glColor3ub?$AA@ 004d9afc     renderer:win_qgl.obj
 0002:00012b08       ??_C@_0M@EAHPDMMK@glColor3ubv?$AA@ 004d9b08     renderer:win_qgl.obj
 0002:00012b14       ??_C@_0L@PKKFKBCI@glColor3ui?$AA@ 004d9b14     renderer:win_qgl.obj
 0002:00012b20       ??_C@_0M@EMCKNDCL@glColor3uiv?$AA@ 004d9b20     renderer:win_qgl.obj
 0002:00012b2c       ??_C@_0L@EKIIFLPD@glColor3us?$AA@ 004d9b2c     renderer:win_qgl.obj
 0002:00012b38       ??_C@_0M@FNJLPFIN@glColor3usv?$AA@ 004d9b38     renderer:win_qgl.obj
 0002:00012b44       ??_C@_09JODOAAPB@glColor4b?$AA@ 004d9b44     renderer:win_qgl.obj
 0002:00012b50       ??_C@_0L@LDEBCCPK@glColor4bv?$AA@ 004d9b50     renderer:win_qgl.obj
 0002:00012b5c       ??_C@_09MIGEKHHH@glColor4d?$AA@ 004d9b5c     renderer:win_qgl.obj
 0002:00012b68       ??_C@_0L@LHMMFOEI@glColor4dv?$AA@ 004d9b68     renderer:win_qgl.obj
 0002:00012b74       ??_C@_09PKFCMFPF@glColor4f?$AA@ 004d9b74     renderer:win_qgl.obj
 0002:00012b80       ??_C@_0L@LEEIIKCG@glColor4fv?$AA@ 004d9b80     renderer:win_qgl.obj
 0002:00012b8c       ??_C@_09HNMKNJDK@glColor4i?$AA@ 004d9b8c     renderer:win_qgl.obj
 0002:00012b98       ??_C@_0L@LPBEMNBL@glColor4iv?$AA@ 004d9b98     renderer:win_qgl.obj
 0002:00012ba4       ??_C@_09MNOHCDOB@glColor4s?$AA@ 004d9ba4     renderer:win_qgl.obj
 0002:00012bb0       ??_C@_0L@KOKFOLLN@glColor4sv?$AA@ 004d9bb0     renderer:win_qgl.obj
 0002:00012bbc       ??_C@_0L@IEIGEAFK@glColor4ub?$AA@ 004d9bbc     renderer:win_qgl.obj
 0002:00012bc8       ??_C@_0M@PCFPOANK@glColor4ubv?$AA@ 004d9bc8     renderer:win_qgl.obj
 0002:00012bd4       ??_C@_0L@GHHCJJJB@glColor4ui?$AA@ 004d9bd4     renderer:win_qgl.obj
 0002:00012be0       ??_C@_0M@POAKAPDL@glColor4uiv?$AA@ 004d9be0     renderer:win_qgl.obj
 0002:00012bec       ??_C@_0L@NHFPGDEK@glColor4us?$AA@ 004d9bec     renderer:win_qgl.obj
 0002:00012bf8       ??_C@_0M@OPLLCJJN@glColor4usv?$AA@ 004d9bf8     renderer:win_qgl.obj
 0002:00012c04       ??_C@_0M@DLGOAHPH@glColorMask?$AA@ 004d9c04     renderer:win_qgl.obj
 0002:00012c10       ??_C@_0BA@OOEHEGPC@glColorMaterial?$AA@ 004d9c10     renderer:win_qgl.obj
 0002:00012c20       ??_C@_0P@DPKEGLKI@glColorPointer?$AA@ 004d9c20     renderer:win_qgl.obj
 0002:00012c30       ??_C@_0N@OACCOOE@glCopyPixels?$AA@ 004d9c30     renderer:win_qgl.obj
 0002:00012c40       ??_C@_0BB@MEEDBHPL@glCopyTexImage1D?$AA@ 004d9c40     renderer:win_qgl.obj
 0002:00012c54       ??_C@_0BB@MGAFKJKC@glCopyTexImage2D?$AA@ 004d9c54     renderer:win_qgl.obj
 0002:00012c68       ??_C@_0BE@PKNCAIGI@glCopyTexSubImage1D?$AA@ 004d9c68     renderer:win_qgl.obj
 0002:00012c7c       ??_C@_0BE@PIJELGDB@glCopyTexSubImage2D?$AA@ 004d9c7c     renderer:win_qgl.obj
 0002:00012c90       ??_C@_0L@BAPBLHME@glCullFace?$AA@ 004d9c90     renderer:win_qgl.obj
 0002:00012c9c       ??_C@_0O@KPJIJAFM@glDeleteLists?$AA@ 004d9c9c     renderer:win_qgl.obj
 0002:00012cac       ??_C@_0BB@KMPLFJIC@glDeleteTextures?$AA@ 004d9cac     renderer:win_qgl.obj
 0002:00012cc0       ??_C@_0M@NEJABAEP@glDepthFunc?$AA@ 004d9cc0     renderer:win_qgl.obj
 0002:00012ccc       ??_C@_0M@KABMFLLN@glDepthMask?$AA@ 004d9ccc     renderer:win_qgl.obj
 0002:00012cd8       ??_C@_0N@PEBDIKOA@glDepthRange?$AA@ 004d9cd8     renderer:win_qgl.obj
 0002:00012ce8       ??_C@_09MHGMIMKN@glDisable?$AA@ 004d9ce8     renderer:win_qgl.obj
 0002:00012cf4       ??_C@_0BF@LJDHBNBP@glDisableClientState?$AA@ 004d9cf4     renderer:win_qgl.obj
 0002:00012d0c       ??_C@_0N@CMNPPOHA@glDrawArrays?$AA@ 004d9d0c     renderer:win_qgl.obj
 0002:00012d1c       ??_C@_0N@EKCLGPL@glDrawBuffer?$AA@ 004d9d1c     renderer:win_qgl.obj
 0002:00012d2c       ??_C@_0P@MENFIFGE@glDrawElements?$AA@ 004d9d2c     renderer:win_qgl.obj
 0002:00012d3c       ??_C@_0N@FLFIHFDP@glDrawPixels?$AA@ 004d9d3c     renderer:win_qgl.obj
 0002:00012d4c       ??_C@_0L@DFCKJEPI@glEdgeFlag?$AA@ 004d9d4c     renderer:win_qgl.obj
 0002:00012d58       ??_C@_0BC@LILGCNN@glEdgeFlagPointer?$AA@ 004d9d58     renderer:win_qgl.obj
 0002:00012d6c       ??_C@_0M@MKDGIOMK@glEdgeFlagv?$AA@ 004d9d6c     renderer:win_qgl.obj
 0002:00012d78       ??_C@_08OOEHEKOP@glEnable?$AA@ 004d9d78     renderer:win_qgl.obj
 0002:00012d84       ??_C@_0BE@KECPKGNE@glEnableClientState?$AA@ 004d9d84     renderer:win_qgl.obj
 0002:00012d98       ??_C@_05OIBMBLHE@glEnd?$AA@ 004d9d98     renderer:win_qgl.obj
 0002:00012da0       ??_C@_09HKEBCLHH@glEndList?$AA@ 004d9da0     renderer:win_qgl.obj
 0002:00012dac       ??_C@_0O@FJBIDDKI@glEvalCoord1d?$AA@ 004d9dac     renderer:win_qgl.obj
 0002:00012dbc       ??_C@_0P@KBDBONJJ@glEvalCoord1dv?$AA@ 004d9dbc     renderer:win_qgl.obj
 0002:00012dcc       ??_C@_0O@GLCOFBCK@glEvalCoord1f?$AA@ 004d9dcc     renderer:win_qgl.obj
 0002:00012ddc       ??_C@_0P@KCLFDJPH@glEvalCoord1fv?$AA@ 004d9ddc     renderer:win_qgl.obj
 0002:00012dec       ??_C@_0O@FLFOINPB@glEvalCoord2d?$AA@ 004d9dec     renderer:win_qgl.obj
 0002:00012dfc       ??_C@_0P@LDIEECHH@glEvalCoord2dv?$AA@ 004d9dfc     renderer:win_qgl.obj
 0002:00012e0c       ??_C@_0O@GJGIOPHD@glEvalCoord2f?$AA@ 004d9e0c     renderer:win_qgl.obj
 0002:00012e1c       ??_C@_0P@LAAAJGBJ@glEvalCoord2fv?$AA@ 004d9e1c     renderer:win_qgl.obj
 0002:00012e2c       ??_C@_0M@DCFEDLDA@glEvalMesh1?$AA@ 004d9e2c     renderer:win_qgl.obj
 0002:00012e38       ??_C@_0M@BJHJGIPD@glEvalMesh2?$AA@ 004d9e38     renderer:win_qgl.obj
 0002:00012e44       ??_C@_0N@DOEOCCJJ@glEvalPoint1?$AA@ 004d9e44     renderer:win_qgl.obj
 0002:00012e54       ??_C@_0N@BFGDHBFK@glEvalPoint2?$AA@ 004d9e54     renderer:win_qgl.obj
 0002:00012e64       ??_C@_0BB@COFAIKCN@glFeedbackBuffer?$AA@ 004d9e64     renderer:win_qgl.obj
 0002:00012e78       ??_C@_08DFCPOKBK@glFinish?$AA@ 004d9e78     renderer:win_qgl.obj
 0002:00012e84       ??_C@_07COFELLJA@glFlush?$AA@ 004d9e84     renderer:win_qgl.obj
 0002:00012e8c       ??_C@_06JJHNMGPD@glFogf?$AA@ 004d9e8c     renderer:win_qgl.obj
 0002:00012e94       ??_C@_07FNEIAABA@glFogfv?$AA@ 004d9e94     renderer:win_qgl.obj
 0002:00012e9c       ??_C@_06BOOFNKDM@glFogi?$AA@ 004d9e9c     renderer:win_qgl.obj
 0002:00012ea4       ??_C@_07FGBEEHCN@glFogiv?$AA@ 004d9ea4     renderer:win_qgl.obj
 0002:00012eac       ??_C@_0M@ILBMDJDA@glFrontFace?$AA@ 004d9eac     renderer:win_qgl.obj
 0002:00012eb8       ??_C@_09ICLFHOKP@glFrustum?$AA@ 004d9eb8     renderer:win_qgl.obj
 0002:00012ec4       ??_C@_0L@BNOFOEBP@glGenLists?$AA@ 004d9ec4     renderer:win_qgl.obj
 0002:00012ed0       ??_C@_0O@LLMANLNK@glGenTextures?$AA@ 004d9ed0     renderer:win_qgl.obj
 0002:00012ee0       ??_C@_0O@NLMELLCJ@glGetBooleanv?$AA@ 004d9ee0     renderer:win_qgl.obj
 0002:00012ef0       ??_C@_0P@MMMNLMC@glGetClipPlane?$AA@ 004d9ef0     renderer:win_qgl.obj
 0002:00012f00       ??_C@_0N@OFBMMCDH@glGetDoublev?$AA@ 004d9f00     renderer:win_qgl.obj
 0002:00012f10       ??_C@_0L@FPKAMKHB@glGetError?$AA@ 004d9f10     renderer:win_qgl.obj
 0002:00012f1c       ??_C@_0M@CKCOBONE@glGetFloatv?$AA@ 004d9f1c     renderer:win_qgl.obj
 0002:00012f28       ??_C@_0O@DHHDCCLF@glGetIntegerv?$AA@ 004d9f28     renderer:win_qgl.obj
 0002:00012f38       ??_C@_0N@MGGMJGKA@glGetLightfv?$AA@ 004d9f38     renderer:win_qgl.obj
 0002:00012f48       ??_C@_0N@MNDANBJN@glGetLightiv?$AA@ 004d9f48     renderer:win_qgl.obj
 0002:00012f58       ??_C@_0L@FGIDEHCA@glGetMapdv?$AA@ 004d9f58     renderer:win_qgl.obj
 0002:00012f64       ??_C@_0L@FFAHJDEO@glGetMapfv?$AA@ 004d9f64     renderer:win_qgl.obj
 0002:00012f70       ??_C@_0L@FOFLNEHD@glGetMapiv?$AA@ 004d9f70     renderer:win_qgl.obj
 0002:00012f7c       ??_C@_0BA@GCPPEEDM@glGetMaterialfv?$AA@ 004d9f7c     renderer:win_qgl.obj
 0002:00012f8c       ??_C@_0BA@GJKDADAB@glGetMaterialiv?$AA@ 004d9f8c     renderer:win_qgl.obj
 0002:00012f9c       ??_C@_0BA@EDGNDGIE@glGetPixelMapfv?$AA@ 004d9f9c     renderer:win_qgl.obj
 0002:00012fac       ??_C@_0BB@MGCFOIED@glGetPixelMapuiv?$AA@ 004d9fac     renderer:win_qgl.obj
 0002:00012fc0       ??_C@_0BB@NHJEMOOF@glGetPixelMapusv?$AA@ 004d9fc0     renderer:win_qgl.obj
 0002:00012fd4       ??_C@_0O@LADEDGJO@glGetPointerv?$AA@ 004d9fd4     renderer:win_qgl.obj
 0002:00012fe4       ??_C@_0BE@PBJHLEJI@glGetPolygonStipple?$AA@ 004d9fe4     renderer:win_qgl.obj
 0002:00012ff8       ??_C@_0M@OPOBFDCB@glGetString?$AA@ 004d9ff8     renderer:win_qgl.obj
 0002:00013004       ??_C@_0O@KDAJGFCL@glGetTexEnvfv?$AA@ 004da004     renderer:win_qgl.obj
 0002:00013014       ??_C@_0O@KIFFCCBG@glGetTexEnviv?$AA@ 004da014     renderer:win_qgl.obj
 0002:00013024       ??_C@_0O@PDIFOCP@glGetTexGendv?$AA@ 004da024     renderer:win_qgl.obj
 0002:00013034       ??_C@_0O@MLMIKEB@glGetTexGenfv?$AA@ 004da034     renderer:win_qgl.obj
 0002:00013044       ??_C@_0O@HOAMNHM@glGetTexGeniv?$AA@ 004da044     renderer:win_qgl.obj
 0002:00013054       ??_C@_0O@DOIIJLAD@glGetTexImage?$AA@ 004da054     renderer:win_qgl.obj
 0002:00013064       ??_C@_0BE@DNHBPKMC@glGetTexParameterfv?$AA@ 004da064     renderer:win_qgl.obj
 0002:00013078       ??_C@_0BE@DGCNLNPP@glGetTexParameteriv?$AA@ 004da078     renderer:win_qgl.obj
 0002:0001308c       ??_C@_06HEADGMBC@glHint?$AA@ 004da08c     renderer:win_qgl.obj
 0002:00013094       ??_C@_0M@ONDJOEOA@glIndexMask?$AA@ 004da094     renderer:win_qgl.obj
 0002:000130a0       ??_C@_0P@KGJBLKPD@glIndexPointer?$AA@ 004da0a0     renderer:win_qgl.obj
 0002:000130b0       ??_C@_08HOOEKNLP@glIndexd?$AA@ 004da0b0     renderer:win_qgl.obj
 0002:000130bc       ??_C@_09CCMFJEMA@glIndexdv?$AA@ 004da0bc     renderer:win_qgl.obj
 0002:000130c8       ??_C@_08EMNCMPDN@glIndexf?$AA@ 004da0c8     renderer:win_qgl.obj
 0002:000130d4       ??_C@_09CBEBEAKO@glIndexfv?$AA@ 004da0d4     renderer:win_qgl.obj
 0002:000130e0       ??_C@_08MLEKNDPC@glIndexi?$AA@ 004da0e0     renderer:win_qgl.obj
 0002:000130ec       ??_C@_09CKBNAHJD@glIndexiv?$AA@ 004da0ec     renderer:win_qgl.obj
 0002:000130f8       ??_C@_08HLGHCJCJ@glIndexs?$AA@ 004da0f8     renderer:win_qgl.obj
 0002:00013104       ??_C@_09DLKMCBDF@glIndexsv?$AA@ 004da104     renderer:win_qgl.obj
 0002:00013110       ??_C@_09BBIPIKNC@glIndexub?$AA@ 004da110     renderer:win_qgl.obj
 0002:0001311c       ??_C@_0L@BBKJOCAC@glIndexubv?$AA@ 004da11c     renderer:win_qgl.obj
 0002:00013128       ??_C@_0M@LBOBLINN@glInitNames?$AA@ 004da128     renderer:win_qgl.obj
 0002:00013134       ??_C@_0BE@EDEDCKLI@glInterleavedArrays?$AA@ 004da134     renderer:win_qgl.obj
 0002:00013148       ??_C@_0M@INHMIHKC@glIsEnabled?$AA@ 004da148     renderer:win_qgl.obj
 0002:00013154       ??_C@_08DMFMJKDH@glIsList?$AA@ 004da154     renderer:win_qgl.obj
 0002:00013160       ??_C@_0M@NJHAEPDN@glIsTexture?$AA@ 004da160     renderer:win_qgl.obj
 0002:0001316c       ??_C@_0O@HPCJLAII@glLightModelf?$AA@ 004da16c     renderer:win_qgl.obj
 0002:0001317c       ??_C@_0P@JKHJPMNC@glLightModelfv?$AA@ 004da17c     renderer:win_qgl.obj
 0002:0001318c       ??_C@_0O@PILBKMEH@glLightModeli?$AA@ 004da18c     renderer:win_qgl.obj
 0002:0001319c       ??_C@_0P@JBCFLLOP@glLightModeliv?$AA@ 004da19c     renderer:win_qgl.obj
 0002:000131ac       ??_C@_08LPDPILEL@glLightf?$AA@ 004da1ac     renderer:win_qgl.obj
 0002:000131b8       ??_C@_09JINEHJOD@glLightfv?$AA@ 004da1b8     renderer:win_qgl.obj
 0002:000131c4       ??_C@_08DIKHJHIE@glLighti?$AA@ 004da1c4     renderer:win_qgl.obj
 0002:000131d0       ??_C@_09JDIIDONO@glLightiv?$AA@ 004da1d0     renderer:win_qgl.obj
 0002:000131dc       ??_C@_0O@LDOINBOK@glLineStipple?$AA@ 004da1dc     renderer:win_qgl.obj
 0002:000131ec       ??_C@_0M@CFLGNFPG@glLineWidth?$AA@ 004da1ec     renderer:win_qgl.obj
 0002:000131f8       ??_C@_0L@HDOJDFBA@glListBase?$AA@ 004da1f8     renderer:win_qgl.obj
 0002:00013204       ??_C@_0P@EJAFHEPO@glLoadIdentity?$AA@ 004da204     renderer:win_qgl.obj
 0002:00013214       ??_C@_0O@LFHKEMK@glLoadMatrixd?$AA@ 004da214     renderer:win_qgl.obj
 0002:00013224       ??_C@_0O@DJGBMGEI@glLoadMatrixf?$AA@ 004da224     renderer:win_qgl.obj
 0002:00013234       ??_C@_0L@JFFJNAJA@glLoadName?$AA@ 004da234     renderer:win_qgl.obj
 0002:00013240       ??_C@_09GKGMNAKG@glLogicOp?$AA@ 004da240     renderer:win_qgl.obj
 0002:0001324c       ??_C@_07FEHGGJHC@glMap1d?$AA@ 004da24c     renderer:win_qgl.obj
 0002:00013254       ??_C@_07GGEAALPA@glMap1f?$AA@ 004da254     renderer:win_qgl.obj
 0002:0001325c       ??_C@_07FGDANHCL@glMap2d?$AA@ 004da25c     renderer:win_qgl.obj
 0002:00013264       ??_C@_07GEAGLFKJ@glMap2f?$AA@ 004da264     renderer:win_qgl.obj
 0002:0001326c       ??_C@_0M@MNDKIDNO@glMapGrid1d?$AA@ 004da26c     renderer:win_qgl.obj
 0002:00013278       ??_C@_0M@PPAMOBFM@glMapGrid1f?$AA@ 004da278     renderer:win_qgl.obj
 0002:00013284       ??_C@_0M@MPHMDNIH@glMapGrid2d?$AA@ 004da284     renderer:win_qgl.obj
 0002:00013290       ??_C@_0M@PNEKFPAF@glMapGrid2f?$AA@ 004da290     renderer:win_qgl.obj
 0002:0001329c       ??_C@_0M@HANOIKMC@glMaterialf?$AA@ 004da29c     renderer:win_qgl.obj
 0002:000132a8       ??_C@_0N@MHPKDGG@glMaterialfv?$AA@ 004da2a8     renderer:win_qgl.obj
 0002:000132b8       ??_C@_0M@PHEGJGAN@glMateriali?$AA@ 004da2b8     renderer:win_qgl.obj
 0002:000132c4       ??_C@_0N@HCDOEFL@glMaterialiv?$AA@ 004da2c4     renderer:win_qgl.obj
 0002:000132d4       ??_C@_0N@KDLNHKEJ@glMatrixMode?$AA@ 004da2d4     renderer:win_qgl.obj
 0002:000132e4       ??_C@_0O@IFJFLNCL@glMultMatrixd?$AA@ 004da2e4     renderer:win_qgl.obj
 0002:000132f4       ??_C@_0O@LHKDNPKJ@glMultMatrixf?$AA@ 004da2f4     renderer:win_qgl.obj
 0002:00013304       ??_C@_09KAGOBDOO@glNewList?$AA@ 004da304     renderer:win_qgl.obj
 0002:00013310       ??_C@_0L@FCAONKPI@glNormal3b?$AA@ 004da310     renderer:win_qgl.obj
 0002:0001331c       ??_C@_0M@MKFBKKIE@glNormal3bv?$AA@ 004da31c     renderer:win_qgl.obj
 0002:00013328       ??_C@_0L@EFEHNHO@glNormal3d?$AA@ 004da328     renderer:win_qgl.obj
 0002:00013334       ??_C@_0M@MONMNGDG@glNormal3dv?$AA@ 004da334     renderer:win_qgl.obj
 0002:00013340       ??_C@_0L@DGGCBPPM@glNormal3f?$AA@ 004da340     renderer:win_qgl.obj
 0002:0001334c       ??_C@_0M@MNFIACFI@glNormal3fv?$AA@ 004da34c     renderer:win_qgl.obj
 0002:00013358       ??_C@_0L@LBPKADDD@glNormal3i?$AA@ 004da358     renderer:win_qgl.obj
 0002:00013364       ??_C@_0M@MGAEEFGF@glNormal3iv?$AA@ 004da364     renderer:win_qgl.obj
 0002:00013370       ??_C@_0L@BNHPJOI@glNormal3s?$AA@ 004da370     renderer:win_qgl.obj
 0002:0001337c       ??_C@_0M@NHLFGDMD@glNormal3sv?$AA@ 004da37c     renderer:win_qgl.obj
 0002:00013388       ??_C@_0BA@DCLMCEOP@glNormalPointer?$AA@ 004da388     renderer:win_qgl.obj
 0002:00013398       ??_C@_07DBAFHOII@glOrtho?$AA@ 004da398     renderer:win_qgl.obj
 0002:000133a0       ??_C@_0O@KCIMMNEH@glPassThrough?$AA@ 004da3a0     renderer:win_qgl.obj
 0002:000133b0       ??_C@_0N@CNONNBNO@glPixelMapfv?$AA@ 004da3b0     renderer:win_qgl.obj
 0002:000133c0       ??_C@_0O@ENPFNAEO@glPixelMapuiv?$AA@ 004da3c0     renderer:win_qgl.obj
 0002:000133d0       ??_C@_0O@FMEEPGOI@glPixelMapusv?$AA@ 004da3d0     renderer:win_qgl.obj
 0002:000133e0       ??_C@_0O@BFLAHHCK@glPixelStoref?$AA@ 004da3e0     renderer:win_qgl.obj
 0002:000133f0       ??_C@_0O@JCCIGLOF@glPixelStorei?$AA@ 004da3f0     renderer:win_qgl.obj
 0002:00013400       ??_C@_0BB@HFCIPEN@glPixelTransferf?$AA@ 004da400     renderer:win_qgl.obj
 0002:00013414       ??_C@_0BB@IAMKJDIC@glPixelTransferi?$AA@ 004da414     renderer:win_qgl.obj
 0002:00013428       ??_C@_0M@JAMJIGNB@glPixelZoom?$AA@ 004da428     renderer:win_qgl.obj
 0002:00013434       ??_C@_0M@EEAPMMNM@glPointSize?$AA@ 004da434     renderer:win_qgl.obj
 0002:00013440       ??_C@_0O@DKMNBFMB@glPolygonMode?$AA@ 004da440     renderer:win_qgl.obj
 0002:00013450       ??_C@_0BA@FFBJGNC@glPolygonOffset?$AA@ 004da450     renderer:win_qgl.obj
 0002:00013460       ??_C@_0BB@GIADEJGP@glPolygonStipple?$AA@ 004da460     renderer:win_qgl.obj
 0002:00013474       ??_C@_0M@LLNGAHMN@glPopAttrib?$AA@ 004da474     renderer:win_qgl.obj
 0002:00013480       ??_C@_0BC@GOOJKIDH@glPopClientAttrib?$AA@ 004da480     renderer:win_qgl.obj
 0002:00013494       ??_C@_0M@JPEAAEEK@glPopMatrix?$AA@ 004da494     renderer:win_qgl.obj
 0002:000134a0       ??_C@_09IKDPIJOE@glPopName?$AA@ 004da4a0     renderer:win_qgl.obj
 0002:000134ac       ??_C@_0BF@FFCGNNIA@glPrioritizeTextures?$AA@ 004da4ac     renderer:win_qgl.obj
 0002:000134c4       ??_C@_0N@KDMLHFJM@glPushAttrib?$AA@ 004da4c4     renderer:win_qgl.obj
 0002:000134d4       ??_C@_0BD@JKGPLNEA@glPushClientAttrib?$AA@ 004da4d4     renderer:win_qgl.obj
 0002:000134e8       ??_C@_0N@IHFNHGBL@glPushMatrix?$AA@ 004da4e8     renderer:win_qgl.obj
 0002:000134f8       ??_C@_0L@LFFFABIK@glPushName?$AA@ 004da4f8     renderer:win_qgl.obj
 0002:00013504       ??_C@_0O@JNCPGME@glRasterPos2d?$AA@ 004da504     renderer:win_qgl.obj
 0002:00013514       ??_C@_0P@OFGFAKCP@glRasterPos2dv?$AA@ 004da514     renderer:win_qgl.obj
 0002:00013524       ??_C@_0O@DLOEJEEG@glRasterPos2f?$AA@ 004da524     renderer:win_qgl.obj
 0002:00013534       ??_C@_0P@OGOBNOEB@glRasterPos2fv?$AA@ 004da534     renderer:win_qgl.obj
 0002:00013544       ??_C@_0O@LMHMIIIJ@glRasterPos2i?$AA@ 004da544     renderer:win_qgl.obj
 0002:00013554       ??_C@_0P@ONLNJJHM@glRasterPos2iv?$AA@ 004da554     renderer:win_qgl.obj
 0002:00013564       ??_C@_0O@MFBHCFC@glRasterPos2s?$AA@ 004da564     renderer:win_qgl.obj
 0002:00013574       ??_C@_0P@PMAMLPNK@glRasterPos2sv?$AA@ 004da574     renderer:win_qgl.obj
 0002:00013584       ??_C@_0O@IBAJMPD@glRasterPos3d?$AA@ 004da584     renderer:win_qgl.obj
 0002:00013594       ??_C@_0P@FNNJGNEK@glRasterPos3dv?$AA@ 004da594     renderer:win_qgl.obj
 0002:000135a4       ??_C@_0O@DKCGPOHB@glRasterPos3f?$AA@ 004da5a4     renderer:win_qgl.obj
 0002:000135b4       ??_C@_0P@FOFNLJCE@glRasterPos3fv?$AA@ 004da5b4     renderer:win_qgl.obj
 0002:000135c4       ??_C@_0O@LNLOOCLO@glRasterPos3i?$AA@ 004da5c4     renderer:win_qgl.obj
 0002:000135d4       ??_C@_0P@FFABPOBJ@glRasterPos3iv?$AA@ 004da5d4     renderer:win_qgl.obj
 0002:000135e4       ??_C@_0O@NJDBIGF@glRasterPos3s?$AA@ 004da5e4     renderer:win_qgl.obj
 0002:000135f4       ??_C@_0P@EELANILP@glRasterPos3sv?$AA@ 004da5f4     renderer:win_qgl.obj
 0002:00013604       ??_C@_0O@NFPIKHG@glRasterPos4d?$AA@ 004da604     renderer:win_qgl.obj
 0002:00013614       ??_C@_0P@MAAOFFPD@glRasterPos4dv?$AA@ 004da614     renderer:win_qgl.obj
 0002:00013624       ??_C@_0O@DPGJOIPE@glRasterPos4f?$AA@ 004da624     renderer:win_qgl.obj
 0002:00013634       ??_C@_0P@MDIKIBJN@glRasterPos4fv?$AA@ 004da634     renderer:win_qgl.obj
 0002:00013644       ??_C@_0O@LIPBPEDL@glRasterPos4i?$AA@ 004da644     renderer:win_qgl.obj
 0002:00013654       ??_C@_0P@MINGMGKA@glRasterPos4iv?$AA@ 004da654     renderer:win_qgl.obj
 0002:00013664       ??_C@_0O@INMAOOA@glRasterPos4s?$AA@ 004da664     renderer:win_qgl.obj
 0002:00013674       ??_C@_0P@NJGHOAAG@glRasterPos4sv?$AA@ 004da674     renderer:win_qgl.obj
 0002:00013684       ??_C@_0N@HFKHBECK@glReadBuffer?$AA@ 004da684     renderer:win_qgl.obj
 0002:00013694       ??_C@_0N@CKFNNHOO@glReadPixels?$AA@ 004da694     renderer:win_qgl.obj
 0002:000136a4       ??_C@_07GHILMIKG@glRectd?$AA@ 004da6a4     renderer:win_qgl.obj
 0002:000136ac       ??_C@_08EGLHFDGF@glRectdv?$AA@ 004da6ac     renderer:win_qgl.obj
 0002:000136b8       ??_C@_07FFLNKKCE@glRectf?$AA@ 004da6b8     renderer:win_qgl.obj
 0002:000136c0       ??_C@_08EFDDIHAL@glRectfv?$AA@ 004da6c0     renderer:win_qgl.obj
 0002:000136cc       ??_C@_07NCCFLGOL@glRecti?$AA@ 004da6cc     renderer:win_qgl.obj
 0002:000136d4       ??_C@_08EOGPMADG@glRectiv?$AA@ 004da6d4     renderer:win_qgl.obj
 0002:000136e0       ??_C@_07GCAIEMDA@glRects?$AA@ 004da6e0     renderer:win_qgl.obj
 0002:000136e8       ??_C@_08FPNOOGJA@glRectsv?$AA@ 004da6e8     renderer:win_qgl.obj
 0002:000136f4       ??_C@_0N@HCFJFDGP@glRenderMode?$AA@ 004da6f4     renderer:win_qgl.obj
 0002:00013704       ??_C@_09GANFLDAO@glRotated?$AA@ 004da704     renderer:win_qgl.obj
 0002:00013710       ??_C@_09FCODNBIM@glRotatef?$AA@ 004da710     renderer:win_qgl.obj
 0002:0001371c       ??_C@_08KAMCINDI@glScaled?$AA@ 004da71c     renderer:win_qgl.obj
 0002:00013728       ??_C@_08JCPEOPLK@glScalef?$AA@ 004da728     renderer:win_qgl.obj
 0002:00013734       ??_C@_09ECGPAEPL@glScissor?$AA@ 004da734     renderer:win_qgl.obj
 0002:00013740       ??_C@_0P@KACPMBCN@glSelectBuffer?$AA@ 004da740     renderer:win_qgl.obj
 0002:00013750       ??_C@_0N@NALMFHKN@glShadeModel?$AA@ 004da750     renderer:win_qgl.obj
 0002:00013760       ??_C@_0O@ENNLLOLN@glStencilFunc?$AA@ 004da760     renderer:win_qgl.obj
 0002:00013770       ??_C@_0O@DJFHPFEP@glStencilMask?$AA@ 004da770     renderer:win_qgl.obj
 0002:00013780       ??_C@_0M@BILBNGF@glStencilOp?$AA@ 004da780     renderer:win_qgl.obj
 0002:0001378c       ??_C@_0N@CKKBPCNP@glTexCoord1d?$AA@ 004da78c     renderer:win_qgl.obj
 0002:0001379c       ??_C@_0O@GPCDLAMH@glTexCoord1dv?$AA@ 004da79c     renderer:win_qgl.obj
 0002:000137ac       ??_C@_0N@BIJHJAFN@glTexCoord1f?$AA@ 004da7ac     renderer:win_qgl.obj
 0002:000137bc       ??_C@_0O@GMKHGEKJ@glTexCoord1fv?$AA@ 004da7bc     renderer:win_qgl.obj
 0002:000137cc       ??_C@_0N@JPAPIMJC@glTexCoord1i?$AA@ 004da7cc     renderer:win_qgl.obj
 0002:000137dc       ??_C@_0O@GHPLCDJE@glTexCoord1iv?$AA@ 004da7dc     renderer:win_qgl.obj
 0002:000137ec       ??_C@_0N@CPCCHGEJ@glTexCoord1s?$AA@ 004da7ec     renderer:win_qgl.obj
 0002:000137fc       ??_C@_0O@HGEKAFDC@glTexCoord1sv?$AA@ 004da7fc     renderer:win_qgl.obj
 0002:0001380c       ??_C@_0N@CIOHEMIG@glTexCoord2d?$AA@ 004da80c     renderer:win_qgl.obj
 0002:0001381c       ??_C@_0O@HNJGBPCJ@glTexCoord2dv?$AA@ 004da81c     renderer:win_qgl.obj
 0002:0001382c       ??_C@_0N@BKNBCOAE@glTexCoord2f?$AA@ 004da82c     renderer:win_qgl.obj
 0002:0001383c       ??_C@_0O@HOBCMLEH@glTexCoord2fv?$AA@ 004da83c     renderer:win_qgl.obj
 0002:0001384c       ??_C@_0N@JNEJDCML@glTexCoord2i?$AA@ 004da84c     renderer:win_qgl.obj
 0002:0001385c       ??_C@_0O@HFEOIMHK@glTexCoord2iv?$AA@ 004da85c     renderer:win_qgl.obj
 0002:0001386c       ??_C@_0N@CNGEMIBA@glTexCoord2s?$AA@ 004da86c     renderer:win_qgl.obj
 0002:0001387c       ??_C@_0O@GEPPKKNM@glTexCoord2sv?$AA@ 004da87c     renderer:win_qgl.obj
 0002:0001388c       ??_C@_0N@CJCFCGLB@glTexCoord3d?$AA@ 004da88c     renderer:win_qgl.obj
 0002:0001389c       ??_C@_0O@MFCKHIEM@glTexCoord3dv?$AA@ 004da89c     renderer:win_qgl.obj
 0002:000138ac       ??_C@_0N@BLBDEEDD@glTexCoord3f?$AA@ 004da8ac     renderer:win_qgl.obj
 0002:000138bc       ??_C@_0O@MGKOKMCC@glTexCoord3fv?$AA@ 004da8bc     renderer:win_qgl.obj
 0002:000138cc       ??_C@_0N@JMILFIPM@glTexCoord3i?$AA@ 004da8cc     renderer:win_qgl.obj
 0002:000138dc       ??_C@_0O@MNPCOLBP@glTexCoord3iv?$AA@ 004da8dc     renderer:win_qgl.obj
 0002:000138ec       ??_C@_0N@CMKGKCCH@glTexCoord3s?$AA@ 004da8ec     renderer:win_qgl.obj
 0002:000138fc       ??_C@_0O@NMEDMNLJ@glTexCoord3sv?$AA@ 004da8fc     renderer:win_qgl.obj
 0002:0001390c       ??_C@_0N@CMGKDADE@glTexCoord4d?$AA@ 004da90c     renderer:win_qgl.obj
 0002:0001391c       ??_C@_0O@FIPNEAPF@glTexCoord4dv?$AA@ 004da91c     renderer:win_qgl.obj
 0002:0001392c       ??_C@_0N@BOFMFCLG@glTexCoord4f?$AA@ 004da92c     renderer:win_qgl.obj
 0002:0001393c       ??_C@_0O@FLHJJEJL@glTexCoord4fv?$AA@ 004da93c     renderer:win_qgl.obj
 0002:0001394c       ??_C@_0N@JJMEEOHJ@glTexCoord4i?$AA@ 004da94c     renderer:win_qgl.obj
 0002:0001395c       ??_C@_0O@FACFNDKG@glTexCoord4iv?$AA@ 004da95c     renderer:win_qgl.obj
 0002:0001396c       ??_C@_0N@CJOJLEKC@glTexCoord4s?$AA@ 004da96c     renderer:win_qgl.obj
 0002:0001397c       ??_C@_0O@EBJEPFAA@glTexCoord4sv?$AA@ 004da97c     renderer:win_qgl.obj
 0002:0001398c       ??_C@_0BC@DAOMILMO@glTexCoordPointer?$AA@ 004da98c     renderer:win_qgl.obj
 0002:000139a0       ??_C@_09FCLLGECI@glTexEnvf?$AA@ 004da9a0     renderer:win_qgl.obj
 0002:000139ac       ??_C@_0L@EMICMNOO@glTexEnvfv?$AA@ 004da9ac     renderer:win_qgl.obj
 0002:000139b8       ??_C@_09NFCDHIOH@glTexEnvi?$AA@ 004da9b8     renderer:win_qgl.obj
 0002:000139c4       ??_C@_0L@EHNOIKND@glTexEnviv?$AA@ 004da9c4     renderer:win_qgl.obj
 0002:000139d0       ??_C@_09NPHJCAAD@glTexGend?$AA@ 004da9d0     renderer:win_qgl.obj
 0002:000139dc       ??_C@_0L@OALDPGOK@glTexGendv?$AA@ 004da9dc     renderer:win_qgl.obj
 0002:000139e8       ??_C@_09ONEPECIB@glTexGenf?$AA@ 004da9e8     renderer:win_qgl.obj
 0002:000139f4       ??_C@_0L@ODDHCCIE@glTexGenfv?$AA@ 004da9f4     renderer:win_qgl.obj
 0002:00013a00       ??_C@_09GKNHFOEO@glTexGeni?$AA@ 004daa00     renderer:win_qgl.obj
 0002:00013a0c       ??_C@_0L@OIGLGFLJ@glTexGeniv?$AA@ 004daa0c     renderer:win_qgl.obj
 0002:00013a18       ??_C@_0N@JDMMMFHL@glTexImage1D?$AA@ 004daa18     renderer:win_qgl.obj
 0002:00013a28       ??_C@_0N@JBIKHLCC@glTexImage2D?$AA@ 004daa28     renderer:win_qgl.obj
 0002:00013a38       ??_C@_0BA@INKFIMGP@glTexParameterf?$AA@ 004daa38     renderer:win_qgl.obj
 0002:00013a48       ??_C@_0BB@KEOFAHDF@glTexParameterfv?$AA@ 004daa48     renderer:win_qgl.obj
 0002:00013a5c       ??_C@_0BA@KDNJAKA@glTexParameteri?$AA@ 004daa5c     renderer:win_qgl.obj
 0002:00013a6c       ??_C@_0BB@KPLJEAAI@glTexParameteriv?$AA@ 004daa6c     renderer:win_qgl.obj
 0002:00013a80       ??_C@_0BA@NFOOCKJD@glTexSubImage1D?$AA@ 004daa80     renderer:win_qgl.obj
 0002:00013a90       ??_C@_0BA@NHKIJEMK@glTexSubImage2D?$AA@ 004daa90     renderer:win_qgl.obj
 0002:00013aa0       ??_C@_0N@LHMFFDFG@glTranslated?$AA@ 004daaa0     renderer:win_qgl.obj
 0002:00013ab0       ??_C@_0N@IFPDDBNE@glTranslatef?$AA@ 004daab0     renderer:win_qgl.obj
 0002:00013ac0       ??_C@_0L@INGMNOLD@glVertex2d?$AA@ 004daac0     renderer:win_qgl.obj
 0002:00013acc       ??_C@_0M@CLIAFAJI@glVertex2dv?$AA@ 004daacc     renderer:win_qgl.obj
 0002:00013ad8       ??_C@_0L@LPFKLMDB@glVertex2f?$AA@ 004daad8     renderer:win_qgl.obj
 0002:00013ae4       ??_C@_0M@CIAEIEPG@glVertex2fv?$AA@ 004daae4     renderer:win_qgl.obj
 0002:00013af0       ??_C@_0L@DIMCKAPO@glVertex2i?$AA@ 004daaf0     renderer:win_qgl.obj
 0002:00013afc       ??_C@_0M@CDFIMDML@glVertex2iv?$AA@ 004daafc     renderer:win_qgl.obj
 0002:00013b08       ??_C@_0L@IIOPFKCF@glVertex2s?$AA@ 004dab08     renderer:win_qgl.obj
 0002:00013b14       ??_C@_0M@DCOJOFGN@glVertex2sv?$AA@ 004dab14     renderer:win_qgl.obj
 0002:00013b20       ??_C@_0L@IMKOLEIE@glVertex3d?$AA@ 004dab20     renderer:win_qgl.obj
 0002:00013b2c       ??_C@_0M@JDDMDHPN@glVertex3dv?$AA@ 004dab2c     renderer:win_qgl.obj
 0002:00013b38       ??_C@_0L@LOJINGAG@glVertex3f?$AA@ 004dab38     renderer:win_qgl.obj
 0002:00013b44       ??_C@_0M@JALIODJD@glVertex3fv?$AA@ 004dab44     renderer:win_qgl.obj
 0002:00013b50       ??_C@_0L@DJAAMKMJ@glVertex3i?$AA@ 004dab50     renderer:win_qgl.obj
 0002:00013b5c       ??_C@_0M@JLOEKEKO@glVertex3iv?$AA@ 004dab5c     renderer:win_qgl.obj
 0002:00013b68       ??_C@_0L@IJCNDABC@glVertex3s?$AA@ 004dab68     renderer:win_qgl.obj
 0002:00013b74       ??_C@_0M@IKFFICAI@glVertex3sv?$AA@ 004dab74     renderer:win_qgl.obj
 0002:00013b80       ??_C@_0L@IJOBKCAB@glVertex4d?$AA@ 004dab80     renderer:win_qgl.obj
 0002:00013b8c       ??_C@_0M@OOLAPEE@glVertex4dv?$AA@ 004dab8c     renderer:win_qgl.obj
 0002:00013b98       ??_C@_0L@LLNHMAID@glVertex4f?$AA@ 004dab98     renderer:win_qgl.obj
 0002:00013ba4       ??_C@_0M@NGPNLCK@glVertex4fv?$AA@ 004daba4     renderer:win_qgl.obj
 0002:00013bb0       ??_C@_0L@DMEPNMEM@glVertex4i?$AA@ 004dabb0     renderer:win_qgl.obj
 0002:00013bbc       ??_C@_0M@GDDJMBH@glVertex4iv?$AA@ 004dabbc     renderer:win_qgl.obj
 0002:00013bc8       ??_C@_0L@IMGCCGJH@glVertex4s?$AA@ 004dabc8     renderer:win_qgl.obj
 0002:00013bd4       ??_C@_0M@BHICLKLB@glVertex4sv?$AA@ 004dabd4     renderer:win_qgl.obj
 0002:00013be0       ??_C@_0BA@HAHECJNK@glVertexPointer?$AA@ 004dabe0     renderer:win_qgl.obj
 0002:00013bf0       ??_C@_0L@KBLIPDFH@glViewport?$AA@ 004dabf0     renderer:win_qgl.obj
 0002:00013bfc       ??_C@_0P@BPLJMLAG@wglCopyContext?$AA@ 004dabfc     renderer:win_qgl.obj
 0002:00013c0c       ??_C@_0BB@GHMBNOIP@wglCreateContext?$AA@ 004dac0c     renderer:win_qgl.obj
 0002:00013c20       ??_C@_0BG@JIDGNHOC@wglCreateLayerContext?$AA@ 004dac20     renderer:win_qgl.obj
 0002:00013c38       ??_C@_0BB@OGAIJNNO@wglDeleteContext?$AA@ 004dac38     renderer:win_qgl.obj
 0002:00013c4c       ??_C@_0BG@CJLCKGBL@wglDescribeLayerPlane?$AA@ 004dac4c     renderer:win_qgl.obj
 0002:00013c64       ??_C@_0BF@HABDPBMA@wglGetCurrentContext?$AA@ 004dac64     renderer:win_qgl.obj
 0002:00013c7c       ??_C@_0BA@BMKCDCKD@wglGetCurrentDC?$AA@ 004dac7c     renderer:win_qgl.obj
 0002:00013c8c       ??_C@_0BK@ICKNAINE@wglGetLayerPaletteEntries?$AA@ 004dac8c     renderer:win_qgl.obj
 0002:00013ca8       ??_C@_0BC@FFKMKEGM@wglGetProcAddress?$AA@ 004daca8     renderer:win_qgl.obj
 0002:00013cbc       ??_C@_0P@BBBFNDGG@wglMakeCurrent?$AA@ 004dacbc     renderer:win_qgl.obj
 0002:00013ccc       ??_C@_0BH@KGAMHPCJ@wglRealizeLayerPalette?$AA@ 004daccc     renderer:win_qgl.obj
 0002:00013ce4       ??_C@_0BK@IDIDCPAL@wglSetLayerPaletteEntries?$AA@ 004dace4     renderer:win_qgl.obj
 0002:00013d00       ??_C@_0O@GCGJMHDL@wglShareLists?$AA@ 004dad00     renderer:win_qgl.obj
 0002:00013d10       ??_C@_0BE@JEAIHNHB@wglSwapLayerBuffers?$AA@ 004dad10     renderer:win_qgl.obj
 0002:00013d24       ??_C@_0BD@DNLKODH@wglUseFontBitmapsA?$AA@ 004dad24     renderer:win_qgl.obj
 0002:00013d38       ??_C@_0BE@CJLPKDLH@wglUseFontOutlinesA?$AA@ 004dad38     renderer:win_qgl.obj
 0002:00013d4c       ??_C@_0BF@KOEIAGCE@wglChoosePixelFormat?$AA@ 004dad4c     renderer:win_qgl.obj
 0002:00013d64       ??_C@_0BH@EEFLPPJN@wglDescribePixelFormat?$AA@ 004dad64     renderer:win_qgl.obj
 0002:00013d7c       ??_C@_0BC@KLNCGCDP@wglGetPixelFormat?$AA@ 004dad7c     renderer:win_qgl.obj
 0002:00013d90       ??_C@_0BC@GFMMJIBD@wglSetPixelFormat?$AA@ 004dad90     renderer:win_qgl.obj
 0002:00013da4       ??_C@_0P@NIPKMJHJ@wglSwapBuffers?$AA@ 004dada4     renderer:win_qgl.obj
 0002:00013db4       ??_C@_09LGIMFBO@?$CFs?1gl?4log?$AA@ 004dadb4     renderer:win_qgl.obj
 0002:00013dc0       ??_C@_02BKFDOEMK@wt?$AA@   004dadc0     renderer:win_qgl.obj
 0002:00013dc4       ??_C@_0BF@HHBGLCOH@?$CK?$CK?$CK?5CLOSING?5LOG?5?$CK?$CK?$CK?6?$AA@ 004dadc4     renderer:win_qgl.obj
 0002:00013ddc       ??_C@_0CI@MGFPEFGD@WARNING?3?5recursive?5mirror?1portal@ 004daddc     renderer:tr_main.obj
 0002:00013e04       ??_C@_0BP@DEDPBGDJ@Shader?5?8?$CFs?8with?5sort?5?$DN?$DN?5SS_BAD?$AA@ 004dae04     renderer:tr_main.obj
 0002:00013e24       ??_C@_0CD@MFJALMLM@R_AddEntitySurfaces?3?5Bad?5modelty@ 004dae24     renderer:tr_main.obj
 0002:00013e48       ??_C@_0CA@HFCHICEL@R_AddEntitySurfaces?3?5Bad?5reType?$AA@ 004dae48     renderer:tr_main.obj
 0002:00013e68       __real@3b449ba6            004dae68     renderer:tr_main.obj
 0002:00013e6c       __real@4cbebc20            004dae6c     renderer:tr_main.obj
 0002:00013e70       __real@c2800000            004dae70     renderer:tr_main.obj
 0002:00013e74       ??_C@_0BB@JIGCEAGB@glLockArraysEXT?6?$AA@ 004dae74     renderer:tr_shade.obj
 0002:00013e88       ??_C@_0BD@LDKOPICD@glUnlockArraysEXT?6?$AA@ 004dae88     renderer:tr_shade.obj
 0002:00013e9c       ??_C@_0CL@KIMCIKPC@ERROR?3?5unknown?5texmod?5?8?$CFd?8?5in?5sh@ 004dae9c     renderer:tr_shade.obj
 0002:00013ec8       ??_C@_0CH@KLPBLGIL@?9?9?9?5RB_StageIteratorGeneric?$CI?5?$CFs?5@ 004daec8     renderer:tr_shade.obj
 0002:00013ef0       ??_C@_0DJ@BJEEMKDD@?9?9?9?5RB_StageIteratorVertexLitTex@ 004daef0     renderer:tr_shade.obj
 0002:00013f2c       ??_C@_0DH@IFGPEEH@?9?9?9?5RB_StageIteratorLightmappedM@ 004daf2c     renderer:tr_shade.obj
 0002:00013f64       ??_C@_0CJ@GNPNENL@RB_EndSurface?$CI?$CJ?5?9?5SHADER_MAX_IND@ 004daf64     renderer:tr_shade.obj
 0002:00013f90       ??_C@_0CK@MBNGEIEM@RB_EndSurface?$CI?$CJ?5?9?5SHADER_MAX_VER@ 004daf90     renderer:tr_shade.obj
 0002:00013fbc       ??_C@_0M@FAPJFEJO@?9?9?9?9?9?9?9?9?9?9?6?$AA@ 004dafbc     renderer:tr_shade.obj
 0002:00013fc8       __real@44200000            004dafc8     renderer:tr_flares.obj
 0002:00013fd0       __xmm@40f869f000000000c0f869f000000000 004dafd0     renderer:tr_flares.obj
 0002:00013fe0       ??_C@_0CI@FEFGMFPL@RB_CheckOverflow?3?5verts?5?$DO?5MAX?5?$CI?$CF@ 004dafe0     renderer:tr_surface.obj
 0002:00014008       ??_C@_0CK@PCOMEKCP@RB_CheckOverflow?3?5indices?5?$DO?5MAX?5@ 004db008     renderer:tr_surface.obj
 0002:00014034       ??_C@_0BJ@FAJDOIKM@Bad?5surface?5tesselated?4?6?$AA@ 004db034     renderer:tr_surface.obj
 0002:00014050       __real@3f90000000000000    004db050     renderer:tr_surface.obj
 0002:00014058       __real@404e000000000000    004db058     renderer:tr_surface.obj
 0002:00014060       ??_C@_0DP@KHIKMCPB@WARNING?3?5device?5has?5broken?5gamma@ 004db060     renderer:win_gamma.obj
 0002:000140a0       ??_C@_0EF@OOLKDLBP@WARNING?3?5suspicious?5gamma?5tables@ 004db0a0     renderer:win_gamma.obj
 0002:000140e8       ??_C@_0BN@EINPLPO@performing?5W2K?5gamma?5clamp?4?6?$AA@ 004db0e8     renderer:win_gamma.obj
 0002:00014108       ??_C@_0BL@LBLAAGEL@skipping?5W2K?5gamma?5clamp?4?6?$AA@ 004db108     renderer:win_gamma.obj
 0002:00014124       ??_C@_0BM@HCCAHBCJ@SetDeviceGammaRamp?5failed?4?6?$AA@ 004db124     renderer:win_gamma.obj
 0002:00014140       ??_C@_0BJ@COPODLDN@Unexpected?5marker?50x?$CF02x?$AA@ 004db140     renderer:jerror.obj
 0002:0001415c       ??_C@_0CI@GHPOCOCL@?5?5?5?5?5?5?5?5?$CF4u?5?$CF4u?5?$CF4u?5?$CF4u?5?$CF4u?5?$CF4u?5@ 004db15c     renderer:jerror.obj
 0002:00014184       ??_C@_0CD@CNNAOOFA@Quantizing?5to?5?$CFd?5?$DN?5?$CFd?$CK?$CFd?$CK?$CFd?5colo@ 004db184     renderer:jerror.obj
 0002:000141a8       ??_C@_0BI@NEIBNACE@Quantizing?5to?5?$CFd?5colors?$AA@ 004db1a8     renderer:jerror.obj
 0002:000141c0       ??_C@_0CE@FDPBEAOO@Selected?5?$CFd?5colors?5for?5quantizat@ 004db1c0     renderer:jerror.obj
 0002:000141e4       ??_C@_0CF@NIMOLBCP@At?5marker?50x?$CF02x?0?5recovery?5actio@ 004db1e4     renderer:jerror.obj
 0002:0001420c       ??_C@_05LLAPAOG@RST?$CFd?$AA@ 004db20c     renderer:jerror.obj
 0002:00014214       ??_C@_0DJ@PCBCLFML@Smoothing?5not?5supported?5with?5non@ 004db214     renderer:jerror.obj
 0002:00014250       ??_C@_0DK@DMINKOGN@Start?5Of?5Frame?50x?$CF02x?3?5width?$DN?$CFu?0@ 004db250     renderer:jerror.obj
 0002:0001428c       ??_C@_0BP@EDCAMHHE@?5?5?5?5Component?5?$CFd?3?5?$CFdhx?$CFdv?5q?$DN?$CFd?$AA@ 004db28c     renderer:jerror.obj
 0002:000142ac       ??_C@_0P@JLCHJELA@Start?5of?5Image?$AA@ 004db2ac     renderer:jerror.obj
 0002:000142bc       ??_C@_0BN@BLOOHNC@Start?5Of?5Scan?3?5?$CFd?5components?$AA@ 004db2bc     renderer:jerror.obj
 0002:000142dc       ??_C@_0BO@CDEKFGLC@?5?5?5?5Component?5?$CFd?3?5dc?$DN?$CFd?5ac?$DN?$CFd?$AA@ 004db2dc     renderer:jerror.obj
 0002:000142fc       ??_C@_0BN@GAMIJLDC@?5?5Ss?$DN?$CFd?0?5Se?$DN?$CFd?0?5Ah?$DN?$CFd?0?5Al?$DN?$CFd?$AA@ 004db2fc     renderer:jerror.obj
 0002:0001431c       ??_C@_0BJ@KDCGAOJB@Closed?5temporary?5file?5?$CFs?$AA@ 004db31c     renderer:jerror.obj
 0002:00014338       ??_C@_0BJ@GOCABEP@Opened?5temporary?5file?5?$CFs?$AA@ 004db338     renderer:jerror.obj
 0002:00014354       ??_C@_0DE@EEJCDLOO@Unrecognized?5component?5IDs?5?$CFd?5?$CFd@ 004db354     renderer:jerror.obj
 0002:00014388       ??_C@_0BE@FOGGKKAO@Freed?5XMS?5handle?5?$CFu?$AA@ 004db388     renderer:jerror.obj
 0002:0001439c       ??_C@_0BH@LJLGPEFF@Obtained?5XMS?5handle?5?$CFu?$AA@ 004db39c     renderer:jerror.obj
 0002:000143b4       ??_C@_0CG@KEGHCDOM@Unknown?5Adobe?5color?5transform?5co@ 004db3b4     renderer:jerror.obj
 0002:000143e0       ??_C@_0EC@CBCJOINE@Inconsistent?5progression?5sequenc@ 004db3e0     renderer:jerror.obj
 0002:00014424       ??_C@_0DM@PCOGCKJB@Corrupt?5JPEG?5data?3?5?$CFu?5extraneous@ 004db424     renderer:jerror.obj
 0002:00014460       ??_C@_0DB@PGMEPGHN@Corrupt?5JPEG?5data?3?5premature?5end@ 004db460     renderer:jerror.obj
 0002:00014494       ??_C@_0CE@PBLDOPKB@Corrupt?5JPEG?5data?3?5bad?5Huffman?5c@ 004db494     renderer:jerror.obj
 0002:000144b8       ??_C@_0CO@ODCCEDLN@Warning?3?5unknown?5JFIF?5revision?5n@ 004db4b8     renderer:jerror.obj
 0002:000144e8       ??_C@_0BL@DPFPFMLM@Premature?5end?5of?5JPEG?5file?$AA@ 004db4e8     renderer:jerror.obj
 0002:00014504       ??_C@_0DI@NFMBADOH@Corrupt?5JPEG?5data?3?5found?5marker?5@ 004db504     renderer:jerror.obj
 0002:0001453c       ??_C@_0CL@BAKCGOKJ@Invalid?5SOS?5parameters?5for?5seque@ 004db53c     renderer:jerror.obj
 0002:00014568       ??_C@_0CL@OCGBAKPF@Application?5transferred?5too?5many@ 004db568     renderer:jerror.obj
 0002:00014598       _jpeg_std_message_table    004db598     renderer:jerror.obj
 0002:00014774       ??_C@_0BG@MIBALFBH@Bogus?5message?5code?5?$CFd?$AA@ 004db774     renderer:jerror.obj
 0002:0001478c       ??_C@_0DJ@KONAFFHE@Sorry?0?5there?5are?5legal?5restricti@ 004db78c     renderer:jerror.obj
 0002:000147c8       ??_C@_0CA@FDMPGPNI@ALIGN_TYPE?5is?5wrong?0?5please?5fix?$AA@ 004db7c8     renderer:jerror.obj
 0002:000147e8       ??_C@_0CF@DENLILGA@MAX_ALLOC_CHUNK?5is?5wrong?0?5please@ 004db7e8     renderer:jerror.obj
 0002:00014810       ??_C@_0BK@DKALDNKG@Bogus?5buffer?5control?5mode?$AA@ 004db810     renderer:jerror.obj
 0002:0001482c       ??_C@_0BP@ONFLCDHG@Invalid?5component?5ID?5?$CFd?5in?5SOS?$AA@ 004db82c     renderer:jerror.obj
 0002:0001484c       ??_C@_0CI@MBJANLAP@IDCT?5output?5block?5size?5?$CFd?5not?5su@ 004db84c     renderer:jerror.obj
 0002:00014874       ??_C@_0BH@BGDIGLHC@Bogus?5input?5colorspace?$AA@ 004db874     renderer:jerror.obj
 0002:0001488c       ??_C@_0BG@NEGIHEMC@Bogus?5JPEG?5colorspace?$AA@ 004db88c     renderer:jerror.obj
 0002:000148a4       ??_C@_0BE@OGLAEMOG@Bogus?5marker?5length?$AA@ 004db8a4     renderer:jerror.obj
 0002:000148b8       ??_C@_0DA@HLEOHNPA@Sampling?5factors?5too?5large?5for?5i@ 004db8b8     renderer:jerror.obj
 0002:000148e8       ??_C@_0BM@OEMICEFD@Invalid?5memory?5pool?5code?5?$CFd?$AA@ 004db8e8     renderer:jerror.obj
 0002:00014904       ??_C@_0CD@LDBDNLHK@Unsupported?5JPEG?5data?5precision?5@ 004db904     renderer:jerror.obj
 0002:00014928       ??_C@_0DH@LNGGEGOL@Invalid?5progressive?5parameters?5S@ 004db928     renderer:jerror.obj
 0002:00014960       ??_C@_0DH@HIKEGPKP@Invalid?5progressive?5parameters?5a@ 004db960     renderer:jerror.obj
 0002:00014998       ??_C@_0BH@HMMHPOPE@Bogus?5sampling?5factors?$AA@ 004db998     renderer:jerror.obj
 0002:000149b0       ??_C@_0CA@MJDDICLK@Invalid?5scan?5script?5at?5entry?5?$CFd?$AA@ 004db9b0     renderer:jerror.obj
 0002:000149d0       ??_C@_0CK@BAMFIBMM@Improper?5call?5to?5JPEG?5library?5in@ 004db9d0     renderer:jerror.obj
 0002:000149fc       ??_C@_0BL@CBOEEPLK@Bogus?5virtual?5array?5access?$AA@ 004db9fc     renderer:jerror.obj
 0002:00014a18       ??_C@_0CL@JKHIPJLJ@Buffer?5passed?5to?5JPEG?5library?5is@ 004dba18     renderer:jerror.obj
 0002:00014a44       ??_C@_0BM@PKHCPJDH@Suspension?5not?5allowed?5here?$AA@ 004dba44     renderer:jerror.obj
 0002:00014a60       ??_C@_0CF@LAEFHNAH@CCIR601?5sampling?5not?5implemented@ 004dba60     renderer:jerror.obj
 0002:00014a88       ??_C@_0CG@BEBDNOCG@Too?5many?5color?5components?3?5?$CFd?0?5m@ 004dba88     renderer:jerror.obj
 0002:00014ab0       ??_C@_0CF@JDLOPNGO@Unsupported?5color?5conversion?5req@ 004dbab0     renderer:jerror.obj
 0002:00014ad8       ??_C@_0BD@LDBBBMFL@Bogus?5DAC?5index?5?$CFd?$AA@ 004dbad8     renderer:jerror.obj
 0002:00014aec       ??_C@_0BF@CLIOOJFM@Bogus?5DAC?5value?50x?$CFx?$AA@ 004dbaec     renderer:jerror.obj
 0002:00014b04       ??_C@_0BB@GDNEPMHL@Bogus?5DHT?5counts?$AA@ 004dbb04     renderer:jerror.obj
 0002:00014b18       ??_C@_0BD@KJHFPHIC@Bogus?5DHT?5index?5?$CFd?$AA@ 004dbb18     renderer:jerror.obj
 0002:00014b2c       ??_C@_0BD@DIMECAOP@Bogus?5DQT?5index?5?$CFd?$AA@ 004dbb2c     renderer:jerror.obj
 0002:00014b40       ??_C@_0CF@DAGGEAPM@Empty?5JPEG?5image?5?$CIDNL?5not?5suppor@ 004dbb40     renderer:jerror.obj
 0002:00014b68       ??_C@_0BF@CPNENPBA@Read?5from?5EMS?5failed?$AA@ 004dbb68     renderer:jerror.obj
 0002:00014b80       ??_C@_0BE@DGJBKIEB@Write?5to?5EMS?5failed?$AA@ 004dbb80     renderer:jerror.obj
 0002:00014b94       ??_C@_0CB@DMGINPNE@Didn?8t?5expect?5more?5than?5one?5scan@ 004dbb94     renderer:jerror.obj
 0002:00014bb8       ??_C@_0BG@BALCKDNL@Input?5file?5read?5error?$AA@ 004dbbb8     renderer:jerror.obj
 0002:00014bd0       ??_C@_0CP@IDOBLGGD@Output?5file?5write?5error?5?9?9?9?5out?5@ 004dbbd0     renderer:jerror.obj
 0002:00014c00       ??_C@_0CI@EKDDDHFF@Fractional?5sampling?5not?5implemen@ 004dbc00     renderer:jerror.obj
 0002:00014c28       ??_C@_0CB@LLDOGNPJ@Huffman?5code?5size?5table?5overflow@ 004dbc28     renderer:jerror.obj
 0002:00014c4c       ??_C@_0CB@LFBMFPHI@Missing?5Huffman?5code?5table?5entry@ 004dbc4c     renderer:jerror.obj
 0002:00014c70       ??_C@_0CP@EKFPGPNP@Maximum?5supported?5image?5dimensio@ 004dbc70     renderer:jerror.obj
 0002:00014ca0       ??_C@_0BB@JJAIKFBB@Empty?5input?5file?$AA@ 004dbca0     renderer:jerror.obj
 0002:00014cb4       ??_C@_0BM@KEKMMNGA@Premature?5end?5of?5input?5file?$AA@ 004dbcb4     renderer:jerror.obj
 0002:00014cd0       ??_C@_0DO@OPNPKGO@Cannot?5transcode?5due?5to?5multiple@ 004dbcd0     renderer:jerror.obj
 0002:00014d10       ??_C@_0CH@NIBDNILP@Scan?5script?5does?5not?5transmit?5al@ 004dbd10     renderer:jerror.obj
 0002:00014d38       ??_C@_0CH@EFBBPPCK@Invalid?5color?5quantization?5mode?5@ 004dbd38     renderer:jerror.obj
 0002:00014d60       ??_C@_0BE@EOAAHHJ@Not?5implemented?5yet?$AA@ 004dbd60     renderer:jerror.obj
 0002:00014d74       ??_C@_0CO@BEHINNOI@Requested?5feature?5was?5omitted?5at@ 004dbd74     renderer:jerror.obj
 0002:00014da4       ??_C@_0BM@HJHFKLAF@Backing?5store?5not?5supported?$AA@ 004dbda4     renderer:jerror.obj
 0002:00014dc0       ??_C@_0CF@BKANFCCL@Huffman?5table?50x?$CF02x?5was?5not?5def@ 004dbdc0     renderer:jerror.obj
 0002:00014de8       ??_C@_0CC@BKPLBDLJ@JPEG?5datastream?5contains?5no?5imag@ 004dbde8     renderer:jerror.obj
 0002:00014e0c       ??_C@_0CK@CCHKIENB@Quantization?5table?50x?$CF02x?5was?5no@ 004dbe0c     renderer:jerror.obj
 0002:00014e38       ??_C@_0CL@GNLFDFCL@Not?5a?5JPEG?5file?3?5starts?5with?50x?$CF@ 004dbe38     renderer:jerror.obj
 0002:00014e64       ??_C@_0BO@DJPLELIB@Insufficient?5memory?5?$CIcase?5?$CFd?$CJ?$AA@ 004dbe64     renderer:jerror.obj
 0002:00014e84       ??_C@_0CO@HPDBAEEA@Cannot?5quantize?5more?5than?5?$CFd?5col@ 004dbe84     renderer:jerror.obj
 0002:00014eb4       ??_C@_0CI@PLMPLCNO@Cannot?5quantize?5to?5fewer?5than?5?$CFd@ 004dbeb4     renderer:jerror.obj
 0002:00014edc       ??_C@_0CH@NHMNHHIB@Cannot?5quantize?5to?5more?5than?5?$CFd?5@ 004dbedc     renderer:jerror.obj
 0002:00014f04       ??_C@_0CN@IHJJJAFJ@Invalid?5JPEG?5file?5structure?3?5two@ 004dbf04     renderer:jerror.obj
 0002:00014f34       ??_C@_0DA@GJIJGINK@Invalid?5JPEG?5file?5structure?3?5mis@ 004dbf34     renderer:jerror.obj
 0002:00014f64       ??_C@_0CK@HMKECJK@Unsupported?5JPEG?5process?3?5SOF?5ty@ 004dbf64     renderer:jerror.obj
 0002:00014f90       ??_C@_0CN@HGJCMLNE@Invalid?5JPEG?5file?5structure?3?5two@ 004dbf90     renderer:jerror.obj
 0002:00014fc0       ??_C@_0CM@HONLBDPH@Invalid?5JPEG?5file?5structure?3?5SOS@ 004dbfc0     renderer:jerror.obj
 0002:00014fec       ??_C@_0CD@POKNOPOF@Failed?5to?5create?5temporary?5file?5@ 004dbfec     renderer:jerror.obj
 0002:00015010       ??_C@_0BO@EEPJGHHI@Read?5failed?5on?5temporary?5file?$AA@ 004dc010     renderer:jerror.obj
 0002:00015030       ??_C@_0BO@GOBJOAAI@Seek?5failed?5on?5temporary?5file?$AA@ 004dc030     renderer:jerror.obj
 0002:00015050       ??_C@_0DG@KALDLIJB@Write?5failed?5on?5temporary?5file?5?9@ 004dc050     renderer:jerror.obj
 0002:00015088       ??_C@_0CK@EPADOAKC@Application?5transferred?5too?5few?5@ 004dc088     renderer:jerror.obj
 0002:000150b4       ??_C@_0BP@BPKOBOIP@Unsupported?5marker?5type?50x?$CF02x?$AA@ 004dc0b4     renderer:jerror.obj
 0002:000150d4       ??_C@_0CD@GCLFJCHC@Virtual?5array?5controller?5messed?5@ 004dc0d4     renderer:jerror.obj
 0002:000150f8       ??_C@_0CH@LJLHCCHC@Image?5too?5wide?5for?5this?5implemen@ 004dc0f8     renderer:jerror.obj
 0002:00015120       ??_C@_0BF@EKLGFGNM@Read?5from?5XMS?5failed?$AA@ 004dc120     renderer:jerror.obj
 0002:00015138       ??_C@_0BE@FDPDCBIN@Write?5to?5XMS?5failed?$AA@ 004dc138     renderer:jerror.obj
 0002:0001514c       ??_C@_0CD@HPLBEMMI@Copyright?5?$CIC?$CJ?51995?0?5Thomas?5G?4?5La@ 004dc14c     renderer:jerror.obj
 0002:00015170       ??_C@_0M@JNBJJLAI@6?5?52?9Aug?995?$AA@ 004dc170     renderer:jerror.obj
 0002:0001517c       ??_C@_0DO@EGLODMBB@Caution?3?5quantization?5tables?5are@ 004dc17c     renderer:jerror.obj
 0002:000151c0       ??_C@_0EC@EHPKAOHA@Adobe?5APP14?5marker?3?5version?5?$CFd?0?5@ 004dc1c0     renderer:jerror.obj
 0002:00015204       ??_C@_0CK@HCPFFNKJ@Unknown?5APP0?5marker?5?$CInot?5JFIF?$CJ?0?5@ 004dc204     renderer:jerror.obj
 0002:00015230       ??_C@_0CM@CAEPHFAA@Unknown?5APP14?5marker?5?$CInot?5Adobe?$CJ@ 004dc230     renderer:jerror.obj
 0002:0001525c       ??_C@_0CH@KIJGKPAA@Define?5Arithmetic?5Table?50x?$CF02x?3?5@ 004dc25c     renderer:jerror.obj
 0002:00015284       ??_C@_0BM@MDIEILCE@Define?5Huffman?5Table?50x?$CF02x?$AA@ 004dc284     renderer:jerror.obj
 0002:000152a0       ??_C@_0CL@KLDOJIKN@Define?5Quantization?5Table?5?$CFd?5?5pr@ 004dc2a0     renderer:jerror.obj
 0002:000152cc       ??_C@_0BL@EMFIKBEK@Define?5Restart?5Interval?5?$CFu?$AA@ 004dc2cc     renderer:jerror.obj
 0002:000152e8       ??_C@_0BE@IPCOOGDJ@Freed?5EMS?5handle?5?$CFu?$AA@ 004dc2e8     renderer:jerror.obj
 0002:000152fc       ??_C@_0BH@GIPOLIGC@Obtained?5EMS?5handle?5?$CFu?$AA@ 004dc2fc     renderer:jerror.obj
 0002:00015314       ??_C@_0N@HJHFKELG@End?5Of?5Image?$AA@ 004dc314     renderer:jerror.obj
 0002:00015324       ??_C@_0CI@FKGPAJC@?5?5?5?5?5?5?5?5?$CF3d?5?$CF3d?5?$CF3d?5?$CF3d?5?$CF3d?5?$CF3d?5@ 004dc324     renderer:jerror.obj
 0002:0001534c       ??_C@_0CE@MKDBBMLI@JFIF?5APP0?5marker?0?5density?5?$CFdx?$CFd?5@ 004dc34c     renderer:jerror.obj
 0002:00015370       ??_C@_0DM@JLHNPIBE@Warning?3?5thumbnail?5image?5size?5do@ 004dc370     renderer:jerror.obj
 0002:000153ac       ??_C@_0CL@BJMGIDLN@Unknown?5JFIF?5minor?5revision?5numb@ 004dc3ac     renderer:jerror.obj
 0002:000153d8       ??_C@_0CB@BADBMAAB@?5?5?5?5with?5?$CFd?5x?5?$CFd?5thumbnail?5image@ 004dc3d8     renderer:jerror.obj
 0002:000153fc       ??_C@_0CC@KHCAAFMC@Skipping?5marker?50x?$CF02x?0?5length?5?$CF@ 004dc3fc     renderer:jerror.obj
 0002:000157d4       __real@4479c000            004dc7d4     renderer:tr_curve.obj
 0002:000157d8       ??_C@_0BP@OIODLEAK@ClipSkyPolygon?3?5MAX_CLIP_VERTS?$AA@ 004dc7d8     renderer:tr_sky.obj
 0002:000157f8       ??_C@_0DA@DJLPNMLL@SHADER_MAX_VERTEXES?5hit?5in?5FillC@ 004dc7f8     renderer:tr_sky.obj
 0002:00015828       __real@3ffc000000000000    004dc828     renderer:tr_sky.obj
 0002:00015830       __real@45800000            004dc830     renderer:tr_sky.obj
 0002:00015834       __real@4b800000            004dc834     renderer:tr_sky.obj
 0002:00015838       __real@c0800000            004dc838     renderer:tr_sky.obj
 0002:00015840       __xmm@3ff00000000000003ff0000000000000 004dc840     renderer:tr_sky.obj
 0002:00015850       ??_C@_0DP@KCJNMMFJ@TableForFunc?5called?5with?5invalid@ 004dc850     renderer:tr_shade_calc.obj
 0002:00015890       ??_C@_0CK@OKNCJKLI@Autosprite?5shader?5?$CFs?5had?5odd?5ver@ 004dc890     renderer:tr_shade_calc.obj
 0002:000158bc       ??_C@_0CJ@LIFBHBKN@Autosprite?5shader?5?$CFs?5had?5odd?5ind@ 004dc8bc     renderer:tr_shade_calc.obj
 0002:000158e8       ??_C@_0CL@GNGEHAP@Autosprite2?5shader?5?$CFs?5had?5odd?5ve@ 004dc8e8     renderer:tr_shade_calc.obj
 0002:00015914       ??_C@_0CK@NPHOOAGM@Autosprite2?5shader?5?$CFs?5had?5odd?5in@ 004dc914     renderer:tr_shade_calc.obj
 0002:00015940       __real@3f34fdf4            004dc940     renderer:tr_shade_calc.obj
 0002:00015944       __real@3f780000            004dc944     renderer:tr_shade_calc.obj
 0002:00015948       __real@3f7ae148            004dc948     renderer:tr_shade_calc.obj
 0002:00015950       __real@3f80000000000000    004dc950     renderer:tr_shade_calc.obj
 0002:00015958       __real@3fa0000000000000    004dc958     renderer:tr_shade_calc.obj
 0002:00015960       __real@3fee000000000000    004dc960     renderer:tr_shade_calc.obj
 0002:00015968       __real@40360b61            004dc968     renderer:tr_shade_calc.obj
 0002:00015970       __real@4090000000000000    004dc970     renderer:tr_shade_calc.obj
 0002:00015978       __real@4322f983            004dc978     renderer:tr_shade_calc.obj
 0002:0001597c       __real@bf400000            004dc97c     renderer:tr_shade_calc.obj
 0002:00015980       __real@c97423f0            004dc980     renderer:tr_shade_calc.obj
 0002:00015984       ??_C@_0DD@DEGFOKKF@R_AddMD3Surfaces?3?5no?5such?5frame?5@ 004dc984     renderer:tr_mesh.obj
 0002:000159b8       ??_C@_0CO@IEHCNJOK@WARNING?3?5no?5shader?5for?5surface?5?$CF@ 004dc9b8     renderer:tr_mesh.obj
 0002:000159e8       ??_C@_0CJ@IAOLBLPF@WARNING?3?5shader?5?$CFs?5in?5skin?5?$CFs?5no@ 004dc9e8     renderer:tr_mesh.obj
 0002:00015a24       ??_C@_07OOOLPGAB@JPEGMEM?$AA@ 004dca24     renderer:jmemmgr.obj
 0002:00015a2c       ??_C@_05IBIMIMKO@?$CFld?$CFc?$AA@ 004dca2c     renderer:jmemmgr.obj
 0002:00015a40       __xmm@00001d2f00001d2f00001d2f00001d2f 004dca40     renderer:jccolor.obj
 0002:00015a50       __xmm@00004c8b00004c8b00004c8b00004c8b 004dca50     renderer:jccolor.obj
 0002:00015a60       __xmm@00008000000080000000800000008000 004dca60     renderer:jccolor.obj
 0002:00015a70       __xmm@00009646000096460000964600009646 004dca70     renderer:jccolor.obj
 0002:00015a80       __xmm@00807fff00807fff00807fff00807fff 004dca80     renderer:jccolor.obj
 0002:00015a90       __xmm@ffff94d1ffff94d1ffff94d1ffff94d1 004dca90     renderer:jccolor.obj
 0002:00015aa0       __xmm@ffffab33ffffab33ffffab33ffffab33 004dcaa0     renderer:jccolor.obj
 0002:00015ab0       __xmm@ffffd4cdffffd4cdffffd4cdffffd4cd 004dcab0     renderer:jccolor.obj
 0002:00015ac0       __xmm@ffffeb2fffffeb2fffffeb2fffffeb2f 004dcac0     renderer:jccolor.obj
 0002:00015b10       __real@3fd1a855de72ab5d    004dcb10     renderer:jcdctmgr.obj
 0002:00015b18       __real@3fe1517a7bc720bb    004dcb18     renderer:jcdctmgr.obj
 0002:00015b20       __real@3fe92469c0a7bf3b    004dcb20     renderer:jcdctmgr.obj
 0002:00015b28       __real@3ff2d062ef6c11aa    004dcb28     renderer:jcdctmgr.obj
 0002:00015b30       __real@3ff4e7ae914d6fca    004dcb30     renderer:jcdctmgr.obj
 0002:00015b38       __real@3ff63150b14861ef    004dcb38     renderer:jcdctmgr.obj
 0002:00015b40       __real@46800100            004dcb40     renderer:jcdctmgr.obj
 0002:00015b50       __xmm@40004000400040004000400040004000 004dcb50     renderer:jcdctmgr.obj
 0002:00015b60       __xmm@46800100468001004680010046800100 004dcb60     renderer:jcdctmgr.obj
 0002:00015b70       _jpeg_zigzag_order         004dcb70     renderer:jutils.obj
 0002:00015c70       _jpeg_natural_order        004dcc70     renderer:jutils.obj
 0002:00015e70       __real@3ec3ef15            004dce70     renderer:jfdctflt.obj
 0002:00015e74       __real@3f0a8bd4            004dce74     renderer:jfdctflt.obj
 0002:00015e78       __real@3f3504f3            004dce78     renderer:jfdctflt.obj
 0002:00015e7c       __real@3fa73d75            004dce7c     renderer:jfdctflt.obj
 0002:00015e80       __real@3f8a8bd4            004dce80     renderer:jidctflt.obj
 0002:00015e84       __real@3fb504f3            004dce84     renderer:jidctflt.obj
 0002:00015e88       __real@3fec835e            004dce88     renderer:jidctflt.obj
 0002:00015e8c       __real@40273d75            004dce8c     renderer:jidctflt.obj
 0002:00017080       __FPinit                   004de080     LIBCMT:fpinit.obj
 0002:00018940       ??_C@_1BI@BGOHAHKC@?$AAm?$AAs?$AAc?$AAo?$AAr?$AAe?$AAe?$AA?4?$AAd?$AAl?$AAl?$AA?$AA@ 004df940     LIBCMT:crt0dat.obj
 0002:00018958       ??_C@_0P@MIGLKIOC@CorExitProcess?$AA@ 004df958     LIBCMT:crt0dat.obj
 0002:0001d950       __OP_ATAN2jmptab           004e4950     LIBCMT:87triga.obj
 0002:0001da38       ??_C@_05HGHHAHAP@log10?$AA@ 004e4a38     LIBCMT:libm_error.obj
 0002:0001da40       ??_C@_03KHJOGHMM@exp?$AA@  004e4a40     LIBCMT:libm_error.obj
 0002:0001da44       ??_C@_03JGHBODFD@pow?$AA@  004e4a44     LIBCMT:libm_error.obj
 0002:0001da48       ??_C@_04FIHNOPOL@asin?$AA@ 004e4a48     LIBCMT:libm_error.obj
 0002:0001da50       ??_C@_04PDIFKINK@acos?$AA@ 004e4a50     LIBCMT:libm_error.obj
 0002:0001da58       ??_C@_05EOHGHCHD@exp10?$AA@ 004e4a58     LIBCMT:libm_error.obj
 0002:0001da60       ??_C@_04MLLJIGOK@atan?$AA@ 004e4a60     LIBCMT:libm_error.obj
 0002:0001da68       ??_C@_04GFPJNGEK@ceil?$AA@ 004e4a68     LIBCMT:libm_error.obj
 0002:0001da70       ??_C@_05PBJFFIGL@floor?$AA@ 004e4a70     LIBCMT:libm_error.obj
 0002:0001da78       ??_C@_04EHEDPDJG@modf?$AA@ 004e4a78     LIBCMT:libm_error.obj
 0002:0001da80       ??_C@_03LALBNOCG@cos?$AA@  004e4a80     LIBCMT:libm_error.obj
 0002:0001da84       ??_C@_03IIINPABG@tan?$AA@  004e4a84     LIBCMT:libm_error.obj
 0002:0001da88       ??_C@_04EIAKFFMI@sqrt?$AA@ 004e4a88     LIBCMT:libm_error.obj
 0002:0001da90       ??_C@_05KLBDPFGC@e?$CL000?$AA@ 004e4a90     LIBCMT:cvt.obj
 0002:0001da98       ??_C@_04COOMCNPB@sinh?$AA@ 004e4a98     LIBCMT:fpexcept.obj
 0002:0001daa0       ??_C@_04HPJJNFIM@cosh?$AA@ 004e4aa0     LIBCMT:fpexcept.obj
 0002:0001daa8       ??_C@_04FJHINJAO@tanh?$AA@ 004e4aa8     LIBCMT:fpexcept.obj
 0002:0001dab0       ??_C@_05KNGEOGJB@atan2?$AA@ 004e4ab0     LIBCMT:fpexcept.obj
 0002:0001dab8       ??_C@_04ODHECPBC@fabs?$AA@ 004e4ab8     LIBCMT:fpexcept.obj
 0002:0001dac0       ??_C@_05CEJMAHNP@ldexp?$AA@ 004e4ac0     LIBCMT:fpexcept.obj
 0002:0001dac8       ??_C@_05KBKMEMPO@_cabs?$AA@ 004e4ac8     LIBCMT:fpexcept.obj
 0002:0001dad0       ??_C@_06MEIMCGCF@_hypot?$AA@ 004e4ad0     LIBCMT:fpexcept.obj
 0002:0001dad8       ??_C@_04KEPJIHGP@fmod?$AA@ 004e4ad8     LIBCMT:fpexcept.obj
 0002:0001dae0       ??_C@_05GKKHEGJL@frexp?$AA@ 004e4ae0     LIBCMT:fpexcept.obj
 0002:0001dae8       ??_C@_03MJLDFKDL@_y0?$AA@  004e4ae8     LIBCMT:fpexcept.obj
 0002:0001daec       ??_C@_03NAKIGLHK@_y1?$AA@  004e4aec     LIBCMT:fpexcept.obj
 0002:0001daf0       ??_C@_03ONILCKOB@_yn?$AA@  004e4af0     LIBCMT:fpexcept.obj
 0002:0001daf4       ??_C@_05JGDBENOH@_logb?$AA@ 004e4af4     LIBCMT:fpexcept.obj
 0002:0001dafc       ??_C@_0L@KDOEJCKC@_nextafter?$AA@ 004e4afc     LIBCMT:fpexcept.obj
 0002:0001db08       ??_C@_1BK@MGMFAEKH@?$AAk?$AAe?$AAr?$AAn?$AAe?$AAl?$AA3?$AA2?$AA?4?$AAd?$AAl?$AAl?$AA?$AA@ 004e4b08     LIBCMT:winapisupp.obj
 0002:0001db24       ??_C@_08KNHFBNJ@FlsAlloc?$AA@ 004e4b24     LIBCMT:winapisupp.obj
 0002:0001db30       ??_C@_07PEJMOBNF@FlsFree?$AA@ 004e4b30     LIBCMT:winapisupp.obj
 0002:0001db38       ??_C@_0M@GDNOONDI@FlsGetValue?$AA@ 004e4b38     LIBCMT:winapisupp.obj
 0002:0001db44       ??_C@_0M@JCPCPOEF@FlsSetValue?$AA@ 004e4b44     LIBCMT:winapisupp.obj
 0002:0001db50       ??_C@_0BM@HCFOFFN@InitializeCriticalSectionEx?$AA@ 004e4b50     LIBCMT:winapisupp.obj
 0002:0001db6c       ??_C@_0P@DLHPPCNH@CreateEventExW?$AA@ 004e4b6c     LIBCMT:winapisupp.obj
 0002:0001db7c       ??_C@_0BD@KIEEOEEH@CreateSemaphoreExW?$AA@ 004e4b7c     LIBCMT:winapisupp.obj
 0002:0001db90       ??_C@_0BI@BKLFFAPO@SetThreadStackGuarantee?$AA@ 004e4b90     LIBCMT:winapisupp.obj
 0002:0001dba8       ??_C@_0BG@OGFAJCKC@CreateThreadpoolTimer?$AA@ 004e4ba8     LIBCMT:winapisupp.obj
 0002:0001dbc0       ??_C@_0BD@LPLEMMDI@SetThreadpoolTimer?$AA@ 004e4bc0     LIBCMT:winapisupp.obj
 0002:0001dbd4       ??_C@_0CA@FMNJENH@WaitForThreadpoolTimerCallbacks?$AA@ 004e4bd4     LIBCMT:winapisupp.obj
 0002:0001dbf4       ??_C@_0BF@DCFCCNOC@CloseThreadpoolTimer?$AA@ 004e4bf4     LIBCMT:winapisupp.obj
 0002:0001dc0c       ??_C@_0BF@FLABGKKM@CreateThreadpoolWait?$AA@ 004e4c0c     LIBCMT:winapisupp.obj
 0002:0001dc24       ??_C@_0BC@MGCOHNA@SetThreadpoolWait?$AA@ 004e4c24     LIBCMT:winapisupp.obj
 0002:0001dc38       ??_C@_0BE@OCIOMIMP@CloseThreadpoolWait?$AA@ 004e4c38     LIBCMT:winapisupp.obj
 0002:0001dc4c       ??_C@_0BJ@LKGHFHBO@FlushProcessWriteBuffers?$AA@ 004e4c4c     LIBCMT:winapisupp.obj
 0002:0001dc68       ??_C@_0BP@KALKKPMO@FreeLibraryWhenCallbackReturns?$AA@ 004e4c68     LIBCMT:winapisupp.obj
 0002:0001dc88       ??_C@_0BK@DFNBACLA@GetCurrentProcessorNumber?$AA@ 004e4c88     LIBCMT:winapisupp.obj
 0002:0001dca4       ??_C@_0BP@KHGALBC@GetLogicalProcessorInformation?$AA@ 004e4ca4     LIBCMT:winapisupp.obj
 0002:0001dcc4       ??_C@_0BE@FKKLLFLM@CreateSymbolicLinkW?$AA@ 004e4cc4     LIBCMT:winapisupp.obj
 0002:0001dcd8       ??_C@_0BJ@OHNKDLIJ@SetDefaultDllDirectories?$AA@ 004e4cd8     LIBCMT:winapisupp.obj
 0002:0001dcf4       ??_C@_0BE@LJANKFHF@EnumSystemLocalesEx?$AA@ 004e4cf4     LIBCMT:winapisupp.obj
 0002:0001dd08       ??_C@_0BA@IHGNDAEB@CompareStringEx?$AA@ 004e4d08     LIBCMT:winapisupp.obj
 0002:0001dd18       ??_C@_0BA@EPCJIIPD@GetDateFormatEx?$AA@ 004e4d18     LIBCMT:winapisupp.obj
 0002:0001dd28       ??_C@_0BA@ONOKGCMP@GetLocaleInfoEx?$AA@ 004e4d28     LIBCMT:winapisupp.obj
 0002:0001dd38       ??_C@_0BA@CIJJKCJJ@GetTimeFormatEx?$AA@ 004e4d38     LIBCMT:winapisupp.obj
 0002:0001dd48       ??_C@_0BJ@PBCCBIPI@GetUserDefaultLocaleName?$AA@ 004e4d48     LIBCMT:winapisupp.obj
 0002:0001dd64       ??_C@_0BC@CELBKLLA@IsValidLocaleName?$AA@ 004e4d64     LIBCMT:winapisupp.obj
 0002:0001dd78       ??_C@_0O@KKBNKAPF@LCMapStringEx?$AA@ 004e4d78     LIBCMT:winapisupp.obj
 0002:0001dd88       ??_C@_0BE@JOGNEJCI@GetCurrentPackageId?$AA@ 004e4d88     LIBCMT:winapisupp.obj
 0002:0001dd9c       ??_C@_0P@CDHHOHKP@GetTickCount64?$AA@ 004e4d9c     LIBCMT:winapisupp.obj
 0002:0001ddac       ??_C@_0BO@KPCLFDJJ@GetFileInformationByHandleExW?$AA@ 004e4dac     LIBCMT:winapisupp.obj
 0002:0001ddcc       ??_C@_0BM@MHIDLABK@SetFileInformationByHandleW?$AA@ 004e4dcc     LIBCMT:winapisupp.obj
 0002:0001ddf8       ??_C@_1M@HPNHIDJI@?$AAj?$AAa?$AA?9?$AAJ?$AAP?$AA?$AA@ 004e4df8     LIBCMT:mbctype.obj
 0002:0001de04       ??_C@_1M@BIBDDEMK@?$AAz?$AAh?$AA?9?$AAC?$AAN?$AA?$AA@ 004e4e04     LIBCMT:mbctype.obj
 0002:0001de10       ??_C@_1M@JLOOOEGK@?$AAk?$AAo?$AA?9?$AAK?$AAR?$AA?$AA@ 004e4e10     LIBCMT:mbctype.obj
 0002:0001de1c       ??_C@_1M@CLNBBOPM@?$AAz?$AAh?$AA?9?$AAT?$AAW?$AA?$AA@ 004e4e1c     LIBCMT:mbctype.obj
 0002:0001de28       ??_C@_03KOEHGMDN@Sun?$AA@  004e4e28     LIBCMT:nlsdata.obj
 0002:0001de2c       ??_C@_03PDAGKDH@Mon?$AA@   004e4e2c     LIBCMT:nlsdata.obj
 0002:0001de30       ??_C@_03NAGEINEP@Tue?$AA@  004e4e30     LIBCMT:nlsdata.obj
 0002:0001de34       ??_C@_03MHOMLAJA@Wed?$AA@  004e4e34     LIBCMT:nlsdata.obj
 0002:0001de38       ??_C@_03IOFIKPDN@Thu?$AA@  004e4e38     LIBCMT:nlsdata.obj
 0002:0001de3c       ??_C@_03IDIOELNC@Fri?$AA@  004e4e3c     LIBCMT:nlsdata.obj
 0002:0001de40       ??_C@_03FEFJNEK@Sat?$AA@   004e4e40     LIBCMT:nlsdata.obj
 0002:0001de44       ??_C@_06OOPIFAJ@Sunday?$AA@ 004e4e44     LIBCMT:nlsdata.obj
 0002:0001de4c       ??_C@_06JLEDEDGH@Monday?$AA@ 004e4e4c     LIBCMT:nlsdata.obj
 0002:0001de54       ??_C@_07BAAGCFCM@Tuesday?$AA@ 004e4e54     LIBCMT:nlsdata.obj
 0002:0001de5c       ??_C@_09DLIGFAKA@Wednesday?$AA@ 004e4e5c     LIBCMT:nlsdata.obj
 0002:0001de68       ??_C@_08HACCIKIA@Thursday?$AA@ 004e4e68     LIBCMT:nlsdata.obj
 0002:0001de74       ??_C@_06JECMNKMI@Friday?$AA@ 004e4e74     LIBCMT:nlsdata.obj
 0002:0001de7c       ??_C@_08INBOOONO@Saturday?$AA@ 004e4e7c     LIBCMT:nlsdata.obj
 0002:0001de88       ??_C@_03JIHJHPIE@Jan?$AA@  004e4e88     LIBCMT:nlsdata.obj
 0002:0001de8c       ??_C@_03HJBDCHOM@Feb?$AA@  004e4e8c     LIBCMT:nlsdata.obj
 0002:0001de90       ??_C@_03ODNJBKGA@Mar?$AA@  004e4e90     LIBCMT:nlsdata.obj
 0002:0001de94       ??_C@_03LEOLGMJP@Apr?$AA@  004e4e94     LIBCMT:nlsdata.obj
 0002:0001de98       ??_C@_03CNMDKL@May?$AA@    004e4e98     LIBCMT:nlsdata.obj
 0002:0001de9c       ??_C@_03IDFGHECI@Jun?$AA@  004e4e9c     LIBCMT:nlsdata.obj
 0002:0001dea0       ??_C@_03LBGABGKK@Jul?$AA@  004e4ea0     LIBCMT:nlsdata.obj
 0002:0001dea4       ??_C@_03IFJFEIGA@Aug?$AA@  004e4ea4     LIBCMT:nlsdata.obj
 0002:0001dea8       ??_C@_03GGCAPAJC@Sep?$AA@  004e4ea8     LIBCMT:nlsdata.obj
 0002:0001deac       ??_C@_03BMAOKBAD@Oct?$AA@  004e4eac     LIBCMT:nlsdata.obj
 0002:0001deb0       ??_C@_03JPJOFNIA@Nov?$AA@  004e4eb0     LIBCMT:nlsdata.obj
 0002:0001deb4       ??_C@_03MKABNOCG@Dec?$AA@  004e4eb4     LIBCMT:nlsdata.obj
 0002:0001deb8       ??_C@_07CGJPFGJA@January?$AA@ 004e4eb8     LIBCMT:nlsdata.obj
 0002:0001dec0       ??_C@_08GNJGEPFN@February?$AA@ 004e4ec0     LIBCMT:nlsdata.obj
 0002:0001decc       ??_C@_05HPCKOFNC@March?$AA@ 004e4ecc     LIBCMT:nlsdata.obj
 0002:0001ded4       ??_C@_05DMJDNLEJ@April?$AA@ 004e4ed4     LIBCMT:nlsdata.obj
 0002:0001dedc       ??_C@_04CNLMGBGM@June?$AA@ 004e4edc     LIBCMT:nlsdata.obj
 0002:0001dee4       ??_C@_04MIEPOIFP@July?$AA@ 004e4ee4     LIBCMT:nlsdata.obj
 0002:0001deec       ??_C@_06LBBHFDDG@August?$AA@ 004e4eec     LIBCMT:nlsdata.obj
 0002:0001def4       ??_C@_09BHHEALKD@September?$AA@ 004e4ef4     LIBCMT:nlsdata.obj
 0002:0001df00       ??_C@_07JJNFCEND@October?$AA@ 004e4f00     LIBCMT:nlsdata.obj
 0002:0001df08       ??_C@_08HCHEGEOA@November?$AA@ 004e4f08     LIBCMT:nlsdata.obj
 0002:0001df14       ??_C@_08EDHMEBNP@December?$AA@ 004e4f14     LIBCMT:nlsdata.obj
 0002:0001df20       ??_C@_02DEDBPAFC@AM?$AA@   004e4f20     LIBCMT:nlsdata.obj
 0002:0001df24       ??_C@_02CJNFDJBF@PM?$AA@   004e4f24     LIBCMT:nlsdata.obj
 0002:0001df28       ??_C@_08BPBNCDIB@MM?1dd?1yy?$AA@ 004e4f28     LIBCMT:nlsdata.obj
 0002:0001df34       ??_C@_0BE@CKGJFCPC@dddd?0?5MMMM?5dd?0?5yyyy?$AA@ 004e4f34     LIBCMT:nlsdata.obj
 0002:0001df48       ??_C@_08JCCMCCIL@HH?3mm?3ss?$AA@ 004e4f48     LIBCMT:nlsdata.obj
 0002:0001df54       ??_C@_17MBGCMIPB@?$AAS?$AAu?$AAn?$AA?$AA@ 004e4f54     LIBCMT:nlsdata.obj
 0002:0001df5c       ??_C@_17KBOMKBF@?$AAM?$AAo?$AAn?$AA?$AA@ 004e4f5c     LIBCMT:nlsdata.obj
 0002:0001df64       ??_C@_17BMKGEGOJ@?$AAT?$AAu?$AAe?$AA?$AA@ 004e4f64     LIBCMT:nlsdata.obj
 0002:0001df6c       ??_C@_17CJEDCEPE@?$AAW?$AAe?$AAd?$AA?$AA@ 004e4f6c     LIBCMT:nlsdata.obj
 0002:0001df74       ??_C@_17PDPHAADD@?$AAT?$AAh?$AAu?$AA?$AA@ 004e4f74     LIBCMT:nlsdata.obj
 0002:0001df7c       ??_C@_17HFOLPPLP@?$AAF?$AAr?$AAi?$AA?$AA@ 004e4f7c     LIBCMT:nlsdata.obj
 0002:0001df84       ??_C@_17GGIBDPIH@?$AAS?$AAa?$AAt?$AA?$AA@ 004e4f84     LIBCMT:nlsdata.obj
 0002:0001df8c       ??_C@_1O@IHNHDHPB@?$AAS?$AAu?$AAn?$AAd?$AAa?$AAy?$AA?$AA@ 004e4f8c     LIBCMT:nlsdata.obj
 0002:0001df9c       ??_C@_1O@MMNBFLIA@?$AAM?$AAo?$AAn?$AAd?$AAa?$AAy?$AA?$AA@ 004e4f9c     LIBCMT:nlsdata.obj
 0002:0001dfac       ??_C@_1BA@ENFBFFEK@?$AAT?$AAu?$AAe?$AAs?$AAd?$AAa?$AAy?$AA?$AA@ 004e4fac     LIBCMT:nlsdata.obj
 0002:0001dfbc       ??_C@_1BE@EBOGMDOH@?$AAW?$AAe?$AAd?$AAn?$AAe?$AAs?$AAd?$AAa?$AAy?$AA?$AA@ 004e4fbc     LIBCMT:nlsdata.obj
 0002:0001dfd0       ??_C@_1BC@HHMNLIHE@?$AAT?$AAh?$AAu?$AAr?$AAs?$AAd?$AAa?$AAy?$AA?$AA@ 004e4fd0     LIBCMT:nlsdata.obj
 0002:0001dfe4       ??_C@_1O@PDICJHAG@?$AAF?$AAr?$AAi?$AAd?$AAa?$AAy?$AA?$AA@ 004e4fe4     LIBCMT:nlsdata.obj
 0002:0001dff4       ??_C@_1BC@ENMNNPAJ@?$AAS?$AAa?$AAt?$AAu?$AAr?$AAd?$AAa?$AAy?$AA?$AA@ 004e4ff4     LIBCMT:nlsdata.obj
 0002:0001e008       ??_C@_17DKNBKCHM@?$AAJ?$AAa?$AAn?$AA?$AA@ 004e5008     LIBCMT:nlsdata.obj
 0002:0001e010       ??_C@_17LMDJEKJN@?$AAF?$AAe?$AAb?$AA?$AA@ 004e5010     LIBCMT:nlsdata.obj
 0002:0001e018       ??_C@_17CKNLEDEC@?$AAM?$AAa?$AAr?$AA?$AA@ 004e5018     LIBCMT:nlsdata.obj
 0002:0001e020       ??_C@_17LFPOIHDD@?$AAA?$AAp?$AAr?$AA?$AA@ 004e5020     LIBCMT:nlsdata.obj
 0002:0001e028       ??_C@_17PNNKMEED@?$AAM?$AAa?$AAy?$AA?$AA@ 004e5028     LIBCMT:nlsdata.obj
 0002:0001e030       ??_C@_17KCJGOCPB@?$AAJ?$AAu?$AAn?$AA?$AA@ 004e5030     LIBCMT:nlsdata.obj
 0002:0001e038       ??_C@_17IJPCKHK@?$AAJ?$AAu?$AAl?$AA?$AA@ 004e5038     LIBCMT:nlsdata.obj
 0002:0001e040       ??_C@_17ICPELBCN@?$AAA?$AAu?$AAg?$AA?$AA@ 004e5040     LIBCMT:nlsdata.obj
 0002:0001e048       ??_C@_17HCHCOKMG@?$AAS?$AAe?$AAp?$AA?$AA@ 004e5048     LIBCMT:nlsdata.obj
 0002:0001e050       ??_C@_17FNLKOI@?$AAO?$AAc?$AAt?$AA?$AA@ 004e5050     LIBCMT:nlsdata.obj
 0002:0001e058       ??_C@_17BBDMLCIG@?$AAN?$AAo?$AAv?$AA?$AA@ 004e5058     LIBCMT:nlsdata.obj
 0002:0001e060       ??_C@_17EGKACKIF@?$AAD?$AAe?$AAc?$AA?$AA@ 004e5060     LIBCMT:nlsdata.obj
 0002:0001e068       ??_C@_1BA@EFMEIEBA@?$AAJ?$AAa?$AAn?$AAu?$AAa?$AAr?$AAy?$AA?$AA@ 004e5068     LIBCMT:nlsdata.obj
 0002:0001e078       ??_C@_1BC@JGDDFFAM@?$AAF?$AAe?$AAb?$AAr?$AAu?$AAa?$AAr?$AAy?$AA?$AA@ 004e5078     LIBCMT:nlsdata.obj
 0002:0001e08c       ??_C@_1M@IKEENEDF@?$AAM?$AAa?$AAr?$AAc?$AAh?$AA?$AA@ 004e508c     LIBCMT:nlsdata.obj
 0002:0001e098       ??_C@_1M@GJNLMHFD@?$AAA?$AAp?$AAr?$AAi?$AAl?$AA?$AA@ 004e5098     LIBCMT:nlsdata.obj
 0002:0001e0a4       ??_C@_19EPFLPGAP@?$AAJ?$AAu?$AAn?$AAe?$AA?$AA@ 004e50a4     LIBCMT:nlsdata.obj
 0002:0001e0b0       ??_C@_19BIFMLPCD@?$AAJ?$AAu?$AAl?$AAy?$AA?$AA@ 004e50b0     LIBCMT:nlsdata.obj
 0002:0001e0bc       ??_C@_1O@PAHLKOAC@?$AAA?$AAu?$AAg?$AAu?$AAs?$AAt?$AA?$AA@ 004e50bc     LIBCMT:nlsdata.obj
 0002:0001e0cc       ??_C@_1BE@DKAAMBJL@?$AAS?$AAe?$AAp?$AAt?$AAe?$AAm?$AAb?$AAe?$AAr?$AA?$AA@ 004e50cc     LIBCMT:nlsdata.obj
 0002:0001e0e0       ??_C@_1BA@EPANDLNG@?$AAO?$AAc?$AAt?$AAo?$AAb?$AAe?$AAr?$AA?$AA@ 004e50e0     LIBCMT:nlsdata.obj
 0002:0001e0f0       ??_C@_1BC@BGLIFPF@?$AAN?$AAo?$AAv?$AAe?$AAm?$AAb?$AAe?$AAr?$AA?$AA@ 004e50f0     LIBCMT:nlsdata.obj
 0002:0001e104       ??_C@_1BC@FEMKIFH@?$AAD?$AAe?$AAc?$AAe?$AAm?$AAb?$AAe?$AAr?$AA?$AA@ 004e5104     LIBCMT:nlsdata.obj
 0002:0001e118       ??_C@_15ODEHAHHF@?$AAA?$AAM?$AA?$AA@ 004e5118     LIBCMT:nlsdata.obj
 0002:0001e120       ??_C@_15CLMNNGEL@?$AAP?$AAM?$AA?$AA@ 004e5120     LIBCMT:nlsdata.obj
 0002:0001e128       ??_C@_1BC@IEBCMHCM@?$AAM?$AAM?$AA?1?$AAd?$AAd?$AA?1?$AAy?$AAy?$AA?$AA@ 004e5128     LIBCMT:nlsdata.obj
 0002:0001e13c       ??_C@_1CI@KNAKOEBC@?$AAd?$AAd?$AAd?$AAd?$AA?0?$AA?5?$AAM?$AAM?$AAM?$AAM?$AA?5?$AAd?$AAd?$AA?0?$AA?5?$AAy?$AAy?$AAy?$AAy?$AA?$AA@ 004e513c     LIBCMT:nlsdata.obj
 0002:0001e164       ??_C@_1BC@GDGBMEMK@?$AAH?$AAH?$AA?3?$AAm?$AAm?$AA?3?$AAs?$AAs?$AA?$AA@ 004e5164     LIBCMT:nlsdata.obj
 0002:0001e178       ??_C@_1M@BMHNFIME@?$AAe?$AAn?$AA?9?$AAU?$AAS?$AA?$AA@ 004e5178     LIBCMT:nlsdata.obj
 0002:0001e208       ??_C@_06OJHGLDPL@?$CInull?$CJ?$AA@ 004e5208     LIBCMT:output.obj
 0002:0001e210       ??_C@_1O@CEDCILHN@?$AA?$CI?$AAn?$AAu?$AAl?$AAl?$AA?$CJ?$AA?$AA@ 004e5210     LIBCMT:output.obj
 0002:0001e220       ___lookuptable             004e5220     LIBCMT:output.obj
 0002:0001e338       ??_C@_1FK@PGACCAFB@?$AAR?$AA6?$AA0?$AA0?$AA2?$AA?$AN?$AA?6?$AA?9?$AA?5?$AAf?$AAl?$AAo?$AAa?$AAt?$AAi?$AAn?$AAg?$AA?5?$AAp?$AAo?$AAi?$AAn?$AAt?$AA?5?$AAs?$AAu?$AAp?$AAp?$AAo?$AAr?$AAt?$AA?5@ 004e5338     LIBCMT:crt0msg.obj
 0002:0001e398       ??_C@_1FE@LLNEDJMD@?$AAR?$AA6?$AA0?$AA0?$AA8?$AA?$AN?$AA?6?$AA?9?$AA?5?$AAn?$AAo?$AAt?$AA?5?$AAe?$AAn?$AAo?$AAu?$AAg?$AAh?$AA?5?$AAs?$AAp?$AAa?$AAc?$AAe?$AA?5?$AAf?$AAo?$AAr?$AA?5?$AAa?$AAr@ 004e5398     LIBCMT:crt0msg.obj
 0002:0001e3f0       ??_C@_1FI@HONFMGBI@?$AAR?$AA6?$AA0?$AA0?$AA9?$AA?$AN?$AA?6?$AA?9?$AA?5?$AAn?$AAo?$AAt?$AA?5?$AAe?$AAn?$AAo?$AAu?$AAg?$AAh?$AA?5?$AAs?$AAp?$AAa?$AAc?$AAe?$AA?5?$AAf?$AAo?$AAr?$AA?5?$AAe?$AAn@ 004e53f0     LIBCMT:crt0msg.obj
 0002:0001e448       ??_C@_1EG@BEHAGFJD@?$AAR?$AA6?$AA0?$AA1?$AA0?$AA?$AN?$AA?6?$AA?9?$AA?5?$AAa?$AAb?$AAo?$AAr?$AAt?$AA?$CI?$AA?$CJ?$AA?5?$AAh?$AAa?$AAs?$AA?5?$AAb?$AAe?$AAe?$AAn?$AA?5?$AAc?$AAa?$AAl?$AAl?$AAe?$AAd@ 004e5448     LIBCMT:crt0msg.obj
 0002:0001e490       ??_C@_1FI@LOGNIKDM@?$AAR?$AA6?$AA0?$AA1?$AA6?$AA?$AN?$AA?6?$AA?9?$AA?5?$AAn?$AAo?$AAt?$AA?5?$AAe?$AAn?$AAo?$AAu?$AAg?$AAh?$AA?5?$AAs?$AAp?$AAa?$AAc?$AAe?$AA?5?$AAf?$AAo?$AAr?$AA?5?$AAt?$AAh@ 004e5490     LIBCMT:crt0msg.obj
 0002:0001e4e8       ??_C@_1FK@BEOGODMC@?$AAR?$AA6?$AA0?$AA1?$AA7?$AA?$AN?$AA?6?$AA?9?$AA?5?$AAu?$AAn?$AAe?$AAx?$AAp?$AAe?$AAc?$AAt?$AAe?$AAd?$AA?5?$AAm?$AAu?$AAl?$AAt?$AAi?$AAt?$AAh?$AAr?$AAe?$AAa?$AAd?$AA?5@ 004e54e8     LIBCMT:crt0msg.obj
 0002:0001e548       ??_C@_1EC@JIBHAOPH@?$AAR?$AA6?$AA0?$AA1?$AA8?$AA?$AN?$AA?6?$AA?9?$AA?5?$AAu?$AAn?$AAe?$AAx?$AAp?$AAe?$AAc?$AAt?$AAe?$AAd?$AA?5?$AAh?$AAe?$AAa?$AAp?$AA?5?$AAe?$AAr?$AAr?$AAo?$AAr?$AA?$AN?$AA?6@ 004e5548     LIBCMT:crt0msg.obj
 0002:0001e590       ??_C@_1FC@ECHBIFBC@?$AAR?$AA6?$AA0?$AA1?$AA9?$AA?$AN?$AA?6?$AA?9?$AA?5?$AAu?$AAn?$AAa?$AAb?$AAl?$AAe?$AA?5?$AAt?$AAo?$AA?5?$AAo?$AAp?$AAe?$AAn?$AA?5?$AAc?$AAo?$AAn?$AAs?$AAo?$AAl?$AAe?$AA?5@ 004e5590     LIBCMT:crt0msg.obj
 0002:0001e5e8       ??_C@_1GK@FHCKBEFA@?$AAR?$AA6?$AA0?$AA2?$AA4?$AA?$AN?$AA?6?$AA?9?$AA?5?$AAn?$AAo?$AAt?$AA?5?$AAe?$AAn?$AAo?$AAu?$AAg?$AAh?$AA?5?$AAs?$AAp?$AAa?$AAc?$AAe?$AA?5?$AAf?$AAo?$AAr?$AA?5?$AA_?$AAo@ 004e55e8     LIBCMT:crt0msg.obj
 0002:0001e658       ??_C@_1EM@MAADIHMB@?$AAR?$AA6?$AA0?$AA2?$AA5?$AA?$AN?$AA?6?$AA?9?$AA?5?$AAp?$AAu?$AAr?$AAe?$AA?5?$AAv?$AAi?$AAr?$AAt?$AAu?$AAa?$AAl?$AA?5?$AAf?$AAu?$AAn?$AAc?$AAt?$AAi?$AAo?$AAn?$AA?5?$AAc@ 004e5658     LIBCMT:crt0msg.obj
 0002:0001e6a8       ??_C@_1GK@MCAAGJMO@?$AAR?$AA6?$AA0?$AA2?$AA6?$AA?$AN?$AA?6?$AA?9?$AA?5?$AAn?$AAo?$AAt?$AA?5?$AAe?$AAn?$AAo?$AAu?$AAg?$AAh?$AA?5?$AAs?$AAp?$AAa?$AAc?$AAe?$AA?5?$AAf?$AAo?$AAr?$AA?5?$AAs?$AAt@ 004e56a8     LIBCMT:crt0msg.obj
 0002:0001e718       ??_C@_1GK@MFGOKLAG@?$AAR?$AA6?$AA0?$AA2?$AA7?$AA?$AN?$AA?6?$AA?9?$AA?5?$AAn?$AAo?$AAt?$AA?5?$AAe?$AAn?$AAo?$AAu?$AAg?$AAh?$AA?5?$AAs?$AAp?$AAa?$AAc?$AAe?$AA?5?$AAf?$AAo?$AAr?$AA?5?$AAl?$AAo@ 004e5718     LIBCMT:crt0msg.obj
 0002:0001e788       ??_C@_1EK@HHFLMAOL@?$AAR?$AA6?$AA0?$AA2?$AA8?$AA?$AN?$AA?6?$AA?9?$AA?5?$AAu?$AAn?$AAa?$AAb?$AAl?$AAe?$AA?5?$AAt?$AAo?$AA?5?$AAi?$AAn?$AAi?$AAt?$AAi?$AAa?$AAl?$AAi?$AAz?$AAe?$AA?5?$AAh?$AAe@ 004e5788     LIBCMT:crt0msg.obj
 0002:0001e7d4       ??_C@_1DO@BMFCDCD@?$AAR?$AA6?$AA0?$AA3?$AA0?$AA?$AN?$AA?6?$AA?9?$AA?5?$AAC?$AAR?$AAT?$AA?5?$AAn?$AAo?$AAt?$AA?5?$AAi?$AAn?$AAi?$AAt?$AAi?$AAa?$AAl?$AAi?$AAz?$AAe?$AAd?$AA?$AN?$AA?6?$AA?$AA@ 004e57d4     LIBCMT:crt0msg.obj
 0002:0001e818       ??_C@_1MG@ENCOOIDF@?$AAR?$AA6?$AA0?$AA3?$AA1?$AA?$AN?$AA?6?$AA?9?$AA?5?$AAA?$AAt?$AAt?$AAe?$AAm?$AAp?$AAt?$AA?5?$AAt?$AAo?$AA?5?$AAi?$AAn?$AAi?$AAt?$AAi?$AAa?$AAl?$AAi?$AAz?$AAe?$AA?5?$AAt@ 004e5818     LIBCMT:crt0msg.obj
 0002:0001e8e0       ??_C@_1GG@GOPILAJP@?$AAR?$AA6?$AA0?$AA3?$AA2?$AA?$AN?$AA?6?$AA?9?$AA?5?$AAn?$AAo?$AAt?$AA?5?$AAe?$AAn?$AAo?$AAu?$AAg?$AAh?$AA?5?$AAs?$AAp?$AAa?$AAc?$AAe?$AA?5?$AAf?$AAo?$AAr?$AA?5?$AAl?$AAo@ 004e58e0     LIBCMT:crt0msg.obj
 0002:0001e948       ??_C@_1BOO@KGEDBGAJ@?$AAR?$AA6?$AA0?$AA3?$AA3?$AA?$AN?$AA?6?$AA?9?$AA?5?$AAA?$AAt?$AAt?$AAe?$AAm?$AAp?$AAt?$AA?5?$AAt?$AAo?$AA?5?$AAu?$AAs?$AAe?$AA?5?$AAM?$AAS?$AAI?$AAL?$AA?5?$AAc?$AAo?$AAd@ 004e5948     LIBCMT:crt0msg.obj
 0002:0001eb38       ??_C@_1GG@MKFPEKFO@?$AAR?$AA6?$AA0?$AA3?$AA4?$AA?$AN?$AA?6?$AA?9?$AA?5?$AAi?$AAn?$AAc?$AAo?$AAn?$AAs?$AAi?$AAs?$AAt?$AAe?$AAn?$AAt?$AA?5?$AAo?$AAn?$AAe?$AAx?$AAi?$AAt?$AA?5?$AAb?$AAe?$AAg@ 004e5b38     LIBCMT:crt0msg.obj
 0002:0001eba0       ??_C@_1BO@BFCDCGC@?$AAD?$AAO?$AAM?$AAA?$AAI?$AAN?$AA?5?$AAe?$AAr?$AAr?$AAo?$AAr?$AA?$AN?$AA?6?$AA?$AA@ 004e5ba0     LIBCMT:crt0msg.obj
 0002:0001ebc0       ??_C@_1BK@KMOMNAAI@?$AAS?$AAI?$AAN?$AAG?$AA?5?$AAe?$AAr?$AAr?$AAo?$AAr?$AA?$AN?$AA?6?$AA?$AA@ 004e5bc0     LIBCMT:crt0msg.obj
 0002:0001ebdc       ??_C@_1BM@JBBEPPHI@?$AAT?$AAL?$AAO?$AAS?$AAS?$AA?5?$AAe?$AAr?$AAr?$AAo?$AAr?$AA?$AN?$AA?6?$AA?$AA@ 004e5bdc     LIBCMT:crt0msg.obj
 0002:0001ebf8       ??_C@_15JNBOKNOG@?$AA?$AN?$AA?6?$AA?$AA@ 004e5bf8     LIBCMT:crt0msg.obj
 0002:0001ec00       ??_C@_1BO@BKOMIGKJ@?$AAr?$AAu?$AAn?$AAt?$AAi?$AAm?$AAe?$AA?5?$AAe?$AAr?$AAr?$AAo?$AAr?$AA?5?$AA?$AA@ 004e5c00     LIBCMT:crt0msg.obj
 0002:0001ec20       ??_C@_1DE@JNGNBFGO@?$AAR?$AAu?$AAn?$AAt?$AAi?$AAm?$AAe?$AA?5?$AAE?$AAr?$AAr?$AAo?$AAr?$AA?$CB?$AA?6?$AA?6?$AAP?$AAr?$AAo?$AAg?$AAr?$AAa?$AAm?$AA?3?$AA?5?$AA?$AA@ 004e5c20     LIBCMT:crt0msg.obj
 0002:0001ec54       ??_C@_1CO@EAEJAADC@?$AA?$DM?$AAp?$AAr?$AAo?$AAg?$AAr?$AAa?$AAm?$AA?5?$AAn?$AAa?$AAm?$AAe?$AA?5?$AAu?$AAn?$AAk?$AAn?$AAo?$AAw?$AAn?$AA?$DO?$AA?$AA@ 004e5c54     LIBCMT:crt0msg.obj
 0002:0001ec84       ??_C@_17LGKOMLJ@?$AA?4?$AA?4?$AA?4?$AA?$AA@ 004e5c84     LIBCMT:crt0msg.obj
 0002:0001ec8c       ??_C@_15IABLJNFO@?$AA?6?$AA?6?$AA?$AA@ 004e5c8c     LIBCMT:crt0msg.obj
 0002:0001ec98       ??_C@_1EK@MBDPDCGA@?$AAM?$AAi?$AAc?$AAr?$AAo?$AAs?$AAo?$AAf?$AAt?$AA?5?$AAV?$AAi?$AAs?$AAu?$AAa?$AAl?$AA?5?$AAC?$AA?$CL?$AA?$CL?$AA?5?$AAR?$AAu?$AAn?$AAt?$AAi?$AAm?$AAe?$AA?5?$AAL?$AAi?$AAb@ 004e5c98     LIBCMT:crt0msg.obj
 0002:0001ece4       ___dnames                  004e5ce4     LIBCMT:timeset.obj
 0002:0001ecfc       ___mnames                  004e5cfc     LIBCMT:timeset.obj
 0002:0001ed24       ??_C@_02CLFPBFFP@TZ?$AA@   004e5d24     LIBCMT:tzset.obj
 0002:0001ed48       __XcptActTab               004e5d48     LIBCMT:winxfltr.obj
 0002:0001edd8       __XcptActTabCount          004e5dd8     LIBCMT:winxfltr.obj
 0002:0001eddc       __XcptActTabSize           004e5ddc     LIBCMT:winxfltr.obj
 0002:0001ede0       __First_FPE_Indx           004e5de0     LIBCMT:winxfltr.obj
 0002:0001ede4       __Num_FPE                  004e5de4     LIBCMT:winxfltr.obj
 0002:0001ede8       ___lookuptable_s           004e5de8     LIBCMT:outputs.obj
 0002:000258f0       __indefinite               004ec8f0     LIBCMT:87disp.obj
 0002:000258fa       __piby2                    004ec8fa     LIBCMT:87disp.obj
 0002:000261d8       __DEFAULT_CW_in_mem        004ed1d8     LIBCMT:common.obj
 0002:000261da       __pi_by_2_to_61            004ed1da     LIBCMT:common.obj
 0002:00026ac0       _LcidToLocaleNameTable     004edac0     LIBCMT:winapinls.obj
 0002:000271e0       _LocaleNameToIndexTable    004ee1e0     LIBCMT:winapinls.obj
 0002:00027900       ??_C@_15EMKDOKLE@?$AAa?$AAr?$AA?$AA@ 004ee900     LIBCMT:winapinls.obj
 0002:00027908       ??_C@_15KNPADPLH@?$AAb?$AAg?$AA?$AA@ 004ee908     LIBCMT:winapinls.obj
 0002:00027910       ??_C@_15EDMHLDMO@?$AAc?$AAa?$AA?$AA@ 004ee910     LIBCMT:winapinls.obj
 0002:00027918       ??_C@_1O@BPEAJADD@?$AAz?$AAh?$AA?9?$AAC?$AAH?$AAS?$AA?$AA@ 004ee918     LIBCMT:winapinls.obj
 0002:00027928       ??_C@_15LJNHCMNK@?$AAc?$AAs?$AA?$AA@ 004ee928     LIBCMT:winapinls.obj
 0002:00027930       ??_C@_15FOMCIDHG@?$AAd?$AAa?$AA?$AA@ 004ee930     LIBCMT:winapinls.obj
 0002:00027938       ??_C@_15NBKABECB@?$AAd?$AAe?$AA?$AA@ 004ee938     LIBCMT:winapinls.obj
 0002:00027940       ??_C@_15GHPEIIAO@?$AAe?$AAl?$AA?$AA@ 004ee940     LIBCMT:winapinls.obj
 0002:00027948       ??_C@_15MNPNEAIF@?$AAe?$AAn?$AA?$AA@ 004ee948     LIBCMT:winapinls.obj
 0002:00027950       ??_C@_15GPIOMPMH@?$AAe?$AAs?$AA?$AA@ 004ee950     LIBCMT:winapinls.obj
 0002:00027958       ??_C@_15NGLOAKJC@?$AAf?$AAi?$AA?$AA@ 004ee958     LIBCMT:winapinls.obj
 0002:00027960       ??_C@_15FBKGNKAM@?$AAf?$AAr?$AA?$AA@ 004ee960     LIBCMT:winapinls.obj
 0002:00027968       ??_C@_15KGGCNEFK@?$AAh?$AAe?$AA?$AA@ 004ee968     LIBCMT:winapinls.obj
 0002:00027970       ??_C@_15PGHLIDMF@?$AAh?$AAu?$AA?$AA@ 004ee970     LIBCMT:winapinls.obj
 0002:00027978       ??_C@_15BIEMAPLM@?$AAi?$AAs?$AA?$AA@ 004ee978     LIBCMT:winapinls.obj
 0002:00027980       ??_C@_15IFJLDHAF@?$AAi?$AAt?$AA?$AA@ 004ee980     LIBCMT:winapinls.obj
 0002:00027988       ??_C@_15GEMIOCAG@?$AAj?$AAa?$AA?$AA@ 004ee988     LIBCMT:winapinls.obj
 0002:00027990       ??_C@_15EPELEGJA@?$AAk?$AAo?$AA?$AA@ 004ee990     LIBCMT:winapinls.obj
 0002:00027998       ??_C@_15NDDHIMN@?$AAn?$AAl?$AA?$AA@ 004ee998     LIBCMT:winapinls.obj
 0002:000279a0       ??_C@_15BPIGNHCD@?$AAn?$AAo?$AA?$AA@ 004ee9a0     LIBCMT:winapinls.obj
 0002:000279a8       ??_C@_15DEOPBLCG@?$AAp?$AAl?$AA?$AA@ 004ee9a8     LIBCMT:winapinls.obj
 0002:000279b0       ??_C@_15KBECGEFG@?$AAp?$AAt?$AA?$AA@ 004ee9b0     LIBCMT:winapinls.obj
 0002:000279b8       ??_C@_15GLJCBFMD@?$AAr?$AAo?$AA?$AA@ 004ee9b8     LIBCMT:winapinls.obj
 0002:000279c0       ??_C@_15FEDGKCDI@?$AAr?$AAu?$AA?$AA@ 004ee9c0     LIBCMT:winapinls.obj
 0002:000279c8       ??_C@_15GLKMLLHM@?$AAh?$AAr?$AA?$AA@ 004ee9c8     LIBCMT:winapinls.obj
 0002:000279d0       ??_C@_15CPKMFBDB@?$AAs?$AAk?$AA?$AA@ 004ee9d0     LIBCMT:winapinls.obj
 0002:000279d8       ??_C@_15BAAIOGMK@?$AAs?$AAq?$AA?$AA@ 004ee9d8     LIBCMT:winapinls.obj
 0002:000279e0       ??_C@_15INNPNOHD@?$AAs?$AAv?$AA?$AA@ 004ee9e0     LIBCMT:winapinls.obj
 0002:000279e8       ??_C@_15CABMMOGH@?$AAt?$AAh?$AA?$AA@ 004ee9e8     LIBCMT:winapinls.obj
 0002:000279f0       ??_C@_15BPLIHJJM@?$AAt?$AAr?$AA?$AA@ 004ee9f0     LIBCMT:winapinls.obj
 0002:000279f8       ??_C@_15NEOEKKDJ@?$AAu?$AAr?$AA?$AA@ 004ee9f8     LIBCMT:winapinls.obj
 0002:00027a00       ??_C@_15NFICGAJK@?$AAi?$AAd?$AA?$AA@ 004eea00     LIBCMT:winapinls.obj
 0002:00027a08       ??_C@_15PJPFLCCM@?$AAu?$AAk?$AA?$AA@ 004eea08     LIBCMT:winapinls.obj
 0002:00027a10       ??_C@_15HPJPHDM@?$AAb?$AAe?$AA?$AA@ 004eea10     LIBCMT:winapinls.obj
 0002:00027a18       ??_C@_15LCHLGJII@?$AAs?$AAl?$AA?$AA@ 004eea18     LIBCMT:winapinls.obj
 0002:00027a20       ??_C@_15PCFJPHHO@?$AAe?$AAt?$AA?$AA@ 004eea20     LIBCMT:winapinls.obj
 0002:00027a28       ??_C@_15HPFPGODN@?$AAl?$AAv?$AA?$AA@ 004eea28     LIBCMT:winapinls.obj
 0002:00027a30       ??_C@_15NFFGKGLG@?$AAl?$AAt?$AA?$AA@ 004eea30     LIBCMT:winapinls.obj
 0002:00027a38       ??_C@_15BDAKCCHN@?$AAf?$AAa?$AA?$AA@ 004eea38     LIBCMT:winapinls.obj
 0002:00027a40       ??_C@_15NFGIAIAJ@?$AAv?$AAi?$AA?$AA@ 004eea40     LIBCMT:winapinls.obj
 0002:00027a48       ??_C@_15LMKNDMHN@?$AAh?$AAy?$AA?$AA@ 004eea48     LIBCMT:winapinls.obj
 0002:00027a50       ??_C@_15IJBHMCFL@?$AAa?$AAz?$AA?$AA@ 004eea50     LIBCMT:winapinls.obj
 0002:00027a58       ??_C@_15EKOFJABL@?$AAe?$AAu?$AA?$AA@ 004eea58     LIBCMT:winapinls.obj
 0002:00027a60       ??_C@_15BGHADCNK@?$AAm?$AAk?$AA?$AA@ 004eea60     LIBCMT:winapinls.obj
 0002:00027a68       ??_C@_15JDNICKHM@?$AAa?$AAf?$AA?$AA@ 004eea68     LIBCMT:winapinls.obj
 0002:00027a70       ??_C@_15KPJEDBKD@?$AAk?$AAa?$AA?$AA@ 004eea70     LIBCMT:winapinls.obj
 0002:00027a78       ??_C@_15PDNFFFEO@?$AAf?$AAo?$AA?$AA@ 004eea78     LIBCMT:winapinls.obj
 0002:00027a80       ??_C@_15OMLEGLOC@?$AAh?$AAi?$AA?$AA@ 004eea80     LIBCMT:winapinls.obj
 0002:00027a88       ??_C@_15IDNNENKK@?$AAm?$AAs?$AA?$AA@ 004eea88     LIBCMT:winapinls.obj
 0002:00027a90       ??_C@_15MACJNBMH@?$AAk?$AAk?$AA?$AA@ 004eea90     LIBCMT:winapinls.obj
 0002:00027a98       ??_C@_15DKDJEOND@?$AAk?$AAy?$AA?$AA@ 004eea98     LIBCMT:winapinls.obj
 0002:00027aa0       ??_C@_15DFGDLJBG@?$AAs?$AAw?$AA?$AA@ 004eeaa0     LIBCMT:winapinls.obj
 0002:00027aa8       ??_C@_15BBFAICNG@?$AAu?$AAz?$AA?$AA@ 004eeaa8     LIBCMT:winapinls.obj
 0002:00027ab0       ??_C@_15DKNDCGEA@?$AAt?$AAt?$AA?$AA@ 004eeab0     LIBCMT:winapinls.obj
 0002:00027ab8       ??_C@_15MGIFMDPL@?$AAp?$AAa?$AA?$AA@ 004eeab8     LIBCMT:winapinls.obj
 0002:00027ac0       ??_C@_15HCNDBBA@?$AAg?$AAu?$AA?$AA@ 004eeac0     LIBCMT:winapinls.obj
 0002:00027ac8       ??_C@_15FNBEIBON@?$AAt?$AAa?$AA?$AA@ 004eeac8     LIBCMT:winapinls.obj
 0002:00027ad0       ??_C@_15NCHGBGLK@?$AAt?$AAe?$AA?$AA@ 004eead0     LIBCMT:winapinls.obj
 0002:00027ad8       ??_C@_15PHPHCBPF@?$AAk?$AAn?$AA?$AA@ 004eead8     LIBCMT:winapinls.obj
 0002:00027ae0       ??_C@_15DLGBCKMP@?$AAm?$AAr?$AA?$AA@ 004eeae0     LIBCMT:winapinls.obj
 0002:00027ae8       ??_C@_15EABBLBFF@?$AAs?$AAa?$AA?$AA@ 004eeae8     LIBCMT:winapinls.obj
 0002:00027af0       ??_C@_15CBKOMCOI@?$AAm?$AAn?$AA?$AA@ 004eeaf0     LIBCMT:winapinls.obj
 0002:00027af8       ??_C@_15CKDMCJAF@?$AAg?$AAl?$AA?$AA@ 004eeaf8     LIBCMT:winapinls.obj
 0002:00027b00       ??_C@_17CNJFBPG@?$AAk?$AAo?$AAk?$AA?$AA@ 004eeb00     LIBCMT:winapinls.obj
 0002:00027b08       ??_C@_17FFBJICPL@?$AAs?$AAy?$AAr?$AA?$AA@ 004eeb08     LIBCMT:winapinls.obj
 0002:00027b10       ??_C@_17KPNDCPAF@?$AAd?$AAi?$AAv?$AA?$AA@ 004eeb10     LIBCMT:winapinls.obj
 0002:00027b18       ??_C@_11LOCGONAA@?$AA?$AA@ 004eeb18     LIBCMT:winapinls.obj
 0002:00027b1c       ??_C@_1M@OKAHONE@?$AAa?$AAr?$AA?9?$AAS?$AAA?$AA?$AA@ 004eeb1c     LIBCMT:winapinls.obj
 0002:00027b28       ??_C@_1M@FFFIGIGK@?$AAb?$AAg?$AA?9?$AAB?$AAG?$AA?$AA@ 004eeb28     LIBCMT:winapinls.obj
 0002:00027b34       ??_C@_1M@BJNKEDC@?$AAc?$AAa?$AA?9?$AAE?$AAS?$AA?$AA@ 004eeb34     LIBCMT:winapinls.obj
 0002:00027b40       ??_C@_1M@IJJHFJHA@?$AAc?$AAs?$AA?9?$AAC?$AAZ?$AA?$AA@ 004eeb40     LIBCMT:winapinls.obj
 0002:00027b4c       ??_C@_1M@CLPEOBGI@?$AAd?$AAa?$AA?9?$AAD?$AAK?$AA?$AA@ 004eeb4c     LIBCMT:winapinls.obj
 0002:00027b58       ??_C@_1M@MCMADGCB@?$AAd?$AAe?$AA?9?$AAD?$AAE?$AA?$AA@ 004eeb58     LIBCMT:winapinls.obj
 0002:00027b64       ??_C@_1M@OOCKEMAM@?$AAe?$AAl?$AA?9?$AAG?$AAR?$AA?$AA@ 004eeb64     LIBCMT:winapinls.obj
 0002:00027b70       ??_C@_1M@DDNJFGID@?$AAf?$AAi?$AA?9?$AAF?$AAI?$AA?$AA@ 004eeb70     LIBCMT:winapinls.obj
 0002:00027b7c       ??_C@_1M@GLIPPMAC@?$AAf?$AAr?$AA?9?$AAF?$AAR?$AA?$AA@ 004eeb7c     LIBCMT:winapinls.obj
 0002:00027b88       ??_C@_1M@GFMCHPE@?$AAh?$AAe?$AA?9?$AAI?$AAL?$AA?$AA@ 004eeb88     LIBCMT:winapinls.obj
 0002:00027b94       ??_C@_1M@MHLPGNKM@?$AAh?$AAu?$AA?9?$AAH?$AAU?$AA?$AA@ 004eeb94     LIBCMT:winapinls.obj
 0002:00027ba0       ??_C@_1M@LPDDNNPN@?$AAi?$AAs?$AA?9?$AAI?$AAS?$AA?$AA@ 004eeba0     LIBCMT:winapinls.obj
 0002:00027bac       ??_C@_1M@MADIPODN@?$AAi?$AAt?$AA?9?$AAI?$AAT?$AA?$AA@ 004eebac     LIBCMT:winapinls.obj
 0002:00027bb8       ??_C@_1M@IHBJJGG@?$AAn?$AAl?$AA?9?$AAN?$AAL?$AA?$AA@ 004eebb8     LIBCMT:winapinls.obj
 0002:00027bc4       ??_C@_1M@EANAGDL@?$AAn?$AAb?$AA?9?$AAN?$AAO?$AA?$AA@ 004eebc4     LIBCMT:winapinls.obj
 0002:00027bd0       ??_C@_1M@NEIEMEGP@?$AAp?$AAl?$AA?9?$AAP?$AAL?$AA?$AA@ 004eebd0     LIBCMT:winapinls.obj
 0002:00027bdc       ??_C@_1M@BOCFIGEP@?$AAp?$AAt?$AA?9?$AAB?$AAR?$AA?$AA@ 004eebdc     LIBCMT:winapinls.obj
 0002:00027be8       ??_C@_1M@IMPFOPBG@?$AAr?$AAo?$AA?9?$AAR?$AAO?$AA?$AA@ 004eebe8     LIBCMT:winapinls.obj
 0002:00027bf4       ??_C@_1M@IDNNEJMM@?$AAr?$AAu?$AA?9?$AAR?$AAU?$AA?$AA@ 004eebf4     LIBCMT:winapinls.obj
 0002:00027c00       ??_C@_1M@LILEEOGM@?$AAh?$AAr?$AA?9?$AAH?$AAR?$AA?$AA@ 004eec00     LIBCMT:winapinls.obj
 0002:00027c0c       ??_C@_1M@FKIFEHPB@?$AAs?$AAk?$AA?9?$AAS?$AAK?$AA?$AA@ 004eec0c     LIBCMT:winapinls.obj
 0002:00027c18       ??_C@_1M@LJMAMNPJ@?$AAs?$AAq?$AA?9?$AAA?$AAL?$AA?$AA@ 004eec18     LIBCMT:winapinls.obj
 0002:00027c24       ??_C@_1M@GIAKDKJK@?$AAs?$AAv?$AA?9?$AAS?$AAE?$AA?$AA@ 004eec24     LIBCMT:winapinls.obj
 0002:00027c30       ??_C@_1M@MKJKIKCL@?$AAt?$AAh?$AA?9?$AAT?$AAH?$AA?$AA@ 004eec30     LIBCMT:winapinls.obj
 0002:00027c3c       ??_C@_1M@MFLCCMPB@?$AAt?$AAr?$AA?9?$AAT?$AAR?$AA?$AA@ 004eec3c     LIBCMT:winapinls.obj
 0002:00027c48       ??_C@_1M@OIJHDKJN@?$AAu?$AAr?$AA?9?$AAP?$AAK?$AA?$AA@ 004eec48     LIBCMT:winapinls.obj
 0002:00027c54       ??_C@_1M@LHIPCIEK@?$AAi?$AAd?$AA?9?$AAI?$AAD?$AA?$AA@ 004eec54     LIBCMT:winapinls.obj
 0002:00027c60       ??_C@_1M@MFMOBGI@?$AAu?$AAk?$AA?9?$AAU?$AAA?$AA?$AA@ 004eec60     LIBCMT:winapinls.obj
 0002:00027c6c       ??_C@_1M@OBGLJIPL@?$AAb?$AAe?$AA?9?$AAB?$AAY?$AA?$AA@ 004eec6c     LIBCMT:winapinls.obj
 0002:00027c78       ??_C@_1M@BCFAJEAD@?$AAs?$AAl?$AA?9?$AAS?$AAI?$AA?$AA@ 004eec78     LIBCMT:winapinls.obj
 0002:00027c84       ??_C@_1M@FKFFEDDN@?$AAe?$AAt?$AA?9?$AAE?$AAE?$AA?$AA@ 004eec84     LIBCMT:winapinls.obj
 0002:00027c90       ??_C@_1M@KGKKAACI@?$AAl?$AAv?$AA?9?$AAL?$AAV?$AA?$AA@ 004eec90     LIBCMT:winapinls.obj
 0002:00027c9c       ??_C@_1M@IFGBIJO@?$AAl?$AAt?$AA?9?$AAL?$AAT?$AA?$AA@ 004eec9c     LIBCMT:winapinls.obj
 0002:00027ca8       ??_C@_1M@FGEAHEDM@?$AAf?$AAa?$AA?9?$AAI?$AAR?$AA?$AA@ 004eeca8     LIBCMT:winapinls.obj
 0002:00027cb4       ??_C@_1M@KBMAIBFN@?$AAv?$AAi?$AA?9?$AAV?$AAN?$AA?$AA@ 004eecb4     LIBCMT:winapinls.obj
 0002:00027cc0       ??_C@_1M@GPCBKDJK@?$AAh?$AAy?$AA?9?$AAA?$AAM?$AA?$AA@ 004eecc0     LIBCMT:winapinls.obj
 0002:00027ccc       ??_C@_1BG@BECMDDJB@?$AAa?$AAz?$AA?9?$AAA?$AAZ?$AA?9?$AAL?$AAa?$AAt?$AAn?$AA?$AA@ 004eeccc     LIBCMT:winapinls.obj
 0002:00027ce4       ??_C@_1M@MAOFCAEA@?$AAe?$AAu?$AA?9?$AAE?$AAS?$AA?$AA@ 004eece4     LIBCMT:winapinls.obj
 0002:00027cf0       ??_C@_1M@IGHABKPI@?$AAm?$AAk?$AA?9?$AAM?$AAK?$AA?$AA@ 004eecf0     LIBCMT:winapinls.obj
 0002:00027cfc       ??_C@_1M@IAIGNEJG@?$AAt?$AAn?$AA?9?$AAZ?$AAA?$AA?$AA@ 004eecfc     LIBCMT:winapinls.obj
 0002:00027d08       ??_C@_1M@IIJCOJFA@?$AAx?$AAh?$AA?9?$AAZ?$AAA?$AA?$AA@ 004eed08     LIBCMT:winapinls.obj
 0002:00027d14       ??_C@_1M@LGPJHNJH@?$AAz?$AAu?$AA?9?$AAZ?$AAA?$AA?$AA@ 004eed14     LIBCMT:winapinls.obj
 0002:00027d20       ??_C@_1M@HOKAOIO@?$AAa?$AAf?$AA?9?$AAZ?$AAA?$AA?$AA@ 004eed20     LIBCMT:winapinls.obj
 0002:00027d2c       ??_C@_1M@DPCLHLIE@?$AAk?$AAa?$AA?9?$AAG?$AAE?$AA?$AA@ 004eed2c     LIBCMT:winapinls.obj
 0002:00027d38       ??_C@_1M@BLKMHJBI@?$AAf?$AAo?$AA?9?$AAF?$AAO?$AA?$AA@ 004eed38     LIBCMT:winapinls.obj
 0002:00027d44       ??_C@_1M@LGGJAPPB@?$AAh?$AAi?$AA?9?$AAI?$AAN?$AA?$AA@ 004eed44     LIBCMT:winapinls.obj
 0002:00027d50       ??_C@_1M@FIKPIHFE@?$AAm?$AAt?$AA?9?$AAM?$AAT?$AA?$AA@ 004eed50     LIBCMT:winapinls.obj
 0002:00027d5c       ??_C@_1M@HEGGPBFA@?$AAs?$AAe?$AA?9?$AAN?$AAO?$AA?$AA@ 004eed5c     LIBCMT:winapinls.obj
 0002:00027d68       ??_C@_1M@EIBJEEPA@?$AAm?$AAs?$AA?9?$AAM?$AAY?$AA?$AA@ 004eed68     LIBCMT:winapinls.obj
 0002:00027d74       ??_C@_1M@FHLBGMPP@?$AAk?$AAk?$AA?9?$AAK?$AAZ?$AA?$AA@ 004eed74     LIBCMT:winapinls.obj
 0002:00027d80       ??_C@_1M@NGJJLCGI@?$AAk?$AAy?$AA?9?$AAK?$AAG?$AA?$AA@ 004eed80     LIBCMT:winapinls.obj
 0002:00027d8c       ??_C@_1M@GIENNBFC@?$AAs?$AAw?$AA?9?$AAK?$AAE?$AA?$AA@ 004eed8c     LIBCMT:winapinls.obj
 0002:00027d98       ??_C@_1BG@NDGMJIMJ@?$AAu?$AAz?$AA?9?$AAU?$AAZ?$AA?9?$AAL?$AAa?$AAt?$AAn?$AA?$AA@ 004eed98     LIBCMT:winapinls.obj
 0002:00027db0       ??_C@_1M@IDCCIHBC@?$AAt?$AAt?$AA?9?$AAR?$AAU?$AA?$AA@ 004eedb0     LIBCMT:winapinls.obj
 0002:00027dbc       ??_C@_1M@LOICPMOJ@?$AAb?$AAn?$AA?9?$AAI?$AAN?$AA?$AA@ 004eedbc     LIBCMT:winapinls.obj
 0002:00027dc8       ??_C@_1M@KPKKNEAH@?$AAp?$AAa?$AA?9?$AAI?$AAN?$AA?$AA@ 004eedc8     LIBCMT:winapinls.obj
 0002:00027dd4       ??_C@_1M@PJGPPBOG@?$AAg?$AAu?$AA?9?$AAI?$AAN?$AA?$AA@ 004eedd4     LIBCMT:winapinls.obj
 0002:00027de0       ??_C@_1M@KMKMOPHI@?$AAt?$AAa?$AA?9?$AAI?$AAN?$AA?$AA@ 004eede0     LIBCMT:winapinls.obj
 0002:00027dec       ??_C@_1M@KFEHEPAC@?$AAt?$AAe?$AA?9?$AAI?$AAN?$AA?$AA@ 004eedec     LIBCMT:winapinls.obj
 0002:00027df8       ??_C@_1M@CDCLMGHI@?$AAk?$AAn?$AA?9?$AAI?$AAN?$AA?$AA@ 004eedf8     LIBCMT:winapinls.obj
 0002:00027e04       ??_C@_1M@MIODLDKF@?$AAm?$AAl?$AA?9?$AAI?$AAN?$AA?$AA@ 004eee04     LIBCMT:winapinls.obj
 0002:00027e10       ??_C@_1M@PBIEACPO@?$AAm?$AAr?$AA?9?$AAI?$AAN?$AA?$AA@ 004eee10     LIBCMT:winapinls.obj
 0002:00027e1c       ??_C@_1M@NIDEAGPH@?$AAs?$AAa?$AA?9?$AAI?$AAN?$AA?$AA@ 004eee1c     LIBCMT:winapinls.obj
 0002:00027e28       ??_C@_1M@FHIHCBIO@?$AAm?$AAn?$AA?9?$AAM?$AAN?$AA?$AA@ 004eee28     LIBCMT:winapinls.obj
 0002:00027e34       ??_C@_1M@JAIJPENP@?$AAc?$AAy?$AA?9?$AAG?$AAB?$AA?$AA@ 004eee34     LIBCMT:winapinls.obj
 0002:00027e40       ??_C@_1M@PHGFBEPN@?$AAg?$AAl?$AA?9?$AAE?$AAS?$AA?$AA@ 004eee40     LIBCMT:winapinls.obj
 0002:00027e4c       ??_C@_1O@KPIPDNCP@?$AAk?$AAo?$AAk?$AA?9?$AAI?$AAN?$AA?$AA@ 004eee4c     LIBCMT:winapinls.obj
 0002:00027e5c       ??_C@_1O@KNHJLDJA@?$AAs?$AAy?$AAr?$AA?9?$AAS?$AAY?$AA?$AA@ 004eee5c     LIBCMT:winapinls.obj
 0002:00027e6c       ??_C@_1O@MKEKBLAH@?$AAd?$AAi?$AAv?$AA?9?$AAM?$AAV?$AA?$AA@ 004eee6c     LIBCMT:winapinls.obj
 0002:00027e7c       ??_C@_1O@OHDCKDDF@?$AAq?$AAu?$AAz?$AA?9?$AAB?$AAO?$AA?$AA@ 004eee7c     LIBCMT:winapinls.obj
 0002:00027e8c       ??_C@_1M@LEPJNLFD@?$AAn?$AAs?$AA?9?$AAZ?$AAA?$AA?$AA@ 004eee8c     LIBCMT:winapinls.obj
 0002:00027e98       ??_C@_1M@OMLEIIJB@?$AAm?$AAi?$AA?9?$AAN?$AAZ?$AA?$AA@ 004eee98     LIBCMT:winapinls.obj
 0002:00027ea4       ??_C@_1M@PMPEAILG@?$AAa?$AAr?$AA?9?$AAI?$AAQ?$AA?$AA@ 004eeea4     LIBCMT:winapinls.obj
 0002:00027eb0       ??_C@_1M@CNKPNOEE@?$AAd?$AAe?$AA?9?$AAC?$AAH?$AA?$AA@ 004eeeb0     LIBCMT:winapinls.obj
 0002:00027ebc       ??_C@_1M@LKMGMLKO@?$AAe?$AAn?$AA?9?$AAG?$AAB?$AA?$AA@ 004eeebc     LIBCMT:winapinls.obj
 0002:00027ec8       ??_C@_1M@PGKJFFGL@?$AAe?$AAs?$AA?9?$AAM?$AAX?$AA?$AA@ 004eeec8     LIBCMT:winapinls.obj
 0002:00027ed4       ??_C@_1M@DNNANBDC@?$AAf?$AAr?$AA?9?$AAB?$AAE?$AA?$AA@ 004eeed4     LIBCMT:winapinls.obj
 0002:00027ee0       ??_C@_1M@HLGMDFHM@?$AAi?$AAt?$AA?9?$AAC?$AAH?$AA?$AA@ 004eeee0     LIBCMT:winapinls.obj
 0002:00027eec       ??_C@_1M@CLLBGJH@?$AAn?$AAl?$AA?9?$AAB?$AAE?$AA?$AA@ 004eeeec     LIBCMT:winapinls.obj
 0002:00027ef8       ??_C@_1M@BODBOGLF@?$AAn?$AAn?$AA?9?$AAN?$AAO?$AA?$AA@ 004eeef8     LIBCMT:winapinls.obj
 0002:00027f04       ??_C@_1M@HFFAHKAD@?$AAp?$AAt?$AA?9?$AAP?$AAT?$AA?$AA@ 004eef04     LIBCMT:winapinls.obj
 0002:00027f10       ??_C@_1BG@LNOAKHIE@?$AAs?$AAr?$AA?9?$AAS?$AAP?$AA?9?$AAL?$AAa?$AAt?$AAn?$AA?$AA@ 004eef10     LIBCMT:winapinls.obj
 0002:00027f28       ??_C@_1M@HBMHBGAK@?$AAs?$AAv?$AA?9?$AAF?$AAI?$AA?$AA@ 004eef28     LIBCMT:winapinls.obj
 0002:00027f34       ??_C@_1BG@DGCJGJBE@?$AAa?$AAz?$AA?9?$AAA?$AAZ?$AA?9?$AAC?$AAy?$AAr?$AAl?$AA?$AA@ 004eef34     LIBCMT:winapinls.obj
 0002:00027f4c       ??_C@_1M@KEJDAAHB@?$AAs?$AAe?$AA?9?$AAS?$AAE?$AA?$AA@ 004eef4c     LIBCMT:winapinls.obj
 0002:00027f58       ??_C@_1M@HEIBJJAD@?$AAm?$AAs?$AA?9?$AAB?$AAN?$AA?$AA@ 004eef58     LIBCMT:winapinls.obj
 0002:00027f64       ??_C@_1BG@PBGJMCEM@?$AAu?$AAz?$AA?9?$AAU?$AAZ?$AA?9?$AAC?$AAy?$AAr?$AAl?$AA?$AA@ 004eef64     LIBCMT:winapinls.obj
 0002:00027f7c       ??_C@_1O@LAOBCMDF@?$AAq?$AAu?$AAz?$AA?9?$AAE?$AAC?$AA?$AA@ 004eef7c     LIBCMT:winapinls.obj
 0002:00027f8c       ??_C@_1M@POEEMAIO@?$AAa?$AAr?$AA?9?$AAE?$AAG?$AA?$AA@ 004eef8c     LIBCMT:winapinls.obj
 0002:00027f98       ??_C@_1M@EFAKDEDL@?$AAz?$AAh?$AA?9?$AAH?$AAK?$AA?$AA@ 004eef98     LIBCMT:winapinls.obj
 0002:00027fa4       ??_C@_1M@HKKIJHGI@?$AAd?$AAe?$AA?9?$AAA?$AAT?$AA?$AA@ 004eefa4     LIBCMT:winapinls.obj
 0002:00027fb0       ??_C@_1M@KBFBEHJF@?$AAe?$AAn?$AA?9?$AAA?$AAU?$AA?$AA@ 004eefb0     LIBCMT:winapinls.obj
 0002:00027fbc       ??_C@_1M@MNPLFAAH@?$AAe?$AAs?$AA?9?$AAE?$AAS?$AA?$AA@ 004eefbc     LIBCMT:winapinls.obj
 0002:00027fc8       ??_C@_1M@HJOOJFMA@?$AAf?$AAr?$AA?9?$AAC?$AAA?$AA?$AA@ 004eefc8     LIBCMT:winapinls.obj
 0002:00027fd4       ??_C@_1BG@JPOFPNAB@?$AAs?$AAr?$AA?9?$AAS?$AAP?$AA?9?$AAC?$AAy?$AAr?$AAl?$AA?$AA@ 004eefd4     LIBCMT:winapinls.obj
 0002:00027fec       ??_C@_1M@LNFOCMOB@?$AAs?$AAe?$AA?9?$AAF?$AAI?$AA?$AA@ 004eefec     LIBCMT:winapinls.obj
 0002:00027ff8       ??_C@_1O@MGJBOAMB@?$AAq?$AAu?$AAz?$AA?9?$AAP?$AAE?$AA?$AA@ 004eeff8     LIBCMT:winapinls.obj
 0002:00028008       ??_C@_1M@GJINLBOK@?$AAa?$AAr?$AA?9?$AAL?$AAY?$AA?$AA@ 004ef008     LIBCMT:winapinls.obj
 0002:00028014       ??_C@_1M@GGMNHJNL@?$AAz?$AAh?$AA?9?$AAS?$AAG?$AA?$AA@ 004ef014     LIBCMT:winapinls.obj
 0002:00028020       ??_C@_1M@HOIKODND@?$AAd?$AAe?$AA?9?$AAL?$AAU?$AA?$AA@ 004ef020     LIBCMT:winapinls.obj
 0002:0002802c       ??_C@_1M@DDOCCGFG@?$AAe?$AAn?$AA?9?$AAC?$AAA?$AA?$AA@ 004ef02c     LIBCMT:winapinls.obj
 0002:00028038       ??_C@_1M@BNOEMJLF@?$AAe?$AAs?$AA?9?$AAG?$AAT?$AA?$AA@ 004ef038     LIBCMT:winapinls.obj
 0002:00028044       ??_C@_1M@EOGNKEK@?$AAf?$AAr?$AA?9?$AAC?$AAH?$AA?$AA@ 004ef044     LIBCMT:winapinls.obj
 0002:00028050       ??_C@_1M@FLIDJFHL@?$AAh?$AAr?$AA?9?$AAB?$AAA?$AA?$AA@ 004ef050     LIBCMT:winapinls.obj
 0002:0002805c       ??_C@_1O@FMCELNAJ@?$AAs?$AAm?$AAj?$AA?9?$AAN?$AAO?$AA?$AA@ 004ef05c     LIBCMT:winapinls.obj
 0002:0002806c       ??_C@_1M@JHGLJMGJ@?$AAa?$AAr?$AA?9?$AAD?$AAZ?$AA?$AA@ 004ef06c     LIBCMT:winapinls.obj
 0002:00028078       ??_C@_1M@JKKFDCNP@?$AAz?$AAh?$AA?9?$AAM?$AAO?$AA?$AA@ 004ef078     LIBCMT:winapinls.obj
 0002:00028084       ??_C@_1M@GEEFALPE@?$AAd?$AAe?$AA?9?$AAL?$AAI?$AA?$AA@ 004ef084     LIBCMT:winapinls.obj
 0002:00028090       ??_C@_1M@IGEOFBG@?$AAe?$AAn?$AA?9?$AAN?$AAZ?$AA?$AA@ 004ef090     LIBCMT:winapinls.obj
 0002:0002809c       ??_C@_1M@KDBONEHP@?$AAe?$AAs?$AA?9?$AAC?$AAR?$AA?$AA@ 004ef09c     LIBCMT:winapinls.obj
 0002:000280a8       ??_C@_1M@FHMDOHNN@?$AAf?$AAr?$AA?9?$AAL?$AAU?$AA?$AA@ 004ef0a8     LIBCMT:winapinls.obj
 0002:000280b4       ??_C@_1BG@NFKKMAFG@?$AAb?$AAs?$AA?9?$AAB?$AAA?$AA?9?$AAL?$AAa?$AAt?$AAn?$AA?$AA@ 004ef0b4     LIBCMT:winapinls.obj
 0002:000280cc       ??_C@_1O@IMNBEMCI@?$AAs?$AAm?$AAj?$AA?9?$AAS?$AAE?$AA?$AA@ 004ef0cc     LIBCMT:winapinls.obj
 0002:000280dc       ??_C@_1M@DHHMBNDP@?$AAa?$AAr?$AA?9?$AAM?$AAA?$AA?$AA@ 004ef0dc     LIBCMT:winapinls.obj
 0002:000280e8       ??_C@_1M@BNBLJCGH@?$AAe?$AAn?$AA?9?$AAI?$AAE?$AA?$AA@ 004ef0e8     LIBCMT:winapinls.obj
 0002:000280f4       ??_C@_1M@GEPAFMDL@?$AAe?$AAs?$AA?9?$AAP?$AAA?$AA?$AA@ 004ef0f4     LIBCMT:winapinls.obj
 0002:00028100       ??_C@_1M@OJONDMDL@?$AAf?$AAr?$AA?9?$AAM?$AAC?$AA?$AA@ 004ef100     LIBCMT:winapinls.obj
 0002:0002810c       ??_C@_1BG@OBCNFJB@?$AAs?$AAr?$AA?9?$AAB?$AAA?$AA?9?$AAL?$AAa?$AAt?$AAn?$AA?$AA@ 004ef10c     LIBCMT:winapinls.obj
 0002:00028124       ??_C@_1O@KEMEEGPO@?$AAs?$AAm?$AAa?$AA?9?$AAN?$AAO?$AA?$AA@ 004ef124     LIBCMT:winapinls.obj
 0002:00028134       ??_C@_1M@ELMGFODK@?$AAa?$AAr?$AA?9?$AAT?$AAN?$AA?$AA@ 004ef134     LIBCMT:winapinls.obj
 0002:00028140       ??_C@_1M@BHDLHFAF@?$AAe?$AAn?$AA?9?$AAZ?$AAA?$AA?$AA@ 004ef140     LIBCMT:winapinls.obj
 0002:0002814c       ??_C@_1M@BMGIGLIF@?$AAe?$AAs?$AA?9?$AAD?$AAO?$AA?$AA@ 004ef14c     LIBCMT:winapinls.obj
 0002:00028158       ??_C@_1BG@CMBHIPBE@?$AAs?$AAr?$AA?9?$AAB?$AAA?$AA?9?$AAC?$AAy?$AAr?$AAl?$AA?$AA@ 004ef158     LIBCMT:winapinls.obj
 0002:00028170       ??_C@_1O@HEDBLHNP@?$AAs?$AAm?$AAa?$AA?9?$AAS?$AAE?$AA?$AA@ 004ef170     LIBCMT:winapinls.obj
 0002:00028180       ??_C@_1M@DAGCADIM@?$AAa?$AAr?$AA?9?$AAO?$AAM?$AA?$AA@ 004ef180     LIBCMT:winapinls.obj
 0002:0002818c       ??_C@_1M@FODLMICG@?$AAe?$AAn?$AA?9?$AAJ?$AAM?$AA?$AA@ 004ef18c     LIBCMT:winapinls.obj
 0002:00028198       ??_C@_1M@DNMLCIHB@?$AAe?$AAs?$AA?9?$AAV?$AAE?$AA?$AA@ 004ef198     LIBCMT:winapinls.obj
 0002:000281a4       ??_C@_1O@EOKHMKJK@?$AAs?$AAm?$AAs?$AA?9?$AAF?$AAI?$AA?$AA@ 004ef1a4     LIBCMT:winapinls.obj
 0002:000281b4       ??_C@_1M@CAFJMKOF@?$AAa?$AAr?$AA?9?$AAY?$AAE?$AA?$AA@ 004ef1b4     LIBCMT:winapinls.obj
 0002:000281c0       ??_C@_1M@CBFHIJLI@?$AAe?$AAn?$AA?9?$AAC?$AAB?$AA?$AA@ 004ef1c0     LIBCMT:winapinls.obj
 0002:000281cc       ??_C@_1M@BGNFLDN@?$AAe?$AAs?$AA?9?$AAC?$AAO?$AA?$AA@ 004ef1cc     LIBCMT:winapinls.obj
 0002:000281d8       ??_C@_1O@JMPHMAMC@?$AAs?$AAm?$AAn?$AA?9?$AAF?$AAI?$AA?$AA@ 004ef1d8     LIBCMT:winapinls.obj
 0002:000281e8       ??_C@_1M@JLANABKE@?$AAa?$AAr?$AA?9?$AAS?$AAY?$AA?$AA@ 004ef1e8     LIBCMT:winapinls.obj
 0002:000281f4       ??_C@_1M@HPKGCFGN@?$AAe?$AAn?$AA?9?$AAB?$AAZ?$AA?$AA@ 004ef1f4     LIBCMT:winapinls.obj
 0002:00028200       ??_C@_1M@OLJCMLGM@?$AAe?$AAs?$AA?9?$AAP?$AAE?$AA?$AA@ 004ef200     LIBCMT:winapinls.obj
 0002:0002820c       ??_C@_1M@MKKGFKLE@?$AAa?$AAr?$AA?9?$AAJ?$AAO?$AA?$AA@ 004ef20c     LIBCMT:winapinls.obj
 0002:00028218       ??_C@_1M@EKPGLDNI@?$AAe?$AAn?$AA?9?$AAT?$AAT?$AA?$AA@ 004ef218     LIBCMT:winapinls.obj
 0002:00028224       ??_C@_1M@OONGHFHE@?$AAe?$AAs?$AA?9?$AAA?$AAR?$AA?$AA@ 004ef224     LIBCMT:winapinls.obj
 0002:00028230       ??_C@_1M@OOJFGBHE@?$AAa?$AAr?$AA?9?$AAL?$AAB?$AA?$AA@ 004ef230     LIBCMT:winapinls.obj
 0002:0002823c       ??_C@_1M@GCEJHNEG@?$AAe?$AAn?$AA?9?$AAZ?$AAW?$AA?$AA@ 004ef23c     LIBCMT:winapinls.obj
 0002:00028248       ??_C@_1M@JNOCAHJI@?$AAe?$AAs?$AA?9?$AAE?$AAC?$AA?$AA@ 004ef248     LIBCMT:winapinls.obj
 0002:00028254       ??_C@_1M@JEFHPGGB@?$AAa?$AAr?$AA?9?$AAK?$AAW?$AA?$AA@ 004ef254     LIBCMT:winapinls.obj
 0002:00028260       ??_C@_1M@MLKIBJOJ@?$AAe?$AAn?$AA?9?$AAP?$AAH?$AA?$AA@ 004ef260     LIBCMT:winapinls.obj
 0002:0002826c       ??_C@_1M@BDNIPEND@?$AAe?$AAs?$AA?9?$AAC?$AAL?$AA?$AA@ 004ef26c     LIBCMT:winapinls.obj
 0002:00028278       ??_C@_1M@MPNMEKBD@?$AAa?$AAr?$AA?9?$AAA?$AAE?$AA?$AA@ 004ef278     LIBCMT:winapinls.obj
 0002:00028284       ??_C@_1M@KBJALCPI@?$AAe?$AAs?$AA?9?$AAU?$AAY?$AA?$AA@ 004ef284     LIBCMT:winapinls.obj
 0002:00028290       ??_C@_1M@LLCCOAGA@?$AAa?$AAr?$AA?9?$AAB?$AAH?$AA?$AA@ 004ef290     LIBCMT:winapinls.obj
 0002:0002829c       ??_C@_1M@PBFNCDEL@?$AAe?$AAs?$AA?9?$AAP?$AAY?$AA?$AA@ 004ef29c     LIBCMT:winapinls.obj
 0002:000282a8       ??_C@_1M@EDGINPNP@?$AAa?$AAr?$AA?9?$AAQ?$AAA?$AA?$AA@ 004ef2a8     LIBCMT:winapinls.obj
 0002:000282b4       ??_C@_1M@MKDBIIJI@?$AAe?$AAs?$AA?9?$AAB?$AAO?$AA?$AA@ 004ef2b4     LIBCMT:winapinls.obj
 0002:000282c0       ??_C@_1M@CPKKEBLD@?$AAe?$AAs?$AA?9?$AAS?$AAV?$AA?$AA@ 004ef2c0     LIBCMT:winapinls.obj
 0002:000282cc       ??_C@_1M@NDBGMMJL@?$AAe?$AAs?$AA?9?$AAH?$AAN?$AA?$AA@ 004ef2cc     LIBCMT:winapinls.obj
 0002:000282d8       ??_C@_1M@JIJIBHDP@?$AAe?$AAs?$AA?9?$AAN?$AAI?$AA?$AA@ 004ef2d8     LIBCMT:winapinls.obj
 0002:000282e4       ??_C@_1M@CGFMKEEK@?$AAe?$AAs?$AA?9?$AAP?$AAR?$AA?$AA@ 004ef2e4     LIBCMT:winapinls.obj
 0002:000282f0       ??_C@_1O@ICJHKIIK@?$AAz?$AAh?$AA?9?$AAC?$AAH?$AAT?$AA?$AA@ 004ef2f0     LIBCMT:winapinls.obj
 0002:00028300       ??_C@_15CLNEJCE@?$AAs?$AAr?$AA?$AA@ 004ef300     LIBCMT:winapinls.obj
 0002:00028308       ??_C@_1M@KAHEKEIG@?$AAa?$AAf?$AA?9?$AAz?$AAa?$AA?$AA@ 004ef308     LIBCMT:winapinls.obj
 0002:00028314       ??_C@_1M@GIECOABL@?$AAa?$AAr?$AA?9?$AAa?$AAe?$AA?$AA@ 004ef314     LIBCMT:winapinls.obj
 0002:00028320       ??_C@_1M@BMLMEKGI@?$AAa?$AAr?$AA?9?$AAb?$AAh?$AA?$AA@ 004ef320     LIBCMT:winapinls.obj
 0002:0002832c       ??_C@_1M@DAPFDGGB@?$AAa?$AAr?$AA?9?$AAd?$AAz?$AA?$AA@ 004ef32c     LIBCMT:winapinls.obj
 0002:00028338       ??_C@_1M@FJNKGKIG@?$AAa?$AAr?$AA?9?$AAe?$AAg?$AA?$AA@ 004ef338     LIBCMT:winapinls.obj
 0002:00028344       ??_C@_1M@FLGKKCLO@?$AAa?$AAr?$AA?9?$AAi?$AAq?$AA?$AA@ 004ef344     LIBCMT:winapinls.obj
 0002:00028350       ??_C@_1M@GNDIPALM@?$AAa?$AAr?$AA?9?$AAj?$AAo?$AA?$AA@ 004ef350     LIBCMT:winapinls.obj
 0002:0002835c       ??_C@_1M@DDMJFMGJ@?$AAa?$AAr?$AA?9?$AAk?$AAw?$AA?$AA@ 004ef35c     LIBCMT:winapinls.obj
 0002:00028368       ??_C@_1M@EJALMLHM@?$AAa?$AAr?$AA?9?$AAl?$AAb?$AA?$AA@ 004ef368     LIBCMT:winapinls.obj
 0002:00028374       ??_C@_1M@MOBDBLOC@?$AAa?$AAr?$AA?9?$AAl?$AAy?$AA?$AA@ 004ef374     LIBCMT:winapinls.obj
 0002:00028380       ??_C@_1M@JAOCLHDH@?$AAa?$AAr?$AA?9?$AAm?$AAa?$AA?$AA@ 004ef380     LIBCMT:winapinls.obj
 0002:0002838c       ??_C@_1M@JHPMKJIE@?$AAa?$AAr?$AA?9?$AAo?$AAm?$AA?$AA@ 004ef38c     LIBCMT:winapinls.obj
 0002:00028398       ??_C@_1M@OEPGHFNH@?$AAa?$AAr?$AA?9?$AAq?$AAa?$AA?$AA@ 004ef398     LIBCMT:winapinls.obj
 0002:000283a4       ??_C@_1M@KJDONENM@?$AAa?$AAr?$AA?9?$AAs?$AAa?$AA?$AA@ 004ef3a4     LIBCMT:winapinls.obj
 0002:000283b0       ??_C@_1M@DMJDKLKM@?$AAa?$AAr?$AA?9?$AAs?$AAy?$AA?$AA@ 004ef3b0     LIBCMT:winapinls.obj
 0002:000283bc       ??_C@_1M@OMFIPEDC@?$AAa?$AAr?$AA?9?$AAt?$AAn?$AA?$AA@ 004ef3bc     LIBCMT:winapinls.obj
 0002:000283c8       ??_C@_1M@IHMHGAON@?$AAa?$AAr?$AA?9?$AAy?$AAe?$AA?$AA@ 004ef3c8     LIBCMT:winapinls.obj
 0002:000283d4       ??_C@_1BG@KDCPGJGB@?$AAa?$AAz?$AA?9?$AAa?$AAz?$AA?9?$AAc?$AAy?$AAr?$AAl?$AA?$AA@ 004ef3d4     LIBCMT:winapinls.obj
 0002:000283ec       ??_C@_1BG@IBCKDDOE@?$AAa?$AAz?$AA?9?$AAa?$AAz?$AA?9?$AAl?$AAa?$AAt?$AAn?$AA?$AA@ 004ef3ec     LIBCMT:winapinls.obj
 0002:00028404       ??_C@_1M@EGPFDCPD@?$AAb?$AAe?$AA?9?$AAb?$AAy?$AA?$AA@ 004ef404     LIBCMT:winapinls.obj
 0002:00028410       ??_C@_1M@PCMGMCGC@?$AAb?$AAg?$AA?9?$AAb?$AAg?$AA?$AA@ 004ef410     LIBCMT:winapinls.obj
 0002:0002841c       ??_C@_1M@BJBMFGOB@?$AAb?$AAn?$AA?9?$AAi?$AAn?$AA?$AA@ 004ef41c     LIBCMT:winapinls.obj
 0002:00028428       ??_C@_1BG@EAKMMACD@?$AAb?$AAs?$AA?9?$AAb?$AAa?$AA?9?$AAl?$AAa?$AAt?$AAn?$AA?$AA@ 004ef428     LIBCMT:winapinls.obj
 0002:00028440       ??_C@_1M@KGADAODK@?$AAc?$AAa?$AA?9?$AAe?$AAs?$AA?$AA@ 004ef440     LIBCMT:winapinls.obj
 0002:0002844c       ??_C@_1M@COAJPDHI@?$AAc?$AAs?$AA?9?$AAc?$AAz?$AA?$AA@ 004ef44c     LIBCMT:winapinls.obj
 0002:00028458       ??_C@_1M@DHBHFONH@?$AAc?$AAy?$AA?9?$AAg?$AAb?$AA?$AA@ 004ef458     LIBCMT:winapinls.obj
 0002:00028464       ??_C@_1M@IMGKELGA@?$AAd?$AAa?$AA?9?$AAd?$AAk?$AA?$AA@ 004ef464     LIBCMT:winapinls.obj
 0002:00028470       ??_C@_1M@NNDGDNGA@?$AAd?$AAe?$AA?9?$AAa?$AAt?$AA?$AA@ 004ef470     LIBCMT:winapinls.obj
 0002:0002847c       ??_C@_1M@IKDBHEEM@?$AAd?$AAe?$AA?9?$AAc?$AAh?$AA?$AA@ 004ef47c     LIBCMT:winapinls.obj
 0002:00028488       ??_C@_1M@GFFOJMCJ@?$AAd?$AAe?$AA?9?$AAd?$AAe?$AA?$AA@ 004ef488     LIBCMT:winapinls.obj
 0002:00028494       ??_C@_1M@MDNLKBPM@?$AAd?$AAe?$AA?9?$AAl?$AAi?$AA?$AA@ 004ef494     LIBCMT:winapinls.obj
 0002:000284a0       ??_C@_1M@NJBEEJNL@?$AAd?$AAe?$AA?9?$AAl?$AAu?$AA?$AA@ 004ef4a0     LIBCMT:winapinls.obj
 0002:000284ac       ??_C@_1O@GNNELBAP@?$AAd?$AAi?$AAv?$AA?9?$AAm?$AAv?$AA?$AA@ 004ef4ac     LIBCMT:winapinls.obj
 0002:000284bc       ??_C@_1M@EJLEOGAE@?$AAe?$AAl?$AA?9?$AAg?$AAr?$AA?$AA@ 004ef4bc     LIBCMT:winapinls.obj
 0002:000284c8       ??_C@_1M@GMPONJN@?$AAe?$AAn?$AA?9?$AAa?$AAu?$AA?$AA@ 004ef4c8     LIBCMT:winapinls.obj
 0002:000284d4       ??_C@_1M@NIDIIPGF@?$AAe?$AAn?$AA?9?$AAb?$AAz?$AA?$AA@ 004ef4d4     LIBCMT:winapinls.obj
 0002:000284e0       ??_C@_1M@JEHMIMFO@?$AAe?$AAn?$AA?9?$AAc?$AAa?$AA?$AA@ 004ef4e0     LIBCMT:winapinls.obj
 0002:000284ec       ??_C@_1M@IGMJCDLA@?$AAe?$AAn?$AA?9?$AAc?$AAb?$AA?$AA@ 004ef4ec     LIBCMT:winapinls.obj
 0002:000284f8       ??_C@_1M@BNFIGBKG@?$AAe?$AAn?$AA?9?$AAg?$AAb?$AA?$AA@ 004ef4f8     LIBCMT:winapinls.obj
 0002:00028504       ??_C@_1M@LKIFDIGP@?$AAe?$AAn?$AA?9?$AAi?$AAe?$AA?$AA@ 004ef504     LIBCMT:winapinls.obj
 0002:00028510       ??_C@_1M@PJKFGCCO@?$AAe?$AAn?$AA?9?$AAj?$AAm?$AA?$AA@ 004ef510     LIBCMT:winapinls.obj
 0002:0002851c       ??_C@_1M@KPPKEPBO@?$AAe?$AAn?$AA?9?$AAn?$AAz?$AA?$AA@ 004ef51c     LIBCMT:winapinls.obj
 0002:00028528       ??_C@_1M@GMDGLDOB@?$AAe?$AAn?$AA?9?$AAp?$AAh?$AA?$AA@ 004ef528     LIBCMT:winapinls.obj
 0002:00028534       ??_C@_1M@ONGIBJNA@?$AAe?$AAn?$AA?9?$AAt?$AAt?$AA?$AA@ 004ef534     LIBCMT:winapinls.obj
 0002:00028540       ??_C@_1M@LLODPCMM@?$AAe?$AAn?$AA?9?$AAu?$AAs?$AA?$AA@ 004ef540     LIBCMT:winapinls.obj
 0002:0002854c       ??_C@_1M@LAKFNPAN@?$AAe?$AAn?$AA?9?$AAz?$AAa?$AA?$AA@ 004ef54c     LIBCMT:winapinls.obj
 0002:00028558       ??_C@_1M@MFNHNHEO@?$AAe?$AAn?$AA?9?$AAz?$AAw?$AA?$AA@ 004ef558     LIBCMT:winapinls.obj
 0002:00028564       ??_C@_1M@EJEINPHM@?$AAe?$AAs?$AA?9?$AAa?$AAr?$AA?$AA@ 004ef564     LIBCMT:winapinls.obj
 0002:00028570       ??_C@_1M@GNKPCCJA@?$AAe?$AAs?$AA?9?$AAb?$AAo?$AA?$AA@ 004ef570     LIBCMT:winapinls.obj
 0002:0002857c       ??_C@_1M@LEEGFONL@?$AAe?$AAs?$AA?9?$AAc?$AAl?$AA?$AA@ 004ef57c     LIBCMT:winapinls.obj
 0002:00028588       ??_C@_1M@KGPDPBDF@?$AAe?$AAs?$AA?9?$AAc?$AAo?$AA?$AA@ 004ef588     LIBCMT:winapinls.obj
 0002:00028594       ??_C@_1M@EIAHOHH@?$AAe?$AAs?$AA?9?$AAc?$AAr?$AA?$AA@ 004ef594     LIBCMT:winapinls.obj
 0002:000285a0       ??_C@_1M@LLPGMBIN@?$AAe?$AAs?$AA?9?$AAd?$AAo?$AA?$AA@ 004ef5a0     LIBCMT:winapinls.obj
 0002:000285ac       ??_C@_1M@DKHMKNJA@?$AAe?$AAs?$AA?9?$AAe?$AAc?$AA?$AA@ 004ef5ac     LIBCMT:winapinls.obj
 0002:000285b8       ??_C@_1M@GKGFPKAP@?$AAe?$AAs?$AA?9?$AAe?$AAs?$AA?$AA@ 004ef5b8     LIBCMT:winapinls.obj
 0002:000285c4       ??_C@_1M@LKHKGDLN@?$AAe?$AAs?$AA?9?$AAg?$AAt?$AA?$AA@ 004ef5c4     LIBCMT:winapinls.obj
 0002:000285d0       ??_C@_1M@HEIIGGJD@?$AAe?$AAs?$AA?9?$AAh?$AAn?$AA?$AA@ 004ef5d0     LIBCMT:winapinls.obj
 0002:000285dc       ??_C@_1M@FBDHPPGD@?$AAe?$AAs?$AA?9?$AAm?$AAx?$AA?$AA@ 004ef5dc     LIBCMT:winapinls.obj
 0002:000285e8       ??_C@_1M@DPAGLNDH@?$AAe?$AAs?$AA?9?$AAn?$AAi?$AA?$AA@ 004ef5e8     LIBCMT:winapinls.obj
 0002:000285f4       ??_C@_1M@MDGOPGDD@?$AAe?$AAs?$AA?9?$AAp?$AAa?$AA?$AA@ 004ef5f4     LIBCMT:winapinls.obj
 0002:00028600       ??_C@_1M@EMAMGBGE@?$AAe?$AAs?$AA?9?$AAp?$AAe?$AA?$AA@ 004ef600     LIBCMT:winapinls.obj
 0002:0002860c       ??_C@_1M@IBMCAOEC@?$AAe?$AAs?$AA?9?$AAp?$AAr?$AA?$AA@ 004ef60c     LIBCMT:winapinls.obj
 0002:00028618       ??_C@_1M@FGMDIJED@?$AAe?$AAs?$AA?9?$AAp?$AAy?$AA?$AA@ 004ef618     LIBCMT:winapinls.obj
 0002:00028624       ??_C@_1M@IIDEOLLL@?$AAe?$AAs?$AA?9?$AAs?$AAv?$AA?$AA@ 004ef624     LIBCMT:winapinls.obj
 0002:00028630       ??_C@_1M@GAOBIPA@?$AAe?$AAs?$AA?9?$AAu?$AAy?$AA?$AA@ 004ef630     LIBCMT:winapinls.obj
 0002:0002863c       ??_C@_1M@JKFFICHJ@?$AAe?$AAs?$AA?9?$AAv?$AAe?$AA?$AA@ 004ef63c     LIBCMT:winapinls.obj
 0002:00028648       ??_C@_1M@PNMLOJDF@?$AAe?$AAt?$AA?9?$AAe?$AAe?$AA?$AA@ 004ef648     LIBCMT:winapinls.obj
 0002:00028654       ??_C@_1M@GHHLIKEI@?$AAe?$AAu?$AA?9?$AAe?$AAs?$AA?$AA@ 004ef654     LIBCMT:winapinls.obj
 0002:00028660       ??_C@_1M@PBNONODE@?$AAf?$AAa?$AA?9?$AAi?$AAr?$AA?$AA@ 004ef660     LIBCMT:winapinls.obj
 0002:0002866c       ??_C@_1M@JEEHPMIL@?$AAf?$AAi?$AA?9?$AAf?$AAi?$AA?$AA@ 004ef66c     LIBCMT:winapinls.obj
 0002:00028678       ??_C@_1M@LMDCNDBA@?$AAf?$AAo?$AA?9?$AAf?$AAo?$AA?$AA@ 004ef678     LIBCMT:winapinls.obj
 0002:00028684       ??_C@_1M@JKEOHLDK@?$AAf?$AAr?$AA?9?$AAb?$AAe?$AA?$AA@ 004ef684     LIBCMT:winapinls.obj
 0002:00028690       ??_C@_1M@NOHADPMI@?$AAf?$AAr?$AA?9?$AAc?$AAa?$AA?$AA@ 004ef690     LIBCMT:winapinls.obj
 0002:0002869c       ??_C@_1M@KDHIHAEC@?$AAf?$AAr?$AA?9?$AAc?$AAh?$AA?$AA@ 004ef69c     LIBCMT:winapinls.obj
 0002:000286a8       ??_C@_1M@MMBBFGAK@?$AAf?$AAr?$AA?9?$AAf?$AAr?$AA?$AA@ 004ef6a8     LIBCMT:winapinls.obj
 0002:000286b4       ??_C@_1M@PAFNENNF@?$AAf?$AAr?$AA?9?$AAl?$AAu?$AA?$AA@ 004ef6b4     LIBCMT:winapinls.obj
 0002:000286c0       ??_C@_1M@EOHDJGDD@?$AAf?$AAr?$AA?9?$AAm?$AAc?$AA?$AA@ 004ef6c0     LIBCMT:winapinls.obj
 0002:000286cc       ??_C@_1M@FAPLLOPF@?$AAg?$AAl?$AA?9?$AAe?$AAs?$AA?$AA@ 004ef6cc     LIBCMT:winapinls.obj
 0002:000286d8       ??_C@_1M@FOPBFLOO@?$AAg?$AAu?$AA?9?$AAi?$AAn?$AA?$AA@ 004ef6d8     LIBCMT:winapinls.obj
 0002:000286e4       ??_C@_1M@KBMCINPM@?$AAh?$AAe?$AA?9?$AAi?$AAl?$AA?$AA@ 004ef6e4     LIBCMT:winapinls.obj
 0002:000286f0       ??_C@_1M@BBPHKFPJ@?$AAh?$AAi?$AA?9?$AAi?$AAn?$AA?$AA@ 004ef6f0     LIBCMT:winapinls.obj
 0002:000286fc       ??_C@_1M@PMBNDPHD@?$AAh?$AAr?$AA?9?$AAb?$AAa?$AA?$AA@ 004ef6fc     LIBCMT:winapinls.obj
 0002:00028708       ??_C@_1M@BPCKOEGE@?$AAh?$AAr?$AA?9?$AAh?$AAr?$AA?$AA@ 004ef708     LIBCMT:winapinls.obj
 0002:00028714       ??_C@_1M@GACBMHKE@?$AAh?$AAu?$AA?9?$AAh?$AAu?$AA?$AA@ 004ef714     LIBCMT:winapinls.obj
 0002:00028720       ??_C@_1M@MILPAJJC@?$AAh?$AAy?$AA?9?$AAa?$AAm?$AA?$AA@ 004ef720     LIBCMT:winapinls.obj
 0002:0002872c       ??_C@_1M@BABBICEC@?$AAi?$AAd?$AA?9?$AAi?$AAd?$AA?$AA@ 004ef72c     LIBCMT:winapinls.obj
 0002:00028738       ??_C@_1M@BIKNHHPF@?$AAi?$AAs?$AA?9?$AAi?$AAs?$AA?$AA@ 004ef738     LIBCMT:winapinls.obj
 0002:00028744       ??_C@_1M@NMPCJPHE@?$AAi?$AAt?$AA?9?$AAc?$AAh?$AA?$AA@ 004ef744     LIBCMT:winapinls.obj
 0002:00028750       ??_C@_1M@GHKGFEDF@?$AAi?$AAt?$AA?9?$AAi?$AAt?$AA?$AA@ 004ef750     LIBCMT:winapinls.obj
 0002:0002875c       ??_C@_1M@NIEJCJJA@?$AAj?$AAa?$AA?9?$AAj?$AAp?$AA?$AA@ 004ef75c     LIBCMT:winapinls.obj
 0002:00028768       ??_C@_1M@JILFNBIM@?$AAk?$AAa?$AA?9?$AAg?$AAe?$AA?$AA@ 004ef768     LIBCMT:winapinls.obj
 0002:00028774       ??_C@_1M@PACPMGPH@?$AAk?$AAk?$AA?9?$AAk?$AAz?$AA?$AA@ 004ef774     LIBCMT:winapinls.obj
 0002:00028780       ??_C@_1M@IELFGMHA@?$AAk?$AAn?$AA?9?$AAi?$AAn?$AA?$AA@ 004ef780     LIBCMT:winapinls.obj
 0002:0002878c       ??_C@_1O@IBBJHCH@?$AAk?$AAo?$AAk?$AA?9?$AAi?$AAn?$AA?$AA@ 004ef78c     LIBCMT:winapinls.obj
 0002:0002879c       ??_C@_1M@DMHAEOGC@?$AAk?$AAo?$AA?9?$AAk?$AAr?$AA?$AA@ 004ef79c     LIBCMT:winapinls.obj
 0002:000287a8       ??_C@_1M@HBAHBIGA@?$AAk?$AAy?$AA?9?$AAk?$AAg?$AA?$AA@ 004ef7a8     LIBCMT:winapinls.obj
 0002:000287b4       ??_C@_1M@KPMILCJG@?$AAl?$AAt?$AA?9?$AAl?$AAt?$AA?$AA@ 004ef7b4     LIBCMT:winapinls.obj
 0002:000287c0       ??_C@_1M@BDEKKCA@?$AAl?$AAv?$AA?9?$AAl?$AAv?$AA?$AA@ 004ef7c0     LIBCMT:winapinls.obj
 0002:000287cc       ??_C@_1M@ELCKCCJJ@?$AAm?$AAi?$AA?9?$AAn?$AAz?$AA?$AA@ 004ef7cc     LIBCMT:winapinls.obj
 0002:000287d8       ??_C@_1M@CBOOLAPA@?$AAm?$AAk?$AA?9?$AAm?$AAk?$AA?$AA@ 004ef7d8     LIBCMT:winapinls.obj
 0002:000287e4       ??_C@_1M@GPHNBJKN@?$AAm?$AAl?$AA?9?$AAi?$AAn?$AA?$AA@ 004ef7e4     LIBCMT:winapinls.obj
 0002:000287f0       ??_C@_1M@PABJILIG@?$AAm?$AAn?$AA?9?$AAm?$AAn?$AA?$AA@ 004ef7f0     LIBCMT:winapinls.obj
 0002:000287fc       ??_C@_1M@FGBKKIPG@?$AAm?$AAr?$AA?9?$AAi?$AAn?$AA?$AA@ 004ef7fc     LIBCMT:winapinls.obj
 0002:00028808       ??_C@_1M@NDBPDDAL@?$AAm?$AAs?$AA?9?$AAb?$AAn?$AA?$AA@ 004ef808     LIBCMT:winapinls.obj
 0002:00028814       ??_C@_1M@OPIHOOPI@?$AAm?$AAs?$AA?9?$AAm?$AAy?$AA?$AA@ 004ef814     LIBCMT:winapinls.obj
 0002:00028820       ??_C@_1M@PPDBCNFM@?$AAm?$AAt?$AA?9?$AAm?$AAt?$AA?$AA@ 004ef820     LIBCMT:winapinls.obj
 0002:0002882c       ??_C@_1M@KDJDKMDD@?$AAn?$AAb?$AA?9?$AAn?$AAo?$AA?$AA@ 004ef82c     LIBCMT:winapinls.obj
 0002:00028838       ??_C@_1M@KFCFLMJP@?$AAn?$AAl?$AA?9?$AAb?$AAe?$AA?$AA@ 004ef838     LIBCMT:winapinls.obj
 0002:00028844       ??_C@_1M@KPOPDDGO@?$AAn?$AAl?$AA?9?$AAn?$AAl?$AA?$AA@ 004ef844     LIBCMT:winapinls.obj
 0002:00028850       ??_C@_1M@LJKPEMLN@?$AAn?$AAn?$AA?9?$AAn?$AAo?$AA?$AA@ 004ef850     LIBCMT:winapinls.obj
 0002:0002885c       ??_C@_1M@BDGHHBFL@?$AAn?$AAs?$AA?9?$AAz?$AAa?$AA?$AA@ 004ef85c     LIBCMT:winapinls.obj
 0002:00028868       ??_C@_1M@IDEHOAP@?$AAp?$AAa?$AA?9?$AAi?$AAn?$AA?$AA@ 004ef868     LIBCMT:winapinls.obj
 0002:00028874       ??_C@_1M@HDBKGOGH@?$AAp?$AAl?$AA?9?$AAp?$AAl?$AA?$AA@ 004ef874     LIBCMT:winapinls.obj
 0002:00028880       ??_C@_1M@LJLLCMEH@?$AAp?$AAt?$AA?9?$AAb?$AAr?$AA?$AA@ 004ef880     LIBCMT:winapinls.obj
 0002:0002888c       ??_C@_1M@NCMONAAL@?$AAp?$AAt?$AA?9?$AAp?$AAt?$AA?$AA@ 004ef88c     LIBCMT:winapinls.obj
 0002:00028898       ??_C@_1O@EAKMAJDN@?$AAq?$AAu?$AAz?$AA?9?$AAb?$AAo?$AA?$AA@ 004ef898     LIBCMT:winapinls.obj
 0002:000288a8       ??_C@_1O@BHHPIGDN@?$AAq?$AAu?$AAz?$AA?9?$AAe?$AAc?$AA?$AA@ 004ef8a8     LIBCMT:winapinls.obj
 0002:000288b8       ??_C@_1O@GBAPEKMJ@?$AAq?$AAu?$AAz?$AA?9?$AAp?$AAe?$AA?$AA@ 004ef8b8     LIBCMT:winapinls.obj
 0002:000288c8       ??_C@_1M@CLGLEFBO@?$AAr?$AAo?$AA?9?$AAr?$AAo?$AA?$AA@ 004ef8c8     LIBCMT:winapinls.obj
 0002:000288d4       ??_C@_1M@CEEDODME@?$AAr?$AAu?$AA?9?$AAr?$AAu?$AA?$AA@ 004ef8d4     LIBCMT:winapinls.obj
 0002:000288e0       ??_C@_1M@HPKKKMPP@?$AAs?$AAa?$AA?9?$AAi?$AAn?$AA?$AA@ 004ef8e0     LIBCMT:winapinls.obj
 0002:000288ec       ??_C@_1M@BKMAIGOJ@?$AAs?$AAe?$AA?9?$AAf?$AAi?$AA?$AA@ 004ef8ec     LIBCMT:winapinls.obj
 0002:000288f8       ??_C@_1M@NDPIFLFI@?$AAs?$AAe?$AA?9?$AAn?$AAo?$AA?$AA@ 004ef8f8     LIBCMT:winapinls.obj
 0002:00028904       ??_C@_1M@DANKKHJ@?$AAs?$AAe?$AA?9?$AAs?$AAe?$AA?$AA@ 004ef904     LIBCMT:winapinls.obj
 0002:00028910       ??_C@_1M@PNBLONPJ@?$AAs?$AAk?$AA?9?$AAs?$AAk?$AA?$AA@ 004ef910     LIBCMT:winapinls.obj
 0002:0002891c       ??_C@_1M@LFMODOAL@?$AAs?$AAl?$AA?9?$AAs?$AAi?$AA?$AA@ 004ef91c     LIBCMT:winapinls.obj
 0002:00028928       ??_C@_1O@DFKOMPG@?$AAs?$AAm?$AAa?$AA?9?$AAn?$AAo?$AA?$AA@ 004ef928     LIBCMT:winapinls.obj
 0002:00028938       ??_C@_1O@NDKPBNNH@?$AAs?$AAm?$AAa?$AA?9?$AAs?$AAe?$AA?$AA@ 004ef938     LIBCMT:winapinls.obj
 0002:00028948       ??_C@_1O@PLLKBHAB@?$AAs?$AAm?$AAj?$AA?9?$AAn?$AAo?$AA?$AA@ 004ef948     LIBCMT:winapinls.obj
 0002:00028958       ??_C@_1O@CLEPOGCA@?$AAs?$AAm?$AAj?$AA?9?$AAs?$AAe?$AA?$AA@ 004ef958     LIBCMT:winapinls.obj
 0002:00028968       ??_C@_1O@DLGJGKMK@?$AAs?$AAm?$AAn?$AA?9?$AAf?$AAi?$AA?$AA@ 004ef968     LIBCMT:winapinls.obj
 0002:00028978       ??_C@_1O@OJDJGAJC@?$AAs?$AAm?$AAs?$AA?9?$AAf?$AAi?$AA?$AA@ 004ef978     LIBCMT:winapinls.obj
 0002:00028988       ??_C@_1M@BOFOGHPB@?$AAs?$AAq?$AA?9?$AAa?$AAl?$AA?$AA@ 004ef988     LIBCMT:winapinls.obj
 0002:00028994       ??_C@_1BG@LJBBIPGB@?$AAs?$AAr?$AA?9?$AAb?$AAa?$AA?9?$AAc?$AAy?$AAr?$AAl?$AA?$AA@ 004ef994     LIBCMT:winapinls.obj
 0002:000289ac       ??_C@_1BG@JLBENFOE@?$AAs?$AAr?$AA?9?$AAb?$AAa?$AA?9?$AAl?$AAa?$AAt?$AAn?$AA?$AA@ 004ef9ac     LIBCMT:winapinls.obj
 0002:000289c4       ??_C@_1BG@KODPNHE@?$AAs?$AAr?$AA?9?$AAs?$AAp?$AA?9?$AAc?$AAy?$AAr?$AAl?$AA?$AA@ 004ef9c4     LIBCMT:winapinls.obj
 0002:000289dc       ??_C@_1BG@CIOGKHPB@?$AAs?$AAr?$AA?9?$AAs?$AAp?$AA?9?$AAl?$AAa?$AAt?$AAn?$AA?$AA@ 004ef9dc     LIBCMT:winapinls.obj
 0002:000289f4       ??_C@_1M@NGFJLMAC@?$AAs?$AAv?$AA?9?$AAf?$AAi?$AA?$AA@ 004ef9f4     LIBCMT:winapinls.obj
 0002:00028a00       ??_C@_1M@MPJEJAJC@?$AAs?$AAv?$AA?9?$AAs?$AAe?$AA?$AA@ 004efa00     LIBCMT:winapinls.obj
 0002:00028a0c       ??_C@_1M@MPNDHLFK@?$AAs?$AAw?$AA?9?$AAk?$AAe?$AA?$AA@ 004efa0c     LIBCMT:winapinls.obj
 0002:00028a18       ??_C@_1O@KOHBJJI@?$AAs?$AAy?$AAr?$AA?9?$AAs?$AAy?$AA?$AA@ 004efa18     LIBCMT:winapinls.obj
 0002:00028a28       ??_C@_1M@LDCEFHA@?$AAt?$AAa?$AA?9?$AAi?$AAn?$AA?$AA@ 004efa28     LIBCMT:winapinls.obj
 0002:00028a34       ??_C@_1M@CNJOFAK@?$AAt?$AAe?$AA?9?$AAi?$AAn?$AA?$AA@ 004efa34     LIBCMT:winapinls.obj
 0002:00028a40       ??_C@_1M@GNAECACD@?$AAt?$AAh?$AA?9?$AAt?$AAh?$AA?$AA@ 004efa40     LIBCMT:winapinls.obj
 0002:00028a4c       ??_C@_1M@CHBIHOJO@?$AAt?$AAn?$AA?9?$AAz?$AAa?$AA?$AA@ 004efa4c     LIBCMT:winapinls.obj
 0002:00028a58       ??_C@_1M@GCCMIGPJ@?$AAt?$AAr?$AA?9?$AAt?$AAr?$AA?$AA@ 004efa58     LIBCMT:winapinls.obj
 0002:00028a64       ??_C@_1M@CELMCNBK@?$AAt?$AAt?$AA?9?$AAr?$AAu?$AA?$AA@ 004efa64     LIBCMT:winapinls.obj
 0002:00028a70       ??_C@_1M@KLMCELGA@?$AAu?$AAk?$AA?9?$AAu?$AAa?$AA?$AA@ 004efa70     LIBCMT:winapinls.obj
 0002:00028a7c       ??_C@_1M@EPAJJAJF@?$AAu?$AAr?$AA?9?$AAp?$AAk?$AA?$AA@ 004efa7c     LIBCMT:winapinls.obj
 0002:00028a88       ??_C@_1BG@GEGPMCDJ@?$AAu?$AAz?$AA?9?$AAu?$AAz?$AA?9?$AAc?$AAy?$AAr?$AAl?$AA?$AA@ 004efa88     LIBCMT:winapinls.obj
 0002:00028aa0       ??_C@_1BG@EGGKJILM@?$AAu?$AAz?$AA?9?$AAu?$AAz?$AA?9?$AAl?$AAa?$AAt?$AAn?$AA?$AA@ 004efaa0     LIBCMT:winapinls.obj
 0002:00028ab8       ??_C@_1M@GFOCLFF@?$AAv?$AAi?$AA?9?$AAv?$AAn?$AA?$AA@ 004efab8     LIBCMT:winapinls.obj
 0002:00028ac4       ??_C@_1M@CPAMEDFI@?$AAx?$AAh?$AA?9?$AAz?$AAa?$AA?$AA@ 004efac4     LIBCMT:winapinls.obj
 0002:00028ad0       ??_C@_1O@EBKIFIGN@?$AAz?$AAh?$AA?9?$AAc?$AAh?$AAs?$AA?$AA@ 004efad0     LIBCMT:winapinls.obj
 0002:00028ae0       ??_C@_1O@NMHPGANE@?$AAz?$AAh?$AA?9?$AAc?$AAh?$AAt?$AA?$AA@ 004efae0     LIBCMT:winapinls.obj
 0002:00028af0       ??_C@_1M@LPINJOMC@?$AAz?$AAh?$AA?9?$AAc?$AAn?$AA?$AA@ 004efaf0     LIBCMT:winapinls.obj
 0002:00028afc       ??_C@_1M@OCJEJODD@?$AAz?$AAh?$AA?9?$AAh?$AAk?$AA?$AA@ 004efafc     LIBCMT:winapinls.obj
 0002:00028b08       ??_C@_1M@DNDLJINH@?$AAz?$AAh?$AA?9?$AAm?$AAo?$AA?$AA@ 004efb08     LIBCMT:winapinls.obj
 0002:00028b14       ??_C@_1M@MBFDNDND@?$AAz?$AAh?$AA?9?$AAs?$AAg?$AA?$AA@ 004efb14     LIBCMT:winapinls.obj
 0002:00028b20       ??_C@_1M@IMEPLEPE@?$AAz?$AAh?$AA?9?$AAt?$AAw?$AA?$AA@ 004efb20     LIBCMT:winapinls.obj
 0002:00028b2c       ??_C@_1M@BBGHNHJP@?$AAz?$AAu?$AA?9?$AAz?$AAa?$AA?$AA@ 004efb2c     LIBCMT:winapinls.obj
 0002:00028b38       ___newctype                004efb38     LIBCMT:ctype.obj
 0002:00028e38       __wctype                   004efe38     LIBCMT:ctype.obj
 0002:00029040       ___newclmap                004f0040     LIBCMT:ctype.obj
 0002:000291c0       ___newcumap                004f01c0     LIBCMT:ctype.obj
 0002:00029340       ___rg_language_count       004f0340     LIBCMT:getqloc.obj
 0002:00029344       ___rg_country_count        004f0344     LIBCMT:getqloc.obj
 0002:00029348       ??_C@_1BG@GOEBHBDC@?$AAU?$AAS?$AAE?$AAR?$AA3?$AA2?$AA?4?$AAD?$AAL?$AAL?$AA?$AA@ 004f0348     LIBCMT:crtmboxw.obj
 0002:00029360       ??_C@_0M@DLDCCGNP@MessageBoxW?$AA@ 004f0360     LIBCMT:crtmboxw.obj
 0002:0002936c       ??_C@_0BA@HNOPNCHB@GetActiveWindow?$AA@ 004f036c     LIBCMT:crtmboxw.obj
 0002:0002937c       ??_C@_0BD@HHGDFDBJ@GetLastActivePopup?$AA@ 004f037c     LIBCMT:crtmboxw.obj
 0002:00029390       ??_C@_0BK@DEKFELLI@GetUserObjectInformationW?$AA@ 004f0390     LIBCMT:crtmboxw.obj
 0002:000293ac       ??_C@_0BI@DFKBFLJE@GetProcessWindowStation?$AA@ 004f03ac     LIBCMT:crtmboxw.obj
 0002:0002fbd0       __infinity                 004f6bd0     LIBCMT:87tran.obj
 0002:0002fbda       __minfinity                004f6bda     LIBCMT:87tran.obj
 0002:0002fbe4       __logemax                  004f6be4     LIBCMT:87tran.obj
 0002:0002fc0a       __OP_EXPjmptab             004f6c0a     LIBCMT:87tran.obj
 0002:0002fc2c       ??_C@_06PGGFOGJG@1?$CDSNAN?$AA@ 004f6c2c     LIBCMT:x10fout.obj
 0002:0002fc34       ??_C@_05PHHOCPM@1?$CDIND?$AA@ 004f6c34     LIBCMT:x10fout.obj
 0002:0002fc3c       ??_C@_05DNEBIAHO@1?$CDINF?$AA@ 004f6c3c     LIBCMT:x10fout.obj
 0002:0002fc44       ??_C@_06IMKFLFPG@1?$CDQNAN?$AA@ 004f6c44     LIBCMT:x10fout.obj
 0002:0002fc4c       ??_C@_1BA@BALFACEM@?$AAC?$AAO?$AAN?$AAO?$AAU?$AAT?$AA$?$AA?$AA@ 004f6c4c     LIBCMT:initcon.obj
 0002:0002fc5c       ??_C@_0M@HHGEPIBF@CreateFile2?$AA@ 004f6c5c     LIBCMT:wopen.obj
 0002:0002fc68       __load_config_used         004f6c68     LIBCMT:loadcfg.obj
 0002:0002fcb0       ___safe_se_handler_table   004f6cb0     <linker-defined>
 0002:0002fcbc       ___rtc_iaa                 004f6cbc     LIBCMT:initsect.obj
 0002:0002fcc0       ___rtc_izz                 004f6cc0     LIBCMT:initsect.obj
 0002:0002fcc4       ___rtc_taa                 004f6cc4     LIBCMT:initsect.obj
 0002:0002fcc8       ___rtc_tzz                 004f6cc8     LIBCMT:initsect.obj
 0002:0003026c       __IMPORT_DESCRIPTOR_WINMM  004f726c     winmm:WINMM.dll
 0002:00030280       __IMPORT_DESCRIPTOR_WSOCK32 004f7280     wsock32:WSOCK32.dll
 0002:00030294       __IMPORT_DESCRIPTOR_KERNEL32 004f7294     kernel32:KERNEL32.dll
 0002:000302a8       __IMPORT_DESCRIPTOR_USER32 004f72a8     user32:USER32.dll
 0002:000302bc       __IMPORT_DESCRIPTOR_GDI32  004f72bc     gdi32:GDI32.dll
 0002:000302d0       __IMPORT_DESCRIPTOR_ADVAPI32 004f72d0     advapi32:ADVAPI32.dll
 0002:000302e4       __IMPORT_DESCRIPTOR_ole32  004f72e4     ole32:ole32.dll
 0002:000302f8       __NULL_IMPORT_DESCRIPTOR   004f72f8     winmm:WINMM.dll
 0003:00000008       _console_color             004f9008     cl_console.obj
 0003:00000018       _g_console_field_width     004f9018     cl_console.obj
 0003:00000020       _keynames                  004f9020     cl_keys.obj
 0003:00000380       _svc_strings               004f9380     cl_parse.obj
 0003:00000a30       _bytedirs                  004f9a30     q_math.obj
 0003:000011c8       _colorBlack                004fa1c8     q_math.obj
 0003:000011d8       _colorRed                  004fa1d8     q_math.obj
 0003:000011e8       _colorGreen                004fa1e8     q_math.obj
 0003:000011f8       _colorBlue                 004fa1f8     q_math.obj
 0003:00001208       _colorYellow               004fa208     q_math.obj
 0003:00001218       _colorMagenta              004fa218     q_math.obj
 0003:00001228       _colorCyan                 004fa228     q_math.obj
 0003:00001238       _colorWhite                004fa238     q_math.obj
 0003:00001248       _colorLtGrey               004fa248     q_math.obj
 0003:00001258       _colorMdGrey               004fa258     q_math.obj
 0003:00001268       _colorDkGrey               004fa268     q_math.obj
 0003:00001278       _g_color_table             004fa278     q_math.obj
 0003:000012f8       _axisDefault               004fa2f8     q_math.obj
 0003:00001320       _demo_protocols            004fa320     common.obj
 0003:00001330       _emptystring               004fa330     common.obj
 0003:00001348       _numberstring              004fa348     common.obj
 0003:00001438       _cl_cdkey                  004fa438     common.obj
 0003:00001538       _msg_hData                 004fa538     msg.obj
 0003:00001938       _kbitmask                  004fa938     msg.obj
 0003:000019b8       _entityStateFields         004fa9b8     msg.obj
 0003:00001c20       _playerStateFields         004fac20     msg.obj
 0003:00003098       _joyDirectionKeys          004fc098     win_input.obj
 0003:00003160       _dollardirectives          004fc160     botlib:l_precomp.obj
 0003:00003200       _directives                004fc200     botlib:l_precomp.obj
 0003:000032d0       _iteminfo_fields           004fc2d0     botlib:be_ai_goal.obj
 0003:000033cc       _iteminfo_struct           004fc3cc     botlib:be_ai_goal.obj
 0003:00003818       _default_punctuations      004fc818     botlib:l_script.obj
 0003:00003a94       _nofaceflood               004fca94     botlib:be_aas_cluster.obj
 0003:00003a98       _crctable                  004fca98     botlib:l_crc.obj
 0003:00003ca0       _r_vidModes                004fcca0     renderer:tr_init.obj
 0003:00003db0       _gl_filter_min             004fcdb0     renderer:tr_image.obj
 0003:00003db4       _gl_filter_max             004fcdb4     renderer:tr_image.obj
 0003:00003db8       _modes                     004fcdb8     renderer:tr_image.obj
 0003:00003e00       _mipBlendColors            004fce00     renderer:tr_image.obj
 0003:00003e70       _infoParms                 004fce70     renderer:tr_shader.obj
 0003:00004140       _entitySurface             004fd140     renderer:tr_main.obj
 0003:00004144       _rb_surfaceTable           004fd144     renderer:tr_surface.obj
 0003:000042a0       _edgeVerts                 004fd2a0     renderer:tr_shade_calc.obj
 0003:000042d0       _lightOrigin               004fd2d0     renderer:tr_shade_calc.obj
 0003:000042e0       ___security_cookie         004fd2e0     LIBCMT:gs_cookie.obj
 0003:000042e4       ___security_cookie_complement 004fd2e4     LIBCMT:gs_cookie.obj
 0003:000042e8       __fltused                  004fd2e8     LIBCMT:fpinit.obj
 0003:000042ec       __ldused                   004fd2ec     LIBCMT:fpinit.obj
 0003:000042f0       ___isa_enabled             004fd2f0     LIBCMT:cpu_disp.obj
 0003:00004330       __cfltcvt_tab              004fd330     LIBCMT:cmiscdat.obj
 0003:000045c0       __mbctype                  004fd5c0     LIBCMT:mbctype.obj
 0003:000046c8       __mbcasemap                004fd6c8     LIBCMT:mbctype.obj
 0003:000047c8       ___initialmbcinfo          004fd7c8     LIBCMT:mbctype.obj
 0003:000049ec       ___ptmbcinfo               004fd9ec     LIBCMT:mbctype.obj
 0003:00004ae0       ___flsindex                004fdae0     LIBCMT:tidtable.obj
 0003:00004ae4       ___mb_cur_max              004fdae4     LIBCMT:nlsdata.obj
 0003:00004ae8       ___wclocalestr             004fdae8     LIBCMT:nlsdata.obj
 0003:00004af0       ___lc_time_c               004fdaf0     LIBCMT:nlsdata.obj
 0003:00004c54       ___ptlocinfo               004fdc54     LIBCMT:nlsdata.obj
 0003:00004c58       ___initiallocinfo          004fdc58     LIBCMT:nlsdata.obj
 0003:00004d10       ___initiallocalestructinfo 004fdd10     LIBCMT:nlsdata.obj
 0003:00004d18       ___globallocalestatus      004fdd18     LIBCMT:glstatus.obj
 0003:00004d20       __iob                      004fdd20     LIBCMT:_file.obj
 0003:00004fa0       ___nullstring              004fdfa0     LIBCMT:output.obj
 0003:00004fa4       ___wnullstring             004fdfa4     LIBCMT:output.obj
 0003:000050d0       __timezone                 004fe0d0     LIBCMT:timeset.obj
 0003:000050d4       __daylight                 004fe0d4     LIBCMT:timeset.obj
 0003:000050d8       __dstbias                  004fe0d8     LIBCMT:timeset.obj
 0003:00005160       __tzname                   004fe160     LIBCMT:timeset.obj
 0003:00005168       __days                     004fe168     LIBCMT:days.obj
 0003:0000519c       __lpdays                   004fe19c     LIBCMT:days.obj
 0003:000051f0       __NLG_Destination          004fe1f0     LIBCMT:exsup.obj
 0003:00005210       __lookuptrailbytes         004fe210     LIBCMT:read.obj
 0003:00005310       ___badioinfo               004fe310     LIBCMT:ioinit.obj
 0003:00005360       __half                     004fe360     LIBCMT:pow.obj
 0003:00005370       __matherr_flag             004fe370     LIBCMT:matherr.obj
 0003:00005378       __d_inf                    004fe378     LIBCMT:util.obj
 0003:00005380       __d_ind                    004fe380     LIBCMT:util.obj
 0003:00005388       __d_max                    004fe388     LIBCMT:util.obj
 0003:00005390       __d_min                    004fe390     LIBCMT:util.obj
 0003:00005398       __d_mzero                  004fe398     LIBCMT:util.obj
 0003:000053c0       ___lconv                   004fe3c0     LIBCMT:lconv.obj
 0003:000053c4       ___lconv_static_decimal    004fe3c4     LIBCMT:lconv.obj
 0003:000053c8       ___lconv_c                 004fe3c8     LIBCMT:lconv.obj
 0003:00005418       ___lconv_static_W_decimal  004fe418     LIBCMT:lconv.obj
 0003:00005420       __pctype                   004fe420     LIBCMT:ctype.obj
 0003:00005424       __pwctype                  004fe424     LIBCMT:ctype.obj
 0003:00005458       __pow10pos                 004fe458     LIBCMT:constpow.obj
 0003:000055b8       __pow10neg                 004fe5b8     LIBCMT:constpow.obj
 0003:00005720       ___abort_behavior          004fe720     LIBCMT:abort.obj
 0003:00005730       __HUGE                     004fe730     LIBCMT:huge.obj
 0003:00005738       __confh                    004fe738     LIBCMT:initcon.obj
 0003:00302de8       _newsize                   007fbde8     cl_net_chan.obj
 0003:00304df8       _s_numSfx                  007fddf8     snd_dma.obj
 0003:003130ac       _sfxScratchBuffer          0080c0ac     snd_mem.obj
 0003:003130b0       _sfxScratchPointer         0080c0b0     snd_mem.obj
 0003:003130b4       _sfxScratchIndex           0080c0b4     snd_mem.obj
 0003:0031b0ec       _vec3_origin               008140ec     q_math.obj
 0003:0040c78c       _oldsize                   0090578c     msg.obj
 0003:0041d008       _currentVM                 00916008     vm.obj
 0003:0041d00c       _lastVM                    0091600c     vm.obj
 0003:0041d484       _gvm                       00916484     sv_main.obj
 0003:0041dc58       _fh                        00916c58     win_main.obj
 0003:0041fd4c       _botlibsetup               00918d4c     botlib:be_interface.obj
 0003:00420168       _itemconfig                00919168     botlib:be_ai_goal.obj
 0003:0042016c       _levelitemheap             0091916c     botlib:be_ai_goal.obj
 0003:00420170       _freelevelitems            00919170     botlib:be_ai_goal.obj
 0003:00420174       _levelitems                00919174     botlib:be_ai_goal.obj
 0003:00420178       _numlevelitems             00919178     botlib:be_ai_goal.obj
 0003:0042017c       _maplocations              0091917c     botlib:be_ai_goal.obj
 0003:00420180       _campspots                 00919180     botlib:be_ai_goal.obj
 0003:00420184       _g_gametype                00919184     botlib:be_ai_goal.obj
 0003:00420188       _droppedweight             00919188     botlib:be_ai_goal.obj
 0003:00420298       _consolemessageheap        00919298     botlib:be_ai_chat.obj
 0003:0042029c       _freeconsolemessages       0091929c     botlib:be_ai_chat.obj
 0003:004202a0       _matchtemplates            009192a0     botlib:be_ai_chat.obj
 0003:004202a4       _synonyms                  009192a4     botlib:be_ai_chat.obj
 0003:004202a8       _randomstrings             009192a8     botlib:be_ai_chat.obj
 0003:004202ac       _replychats                009192ac     botlib:be_ai_chat.obj
 0003:00490fac       ___fastflag                00989fac     LIBCMT:fpinit.obj
 0003:004912f0       __C_Exit_Done              0098a2f0     LIBCMT:crt0dat.obj
 0003:004912f4       ___argc                    0098a2f4     LIBCMT:crt0dat.obj
 0003:004912f8       ___argv                    0098a2f8     LIBCMT:crt0dat.obj
 0003:004912fc       ___wargv                   0098a2fc     LIBCMT:crt0dat.obj
 0003:00491300       __environ                  0098a300     LIBCMT:crt0dat.obj
 0003:00491304       __wenviron                 0098a304     LIBCMT:crt0dat.obj
 0003:00491308       __pgmptr                   0098a308     LIBCMT:crt0dat.obj
 0003:0049130c       __wpgmptr                  0098a30c     LIBCMT:crt0dat.obj
 0003:00491310       __umaskval                 0098a310     LIBCMT:crt0dat.obj
 0003:00491314       __exitflag                 0098a314     LIBCMT:crt0dat.obj
 0003:00491318       __C_Termination_Done       0098a318     LIBCMT:crt0dat.obj
 0003:0049131c       ___winitenv                0098a31c     LIBCMT:crt0dat.obj
 0003:00491320       ___initenv                 0098a320     LIBCMT:crt0dat.obj
 0003:00491324       __aenvptr                  0098a324     LIBCMT:wincrt0.obj
 0003:00491328       __wenvptr                  0098a328     LIBCMT:wincrt0.obj
 0003:00491338       ___isa_available           0098a338     LIBCMT:cpu_disp.obj
 0003:0049133c       ___favor                   0098a33c     LIBCMT:cpu_disp.obj
 0003:00491344       ___mbcodepage              0098a344     LIBCMT:mbctype.obj
 0003:00491348       ___ismbcodepage            0098a348     LIBCMT:mbctype.obj
 0003:0049134c       ___mbulinfo                0098a34c     LIBCMT:mbctype.obj
 0003:00491358       ___mblocalename            0098a358     LIBCMT:mbctype.obj
 0003:00491360       ___locale_changed          0098a360     LIBCMT:wsetloca.obj
 0003:00491364       ___pInvalidArgHandler      0098a364     LIBCMT:invarg.obj
 0003:00491368       __cflush                   0098a368     LIBCMT:_file.obj
 0003:0049136c       __stdbuf                   0098a36c     LIBCMT:_sftbuf.obj
 0003:004914c8       ?_pnhHeap@@3P6AHI@ZA       0098a4c8     LIBCMT:handler.obj
 0003:004914d0       ___app_type                0098a4d0     LIBCMT:crt0msg.obj
 0003:00491b00       __newmode                  0098ab00     LIBCMT:_newmode.obj
 0003:00491b04       __crtheap                  0098ab04     LIBCMT:heapinit.obj
 0003:00491b08       __maxwait                  0098ab08     LIBCMT:crtheap.obj
 0003:00491bd0       ___pioinfo                 0098abd0     LIBCMT:ioinit.obj
 0003:00491cd0       ?__pInconsistency@@3P6AXXZA 0098acd0     LIBCMT:hooks.obj
 0003:00491cd4       ___pPurecall               0098acd4     LIBCMT:inithelp.obj
 0003:00491df8       ___error_mode              0098adf8     LIBCMT:errmode.obj
 0003:00491dfc       __outputformat             0098adfc     LIBCMT:outputformat.obj
 0003:00491e00       ___lconv_static_null       0098ae00     LIBCMT:lconv.obj
 0003:00491e04       ___lconv_static_W_null     0098ae04     LIBCMT:lconv.obj
 0003:00491e20       __commode                  0098ae20     LIBCMT:ncommode.obj
 0003:00491e24       __fmode                    0098ae24     LIBCMT:txtmode.obj
 0003:00491e28       _r_fullscreen              0098ae28     <common>
 0003:00491e2c       _vid_ypos                  0098ae2c     <common>
 0003:00491e30       _vid_xpos                  0098ae30     <common>
 0003:00491e40       _g_wv                      0098ae40     <common>
 0003:00491ef0       _sys_timeBase              0098aef0     <common>
 0003:00491ef4       _recvfromCount             0098aef4     <common>
 0003:00491f00       _sys_packetReceived        0098af00     <common>
 0003:00495f00       _eventTail                 0098ef00     <common>
 0003:00495f04       _eventHead                 0098ef04     <common>
 0003:00495f20       _eventQue                  0098ef20     <common>
 0003:00497720       _countMsec                 00990720     <common>
 0003:00497724       _totalMsec                 00990724     <common>
 0003:00497728       _pDirectInputCreate        00990728     <common>
 0003:0049772c       _in_appactive              0099072c     <common>
 0003:00497730       _joy_threshold             00990730     <common>
 0003:00497734       _in_debugJoystick          00990734     <common>
 0003:00497738       _in_joyBallScale           00990738     <common>
 0003:0049773c       _in_joystick               0099073c     <common>
 0003:00497740       _in_logitechbug            00990740     <common>
 0003:00497744       _in_mouse                  00990744     <common>
 0003:00497748       _in_mididevice             00990748     <common>
 0003:0049774c       _in_midichannel            0099074c     <common>
 0003:00497750       _in_midiport               00990750     <common>
 0003:00497754       _in_midi                   00990754     <common>
 0003:00497758       _sv_numworldSectors        00990758     <common>
 0003:00497760       _sv_worldSectors           00990760     <common>
 0003:00497c60       _sv_strictAuth             00990c60     <common>
 0003:00497c64       _sv_lanForceRate           00990c64     <common>
 0003:00497c68       _sv_floodProtect           00990c68     <common>
 0003:00497c6c       _sv_pure                   00990c6c     <common>
 0003:00497c70       _sv_gametype               00990c70     <common>
 0003:00497c74       _sv_maxPing                00990c74     <common>
 0003:00497c78       _sv_minPing                00990c78     <common>
 0003:00497c7c       _sv_maxRate                00990c7c     <common>
 0003:00497c80       _sv_serverid               00990c80     <common>
 0003:00497c84       _sv_mapChecksum            00990c84     <common>
 0003:00497c88       _sv_mapname                00990c88     <common>
 0003:00497c8c       _sv_killserver             00990c8c     <common>
 0003:00497c90       _sv_padPackets             00990c90     <common>
 0003:00497c94       _sv_showloss               00990c94     <common>
 0003:00497c98       _sv_reconnectlimit         00990c98     <common>
 0003:00497ca0       _sv_master                 00990ca0     <common>
 0003:00497cb4       _sv_hostname               00990cb4     <common>
 0003:00497cb8       _sv_privateClients         00990cb8     <common>
 0003:00497cbc       _sv_maxclients             00990cbc     <common>
 0003:00497cc0       _sv_allowDownload          00990cc0     <common>
 0003:00497cc4       _sv_privatePassword        00990cc4     <common>
 0003:00497cc8       _sv_rconPassword           00990cc8     <common>
 0003:00497ccc       _sv_zombietime             00990ccc     <common>
 0003:00497cd0       _sv_timeout                00990cd0     <common>
 0003:00497cd4       _sv_fps                    00990cd4     <common>
 0003:00497ce0       _sv                        00990ce0     <common>
 0003:004e4120       _svs                       009dd120     <common>
 0003:004ee168       _botlib_export             009e7168     <common>
 0003:004ee16c       _bot_enable                009e716c     <common>
 0003:004ee170       _bot_maxdebugpolys         009e7170     <common>
 0003:004ee180       _vmTable                   009e7180     <common>
 0003:004ee3e4       _vm_debugLevel             009e73e4     <common>
 0003:004ee400       _loopbacks                 009e7400     <common>
 0003:004f9390       _qport                     009f2390     <common>
 0003:004f9394       _showdrop                  009f2394     <common>
 0003:004f9398       _showpackets               009f2398     <common>
 0003:004f939c       _overflows                 009f239c     <common>
 0003:004f93a0       _pcount                    009f23a0     <common>
 0003:004f97a0       _lastValidGame             009f27a0     <common>
 0003:004f98a0       _lastValidBase             009f28a0     <common>
 0003:004f99a0       _cvar_modifiedFlags        009f29a0     <common>
 0003:004f99a4       _cvar_numIndexes           009f29a4     <common>
 0003:004f99c0       _cvar_indexes              009f29c0     <common>
 0003:005049c0       _cvar_cheats               009fd9c0     <common>
 0003:005049c4       _cvar_vars                 009fd9c4     <common>
 0003:005049e0       _com_consoleLines          009fd9e0     <common>
 0003:00504a60       _com_numConsoleLines       009fda60     <common>
 0003:00504a80       _com_errorMessage          009fda80     <common>
 0003:00505a80       _com_fullyInitialized      009fea80     <common>
 0003:00505a84       _com_frameNumber           009fea84     <common>
 0003:00505a88       _com_introPlayed           009fea88     <common>
 0003:00505a8c       _com_showtrace             009fea8c     <common>
 0003:00505a90       _com_logfile               009fea90     <common>
 0003:00505a94       _com_timedemo              009fea94     <common>
 0003:00505a98       _com_maxfps                009fea98     <common>
 0003:00505a9c       _com_dropsim               009fea9c     <common>
 0003:00505aa0       _com_fixedtime             009feaa0     <common>
 0003:00505ac0       _abortframe                009feac0     <common>
 0003:00505b00       _com_journalDataFile       009feb00     <common>
 0003:00505b04       _com_journalFile           009feb04     <common>
 0003:00505b08       _com_errorEntered          009feb08     <common>
 0003:00505b0c       _com_frameMsec             009feb0c     <common>
 0003:00505b10       _com_frameTime             009feb10     <common>
 0003:00505b14       _time_backend              009feb14     <common>
 0003:00505b18       _time_frontend             009feb18     <common>
 0003:00505b1c       _time_game                 009feb1c     <common>
 0003:00505b20       _sv_paused                 009feb20     <common>
 0003:00505b24       _cl_paused                 009feb24     <common>
 0003:00505b28       _com_cameraMode            009feb28     <common>
 0003:00505b2c       _com_journal               009feb2c     <common>
 0003:00505b30       _com_buildScript           009feb30     <common>
 0003:00505b34       _com_blood                 009feb34     <common>
 0003:00505b38       _com_version               009feb38     <common>
 0003:00505b3c       _com_viewlog               009feb3c     <common>
 0003:00505b40       _com_cl_running            009feb40     <common>
 0003:00505b44       _com_sv_running            009feb44     <common>
 0003:00505b48       _com_timescale             009feb48     <common>
 0003:00505b4c       _com_speeds                009feb4c     <common>
 0003:00505b50       _com_dedicated             009feb50     <common>
 0003:00505b54       _com_developer             009feb54     <common>
 0003:00505b58       _smallzone                 009feb58     <common>
 0003:00505b5c       _mainzone                  009feb5c     <common>
 0003:00505b60       _c_winding_points          009feb60     <common>
 0003:00505b64       _c_winding_allocs          009feb64     <common>
 0003:00505b68       _c_peak_windings           009feb68     <common>
 0003:00505b6c       _c_active_windings         009feb6c     <common>
 0003:00505b70       _c_totalPatchBlocks        009feb70     <common>
 0003:00505b74       _box_brush                 009feb74     <common>
 0003:00505b78       _box_planes                009feb78     <common>
 0003:00505b80       _box_model                 009feb80     <common>
 0003:00505bb0       _cmod_base                 009febb0     <common>
 0003:00505bb4       _cm_playerCurveClip        009febb4     <common>
 0003:00505bb8       _cm_noCurves               009febb8     <common>
 0003:00505bbc       _cm_noAreas                009febbc     <common>
 0003:00505bc0       _c_patch_traces            009febc0     <common>
 0003:00505bc4       _c_brush_traces            009febc4     <common>
 0003:00505bc8       _c_traces                  009febc8     <common>
 0003:00505bcc       _c_pointcontents           009febcc     <common>
 0003:00505be0       _cm                        009febe0     <common>
 0003:00505ca0       _cmd_text_buf              009feca0     <common>
 0003:00509ca0       _cmd_text                  00a02ca0     <common>
 0003:00509cac       _cmd_wait                  00a02cac     <common>
 0003:00509cc0       _mulawToShort              00a02cc0     <common>
 0003:00509ec0       _snd_out                   00a02ec0     <common>
 0003:00509ec4       _snd_linear_count          00a02ec4     <common>
 0003:00509ec8       _snd_p                     00a02ec8     <common>
 0003:00509ecc       _s_doppler                 00a02ecc     <common>
 0003:00509ed0       _s_musicVolume             00a02ed0     <common>
 0003:00509ed4       _s_mixPreStep              00a02ed4     <common>
 0003:00509ee0       _s_knownSfx                00a02ee0     <common>
 0003:00569ee0       _s_soundtime               00a62ee0     <common>
 0003:00569ee4       _s_separation              00a62ee4     <common>
 0003:00569ee8       _s_testsound               00a62ee8     <common>
 0003:00569eec       _s_mixahead                00a62eec     <common>
 0003:00569ef0       _s_show                    00a62ef0     <common>
 0003:00569ef4       _s_khz                     00a62ef4     <common>
 0003:00569ef8       _s_volume                  00a62ef8     <common>
 0003:00569f00       _s_rawsamples              00a62f00     <common>
 0003:00589f00       _dma                       00a82f00     <common>
 0003:00589f18       _s_rawend                  00a82f18     <common>
 0003:00589f1c       _s_paintedtime             00a82f1c     <common>
 0003:00589f20       _numLoopChannels           00a82f20     <common>
 0003:00589f40       _loop_channels             00a82f40     <common>
 0003:0058b5c0       _s_channels                00a845c0     <common>
 0003:0058cc40       _uivm                      00a85c40     <common>
 0003:0058cc44       _cl_timegraph              00a85c44     <common>
 0003:0058cc48       _cl_graphshift             00a85c48     <common>
 0003:0058cc4c       _cl_graphscale             00a85c4c     <common>
 0003:0058cc50       _cl_graphheight            00a85c50     <common>
 0003:0058cc54       _cl_debuggraph             00a85c54     <common>
 0003:0058cc58       _scr_initialized           00a85c58     <common>
 0003:0058cc5c       _cl_connectedToPureServer  00a85c5c     <common>
 0003:0058cc60       _cl_inGameVideo            00a85c60     <common>
 0003:0058cc64       _cl_conXOffset             00a85c64     <common>
 0003:0058cc68       _cl_allowDownload          00a85c68     <common>
 0003:0058cc6c       _cl_activeAction           00a85c6c     <common>
 0003:0058cc70       _cl_timedemo               00a85c70     <common>
 0003:0058cc74       _m_filter                  00a85c74     <common>
 0003:0058cc78       _m_side                    00a85c78     <common>
 0003:0058cc7c       _m_forward                 00a85c7c     <common>
 0003:0058cc80       _m_yaw                     00a85c80     <common>
 0003:0058cc84       _m_pitch                   00a85c84     <common>
 0003:0058cc88       _cl_showMouseRate          00a85c88     <common>
 0003:0058cc8c       _cl_mouseAccel             00a85c8c     <common>
 0003:0058cc90       _cl_freelook               00a85c90     <common>
 0003:0058cc94       _cl_sensitivity            00a85c94     <common>
 0003:0058cc98       _cl_freezeDemo             00a85c98     <common>
 0003:0058cc9c       _cl_showTimeDelta          00a85c9c     <common>
 0003:0058cca0       _cl_timeNudge              00a85ca0     <common>
 0003:0058cca4       _cl_showSend               00a85ca4     <common>
 0003:0058cca8       _cl_shownet                00a85ca8     <common>
 0003:0058ccac       _cl_packetdup              00a85cac     <common>
 0003:0058ccb0       _cl_maxpackets             00a85cb0     <common>
 0003:0058ccb4       _cl_noprint                00a85cb4     <common>
 0003:0058ccb8       _cl_debugMove              00a85cb8     <common>
 0003:0058ccbc       _cl_nodelta                00a85cbc     <common>
 0003:0058ccc0       _re                        00a85cc0     <common>
 0003:0058cd34       _cgvm                      00a85d34     <common>
 0003:0058cd40       _cls                       00a85d40     <common>
 0003:0063c720       _clc                       00b35720     <common>
 0003:00665220       _cl                        00b5e220     <common>
 0003:0070ae68       _serverStatusCount         00c03e68     <common>
 0003:0070ae80       _cl_serverStatusList       00c03e80     <common>
 0003:0072b100       _cl_pinglist               00c24100     <common>
 0003:00733480       _cl_serverStatusResendTime 00c2c480     <common>
 0003:00733484       _cl_motdString             00c2c484     <common>
 0003:00733488       _cl_forceavidemo           00c2c488     <common>
 0003:0073348c       _cl_avidemo                00c2c48c     <common>
 0003:00733490       _cl_timeout                00c2c490     <common>
 0003:00733494       _rconAddress               00c2c494     <common>
 0003:00733498       _rcon_client_password      00c2c498     <common>
 0003:0073349c       _cl_motd                   00c2c49c     <common>
 0003:007334a0       _chat_playerNum            00c2c4a0     <common>
 0003:007334a4       _chat_team                 00c2c4a4     <common>
 0003:007334a8       _anykeydown                00c2c4a8     <common>
 0003:007334c0       _chatField                 00c2c4c0     <common>
 0003:007335e0       _g_consoleField            00c2c5e0     <common>
 0003:00733700       _historyEditLines          00c2c700     <common>
 0003:00735880       _keys                      00c2e880     <common>
 0003:00736480       _key_overstrikeMode        00c2f480     <common>
 0003:00736484       _historyLine               00c2f484     <common>
 0003:00736488       _nextHistoryLine           00c2f488     <common>
 0003:007364a0       _in_speed                  00c2f4a0     <common>
 0003:007364c0       _in_strafe                 00c2f4c0     <common>
 0003:007364d8       _cl_anglespeedkey          00c2f4d8     <common>
 0003:007364dc       _cl_run                    00c2f4dc     <common>
 0003:007364e0       _cl_pitchspeed             00c2f4e0     <common>
 0003:007364e4       _cl_yawspeed               00c2f4e4     <common>
 0003:007364e8       _in_mlooking               00c2f4e8     <common>
 0003:00736500       _in_buttons                00c2f500     <common>
 0003:00736680       _in_down                   00c2f680     <common>
 0003:007366a0       _in_up                     00c2f6a0     <common>
 0003:007366c0       _in_moveright              00c2f6c0     <common>
 0003:007366e0       _in_moveleft               00c2f6e0     <common>
 0003:00736700       _in_lookdown               00c2f700     <common>
 0003:00736720       _in_lookup                 00c2f720     <common>
 0003:00736740       _in_back                   00c2f740     <common>
 0003:00736760       _in_forward                00c2f760     <common>
 0003:00736780       _in_right                  00c2f780     <common>
 0003:007367a0       _in_left                   00c2f7a0     <common>
 0003:007367b8       _old_com_frameTime         00c2f7b8     <common>
 0003:007367bc       _frame_msec                00c2f7bc     <common>
 0003:007367c0       _con_notifytime            00c2f7c0     <common>
 0003:007367c4       _con_conspeed              00c2f7c4     <common>
 0003:007367e0       _con                       00c2f7e0     <common>
 0003:00746828       _numdebuglines             00c3f828     <common>
 0003:00746840       _debuglinevisible          00c3f840     <common>
 0003:00747840       _debuglines                00c40840     <common>
 0003:00748840       _basefolder                00c41840     <common>
 0003:00748880       _botcharacters             00c41880     <common>
 0003:007489a0       _botchatstates             00c419a0     <common>
 0003:00748ac0       _ichatdata                 00c41ac0     <common>
 0003:00748bc0       _botmovestates             00c41bc0     <common>
 0003:00748ce0       _modeltypes                00c41ce0     <common>
 0003:007490e0       _cmd_grappleon             00c420e0     <common>
 0003:007490e4       _cmd_grappleoff            00c420e4     <common>
 0003:007490e8       _offhandgrapple            00c420e8     <common>
 0003:007490ec       _entitytypemissile         00c420ec     <common>
 0003:007490f0       _weapindex_grapple         00c420f0     <common>
 0003:007490f4       _weapindex_bfg10k          00c420f4     <common>
 0003:007490f8       _weapindex_rocketlauncher  00c420f8     <common>
 0003:007490fc       _sv_gravity                00c420fc     <common>
 0003:00749100       _sv_maxbarrier             00c42100     <common>
 0003:00749104       _sv_maxstep                00c42104     <common>
 0003:00749120       _botgoalstates             00c42120     <common>
 0003:00749240       _weightFileList            00c42240     <common>
 0003:00749440       _botinputs                 00c42440     <common>
 0003:00749460       _aassettings               00c42460     <common>
 0003:00749500       _bspworld                  00c42500     <common>
 0003:0074b510       _numclusterareas           00c44510     <common>
 0003:0074b514       _clusterareas              00c44514     <common>
 0003:0074b518       _midrangeareas             00c44518     <common>
 0003:0074b51c       _max_routingcachesize      00c4451c     <common>
 0003:0074b520       _routingcachesize          00c44520     <common>
 0003:0074b524       _numportalcacheupdates     00c44524     <common>
 0003:0074b528       _numareacacheupdates       00c44528     <common>
 0003:0074b52c       _numlreachabilities        00c4452c     <common>
 0003:0074b530       _areareachability          00c44530     <common>
 0003:0074b534       _nextreachability          00c44534     <common>
 0003:0074b538       _reachabilityheap          00c44538     <common>
 0003:0074b53c       _calcgrapplereach          00c4453c     <common>
 0003:0074b540       _reach_jumppad             00c44540     <common>
 0003:0074b544       _reach_rocketjump          00c44544     <common>
 0003:0074b548       _reach_grapple             00c44548     <common>
 0003:0074b54c       _reach_funcbob             00c4454c     <common>
 0003:0074b550       _reach_elevator            00c44550     <common>
 0003:0074b554       _reach_teleport            00c44554     <common>
 0003:0074b558       _reach_ladder              00c44558     <common>
 0003:0074b55c       _reach_jump                00c4455c     <common>
 0003:0074b560       _reach_walkoffledge        00c44560     <common>
 0003:0074b564       _reach_waterjump           00c44564     <common>
 0003:0074b568       _reach_barrier             00c44568     <common>
 0003:0074b56c       _reach_walk                00c4456c     <common>
 0003:0074b570       _reach_step                00c44570     <common>
 0003:0074b574       _reach_equalfloor          00c44574     <common>
 0003:0074b578       _reach_swim                00c44578     <common>
 0003:0074b57c       _numaaslinks               00c4457c     <common>
 0003:0074b580       _aasworld                  00c44580     <common>
 0003:0074c764       _saveroutingcache          00c45764     <common>
 0003:0074c768       _globaldefines             00c45768     <common>
 0003:0074c76c       _numtokens                 00c4576c     <common>
 0003:0074c780       _sourceFiles               00c45780     <common>
 0003:0074c880       _libvarlist                00c45880     <common>
 0003:0074c884       _bot_developer             00c45884     <common>
 0003:0074c8a0       _botimport                 00c458a0     <common>
 0003:0074c900       _botlibglobals             00c45900     <common>
 0003:0074c920       _be_botlib_export          00c45920     <common>
 0003:0074cb38       _r_inactiveFlares          00c45b38     <common>
 0003:0074cb3c       _r_activeFlares            00c45b3c     <common>
 0003:0074cb40       _r_flareStructs            00c45b40     <common>
 0003:0074e940       _tess                      00c47940     <common>
 0003:00767fc0       _tr                        00c60fc0     <common>
 0003:00791de0       _ri                        00c8ade0     <common>
 0003:00791e48       _qglColor3ui               00c8ae48     <common>
 0003:00791e4c       _qglPushName               00c8ae4c     <common>
 0003:00791e50       _qglPushMatrix             00c8ae50     <common>
 0003:00791e54       _qglPushClientAttrib       00c8ae54     <common>
 0003:00791e58       _qglColor3ubv              00c8ae58     <common>
 0003:00791e5c       _qglColor3ub               00c8ae5c     <common>
 0003:00791e60       _qglPushAttrib             00c8ae60     <common>
 0003:00791e64       _qglPrioritizeTextures     00c8ae64     <common>
 0003:00791e68       _qglColor3sv               00c8ae68     <common>
 0003:00791e6c       _qglColor3s                00c8ae6c     <common>
 0003:00791e70       _qglPopName                00c8ae70     <common>
 0003:00791e74       _qglPopMatrix              00c8ae74     <common>
 0003:00791e78       _qglPopClientAttrib        00c8ae78     <common>
 0003:00791e7c       _qglPopAttrib              00c8ae7c     <common>
 0003:00791e80       _qglColor3iv               00c8ae80     <common>
 0003:00791e84       _qglPolygonStipple         00c8ae84     <common>
 0003:00791e88       _qglColor3i                00c8ae88     <common>
 0003:00791e8c       _qglPolygonOffset          00c8ae8c     <common>
 0003:00791e90       _qglPolygonMode            00c8ae90     <common>
 0003:00791e94       _qglColor3fv               00c8ae94     <common>
 0003:00791e98       _qglColor3f                00c8ae98     <common>
 0003:00791e9c       _qglPointSize              00c8ae9c     <common>
 0003:00791ea0       _qglPixelZoom              00c8aea0     <common>
 0003:00791ea4       _qglColor3dv               00c8aea4     <common>
 0003:00791ea8       _qglPixelTransferi         00c8aea8     <common>
 0003:00791eac       _qglColor3d                00c8aeac     <common>
 0003:00791eb0       _qglPixelTransferf         00c8aeb0     <common>
 0003:00791eb4       _qglColor3bv               00c8aeb4     <common>
 0003:00791eb8       _qglPixelStorei            00c8aeb8     <common>
 0003:00791ebc       _qglColor3b                00c8aebc     <common>
 0003:00791ec0       _qglPixelStoref            00c8aec0     <common>
 0003:00791ec4       _qglClipPlane              00c8aec4     <common>
 0003:00791ec8       _qglPixelMapusv            00c8aec8     <common>
 0003:00791ecc       _qglClearStencil           00c8aecc     <common>
 0003:00791ed0       _qglClearIndex             00c8aed0     <common>
 0003:00791ed4       _qglPixelMapuiv            00c8aed4     <common>
 0003:00791ed8       _qglClearDepth             00c8aed8     <common>
 0003:00791edc       _qglClearColor             00c8aedc     <common>
 0003:00791ee0       _qglPixelMapfv             00c8aee0     <common>
 0003:00791ee4       _qglPassThrough            00c8aee4     <common>
 0003:00791ee8       _qglClearAccum             00c8aee8     <common>
 0003:00791eec       _qglOrtho                  00c8aeec     <common>
 0003:00791ef0       _qglClear                  00c8aef0     <common>
 0003:00791ef4       _qglCallLists              00c8aef4     <common>
 0003:00791ef8       _dllAreTexturesResident    00c8aef8     <common>
 0003:00791efc       _qglNormalPointer          00c8aefc     <common>
 0003:00791f00       _qglCallList               00c8af00     <common>
 0003:00791f04       _qglBlendFunc              00c8af04     <common>
 0003:00791f08       _qglNormal3sv              00c8af08     <common>
 0003:00791f0c       _qglNormal3s               00c8af0c     <common>
 0003:00791f10       _qglBitmap                 00c8af10     <common>
 0003:00791f14       _qglNormal3iv              00c8af14     <common>
 0003:00791f18       _qglNormal3i               00c8af18     <common>
 0003:00791f1c       _qglBindTexture            00c8af1c     <common>
 0003:00791f20       _qglNormal3fv              00c8af20     <common>
 0003:00791f24       _qglNormal3f               00c8af24     <common>
 0003:00791f28       _qglBegin                  00c8af28     <common>
 0003:00791f2c       _qglArrayElement           00c8af2c     <common>
 0003:00791f30       _qglNormal3dv              00c8af30     <common>
 0003:00791f34       _qglAreTexturesResident    00c8af34     <common>
 0003:00791f38       _qglNormal3d               00c8af38     <common>
 0003:00791f3c       _qglAlphaFunc              00c8af3c     <common>
 0003:00791f40       _qglNormal3bv              00c8af40     <common>
 0003:00791f44       _qglAccum                  00c8af44     <common>
 0003:00791f48       _qglNormal3b               00c8af48     <common>
 0003:00791f4c       _qglNewList                00c8af4c     <common>
 0003:00791f50       _qglMultMatrixf            00c8af50     <common>
 0003:00791f54       _qglMultMatrixd            00c8af54     <common>
 0003:00791f58       _qglMatrixMode             00c8af58     <common>
 0003:00791f5c       _qglMaterialiv             00c8af5c     <common>
 0003:00791f60       _qglMateriali              00c8af60     <common>
 0003:00791f64       _qglMaterialfv             00c8af64     <common>
 0003:00791f68       _qglMaterialf              00c8af68     <common>
 0003:00791f6c       _qwglSwapIntervalEXT       00c8af6c     <common>
 0003:00791f70       _qglMapGrid2f              00c8af70     <common>
 0003:00791f74       _qwglSwapLayerBuffers      00c8af74     <common>
 0003:00791f78       _qwglRealizeLayerPalette   00c8af78     <common>
 0003:00791f7c       _qwglGetLayerPaletteEntries 00c8af7c     <common>
 0003:00791f80       _qglMapGrid2d              00c8af80     <common>
 0003:00791f84       _qwglSetLayerPaletteEntries 00c8af84     <common>
 0003:00791f88       _qwglDescribeLayerPlane    00c8af88     <common>
 0003:00791f8c       _qwglUseFontOutlines       00c8af8c     <common>
 0003:00791f90       _qglMapGrid1f              00c8af90     <common>
 0003:00791f94       _qglMapGrid1d              00c8af94     <common>
 0003:00791f98       _qwglUseFontBitmaps        00c8af98     <common>
 0003:00791f9c       _qglMap2f                  00c8af9c     <common>
 0003:00791fa0       _qwglShareLists            00c8afa0     <common>
 0003:00791fa4       _qwglMakeCurrent           00c8afa4     <common>
 0003:00791fa8       _qwglGetProcAddress        00c8afa8     <common>
 0003:00791fac       _qwglGetCurrentDC          00c8afac     <common>
 0003:00791fb0       _qwglGetCurrentContext     00c8afb0     <common>
 0003:00791fb4       _qwglDeleteContext         00c8afb4     <common>
 0003:00791fb8       _qwglCreateLayerContext    00c8afb8     <common>
 0003:00791fbc       _qwglCreateContext         00c8afbc     <common>
 0003:00791fc0       _qwglCopyContext           00c8afc0     <common>
 0003:00791fc4       _qglMap2d                  00c8afc4     <common>
 0003:00791fc8       _qwglSetDeviceGammaRamp3DFX 00c8afc8     <common>
 0003:00791fcc       _qwglGetDeviceGammaRamp3DFX 00c8afcc     <common>
 0003:00791fd0       _qwglSwapBuffers           00c8afd0     <common>
 0003:00791fd4       _qwglSetPixelFormat        00c8afd4     <common>
 0003:00791fd8       _qwglGetPixelFormat        00c8afd8     <common>
 0003:00791fdc       _qwglDescribePixelFormat   00c8afdc     <common>
 0003:00791fe0       _qwglChoosePixelFormat     00c8afe0     <common>
 0003:00791fe4       _qglMap1f                  00c8afe4     <common>
 0003:00791fe8       _qglViewport               00c8afe8     <common>
 0003:00791fec       _qglVertexPointer          00c8afec     <common>
 0003:00791ff0       _qglMap1d                  00c8aff0     <common>
 0003:00791ff4       _qglVertex4sv              00c8aff4     <common>
 0003:00791ff8       _qglVertex4s               00c8aff8     <common>
 0003:00791ffc       _qglLogicOp                00c8affc     <common>
 0003:00792000       _qglLoadName               00c8b000     <common>
 0003:00792004       _qglLoadMatrixf            00c8b004     <common>
 0003:00792008       _qglVertex4iv              00c8b008     <common>
 0003:0079200c       _qglLoadMatrixd            00c8b00c     <common>
 0003:00792010       _qglVertex4i               00c8b010     <common>
 0003:00792014       _qglLoadIdentity           00c8b014     <common>
 0003:00792018       _qglListBase               00c8b018     <common>
 0003:0079201c       _qglLineWidth              00c8b01c     <common>
 0003:00792020       _qglVertex4fv              00c8b020     <common>
 0003:00792024       _qglLineStipple            00c8b024     <common>
 0003:00792028       _qglVertex4f               00c8b028     <common>
 0003:0079202c       _qglLightiv                00c8b02c     <common>
 0003:00792030       _qglVertex4dv              00c8b030     <common>
 0003:00792034       _qglLighti                 00c8b034     <common>
 0003:00792038       _qglVertex4d               00c8b038     <common>
 0003:0079203c       _dllIsTexture              00c8b03c     <common>
 0003:00792040       _dllIsList                 00c8b040     <common>
 0003:00792044       _qglLightfv                00c8b044     <common>
 0003:00792048       _dllIsEnabled              00c8b048     <common>
 0003:0079204c       _qglVertex3sv              00c8b04c     <common>
 0003:00792050       _qglVertex3s               00c8b050     <common>
 0003:00792054       _qglLightf                 00c8b054     <common>
 0003:00792058       _qglLightModeliv           00c8b058     <common>
 0003:0079205c       _qglVertex3iv              00c8b05c     <common>
 0003:00792060       _qglVertex3i               00c8b060     <common>
 0003:00792064       _qglLightModeli            00c8b064     <common>
 0003:00792068       _qglVertex3fv              00c8b068     <common>
 0003:0079206c       _qglLightModelfv           00c8b06c     <common>
 0003:00792070       _qglVertex3f               00c8b070     <common>
 0003:00792074       _qglLightModelf            00c8b074     <common>
 0003:00792078       _qglVertex3dv              00c8b078     <common>
 0003:0079207c       _qglIsTexture              00c8b07c     <common>
 0003:00792080       _qglVertex3d               00c8b080     <common>
 0003:00792084       _qglIsList                 00c8b084     <common>
 0003:00792088       _qglIsEnabled              00c8b088     <common>
 0003:0079208c       _qglInterleavedArrays      00c8b08c     <common>
 0003:00792090       _qglVertex2sv              00c8b090     <common>
 0003:00792094       _qglVertex2s               00c8b094     <common>
 0003:00792098       _qglInitNames              00c8b098     <common>
 0003:0079209c       _qglIndexubv               00c8b09c     <common>
 0003:007920a0       _qglVertex2iv              00c8b0a0     <common>
 0003:007920a4       _qglVertex2i               00c8b0a4     <common>
 0003:007920a8       _qglIndexub                00c8b0a8     <common>
 0003:007920ac       _qglIndexsv                00c8b0ac     <common>
 0003:007920b0       _qglVertex2fv              00c8b0b0     <common>
 0003:007920b4       _qglIndexs                 00c8b0b4     <common>
 0003:007920b8       _qglVertex2f               00c8b0b8     <common>
 0003:007920bc       _qglIndexiv                00c8b0bc     <common>
 0003:007920c0       _qglIndexi                 00c8b0c0     <common>
 0003:007920c4       _qglVertex2dv              00c8b0c4     <common>
 0003:007920c8       _qglIndexfv                00c8b0c8     <common>
 0003:007920cc       _qglVertex2d               00c8b0cc     <common>
 0003:007920d0       _qglIndexf                 00c8b0d0     <common>
 0003:007920d4       _qglTranslatef             00c8b0d4     <common>
 0003:007920d8       _qglIndexdv                00c8b0d8     <common>
 0003:007920dc       _qglIndexd                 00c8b0dc     <common>
 0003:007920e0       _qglIndexPointer           00c8b0e0     <common>
 0003:007920e4       _qglTranslated             00c8b0e4     <common>
 0003:007920e8       _qglIndexMask              00c8b0e8     <common>
 0003:007920ec       _qglTexSubImage2D          00c8b0ec     <common>
 0003:007920f0       _qglHint                   00c8b0f0     <common>
 0003:007920f4       _qglGetTexParameteriv      00c8b0f4     <common>
 0003:007920f8       _qglGetTexParameterfv      00c8b0f8     <common>
 0003:007920fc       _qglTexSubImage1D          00c8b0fc     <common>
 0003:00792100       _qglGetTexLevelParameteriv 00c8b100     <common>
 0003:00792104       _qglGetTexLevelParameterfv 00c8b104     <common>
 0003:00792108       _qglTexParameteriv         00c8b108     <common>
 0003:0079210c       _qglGetTexImage            00c8b10c     <common>
 0003:00792110       _qglTexParameteri          00c8b110     <common>
 0003:00792114       _dllGetString              00c8b114     <common>
 0003:00792118       _qglTexParameterfv         00c8b118     <common>
 0003:0079211c       _qglGetTexGeniv            00c8b11c     <common>
 0003:00792120       _qglTexParameterf          00c8b120     <common>
 0003:00792124       _qglGetTexGenfv            00c8b124     <common>
 0003:00792128       _qglTexImage2D             00c8b128     <common>
 0003:0079212c       _qglGetTexGendv            00c8b12c     <common>
 0003:00792130       _qglGetTexEnviv            00c8b130     <common>
 0003:00792134       _qglGetTexEnvfv            00c8b134     <common>
 0003:00792138       _qglTexImage1D             00c8b138     <common>
 0003:0079213c       _qglGetString              00c8b13c     <common>
 0003:00792140       _qglGetPolygonStipple      00c8b140     <common>
 0003:00792144       _qglGetPointerv            00c8b144     <common>
 0003:00792148       _qglGetPixelMapusv         00c8b148     <common>
 0003:0079214c       _qglTexGeniv               00c8b14c     <common>
 0003:00792150       _qglGetPixelMapuiv         00c8b150     <common>
 0003:00792154       _qglTexGeni                00c8b154     <common>
 0003:00792158       _qglGetPixelMapfv          00c8b158     <common>
 0003:0079215c       _qglGetMaterialiv          00c8b15c     <common>
 0003:00792160       _qglTexGenfv               00c8b160     <common>
 0003:00792164       _qglGetMaterialfv          00c8b164     <common>
 0003:00792168       _qglTexGenf                00c8b168     <common>
 0003:0079216c       _qglGetMapiv               00c8b16c     <common>
 0003:00792170       _qglTexGendv               00c8b170     <common>
 0003:00792174       _qglGetMapfv               00c8b174     <common>
 0003:00792178       _dllGetError               00c8b178     <common>
 0003:0079217c       _qglTexGend                00c8b17c     <common>
 0003:00792180       _qglGetMapdv               00c8b180     <common>
 0003:00792184       _qglTexEnviv               00c8b184     <common>
 0003:00792188       _qglGetLightiv             00c8b188     <common>
 0003:0079218c       _qglTexEnvi                00c8b18c     <common>
 0003:00792190       _qglGetLightfv             00c8b190     <common>
 0003:00792194       _qglTexEnvfv               00c8b194     <common>
 0003:00792198       _dllGenLists               00c8b198     <common>
 0003:0079219c       _qglGetIntegerv            00c8b19c     <common>
 0003:007921a0       _qglTexEnvf                00c8b1a0     <common>
 0003:007921a4       _qglGetFloatv              00c8b1a4     <common>
 0003:007921a8       _qglTexCoordPointer        00c8b1a8     <common>
 0003:007921ac       _qglGetError               00c8b1ac     <common>
 0003:007921b0       _qglGetDoublev             00c8b1b0     <common>
 0003:007921b4       _qglTexCoord4sv            00c8b1b4     <common>
 0003:007921b8       _qglGetClipPlane           00c8b1b8     <common>
 0003:007921bc       _qglTexCoord4s             00c8b1bc     <common>
 0003:007921c0       _qglGetBooleanv            00c8b1c0     <common>
 0003:007921c4       _qglGenTextures            00c8b1c4     <common>
 0003:007921c8       _qglTexCoord4iv            00c8b1c8     <common>
 0003:007921cc       _qglGenLists               00c8b1cc     <common>
 0003:007921d0       _qglTexCoord4i             00c8b1d0     <common>
 0003:007921d4       _qglFrustum                00c8b1d4     <common>
 0003:007921d8       _qglTexCoord4fv            00c8b1d8     <common>
 0003:007921dc       _qglTexCoord4f             00c8b1dc     <common>
 0003:007921e0       _qglFrontFace              00c8b1e0     <common>
 0003:007921e4       _qglFogiv                  00c8b1e4     <common>
 0003:007921e8       _qglTexCoord4dv            00c8b1e8     <common>
 0003:007921ec       _qglTexCoord4d             00c8b1ec     <common>
 0003:007921f0       _qglFogi                   00c8b1f0     <common>
 0003:007921f4       _qglFogfv                  00c8b1f4     <common>
 0003:007921f8       _qglTexCoord3sv            00c8b1f8     <common>
 0003:007921fc       _qglFogf                   00c8b1fc     <common>
 0003:00792200       _qglTexCoord3s             00c8b200     <common>
 0003:00792204       _qglFlush                  00c8b204     <common>
 0003:00792208       _qglFinish                 00c8b208     <common>
 0003:0079220c       _qglTexCoord3iv            00c8b20c     <common>
 0003:00792210       _qglFeedbackBuffer         00c8b210     <common>
 0003:00792214       _qglTexCoord3i             00c8b214     <common>
 0003:00792218       _qglEvalPoint2             00c8b218     <common>
 0003:0079221c       _qglTexCoord3fv            00c8b21c     <common>
 0003:00792220       _qglEvalPoint1             00c8b220     <common>
 0003:00792224       _qglTexCoord3f             00c8b224     <common>
 0003:00792228       _qglEvalMesh2              00c8b228     <common>
 0003:0079222c       _qglTexCoord3dv            00c8b22c     <common>
 0003:00792230       _qglTexCoord3d             00c8b230     <common>
 0003:00792234       _qglEvalMesh1              00c8b234     <common>
 0003:00792238       _qglTexCoord2sv            00c8b238     <common>
 0003:0079223c       _qglEvalCoord2fv           00c8b23c     <common>
 0003:00792240       _qglTexCoord2s             00c8b240     <common>
 0003:00792244       _qglEvalCoord2f            00c8b244     <common>
 0003:00792248       _qglTexCoord2iv            00c8b248     <common>
 0003:0079224c       _qglEvalCoord2dv           00c8b24c     <common>
 0003:00792250       _qglTexCoord2i             00c8b250     <common>
 0003:00792254       _qglEvalCoord2d            00c8b254     <common>
 0003:00792258       _qglTexCoord2fv            00c8b258     <common>
 0003:0079225c       _qglTexCoord2f             00c8b25c     <common>
 0003:00792260       _qglEvalCoord1fv           00c8b260     <common>
 0003:00792264       _qglEvalCoord1f            00c8b264     <common>
 0003:00792268       _qglTexCoord2dv            00c8b268     <common>
 0003:0079226c       _qglEvalCoord1dv           00c8b26c     <common>
 0003:00792270       _qglTexCoord2d             00c8b270     <common>
 0003:00792274       _qglEvalCoord1d            00c8b274     <common>
 0003:00792278       _qglEndList                00c8b278     <common>
 0003:0079227c       _qglTexCoord1sv            00c8b27c     <common>
 0003:00792280       _qglEnd                    00c8b280     <common>
 0003:00792284       _qglEnableClientState      00c8b284     <common>
 0003:00792288       _qglTexCoord1s             00c8b288     <common>
 0003:0079228c       _qglTexCoord1iv            00c8b28c     <common>
 0003:00792290       _qglEnable                 00c8b290     <common>
 0003:00792294       _qglEdgeFlagv              00c8b294     <common>
 0003:00792298       _qglTexCoord1i             00c8b298     <common>
 0003:0079229c       _qglEdgeFlagPointer        00c8b29c     <common>
 0003:007922a0       _qglTexCoord1fv            00c8b2a0     <common>
 0003:007922a4       _qglTexCoord1f             00c8b2a4     <common>
 0003:007922a8       _qglEdgeFlag               00c8b2a8     <common>
 0003:007922ac       _qglTexCoord1dv            00c8b2ac     <common>
 0003:007922b0       _qglDrawPixels             00c8b2b0     <common>
 0003:007922b4       _qglTexCoord1d             00c8b2b4     <common>
 0003:007922b8       _qglStencilOp              00c8b2b8     <common>
 0003:007922bc       _qglDrawElements           00c8b2bc     <common>
 0003:007922c0       _qglStencilMask            00c8b2c0     <common>
 0003:007922c4       _qglStencilFunc            00c8b2c4     <common>
 0003:007922c8       _qglDrawBuffer             00c8b2c8     <common>
 0003:007922cc       _qglShadeModel             00c8b2cc     <common>
 0003:007922d0       _qglDrawArrays             00c8b2d0     <common>
 0003:007922d4       _qglSelectBuffer           00c8b2d4     <common>
 0003:007922d8       _qglScissor                00c8b2d8     <common>
 0003:007922dc       _qglDisableClientState     00c8b2dc     <common>
 0003:007922e0       _dllRenderMode             00c8b2e0     <common>
 0003:007922e4       _qglDisable                00c8b2e4     <common>
 0003:007922e8       _qglDepthRange             00c8b2e8     <common>
 0003:007922ec       _qglScalef                 00c8b2ec     <common>
 0003:007922f0       _qglDepthMask              00c8b2f0     <common>
 0003:007922f4       _qglDepthFunc              00c8b2f4     <common>
 0003:007922f8       _qglScaled                 00c8b2f8     <common>
 0003:007922fc       _qglDeleteTextures         00c8b2fc     <common>
 0003:00792300       _qglRotatef                00c8b300     <common>
 0003:00792304       _qglDeleteLists            00c8b304     <common>
 0003:00792308       _qglCullFace               00c8b308     <common>
 0003:0079230c       _qglCopyTexSubImage2D      00c8b30c     <common>
 0003:00792310       _qglRotated                00c8b310     <common>
 0003:00792314       _qglRenderMode             00c8b314     <common>
 0003:00792318       _qglRectsv                 00c8b318     <common>
 0003:0079231c       _qglCopyTexSubImage1D      00c8b31c     <common>
 0003:00792320       _qglRects                  00c8b320     <common>
 0003:00792324       _qglRectiv                 00c8b324     <common>
 0003:00792328       _qglCopyTexImage2D         00c8b328     <common>
 0003:0079232c       _qglRecti                  00c8b32c     <common>
 0003:00792330       _qglRectfv                 00c8b330     <common>
 0003:00792334       _qglRectf                  00c8b334     <common>
 0003:00792338       _qglCopyTexImage1D         00c8b338     <common>
 0003:0079233c       _qglRectdv                 00c8b33c     <common>
 0003:00792340       _qglRectd                  00c8b340     <common>
 0003:00792344       _qglCopyPixels             00c8b344     <common>
 0003:00792348       _qglReadPixels             00c8b348     <common>
 0003:0079234c       _qglColorPointer           00c8b34c     <common>
 0003:00792350       _qglColorMaterial          00c8b350     <common>
 0003:00792354       _qglReadBuffer             00c8b354     <common>
 0003:00792358       _qglColorMask              00c8b358     <common>
 0003:0079235c       _qglRasterPos4sv           00c8b35c     <common>
 0003:00792360       _qglRasterPos4s            00c8b360     <common>
 0003:00792364       _qglColor4usv              00c8b364     <common>
 0003:00792368       _qglRasterPos4iv           00c8b368     <common>
 0003:0079236c       _qglColor4us               00c8b36c     <common>
 0003:00792370       _qglRasterPos4i            00c8b370     <common>
 0003:00792374       _qglColor4uiv              00c8b374     <common>
 0003:00792378       _qglColor4ui               00c8b378     <common>
 0003:0079237c       _qglRasterPos4fv           00c8b37c     <common>
 0003:00792380       _qglRasterPos4f            00c8b380     <common>
 0003:00792384       _qglColor4ubv              00c8b384     <common>
 0003:00792388       _qglRasterPos4dv           00c8b388     <common>
 0003:0079238c       _qglColor4ub               00c8b38c     <common>
 0003:00792390       _qglRasterPos4d            00c8b390     <common>
 0003:00792394       _qglColor4sv               00c8b394     <common>
 0003:00792398       _qglRasterPos3sv           00c8b398     <common>
 0003:0079239c       _qglColor4s                00c8b39c     <common>
 0003:007923a0       _qglRasterPos3s            00c8b3a0     <common>
 0003:007923a4       _qglColor4iv               00c8b3a4     <common>
 0003:007923a8       _qglRasterPos3iv           00c8b3a8     <common>
 0003:007923ac       _qglColor4i                00c8b3ac     <common>
 0003:007923b0       _qglRasterPos3i            00c8b3b0     <common>
 0003:007923b4       _qglRasterPos3fv           00c8b3b4     <common>
 0003:007923b8       _qglColor4fv               00c8b3b8     <common>
 0003:007923bc       _qglRasterPos3f            00c8b3bc     <common>
 0003:007923c0       _qglColor4f                00c8b3c0     <common>
 0003:007923c4       _qglRasterPos3dv           00c8b3c4     <common>
 0003:007923c8       _qglRasterPos3d            00c8b3c8     <common>
 0003:007923cc       _qglColor4dv               00c8b3cc     <common>
 0003:007923d0       _qglColor4d                00c8b3d0     <common>
 0003:007923d4       _qglRasterPos2sv           00c8b3d4     <common>
 0003:007923d8       _qglRasterPos2s            00c8b3d8     <common>
 0003:007923dc       _qglColor4bv               00c8b3dc     <common>
 0003:007923e0       _qglColor4b                00c8b3e0     <common>
 0003:007923e4       _qglRasterPos2iv           00c8b3e4     <common>
 0003:007923e8       _qglRasterPos2i            00c8b3e8     <common>
 0003:007923ec       _qglRasterPos2fv           00c8b3ec     <common>
 0003:007923f0       _qglColor3usv              00c8b3f0     <common>
 0003:007923f4       _qglRasterPos2f            00c8b3f4     <common>
 0003:007923f8       _qglColor3us               00c8b3f8     <common>
 0003:007923fc       _qglRasterPos2dv           00c8b3fc     <common>
 0003:00792400       _qglRasterPos2d            00c8b400     <common>
 0003:00792404       _qglColor3uiv              00c8b404     <common>
 0003:00792408       _r_numpolyverts            00c8b408     <common>
 0003:0079240c       _r_firstScenePoly          00c8b40c     <common>
 0003:00792410       _r_numpolys                00c8b410     <common>
 0003:00792414       _r_firstSceneEntity        00c8b414     <common>
 0003:00792418       _r_numentities             00c8b418     <common>
 0003:0079241c       _r_firstSceneDlight        00c8b41c     <common>
 0003:00792420       _r_numdlights              00c8b420     <common>
 0003:00792424       _r_firstSceneDrawSurf      00c8b424     <common>
 0003:00792428       _renderThreadId            00c8b428     <common>
 0003:0079242c       _renderThreadHandle        00c8b42c     <common>
 0003:00792430       _glimpRenderThread         00c8b430     <common>
 0003:00792434       _renderActiveEvent         00c8b434     <common>
 0003:00792438       _renderCompletedEvent      00c8b438     <common>
 0003:0079243c       _renderCommandsEvent       00c8b43c     <common>
 0003:00792440       _glw_state                 00c8b440     <common>
 0003:0079246c       _r_maskMinidriver          00c8b46c     <common>
 0003:00792470       _r_allowSoftwareGL         00c8b470     <common>
 0003:00792474       _c_gridVerts               00c8b474     <common>
 0003:00792478       _c_blockedOnMain           00c8b478     <common>
 0003:0079247c       _c_blockedOnRender         00c8b47c     <common>
 0003:00792480       _renderThreadActive        00c8b480     <common>
 0003:007924a0       _backEnd                   00c8b4a0     <common>
 0003:007929b0       _backEndData               00c8b9b0     <common>
 0003:007929b8       _loadmodel                 00c8b9b8     <common>
 0003:007929bc       _qglUnlockArraysEXT        00c8b9bc     <common>
 0003:007929c0       _qglLockArraysEXT          00c8b9c0     <common>
 0003:007929c4       _qglClientActiveTextureARB 00c8b9c4     <common>
 0003:007929c8       _qglActiveTextureARB       00c8b9c8     <common>
 0003:007929cc       _qglMultiTexCoord2fARB     00c8b9cc     <common>
 0003:007929d0       _r_saveFontData            00c8b9d0     <common>
 0003:007929d4       _r_printShaders            00c8b9d4     <common>
 0003:007929d8       _r_debugSort               00c8b9d8     <common>
 0003:007929dc       _r_showImages              00c8b9dc     <common>
 0003:007929e0       _r_simpleMipMaps           00c8b9e0     <common>
 0003:007929e4       _r_debugSurface            00c8b9e4     <common>
 0003:007929e8       _r_mapOverBrightBits       00c8b9e8     <common>
 0003:007929ec       _r_overBrightBits          00c8b9ec     <common>
 0003:007929f0       _r_ignoreGLErrors          00c8b9f0     <common>
 0003:007929f4       _r_skipBackEnd             00c8b9f4     <common>
 0003:007929f8       _r_showSmp                 00c8b9f8     <common>
 0003:007929fc       _r_smp                     00c8b9fc     <common>
 0003:00792a00       _r_lodCurveError           00c8ba00     <common>
 0003:00792a04       _r_subdivisions            00c8ba04     <common>
 0003:00792a08       _r_portalOnly              00c8ba08     <common>
 0003:00792a0c       _r_noportals               00c8ba0c     <common>
 0003:00792a10       _r_lockpvs                 00c8ba10     <common>
 0003:00792a14       _r_intensity               00c8ba14     <common>
 0003:00792a18       _r_flares                  00c8ba18     <common>
 0003:00792a1c       _r_shadows                 00c8ba1c     <common>
 0003:00792a20       _r_clear                   00c8ba20     <common>
 0003:00792a24       _r_shownormals             00c8ba24     <common>
 0003:00792a28       _r_showsky                 00c8ba28     <common>
 0003:00792a2c       _r_showtris                00c8ba2c     <common>
 0003:00792a30       _r_logFile                 00c8ba30     <common>
 0003:00792a34       _r_uiFullScreen            00c8ba34     <common>
 0003:00792a38       _r_vertexLight             00c8ba38     <common>
 0003:00792a3c       _r_lightmap                00c8ba3c     <common>
 0003:00792a40       _r_fullbright              00c8ba40     <common>
 0003:00792a44       _r_offsetUnits             00c8ba44     <common>
 0003:00792a48       _r_offsetFactor            00c8ba48     <common>
 0003:00792a4c       _r_textureMode             00c8ba4c     <common>
 0003:00792a50       _r_swapInterval            00c8ba50     <common>
 0003:00792a54       _r_glDriver                00c8ba54     <common>
 0003:00792a58       _r_drawBuffer              00c8ba58     <common>
 0003:00792a5c       _r_finish                  00c8ba5c     <common>
 0003:00792a60       _r_picmip                  00c8ba60     <common>
 0003:00792a64       _r_colorMipLevels          00c8ba64     <common>
 0003:00792a68       _r_roundImagesDown         00c8ba68     <common>
 0003:00792a6c       _r_singleShader            00c8ba6c     <common>
 0003:00792a70       _r_nobind                  00c8ba70     <common>
 0003:00792a74       _r_ext_texture_env_add     00c8ba74     <common>
 0003:00792a78       _r_ext_compiled_vertex_array 00c8ba78     <common>
 0003:00792a7c       _r_ext_multitexture        00c8ba7c     <common>
 0003:00792a80       _r_ext_gamma_control       00c8ba80     <common>
 0003:00792a84       _r_ext_compressed_textures 00c8ba84     <common>
 0003:00792a88       _r_allowExtensions         00c8ba88     <common>
 0003:00792a8c       _r_ignorehwgamma           00c8ba8c     <common>
 0003:00792a90       _r_displayRefresh          00c8ba90     <common>
 0003:00792a94       _r_gamma                   00c8ba94     <common>
 0003:00792a98       _r_mode                    00c8ba98     <common>
 0003:00792a9c       _r_showcluster             00c8ba9c     <common>
 0003:00792aa0       _r_nocurves                00c8baa0     <common>
 0003:00792aa4       _r_facePlaneCull           00c8baa4     <common>
 0003:00792aa8       _r_nocull                  00c8baa8     <common>
 0003:00792aac       _r_novis                   00c8baac     <common>
 0003:00792ab0       _r_detailTextures          00c8bab0     <common>
 0003:00792ab4       _r_speeds                  00c8bab4     <common>
 0003:00792ab8       _r_drawworld               00c8bab8     <common>
 0003:00792abc       _r_drawentities            00c8babc     <common>
 0003:00792ac0       _r_norefresh               00c8bac0     <common>
 0003:00792ac4       _r_dlightBacks             00c8bac4     <common>
 0003:00792ac8       _r_dynamiclight            00c8bac8     <common>
 0003:00792acc       _r_drawSun                 00c8bacc     <common>
 0003:00792ad0       _r_fastsky                 00c8bad0     <common>
 0003:00792ad4       _r_inGameVideo             00c8bad4     <common>
 0003:00792ad8       _r_primitives              00c8bad8     <common>
 0003:00792adc       _r_lodscale                00c8badc     <common>
 0003:00792ae0       _r_lodbias                 00c8bae0     <common>
 0003:00792ae4       _r_measureOverdraw         00c8bae4     <common>
 0003:00792ae8       _r_texturebits             00c8bae8     <common>
 0003:00792aec       _r_stereo                  00c8baec     <common>
 0003:00792af0       _r_colorbits               00c8baf0     <common>
 0003:00792af4       _r_depthbits               00c8baf4     <common>
 0003:00792af8       _r_stencilbits             00c8baf8     <common>
 0003:00792afc       _r_znear                   00c8bafc     <common>
 0003:00792b00       _r_ignoreFastPath          00c8bb00     <common>
 0003:00792b04       _r_verbose                 00c8bb04     <common>
 0003:00792b08       _r_ignore                  00c8bb08     <common>
 0003:00792b0c       _r_railSegmentLength       00c8bb0c     <common>
 0003:00792b10       _r_railCoreWidth           00c8bb10     <common>
 0003:00792b14       _r_railWidth               00c8bb14     <common>
 0003:00792b18       _r_flareFade               00c8bb18     <common>
 0003:00792b1c       _r_flareSize               00c8bb1c     <common>
 0003:00792b20       _glState                   00c8bb20     <common>
 0003:00792b40       _glConfig                  00c8bb40     <common>
 0003:00795784       _r_maxpolyverts            00c8e784     <common>
 0003:00795788       _r_maxpolys                00c8e788     <common>
 0003:0079578c       _r_debugLight              00c8e78c     <common>
 0003:00795790       _r_directedScale           00c8e790     <common>
 0003:00795794       _r_ambientScale            00c8e794     <common>
 0003:00795798       _r_customaspect            00c8e798     <common>
 0003:0079579c       _r_customheight            00c8e79c     <common>
 0003:007957a0       _r_customwidth             00c8e7a0     <common>
 0003:007957a4       _max_polyverts             00c8e7a4     <common>
 0003:007957a8       _max_polys                 00c8e7a8     <common>
 0003:007957ac       __nhandle                  00c8e7ac     <common>
 0003:007957b0       __pDestructExceptionObject 00c8e7b0     <common>
 0003:007957c0       __bufin                    00c8e7c0     <common>
 0003:007967c0       ___piob                    00c8f7c0     <common>
 0003:007967c4       __nstream                  00c8f7c4     <common>
 0003:007967e0       _encodedKERNEL32Functions  00c8f7e0     <common>
 0003:00796864       __debugger_hook_dummy      00c8f864     <common>
 0003:00796868       ___use_sse2_mathfcns       00c8f868     <common>
 0003:0079686c       __pmatherr                 00c8f86c     <common>
 0003:00796870       __acmdln                   00c8f870     <common>
 0003:00796874       ___dyn_tls_init_callback   00c8f874     <common>
 0003:00796878       ___onexitend               00c8f878     <common>
 0003:0079687c       ___onexitbegin             00c8f87c     <common>
 0003:00796880       ___mbctype_initialized     00c8f880     <common>
 0003:00796884       ___env_initialized         00c8f884     <common>

 entry point at        0001:000afc80

 Static symbols

 0001:00000e48       $LN137                     00401e48     cl_cgame.obj
 0001:00002620       _ROQ_GenYUVTables          00403620 f   cl_cin.obj
 0001:00002800       _RoQInterrupt              00403800 f   cl_cin.obj
 0001:00002c94       $LN49                      00403c94     cl_cin.obj
 0001:00002cb8       $LN42                      00403cb8     cl_cin.obj
 0001:00002cf0       _RoQPrepMcomp              00403cf0 f   cl_cin.obj
 0001:00002da0       _RoQReset                  00403da0 f   cl_cin.obj
 0001:00002e50       _RoQShutdown               00403e50 f   cl_cin.obj
 0001:00002f50       _RoQ_init                  00403f50 f   cl_cin.obj
 0001:00003090       _blitVQQuad32fs            00404090 f   cl_cin.obj
 0001:00003640       _decodeCodeBook            00404640 f   cl_cin.obj
 0001:000045d0       _initRoQ                   004055d0 f   cl_cin.obj
 0001:00004640       _readQuadInfo              00405640 f   cl_cin.obj
 0001:000047a0       _recurseQuad               004057a0 f   cl_cin.obj
 0001:000048a0       _setupQuad                 004058a0 f   cl_cin.obj
 0001:000049b0       _yuv_to_rgb                004059b0 f   cl_cin.obj
 0001:00004a30       _yuv_to_rgb24              00405a30 f   cl_cin.obj
 0001:00008770       _time                      00409770 f   cl_keys.obj
 0001:000089b0       $LN26                      004099b0     cl_main.obj
 0001:000089b8       $LN22                      004099b8     cl_main.obj
 0001:0000bf90       $LN36                      0040cf90     cl_main.obj
 0001:0000c8b0       _CL_SetServerInfo          0040d8b0 f   cl_main.obj
 0001:0000c9d0       _CL_SetServerInfoByAddress 0040d9d0 f   cl_main.obj
 0001:0000d24c       $LN74                      0040e24c     cl_main.obj
 0001:0000d330       _CL_WalkDemoExt            0040e330 f   cl_main.obj
 0001:0000d410       _CL_Netchan_Decode         0040e410 f   cl_net_chan.obj
 0001:0000d4b0       _CL_Netchan_Encode         0040e4b0 f   cl_net_chan.obj
 0001:0000de50       $LN39                      0040ee50     cl_parse.obj
 0001:0000e3d0       _SCR_DrawChar              0040f3d0 f   cl_scrn.obj
 0001:0000e9bc       $LN21                      0040f9bc     cl_scrn.obj
 0001:0000ef60       _CLUI_GetCDKey             0040ff60 f   cl_ui.obj
 0001:0000efe0       _CLUI_SetCDKey             0040ffe0 f   cl_ui.obj
 0001:0000fd7c       $LN146                     00410d7c     cl_ui.obj
 0001:0000ff30       _GetClientState            00410f30 f   cl_ui.obj
 0001:0000ffa0       _GetConfigString           00410fa0 f   cl_ui.obj
 0001:00010010       _LAN_AddServer             00411010 f   cl_ui.obj
 0001:0001015c       $LN24                      0041115c     cl_ui.obj
 0001:00010170       _LAN_CompareServers        00411170 f   cl_ui.obj
 0001:00010228       $LN31                      00411228     cl_ui.obj
 0001:00010240       _LAN_GetServerAddressString 00411240 f   cl_ui.obj
 0001:000102e0       $LN16                      004112e0     cl_ui.obj
 0001:000102f0       _LAN_GetServerCount        004112f0 f   cl_ui.obj
 0001:00010324       $LN10                      00411324     cl_ui.obj
 0001:00010340       _LAN_GetServerInfo         00411340 f   cl_ui.obj
 0001:00010594       $LN19                      00411594     cl_ui.obj
 0001:000105b0       _LAN_GetServerPing         004115b0 f   cl_ui.obj
 0001:00010628       $LN15                      00411628     cl_ui.obj
 0001:00010640       _LAN_GetServerPtr          00411640 f   cl_ui.obj
 0001:000106ac       $LN14                      004116ac     cl_ui.obj
 0001:000107d0       _LAN_MarkServerVisible     004117d0 f   cl_ui.obj
 0001:00010898       $LN32                      00411898     cl_ui.obj
 0001:000108a8       $LN33                      004118a8     cl_ui.obj
 0001:000108c0       _LAN_RemoveServer          004118c0 f   cl_ui.obj
 0001:000109c8       $LN28                      004119c8     cl_ui.obj
 0001:000109e0       _LAN_ResetPings            004119e0 f   cl_ui.obj
 0001:00010a34       $LN21                      00411a34     cl_ui.obj
 0001:00010ae0       _LAN_ServerIsVisible       00411ae0 f   cl_ui.obj
 0001:00010b50       $LN14                      00411b50     cl_ui.obj
 0001:000115b0       _S_FindName                004125b0 f   snd_dma.obj
 0001:000118b0       _S_HashSFXName             004128b0 f   snd_dma.obj
 0001:00012ff0       _FindNextChunk             00413ff0 f   snd_mem.obj
 0001:00013070       _GetLittleLong             00414070 f   snd_mem.obj
 0001:000130a0       _GetWavinfo                004140a0 f   snd_mem.obj
 0001:00013250       _ResampleSfx               00414250 f   snd_mem.obj
 0001:00013350       _ResampleSfxRaw            00414350 f   snd_mem.obj
 0001:00013630       _S_PaintChannelFrom16      00414630 f   snd_mix.obj
 0001:00019710       _CM_FindPlane              0041a710 f   cm_patch.obj
 0001:00019e80       _CM_PatchCollideFromGrid   0041ae80 f   cm_patch.obj
 0001:0001ab70       _CM_RemoveDegenerateColumns 0041bb70 f   cm_patch.obj
 0001:0001acd0       _CM_SetBorderInward        0041bcd0 f   cm_patch.obj
 0001:0001afd0       _CM_SetGridWrapWidth       0041bfd0 f   cm_patch.obj
 0001:0001b100       _CM_SubdivideGridColumns   0041c100 f   cm_patch.obj
 0001:0001be90       _CM_TransposeGrid          0041ce90 f   cm_patch.obj
 0001:0001c010       _CM_ValidateFacet          0041d010 f   cm_patch.obj
 0001:00020150       _Com_Crash_f               00421150 f   common.obj
 0001:000203c0       _Com_Error_f               004213c0 f   common.obj
 0001:00020770       $LN52                      00421770     common.obj
 0001:00020f90       _Com_Freeze_f              00421f90 f   common.obj
 0001:00022670       _Com_WriteCDKey            00423670 f   common.obj
 0001:000228e0       _ConcatRemaining           004238e0 f   common.obj
 0001:00022b80       _FindMatches               00423b80 f   common.obj
 0001:00022fb0       _Hunk_SwapBanks            00423fb0 f   common.obj
 0001:00023100       _PrintMatches              00424100 f   common.obj
 0001:000234d0       _keyConcatArgs             004244d0 f   common.obj
 0001:00023650       _Cvar_FindVar              00424650 f   cvar.obj
 0001:00024710       _generateHashValue         00425710 f   cvar.obj
 0001:00024760       _FS_AddFileToList          00425760 f   files.obj
 0001:000247c0       _FS_AddGameDirectory       004257c0 f   files.obj
 0001:00024ce0       _FS_CopyFile               00425ce0 f   files.obj
 0001:00024e00       _FS_CreatePath             00425e00 f   files.obj
 0001:0002521c       $LN20                      0042621c     files.obj
 0001:00025ab0       _FS_FileForHandle          00426ab0 f   files.obj
 0001:000262a0       _FS_HandleForFile          004272a0 f   files.obj
 0001:000262e0       _FS_HashFileName           004272e0 f   files.obj
 0001:000262e0       _generateHashValue         004272e0 f   files.obj
 0001:000267b0       _FS_LoadZipFile            004277b0 f   files.obj
 0001:00027800       _FS_ReorderPurePaks        00428800 f   files.obj
 0001:000279c0       _FS_ReturnPath             004289c0 f   files.obj
 0001:00028010       _FS_SetRestrictions        00429010 f   files.obj
 0001:00028470       _FS_Startup                00429470 f   files.obj
 0001:00028a40       _Sys_ConcatenateFileLists  00429a40 f   files.obj
 0001:00028b50       _paksort                   00429b50 f   files.obj
 0001:00029560       _increment                 0042a560 f   huffman.obj
 0001:00029650       _send                      0042a650 f   huffman.obj
 0001:000296d0       _swap                      0042a6d0 f   huffman.obj
 0001:00029730       _swaplist                  0042a730 f   huffman.obj
 0001:00029980       _MD4Transform              0042a980 f   md4.obj
 0001:0002cec0       _adler32                   0042dec0 f   unzip.obj
 0001:0002cff0       _huft_build                0042dff0 f   unzip.obj
 0001:0002d540       _inflate                   0042e540 f   unzip.obj
 0001:0002d8b8       $LN59                      0042e8b8     unzip.obj
 0001:0002d8f0       _inflateEnd                0042e8f0 f   unzip.obj
 0001:0002d940       _inflateInit2_             0042e940 f   unzip.obj
 0001:0002da40       _inflateReset              0042ea40 f   unzip.obj
 0001:0002da90       _inflate_blocks            0042ea90 f   unzip.obj
 0001:0002e3d0       $LN192                     0042f3d0     unzip.obj
 0001:0002e3f8       $LN193                     0042f3f8     unzip.obj
 0001:0002e410       _inflate_blocks_free       0042f410 f   unzip.obj
 0001:0002e4b0       _inflate_blocks_new        0042f4b0 f   unzip.obj
 0001:0002e560       _inflate_blocks_reset      0042f560 f   unzip.obj
 0001:0002e5e0       _inflate_codes             0042f5e0 f   unzip.obj
 0001:0002ec80       $LN111                     0042fc80     unzip.obj
 0001:0002ecb0       _inflate_codes_new         0042fcb0 f   unzip.obj
 0001:0002ecf0       _inflate_fast              0042fcf0 f   unzip.obj
 0001:0002f0b0       _inflate_flush             004300b0 f   unzip.obj
 0001:0002f1c0       _inflate_trees_bits        004301c0 f   unzip.obj
 0001:0002f250       _inflate_trees_dynamic     00430250 f   unzip.obj
 0001:0002fa00       _unzlocal_CheckCurrentFileCoherencyHeader 00430a00 f   unzip.obj
 0001:0002fba0       _unzlocal_GetCurrentFileInfoInternal 00430ba0 f   unzip.obj
 0001:00030040       _zcalloc                   00431040 f   unzip.obj
 0001:00030060       _zcfree                    00431060 f   unzip.obj
 0001:00030890       _VM_ProfileSort            00431890 f   vm.obj
 0001:00031344       $LN203                     00432344     vm_interpreted.obj
 0001:0003152c       $LN31                      0043252c     vm_interpreted.obj
 0001:00031538       $LN28                      00432538     vm_interpreted.obj
 0001:00031558       $LN32                      00432558     vm_interpreted.obj
 0001:00031564       $LN29                      00432564     vm_interpreted.obj
 0001:00031610       _Constant4                 00432610 f   vm_x86.obj
 0001:00031650       _Emit4                     00432650 f   vm_x86.obj
 0001:000316a0       _EmitAddEDI4               004326a0 f   vm_x86.obj
 0001:00031730       _EmitMovEAXEDI             00432730 f   vm_x86.obj
 0001:000318e0       _EmitString                004328e0 f   vm_x86.obj
 0001:00033158       $LN1007                    00434158     vm_x86.obj
 0001:00033a34       $LN12                      00434a34     sv_bot.obj
 0001:000341b0       _SV_BanNum_f               004351b0 f   sv_ccmds.obj
 0001:00034330       _SV_Ban_f                  00435330 f   sv_ccmds.obj
 0001:000344b0       _SV_ConSay_f               004354b0 f   sv_ccmds.obj
 0001:00034580       _SV_DumpUser_f             00435580 f   sv_ccmds.obj
 0001:000345e0       _SV_GetPlayerByName        004355e0 f   sv_ccmds.obj
 0001:000346e0       _SV_GetPlayerByNum         004356e0 f   sv_ccmds.obj
 0001:000347b0       _SV_KickNum_f              004357b0 f   sv_ccmds.obj
 0001:00034830       _SV_Kick_f                 00435830 f   sv_ccmds.obj
 0001:00034990       _SV_KillServer_f           00435990 f   sv_ccmds.obj
 0001:000349a0       _SV_MapRestart_f           004359a0 f   sv_ccmds.obj
 0001:00034c50       _SV_Map_f                  00435c50 f   sv_ccmds.obj
 0001:00034dd0       _SV_Serverinfo_f           00435dd0 f   sv_ccmds.obj
 0001:00034df0       _SV_Status_f               00435df0 f   sv_ccmds.obj
 0001:00035000       _SV_Systeminfo_f           00436000 f   sv_ccmds.obj
 0001:000351a0       _SV_Disconnect_f           004361a0 f   sv_client.obj
 0001:000351c0       _SV_VerifyPaks_f           004361c0 f   sv_client.obj
 0001:000354a0       _SV_ResetPureClient_f      004364a0 f   sv_client.obj
 0001:000354c0       _SV_UpdateUserinfo_f       004364c0 f   sv_client.obj
 0001:00035790       _SV_ClientCommand          00436790 f   sv_client.obj
 0001:000359a0       _SV_CloseDownload          004369a0 f   sv_client.obj
 0001:00036bb0       _SV_UserMove               00437bb0 f   sv_client.obj
 0001:00039398       $LN228                     0043a398     sv_game.obj
 0001:000396a8       $LN223                     0043a6a8     sv_game.obj
 0001:00039a10       _SV_InitGameVM             0043aa10 f   sv_game.obj
 0001:0003be80       _SV_Netchan_Decode         0043ce80 f   sv_net_chan.obj
 0001:0003bf30       _SV_Netchan_Encode         0043cf30 f   sv_net_chan.obj
 0001:0003c180       _SV_AddEntToSnapshot       0043d180 f   sv_snapshot.obj
 0001:0003c1c0       _SV_AddEntitiesVisibleFromPoint 0043d1c0 f   sv_snapshot.obj
 0001:0003c470       _SV_BuildClientSnapshot    0043d470 f   sv_snapshot.obj
 0001:0003c670       _SV_EmitPacketEntities     0043d670 f   sv_snapshot.obj
 0001:0003c790       _SV_QsortEntityNumbers     0043d790 f   sv_snapshot.obj
 0001:0003c7d0       _SV_RateMsec               0043d7d0 f   sv_snapshot.obj
 0001:0003cb30       _SV_WriteSnapshotToClient  0043db30 f   sv_snapshot.obj
 0001:0003deb0       $LN40                      0043eeb0     win_input.obj
 0001:0003e980       _IN_StartupMIDI            0043f980 f   win_input.obj
 0001:0003eb90       _MIDI_NoteOff              0043fb90 f   win_input.obj
 0001:0003ebc0       _MIDI_NoteOn               0043fbc0 f   win_input.obj
 0001:0003ec20       _MidiInProc@20             0043fc20 f   win_input.obj
 0001:0003eca0       _MidiInfo_f                0043fca0 f   win_input.obj
 0001:0003f4b4       $LN46                      004404b4     win_main.obj
 0001:0003f4d4       $LN38                      004404d4     win_main.obj
 0001:000400a0       $LN53                      004410a0     win_net.obj
 0001:00040144       $LN51                      00441144     win_net.obj
 0001:000401b0       _NET_GetCvars              004411b0 f   win_net.obj
 0001:000415c0       _CPUID                     004425c0 f   win_shared.obj
 0001:00041620       _Is3DNOW                   00442620 f   win_shared.obj
 0001:000417e0       _IsKNI                     004427e0 f   win_shared.obj
 0001:00041830       _IsMMX                     00442830 f   win_shared.obj
 0001:00041880       _IsPentium                 00442880 f   win_shared.obj
 0001:00041a20       _DSoundError               00442a20 f   win_snd.obj
 0001:00042120       _ConWndProc@16             00443120 f   win_syscon.obj
 0001:000430e8       $LN63                      004440e8     win_wndproc.obj
 0001:00043100       $LN64                      00444100     win_wndproc.obj
 0001:00043118       $LN65                      00444118     win_wndproc.obj
 0001:00043124       $LN56                      00444124     win_wndproc.obj
 0001:00043130       _MapKey                    00444130 f   win_wndproc.obj
 0001:000431ec       $LN30                      004441ec     win_wndproc.obj
 0001:00043220       $LN31                      00444220     win_wndproc.obj
 0001:00043234       $LN27                      00444234     win_wndproc.obj
 0001:000432e0       _VID_AppActivate           004442e0 f   win_wndproc.obj
 0001:00043340       _WIN_DisableAltTab         00444340 f   win_wndproc.obj
 0001:000433b0       _WIN_EnableAltTab          004443b0 f   win_wndproc.obj
 0001:00043840       _Init_AAS_Export           00444840 f   botlib:be_interface.obj
 0001:000438f0       _Init_AI_Export            004448f0 f   botlib:be_interface.obj
 0001:00043b90       _Init_EA_Export            00444b90 f   botlib:be_interface.obj
 0001:00046644       $LN220                     00447644     botlib:l_precomp.obj
 0001:00046658       $LN190                     00447658     botlib:l_precomp.obj
 0001:00046680       $LN221                     00447680     botlib:l_precomp.obj
 0001:000466dc       $LN203                     004476dc     botlib:l_precomp.obj
 0001:000468ec       $LN30                      004478ec     botlib:l_precomp.obj
 0001:00047394       $LN29                      00448394     botlib:l_precomp.obj
 0001:000473c8       $LN27                      004483c8     botlib:l_precomp.obj
 0001:00048d40       _VectorCompare             00449d40 f   botlib:be_aas_entity.obj
 0001:00055fb4       $LN39                      00456fb4     botlib:be_aas_route.obj
 0001:00055fc4       $LN36                      00456fc4     botlib:be_aas_route.obj
 0001:00057850       _dummy_consume_data        00458850 f   botlib:be_aas_bspq3.obj
 0001:0005e7f0       $LN41                      0045f7f0     botlib:be_ai_move.obj
 0001:00060ca4       $LN129                     00461ca4     botlib:be_ai_move.obj
 0001:00060cec       $LN130                     00461cec     botlib:be_ai_move.obj
 0001:0006162c       $LN22                      0046262c     botlib:be_ai_move.obj
 0001:0006b5bc       $LN47                      0046c5bc     botlib:l_script.obj
 0001:0006b5f0       $LN43                      0046c5f0     botlib:l_script.obj
 0001:0006ee88       $LN69                      0046fe88     botlib:l_struct.obj
 0001:0006efb8       $LN15                      0046ffb8     renderer:tr_init.obj
 0001:0006f260       _GfxInfo_f                 00470260 f   renderer:tr_init.obj
 0001:0006f570       _InitOpenGL                00470570 f   renderer:tr_init.obj
 0001:0006fe80       _R_ModeList_f              00470e80 f   renderer:tr_init.obj
 0001:00071440       _R_GetTag                  00472440 f   renderer:tr_model.obj
 0001:000716f0       _R_LoadMD3                 004726f0 f   renderer:tr_model.obj
 0001:00071910       _R_LoadMD4                 00472910 f   renderer:tr_model.obj
 0001:00072450       $LN59                      00473450     renderer:tr_backend.obj
 0001:00072474       $LN60                      00473474     renderer:tr_backend.obj
 0001:00072498       $LN51                      00473498     renderer:tr_backend.obj
 0001:000729e4       $LN38                      004739e4     renderer:tr_backend.obj
 0001:00072e38       $LN49                      00473e38     renderer:tr_backend.obj
 0001:000739c0       _SetViewportAndScissor     004749c0 f   renderer:tr_backend.obj
 0001:00073a20       _CommaParse                00474a20 f   renderer:tr_image.obj
 0001:00073c60       _LoadBMP                   00474c60 f   renderer:tr_image.obj
 0001:00073fb4       $LN35                      00474fb4     renderer:tr_image.obj
 0001:00073fc8       $LN33                      00474fc8     renderer:tr_image.obj
 0001:00073ff0       _LoadJPG                   00474ff0 f   renderer:tr_image.obj
 0001:00074180       _LoadPCX                   00475180 f   renderer:tr_image.obj
 0001:00074360       _LoadPCX32                 00475360 f   renderer:tr_image.obj
 0001:00074410       _LoadTGA                   00475410 f   renderer:tr_image.obj
 0001:00074ab0       _R_BlendOverTexture        00475ab0 f   renderer:tr_image.obj
 0001:00074c40       _R_CreateDefaultImage      00475c40 f   renderer:tr_image.obj
 0001:00074cd0       _R_CreateDlightImage       00475cd0 f   renderer:tr_image.obj
 0001:00074ef0       _R_CreateFogImage          00475ef0 f   renderer:tr_image.obj
 0001:00075734       $LN32                      00476734     renderer:tr_image.obj
 0001:00075aa0       _R_MipMap                  00476aa0 f   renderer:tr_image.obj
 0001:00075c80       _R_MipMap2                 00476c80 f   renderer:tr_image.obj
 0001:000761e0       _ResampleTexture           004771e0 f   renderer:tr_image.obj
 0001:00076650       _Upload32                  00477650 f   renderer:tr_image.obj
 0001:00076a50       _generateHashValue         00477a50 f   renderer:tr_image.obj
 0001:00077450       _HSVtoRGB                  00478450 f   renderer:tr_bsp.obj
 0001:0007756c       $LN13                      0047856c     renderer:tr_bsp.obj
 0001:00077590       _ParseFace                 00478590 f   renderer:tr_bsp.obj
 0001:00077820       _ParseFlare                00478820 f   renderer:tr_bsp.obj
 0001:000778b0       _ParseMesh                 004788b0 f   renderer:tr_bsp.obj
 0001:00077bb0       _ParseTriSurf              00478bb0 f   renderer:tr_bsp.obj
 0001:00078040       _R_ColorShiftLightingBytes 00479040 f   renderer:tr_bsp.obj
 0001:000788f0       _R_LoadFogs                004798f0 f   renderer:tr_bsp.obj
 0001:00078e00       _R_LoadLightmaps           00479e00 f   renderer:tr_bsp.obj
 0001:00079080       _R_LoadMarksurfaces        0047a080 f   renderer:tr_bsp.obj
 0001:000790f0       _R_LoadNodesAndLeafs       0047a0f0 f   renderer:tr_bsp.obj
 0001:00079330       _R_LoadPlanes              0047a330 f   renderer:tr_bsp.obj
 0001:00079430       _R_LoadShaders             0047a430 f   renderer:tr_bsp.obj
 0001:000794b0       _R_LoadSubmodels           0047a4b0 f   renderer:tr_bsp.obj
 0001:000795a0       _R_LoadSurfaces            0047a5a0 f   renderer:tr_bsp.obj
 0001:00079734       $LN21                      0047a734     renderer:tr_bsp.obj
 0001:00079750       _R_LoadVisibility          0047a750 f   renderer:tr_bsp.obj
 0001:00079a70       _R_SetParent               0047aa70 f   renderer:tr_bsp.obj
 0001:0007ae00       _ShaderForShaderNum        0047be00 f   renderer:tr_bsp.obj
 0001:0007ae80       _CollapseMultitexture      0047be80 f   renderer:tr_shader.obj
 0001:0007b060       _ComputeStageIteratorFunc  0047c060 f   renderer:tr_shader.obj
 0001:0007b130       _CreateInternalShaders     0047c130 f   renderer:tr_shader.obj
 0001:0007b1d0       _FindShaderInShaderText    0047c1d0 f   renderer:tr_shader.obj
 0001:0007b290       _FinishShader              0047c290 f   renderer:tr_shader.obj
 0001:0007b4f0       _GeneratePermanentShader   0047c4f0 f   renderer:tr_shader.obj
 0001:0007b690       _NameToAFunc               0047c690 f   renderer:tr_shader.obj
 0001:0007b700       _NameToDstBlendMode        0047c700 f   renderer:tr_shader.obj
 0001:0007b800       _NameToGenFunc             0047c800 f   renderer:tr_shader.obj
 0001:0007b8c0       _NameToSrcBlendMode        0047c8c0 f   renderer:tr_shader.obj
 0001:0007b9d0       _ParseDeform               0047c9d0 f   renderer:tr_shader.obj
 0001:0007bcd0       _ParseShader               0047ccd0 f   renderer:tr_shader.obj
 0001:0007c270       _ParseSkyParms             0047d270 f   renderer:tr_shader.obj
 0001:0007c5c0       _ParseStage                0047d5c0 f   renderer:tr_shader.obj
 0001:0007d270       _ParseSurfaceParm          0047e270 f   renderer:tr_shader.obj
 0001:0007d2d0       _ParseTexMod               0047e2d0 f   renderer:tr_shader.obj
 0001:0007d720       _ParseVector               0047e720 f   renderer:tr_shader.obj
 0001:0007d830       _ParseWaveForm             0047e830 f   renderer:tr_shader.obj
 0001:0007e1a0       _ScanAndLoadShaderFiles    0047f1a0 f   renderer:tr_shader.obj
 0001:0007e640       _SortNewShader             0047f640 f   renderer:tr_shader.obj
 0001:0007e760       $LN39                      0047f760     renderer:tr_shader.obj
 0001:0007e780       _VertexLightingCollapse    0047f780 f   renderer:tr_shader.obj
 0001:0007e8f0       _GLW_CheckOSVersion        0047f8f0 f   renderer:win_glimp.obj
 0001:0007e9b0       _GLW_ChoosePFD             0047f9b0 f   renderer:win_glimp.obj
 0001:0007ecd0       _GLW_CreatePFD             0047fcd0 f   renderer:win_glimp.obj
 0001:0007eda0       _GLW_CreateWindow          0047fda0 f   renderer:win_glimp.obj
 0001:0007f070       _GLW_InitDriver            00480070 f   renderer:win_glimp.obj
 0001:0007f240       _GLW_InitExtensions        00480240 f   renderer:win_glimp.obj
 0001:0007f590       _GLW_LoadOpenGL            00480590 f   renderer:win_glimp.obj
 0001:0007f730       _GLW_MakeContext           00480730 f   renderer:win_glimp.obj
 0001:0007f8b0       _GLW_SetMode               004808b0 f   renderer:win_glimp.obj
 0001:0007fd70       _GLW_StartDriverAndSetMode 00480d70 f   renderer:win_glimp.obj
 0001:0007fdd0       _GLW_StartOpenGL           00480dd0 f   renderer:win_glimp.obj
 0001:00080680       _PrintCDSError             00481680 f   renderer:win_glimp.obj
 0001:00080714       $LN13                      00481714     renderer:win_glimp.obj
 0001:00080860       _R_ClusterPVS              00481860 f   renderer:tr_world.obj
 0001:000808a0       _R_CullGrid                004818a0 f   renderer:tr_world.obj
 0001:00080950       _R_CullSurface             00481950 f   renderer:tr_world.obj
 0001:00080a20       _R_DlightFace              00481a20 f   renderer:tr_world.obj
 0001:00080ad0       _R_DlightGrid              00481ad0 f   renderer:tr_world.obj
 0001:00080ba0       _R_DlightSurface           00481ba0 f   renderer:tr_world.obj
 0001:00080c00       _R_MarkLeaves              00481c00 f   renderer:tr_world.obj
 0001:00080d90       _R_PointInLeaf             00481d90 f   renderer:tr_world.obj
 0001:00080e20       _R_RecursiveWorldNode      00481e20 f   renderer:tr_world.obj
 0001:00081870       _R_SetupEntityLightingGrid 00482870 f   renderer:tr_light.obj
 0001:00083e00       _BlendToName               00484e00 f   renderer:win_qgl.obj
 0001:00083f34       $LN15                      00484f34     renderer:win_qgl.obj
 0001:00083f50       _CapToString               00484f50 f   renderer:win_qgl.obj
 0001:00084000       $LN20                      00485000     renderer:win_qgl.obj
 0001:00084018       $LN18                      00485018     renderer:win_qgl.obj
 0001:000840c0       _FuncToString              004850c0 f   renderer:win_qgl.obj
 0001:00084118       $LN15                      00485118     renderer:win_qgl.obj
 0001:00084140       _PrimToString              00485140 f   renderer:win_qgl.obj
 0001:00088e40       _TypeToString              00489e40 f   renderer:win_qgl.obj
 0001:00088e98       $LN15                      00489e98     renderer:win_qgl.obj
 0001:00088ed0       _logAccum@8                00489ed0 f   renderer:win_qgl.obj
 0001:00088f00       _logAlphaFunc@8            00489f00 f   renderer:win_qgl.obj
 0001:00088f40       _logAreTexturesResident@12 00489f40 f   renderer:win_qgl.obj
 0001:00088f60       _logArrayElement@4         00489f60 f   renderer:win_qgl.obj
 0001:00088f80       _logBegin@4                00489f80 f   renderer:win_qgl.obj
 0001:00088fb0       _logBindTexture@8          00489fb0 f   renderer:win_qgl.obj
 0001:00088fe0       _logBitmap@28              00489fe0 f   renderer:win_qgl.obj
 0001:00089040       _logBlendFunc@8            0048a040 f   renderer:win_qgl.obj
 0001:000890b0       _logCallList@4             0048a0b0 f   renderer:win_qgl.obj
 0001:000890d0       _logCallLists@12           0048a0d0 f   renderer:win_qgl.obj
 0001:000890f0       _logClear@4                0048a0f0 f   renderer:win_qgl.obj
 0001:000891a0       _logClearAccum@16          0048a1a0 f   renderer:win_qgl.obj
 0001:000891f0       _logClearColor@16          0048a1f0 f   renderer:win_qgl.obj
 0001:00089240       _logClearDepth@8           0048a240 f   renderer:win_qgl.obj
 0001:00089280       _logClearIndex@4           0048a280 f   renderer:win_qgl.obj
 0001:000892b0       _logClearStencil@4         0048a2b0 f   renderer:win_qgl.obj
 0001:000892d0       _logClipPlane@8            0048a2d0 f   renderer:win_qgl.obj
 0001:000892f0       _logColor3b@12             0048a2f0 f   renderer:win_qgl.obj
 0001:00089310       _logColor3bv@4             0048a310 f   renderer:win_qgl.obj
 0001:00089330       _logColor3d@24             0048a330 f   renderer:win_qgl.obj
 0001:00089370       _logColor3dv@4             0048a370 f   renderer:win_qgl.obj
 0001:00089390       _logColor3f@12             0048a390 f   renderer:win_qgl.obj
 0001:000893d0       _logColor3fv@4             0048a3d0 f   renderer:win_qgl.obj
 0001:000893f0       _logColor3i@12             0048a3f0 f   renderer:win_qgl.obj
 0001:00089410       _logColor3iv@4             0048a410 f   renderer:win_qgl.obj
 0001:00089430       _logColor3s@12             0048a430 f   renderer:win_qgl.obj
 0001:00089450       _logColor3sv@4             0048a450 f   renderer:win_qgl.obj
 0001:00089470       _logColor3ub@12            0048a470 f   renderer:win_qgl.obj
 0001:00089490       _logColor3ubv@4            0048a490 f   renderer:win_qgl.obj
 0001:000894b0       _logColor3ui@12            0048a4b0 f   renderer:win_qgl.obj
 0001:000894d0       _logColor3uiv@4            0048a4d0 f   renderer:win_qgl.obj
 0001:000894f0       _logColor3us@12            0048a4f0 f   renderer:win_qgl.obj
 0001:00089510       _logColor3usv@4            0048a510 f   renderer:win_qgl.obj
 0001:00089530       _logColor4bv@4             0048a530 f   renderer:win_qgl.obj
 0001:00089550       _logColor4d@32             0048a550 f   renderer:win_qgl.obj
 0001:000895a0       _logColor4dv@4             0048a5a0 f   renderer:win_qgl.obj
 0001:000895c0       _logColor4f@16             0048a5c0 f   renderer:win_qgl.obj
 0001:00089650       _logColor4fv@4             0048a650 f   renderer:win_qgl.obj
 0001:000896b0       _logColor4i@16             0048a6b0 f   renderer:win_qgl.obj
 0001:000896d0       _logColor4iv@4             0048a6d0 f   renderer:win_qgl.obj
 0001:000896f0       _logColor4s@16             0048a6f0 f   renderer:win_qgl.obj
 0001:00089710       _logColor4sv@4             0048a710 f   renderer:win_qgl.obj
 0001:00089730       _logColor4b@16             0048a730 f   renderer:win_qgl.obj
 0001:00089730       _logColor4ub@16            0048a730 f   renderer:win_qgl.obj
 0001:00089750       _logColor4ubv@4            0048a750 f   renderer:win_qgl.obj
 0001:00089770       _logColor4ui@16            0048a770 f   renderer:win_qgl.obj
 0001:00089790       _logColor4uiv@4            0048a790 f   renderer:win_qgl.obj
 0001:000897b0       _logColor4us@16            0048a7b0 f   renderer:win_qgl.obj
 0001:000897d0       _logColor4usv@4            0048a7d0 f   renderer:win_qgl.obj
 0001:000897f0       _logColorMask@16           0048a7f0 f   renderer:win_qgl.obj
 0001:00089810       _logColorMaterial@8        0048a810 f   renderer:win_qgl.obj
 0001:00089830       _logColorPointer@16        0048a830 f   renderer:win_qgl.obj
 0001:00089860       _logCopyPixels@20          0048a860 f   renderer:win_qgl.obj
 0001:00089880       _logCopyTexImage1D@28      0048a880 f   renderer:win_qgl.obj
 0001:000898a0       _logCopyTexImage2D@32      0048a8a0 f   renderer:win_qgl.obj
 0001:000898c0       _logCopyTexSubImage1D@24   0048a8c0 f   renderer:win_qgl.obj
 0001:000898e0       _logCopyTexSubImage2D@32   0048a8e0 f   renderer:win_qgl.obj
 0001:00089900       _logCullFace@4             0048a900 f   renderer:win_qgl.obj
 0001:00089940       _logDeleteLists@8          0048a940 f   renderer:win_qgl.obj
 0001:00089960       _logDeleteTextures@8       0048a960 f   renderer:win_qgl.obj
 0001:00089980       _logDepthFunc@4            0048a980 f   renderer:win_qgl.obj
 0001:000899b0       _logDepthMask@4            0048a9b0 f   renderer:win_qgl.obj
 0001:00089a00       _logDepthRange@16          0048aa00 f   renderer:win_qgl.obj
 0001:00089a60       _logDisable@4              0048aa60 f   renderer:win_qgl.obj
 0001:00089a90       _logDisableClientState@4   0048aa90 f   renderer:win_qgl.obj
 0001:00089ac0       _logDrawArrays@12          0048aac0 f   renderer:win_qgl.obj
 0001:00089ae0       _logDrawBuffer@4           0048aae0 f   renderer:win_qgl.obj
 0001:00089b00       _logDrawElements@16        0048ab00 f   renderer:win_qgl.obj
 0001:00089b40       _logDrawPixels@20          0048ab40 f   renderer:win_qgl.obj
 0001:00089b60       _logEdgeFlag@4             0048ab60 f   renderer:win_qgl.obj
 0001:00089b80       _logEdgeFlagPointer@8      0048ab80 f   renderer:win_qgl.obj
 0001:00089ba0       _logEdgeFlagv@4            0048aba0 f   renderer:win_qgl.obj
 0001:00089bc0       _logEnable@4               0048abc0 f   renderer:win_qgl.obj
 0001:00089bf0       _logEnableClientState@4    0048abf0 f   renderer:win_qgl.obj
 0001:00089c20       _logEnd@0                  0048ac20 f   renderer:win_qgl.obj
 0001:00089c40       _logEndList@0              0048ac40 f   renderer:win_qgl.obj
 0001:00089c60       _logEvalCoord1d@8          0048ac60 f   renderer:win_qgl.obj
 0001:00089c90       _logEvalCoord1dv@4         0048ac90 f   renderer:win_qgl.obj
 0001:00089cb0       _logEvalCoord1f@4          0048acb0 f   renderer:win_qgl.obj
 0001:00089ce0       _logEvalCoord1fv@4         0048ace0 f   renderer:win_qgl.obj
 0001:00089d00       _logEvalCoord2d@16         0048ad00 f   renderer:win_qgl.obj
 0001:00089d40       _logEvalCoord2dv@4         0048ad40 f   renderer:win_qgl.obj
 0001:00089d60       _logEvalCoord2f@8          0048ad60 f   renderer:win_qgl.obj
 0001:00089da0       _logEvalCoord2fv@4         0048ada0 f   renderer:win_qgl.obj
 0001:00089dc0       _logEvalMesh1@12           0048adc0 f   renderer:win_qgl.obj
 0001:00089de0       _logEvalMesh2@20           0048ade0 f   renderer:win_qgl.obj
 0001:00089e00       _logEvalPoint1@4           0048ae00 f   renderer:win_qgl.obj
 0001:00089e20       _logEvalPoint2@8           0048ae20 f   renderer:win_qgl.obj
 0001:00089e40       _logFeedbackBuffer@12      0048ae40 f   renderer:win_qgl.obj
 0001:00089e60       _logFinish@0               0048ae60 f   renderer:win_qgl.obj
 0001:00089e80       _logFlush@0                0048ae80 f   renderer:win_qgl.obj
 0001:00089ea0       _logFogf@8                 0048aea0 f   renderer:win_qgl.obj
 0001:00089ed0       _logFogfv@8                0048aed0 f   renderer:win_qgl.obj
 0001:00089ef0       _logFogi@8                 0048aef0 f   renderer:win_qgl.obj
 0001:00089f10       _logFogiv@8                0048af10 f   renderer:win_qgl.obj
 0001:00089f30       _logFrontFace@4            0048af30 f   renderer:win_qgl.obj
 0001:00089f50       _logFrustum@48             0048af50 f   renderer:win_qgl.obj
 0001:00089fb0       _logGenLists@4             0048afb0 f   renderer:win_qgl.obj
 0001:00089fd0       _logGenTextures@8          0048afd0 f   renderer:win_qgl.obj
 0001:00089ff0       _logGetBooleanv@8          0048aff0 f   renderer:win_qgl.obj
 0001:0008a010       _logGetClipPlane@8         0048b010 f   renderer:win_qgl.obj
 0001:0008a030       _logGetDoublev@8           0048b030 f   renderer:win_qgl.obj
 0001:0008a050       _logGetError@0             0048b050 f   renderer:win_qgl.obj
 0001:0008a070       _logGetFloatv@8            0048b070 f   renderer:win_qgl.obj
 0001:0008a090       _logGetIntegerv@8          0048b090 f   renderer:win_qgl.obj
 0001:0008a0b0       _logGetLightfv@12          0048b0b0 f   renderer:win_qgl.obj
 0001:0008a0d0       _logGetLightiv@12          0048b0d0 f   renderer:win_qgl.obj
 0001:0008a0f0       _logGetMapdv@12            0048b0f0 f   renderer:win_qgl.obj
 0001:0008a110       _logGetMapfv@12            0048b110 f   renderer:win_qgl.obj
 0001:0008a130       _logGetMapiv@12            0048b130 f   renderer:win_qgl.obj
 0001:0008a150       _logGetMaterialfv@12       0048b150 f   renderer:win_qgl.obj
 0001:0008a170       _logGetMaterialiv@12       0048b170 f   renderer:win_qgl.obj
 0001:0008a190       _logGetPixelMapfv@8        0048b190 f   renderer:win_qgl.obj
 0001:0008a1b0       _logGetPixelMapuiv@8       0048b1b0 f   renderer:win_qgl.obj
 0001:0008a1d0       _logGetPixelMapusv@8       0048b1d0 f   renderer:win_qgl.obj
 0001:0008a1f0       _logGetPointerv@8          0048b1f0 f   renderer:win_qgl.obj
 0001:0008a210       _logGetPolygonStipple@4    0048b210 f   renderer:win_qgl.obj
 0001:0008a230       _logGetString@4            0048b230 f   renderer:win_qgl.obj
 0001:0008a250       _logGetTexEnvfv@12         0048b250 f   renderer:win_qgl.obj
 0001:0008a270       _logGetTexEnviv@12         0048b270 f   renderer:win_qgl.obj
 0001:0008a290       _logGetTexGendv@12         0048b290 f   renderer:win_qgl.obj
 0001:0008a2b0       _logGetTexGenfv@12         0048b2b0 f   renderer:win_qgl.obj
 0001:0008a2d0       _logGetTexGeniv@12         0048b2d0 f   renderer:win_qgl.obj
 0001:0008a2f0       _logGetTexImage@20         0048b2f0 f   renderer:win_qgl.obj
 0001:0008a310       _logGetTexLevelParameterfv@16 0048b310 f   renderer:win_qgl.obj
 0001:0008a330       _logGetTexLevelParameteriv@16 0048b330 f   renderer:win_qgl.obj
 0001:0008a350       _logGetTexParameterfv@12   0048b350 f   renderer:win_qgl.obj
 0001:0008a370       _logGetTexParameteriv@12   0048b370 f   renderer:win_qgl.obj
 0001:0008a390       _logHint@8                 0048b390 f   renderer:win_qgl.obj
 0001:0008a3c0       _logIndexMask@4            0048b3c0 f   renderer:win_qgl.obj
 0001:0008a3e0       _logIndexPointer@12        0048b3e0 f   renderer:win_qgl.obj
 0001:0008a400       _logIndexd@8               0048b400 f   renderer:win_qgl.obj
 0001:0008a430       _logIndexdv@4              0048b430 f   renderer:win_qgl.obj
 0001:0008a450       _logIndexf@4               0048b450 f   renderer:win_qgl.obj
 0001:0008a480       _logIndexfv@4              0048b480 f   renderer:win_qgl.obj
 0001:0008a4a0       _logIndexi@4               0048b4a0 f   renderer:win_qgl.obj
 0001:0008a4c0       _logIndexiv@4              0048b4c0 f   renderer:win_qgl.obj
 0001:0008a4e0       _logIndexs@4               0048b4e0 f   renderer:win_qgl.obj
 0001:0008a500       _logIndexsv@4              0048b500 f   renderer:win_qgl.obj
 0001:0008a520       _logIndexub@4              0048b520 f   renderer:win_qgl.obj
 0001:0008a540       _logIndexubv@4             0048b540 f   renderer:win_qgl.obj
 0001:0008a560       _logInitNames@0            0048b560 f   renderer:win_qgl.obj
 0001:0008a580       _logInterleavedArrays@12   0048b580 f   renderer:win_qgl.obj
 0001:0008a5a0       _logIsEnabled@4            0048b5a0 f   renderer:win_qgl.obj
 0001:0008a5c0       _logIsList@4               0048b5c0 f   renderer:win_qgl.obj
 0001:0008a5e0       _logIsTexture@4            0048b5e0 f   renderer:win_qgl.obj
 0001:0008a600       _logLightModelf@8          0048b600 f   renderer:win_qgl.obj
 0001:0008a630       _logLightModelfv@8         0048b630 f   renderer:win_qgl.obj
 0001:0008a650       _logLightModeli@8          0048b650 f   renderer:win_qgl.obj
 0001:0008a670       _logLightModeliv@8         0048b670 f   renderer:win_qgl.obj
 0001:0008a690       _logLightf@12              0048b690 f   renderer:win_qgl.obj
 0001:0008a6c0       _logLightfv@12             0048b6c0 f   renderer:win_qgl.obj
 0001:0008a6e0       _logLighti@12              0048b6e0 f   renderer:win_qgl.obj
 0001:0008a700       _logLightiv@12             0048b700 f   renderer:win_qgl.obj
 0001:0008a720       _logLineStipple@8          0048b720 f   renderer:win_qgl.obj
 0001:0008a740       _logLineWidth@4            0048b740 f   renderer:win_qgl.obj
 0001:0008a770       _logListBase@4             0048b770 f   renderer:win_qgl.obj
 0001:0008a790       _logLoadIdentity@0         0048b790 f   renderer:win_qgl.obj
 0001:0008a7b0       _logLoadMatrixd@4          0048b7b0 f   renderer:win_qgl.obj
 0001:0008a7d0       _logLoadMatrixf@4          0048b7d0 f   renderer:win_qgl.obj
 0001:0008a7f0       _logLoadName@4             0048b7f0 f   renderer:win_qgl.obj
 0001:0008a810       _logLogicOp@4              0048b810 f   renderer:win_qgl.obj
 0001:0008a830       _logMap1d@32               0048b830 f   renderer:win_qgl.obj
 0001:0008a880       _logMap1f@24               0048b880 f   renderer:win_qgl.obj
 0001:0008a8d0       _logMap2d@56               0048b8d0 f   renderer:win_qgl.obj
 0001:0008a940       _logMap2f@40               0048b940 f   renderer:win_qgl.obj
 0001:0008a9b0       _logMapGrid1d@20           0048b9b0 f   renderer:win_qgl.obj
 0001:0008a9f0       _logMapGrid1f@12           0048b9f0 f   renderer:win_qgl.obj
 0001:0008aa30       _logMapGrid2d@40           0048ba30 f   renderer:win_qgl.obj
 0001:0008aa90       _logMapGrid2f@24           0048ba90 f   renderer:win_qgl.obj
 0001:0008aae0       _logMaterialf@12           0048bae0 f   renderer:win_qgl.obj
 0001:0008ab10       _logMaterialfv@12          0048bb10 f   renderer:win_qgl.obj
 0001:0008ab30       _logMateriali@12           0048bb30 f   renderer:win_qgl.obj
 0001:0008ab50       _logMaterialiv@12          0048bb50 f   renderer:win_qgl.obj
 0001:0008ab70       _logMatrixMode@4           0048bb70 f   renderer:win_qgl.obj
 0001:0008ab90       _logMultMatrixd@4          0048bb90 f   renderer:win_qgl.obj
 0001:0008abb0       _logMultMatrixf@4          0048bbb0 f   renderer:win_qgl.obj
 0001:0008abd0       _logNewList@8              0048bbd0 f   renderer:win_qgl.obj
 0001:0008abf0       _logNormal3b@12            0048bbf0 f   renderer:win_qgl.obj
 0001:0008ac10       _logNormal3bv@4            0048bc10 f   renderer:win_qgl.obj
 0001:0008ac30       _logNormal3d@24            0048bc30 f   renderer:win_qgl.obj
 0001:0008ac70       _logNormal3dv@4            0048bc70 f   renderer:win_qgl.obj
 0001:0008ac90       _logNormal3f@12            0048bc90 f   renderer:win_qgl.obj
 0001:0008acd0       _logNormal3fv@4            0048bcd0 f   renderer:win_qgl.obj
 0001:0008acf0       _logNormal3i@12            0048bcf0 f   renderer:win_qgl.obj
 0001:0008ad10       _logNormal3iv@4            0048bd10 f   renderer:win_qgl.obj
 0001:0008ad30       _logNormal3s@12            0048bd30 f   renderer:win_qgl.obj
 0001:0008ad50       _logNormal3sv@4            0048bd50 f   renderer:win_qgl.obj
 0001:0008ad70       _logNormalPointer@12       0048bd70 f   renderer:win_qgl.obj
 0001:0008ad90       _logOrtho@48               0048bd90 f   renderer:win_qgl.obj
 0001:0008adf0       _logPassThrough@4          0048bdf0 f   renderer:win_qgl.obj
 0001:0008ae20       _logPixelMapfv@12          0048be20 f   renderer:win_qgl.obj
 0001:0008ae40       _logPixelMapuiv@12         0048be40 f   renderer:win_qgl.obj
 0001:0008ae60       _logPixelMapusv@12         0048be60 f   renderer:win_qgl.obj
 0001:0008ae80       _logPixelStoref@8          0048be80 f   renderer:win_qgl.obj
 0001:0008aeb0       _logPixelStorei@8          0048beb0 f   renderer:win_qgl.obj
 0001:0008aed0       _logPixelTransferf@8       0048bed0 f   renderer:win_qgl.obj
 0001:0008af00       _logPixelTransferi@8       0048bf00 f   renderer:win_qgl.obj
 0001:0008af20       _logPixelZoom@8            0048bf20 f   renderer:win_qgl.obj
 0001:0008af60       _logPointSize@4            0048bf60 f   renderer:win_qgl.obj
 0001:0008af90       _logPolygonMode@8          0048bf90 f   renderer:win_qgl.obj
 0001:0008afc0       _logPolygonOffset@8        0048bfc0 f   renderer:win_qgl.obj
 0001:0008b000       _logPolygonStipple@4       0048c000 f   renderer:win_qgl.obj
 0001:0008b020       _logPopAttrib@0            0048c020 f   renderer:win_qgl.obj
 0001:0008b040       _logPopClientAttrib@0      0048c040 f   renderer:win_qgl.obj
 0001:0008b060       _logPopMatrix@0            0048c060 f   renderer:win_qgl.obj
 0001:0008b080       _logPopName@0              0048c080 f   renderer:win_qgl.obj
 0001:0008b0a0       _logPrioritizeTextures@12  0048c0a0 f   renderer:win_qgl.obj
 0001:0008b0c0       _logPushAttrib@4           0048c0c0 f   renderer:win_qgl.obj
 0001:0008b0e0       _logPushClientAttrib@4     0048c0e0 f   renderer:win_qgl.obj
 0001:0008b100       _logPushMatrix@0           0048c100 f   renderer:win_qgl.obj
 0001:0008b120       _logPushName@4             0048c120 f   renderer:win_qgl.obj
 0001:0008b140       _logRasterPos2d@16         0048c140 f   renderer:win_qgl.obj
 0001:0008b180       _logRasterPos2dv@4         0048c180 f   renderer:win_qgl.obj
 0001:0008b1a0       _logRasterPos2f@8          0048c1a0 f   renderer:win_qgl.obj
 0001:0008b1e0       _logRasterPos2fv@4         0048c1e0 f   renderer:win_qgl.obj
 0001:0008b200       _logRasterPos2i@8          0048c200 f   renderer:win_qgl.obj
 0001:0008b220       _logRasterPos2iv@4         0048c220 f   renderer:win_qgl.obj
 0001:0008b240       _logRasterPos2s@8          0048c240 f   renderer:win_qgl.obj
 0001:0008b260       _logRasterPos2sv@4         0048c260 f   renderer:win_qgl.obj
 0001:0008b280       _logRasterPos3d@24         0048c280 f   renderer:win_qgl.obj
 0001:0008b2c0       _logRasterPos3dv@4         0048c2c0 f   renderer:win_qgl.obj
 0001:0008b2e0       _logRasterPos3f@12         0048c2e0 f   renderer:win_qgl.obj
 0001:0008b320       _logRasterPos3fv@4         0048c320 f   renderer:win_qgl.obj
 0001:0008b340       _logRasterPos3i@12         0048c340 f   renderer:win_qgl.obj
 0001:0008b360       _logRasterPos3iv@4         0048c360 f   renderer:win_qgl.obj
 0001:0008b380       _logRasterPos3s@12         0048c380 f   renderer:win_qgl.obj
 0001:0008b3a0       _logRasterPos3sv@4         0048c3a0 f   renderer:win_qgl.obj
 0001:0008b3c0       _logRasterPos4d@32         0048c3c0 f   renderer:win_qgl.obj
 0001:0008b410       _logRasterPos4dv@4         0048c410 f   renderer:win_qgl.obj
 0001:0008b430       _logRasterPos4f@16         0048c430 f   renderer:win_qgl.obj
 0001:0008b480       _logRasterPos4fv@4         0048c480 f   renderer:win_qgl.obj
 0001:0008b4a0       _logRasterPos4i@16         0048c4a0 f   renderer:win_qgl.obj
 0001:0008b4c0       _logRasterPos4iv@4         0048c4c0 f   renderer:win_qgl.obj
 0001:0008b4e0       _logRasterPos4s@16         0048c4e0 f   renderer:win_qgl.obj
 0001:0008b500       _logRasterPos4sv@4         0048c500 f   renderer:win_qgl.obj
 0001:0008b520       _logReadBuffer@4           0048c520 f   renderer:win_qgl.obj
 0001:0008b540       _logReadPixels@28          0048c540 f   renderer:win_qgl.obj
 0001:0008b560       _logRectd@32               0048c560 f   renderer:win_qgl.obj
 0001:0008b5b0       _logRectdv@8               0048c5b0 f   renderer:win_qgl.obj
 0001:0008b5d0       _logRectf@16               0048c5d0 f   renderer:win_qgl.obj
 0001:0008b620       _logRectfv@8               0048c620 f   renderer:win_qgl.obj
 0001:0008b640       _logRecti@16               0048c640 f   renderer:win_qgl.obj
 0001:0008b660       _logRectiv@8               0048c660 f   renderer:win_qgl.obj
 0001:0008b680       _logRects@16               0048c680 f   renderer:win_qgl.obj
 0001:0008b6a0       _logRectsv@8               0048c6a0 f   renderer:win_qgl.obj
 0001:0008b6c0       _logRenderMode@4           0048c6c0 f   renderer:win_qgl.obj
 0001:0008b6e0       _logRotated@32             0048c6e0 f   renderer:win_qgl.obj
 0001:0008b730       _logRotatef@16             0048c730 f   renderer:win_qgl.obj
 0001:0008b780       _logScaled@24              0048c780 f   renderer:win_qgl.obj
 0001:0008b7c0       _logScalef@12              0048c7c0 f   renderer:win_qgl.obj
 0001:0008b800       _logScissor@16             0048c800 f   renderer:win_qgl.obj
 0001:0008b830       _logSelectBuffer@8         0048c830 f   renderer:win_qgl.obj
 0001:0008b850       _logShadeModel@4           0048c850 f   renderer:win_qgl.obj
 0001:0008b870       _logStencilFunc@12         0048c870 f   renderer:win_qgl.obj
 0001:0008b890       _logStencilMask@4          0048c890 f   renderer:win_qgl.obj
 0001:0008b8b0       _logStencilOp@12           0048c8b0 f   renderer:win_qgl.obj
 0001:0008b8d0       _logTexCoord1d@8           0048c8d0 f   renderer:win_qgl.obj
 0001:0008b900       _logTexCoord1dv@4          0048c900 f   renderer:win_qgl.obj
 0001:0008b920       _logTexCoord1f@4           0048c920 f   renderer:win_qgl.obj
 0001:0008b950       _logTexCoord1fv@4          0048c950 f   renderer:win_qgl.obj
 0001:0008b970       _logTexCoord1i@4           0048c970 f   renderer:win_qgl.obj
 0001:0008b990       _logTexCoord1iv@4          0048c990 f   renderer:win_qgl.obj
 0001:0008b9b0       _logTexCoord1s@4           0048c9b0 f   renderer:win_qgl.obj
 0001:0008b9d0       _logTexCoord1sv@4          0048c9d0 f   renderer:win_qgl.obj
 0001:0008b9f0       _logTexCoord2d@16          0048c9f0 f   renderer:win_qgl.obj
 0001:0008ba30       _logTexCoord2dv@4          0048ca30 f   renderer:win_qgl.obj
 0001:0008ba50       _logTexCoord2f@8           0048ca50 f   renderer:win_qgl.obj
 0001:0008ba90       _logTexCoord2fv@4          0048ca90 f   renderer:win_qgl.obj
 0001:0008bab0       _logTexCoord2i@8           0048cab0 f   renderer:win_qgl.obj
 0001:0008bad0       _logTexCoord2iv@4          0048cad0 f   renderer:win_qgl.obj
 0001:0008baf0       _logTexCoord2s@8           0048caf0 f   renderer:win_qgl.obj
 0001:0008bb10       _logTexCoord2sv@4          0048cb10 f   renderer:win_qgl.obj
 0001:0008bb30       _logTexCoord3d@24          0048cb30 f   renderer:win_qgl.obj
 0001:0008bb70       _logTexCoord3dv@4          0048cb70 f   renderer:win_qgl.obj
 0001:0008bb90       _logTexCoord3f@12          0048cb90 f   renderer:win_qgl.obj
 0001:0008bbd0       _logTexCoord3fv@4          0048cbd0 f   renderer:win_qgl.obj
 0001:0008bbf0       _logTexCoord3i@12          0048cbf0 f   renderer:win_qgl.obj
 0001:0008bc10       _logTexCoord3iv@4          0048cc10 f   renderer:win_qgl.obj
 0001:0008bc30       _logTexCoord3s@12          0048cc30 f   renderer:win_qgl.obj
 0001:0008bc50       _logTexCoord3sv@4          0048cc50 f   renderer:win_qgl.obj
 0001:0008bc70       _logTexCoord4d@32          0048cc70 f   renderer:win_qgl.obj
 0001:0008bcc0       _logTexCoord4dv@4          0048ccc0 f   renderer:win_qgl.obj
 0001:0008bce0       _logTexCoord4f@16          0048cce0 f   renderer:win_qgl.obj
 0001:0008bd30       _logTexCoord4fv@4          0048cd30 f   renderer:win_qgl.obj
 0001:0008bd50       _logTexCoord4i@16          0048cd50 f   renderer:win_qgl.obj
 0001:0008bd70       _logTexCoord4iv@4          0048cd70 f   renderer:win_qgl.obj
 0001:0008bd90       _logTexCoord4s@16          0048cd90 f   renderer:win_qgl.obj
 0001:0008bdb0       _logTexCoord4sv@4          0048cdb0 f   renderer:win_qgl.obj
 0001:0008bdd0       _logTexCoordPointer@16     0048cdd0 f   renderer:win_qgl.obj
 0001:0008be00       _logTexEnvf@12             0048ce00 f   renderer:win_qgl.obj
 0001:0008be50       _logTexEnvfv@12            0048ce50 f   renderer:win_qgl.obj
 0001:0008be70       _logTexEnvi@12             0048ce70 f   renderer:win_qgl.obj
 0001:0008bea0       _logTexEnviv@12            0048cea0 f   renderer:win_qgl.obj
 0001:0008bec0       _logTexGend@16             0048cec0 f   renderer:win_qgl.obj
 0001:0008bef0       _logTexGendv@12            0048cef0 f   renderer:win_qgl.obj
 0001:0008bf10       _logTexGenf@12             0048cf10 f   renderer:win_qgl.obj
 0001:0008bf40       _logTexGenfv@12            0048cf40 f   renderer:win_qgl.obj
 0001:0008bf60       _logTexGeni@12             0048cf60 f   renderer:win_qgl.obj
 0001:0008bf80       _logTexGeniv@12            0048cf80 f   renderer:win_qgl.obj
 0001:0008bfa0       _logTexImage1D@32          0048cfa0 f   renderer:win_qgl.obj
 0001:0008bfc0       _logTexImage2D@36          0048cfc0 f   renderer:win_qgl.obj
 0001:0008bfe0       _logTexParameterf@12       0048cfe0 f   renderer:win_qgl.obj
 0001:0008c030       _logTexParameterfv@12      0048d030 f   renderer:win_qgl.obj
 0001:0008c050       _logTexParameteri@12       0048d050 f   renderer:win_qgl.obj
 0001:0008c080       _logTexParameteriv@12      0048d080 f   renderer:win_qgl.obj
 0001:0008c0a0       _logTexSubImage1D@28       0048d0a0 f   renderer:win_qgl.obj
 0001:0008c0c0       _logTexSubImage2D@36       0048d0c0 f   renderer:win_qgl.obj
 0001:0008c0e0       _logTranslated@24          0048d0e0 f   renderer:win_qgl.obj
 0001:0008c120       _logTranslatef@12          0048d120 f   renderer:win_qgl.obj
 0001:0008c160       _logVertex2d@16            0048d160 f   renderer:win_qgl.obj
 0001:0008c1a0       _logVertex2dv@4            0048d1a0 f   renderer:win_qgl.obj
 0001:0008c1c0       _logVertex2f@8             0048d1c0 f   renderer:win_qgl.obj
 0001:0008c200       _logVertex2fv@4            0048d200 f   renderer:win_qgl.obj
 0001:0008c220       _logVertex2i@8             0048d220 f   renderer:win_qgl.obj
 0001:0008c240       _logVertex2iv@4            0048d240 f   renderer:win_qgl.obj
 0001:0008c260       _logVertex2s@8             0048d260 f   renderer:win_qgl.obj
 0001:0008c280       _logVertex2sv@4            0048d280 f   renderer:win_qgl.obj
 0001:0008c2a0       _logVertex3d@24            0048d2a0 f   renderer:win_qgl.obj
 0001:0008c2e0       _logVertex3dv@4            0048d2e0 f   renderer:win_qgl.obj
 0001:0008c300       _logVertex3f@12            0048d300 f   renderer:win_qgl.obj
 0001:0008c340       _logVertex3fv@4            0048d340 f   renderer:win_qgl.obj
 0001:0008c360       _logVertex3i@12            0048d360 f   renderer:win_qgl.obj
 0001:0008c380       _logVertex3iv@4            0048d380 f   renderer:win_qgl.obj
 0001:0008c3a0       _logVertex3s@12            0048d3a0 f   renderer:win_qgl.obj
 0001:0008c3c0       _logVertex3sv@4            0048d3c0 f   renderer:win_qgl.obj
 0001:0008c3e0       _logVertex4d@32            0048d3e0 f   renderer:win_qgl.obj
 0001:0008c430       _logVertex4dv@4            0048d430 f   renderer:win_qgl.obj
 0001:0008c450       _logVertex4f@16            0048d450 f   renderer:win_qgl.obj
 0001:0008c4a0       _logVertex4fv@4            0048d4a0 f   renderer:win_qgl.obj
 0001:0008c4c0       _logVertex4i@16            0048d4c0 f   renderer:win_qgl.obj
 0001:0008c4e0       _logVertex4iv@4            0048d4e0 f   renderer:win_qgl.obj
 0001:0008c500       _logVertex4s@16            0048d500 f   renderer:win_qgl.obj
 0001:0008c520       _logVertex4sv@4            0048d520 f   renderer:win_qgl.obj
 0001:0008c540       _logVertexPointer@16       0048d540 f   renderer:win_qgl.obj
 0001:0008c570       _logViewport@16            0048d570 f   renderer:win_qgl.obj
 0001:0008c5a0       _IsMirror                  0048d5a0 f   renderer:tr_main.obj
 0001:0008c938       $LN36                      0048d938     renderer:tr_main.obj
 0001:0008c958       $LN37                      0048d958     renderer:tr_main.obj
 0001:0008ea60       _SetFarClip                0048fa60 f   renderer:tr_main.obj
 0001:0008eb30       _SurfIsOffscreen           0048fb30 f   renderer:tr_main.obj
 0001:0008f100       _shortsort                 00490100 f   renderer:tr_main.obj
 0001:0008f150       _ComputeColors             00490150 f   renderer:tr_shade.obj
 0001:0008f674       $LN131                     00490674     renderer:tr_shade.obj
 0001:0008f69c       $LN132                     0049069c     renderer:tr_shade.obj
 0001:0008f6d0       _ComputeTexCoords          004906d0 f   renderer:tr_shade.obj
 0001:0008f8ec       $LN60                      004908ec     renderer:tr_shade.obj
 0001:0008f908       $LN61                      00490908     renderer:tr_shade.obj
 0001:0008f930       _DrawMultitextured         00490930 f   renderer:tr_shade.obj
 0001:0008fa20       _DrawNormals               00490a20 f   renderer:tr_shade.obj
 0001:0008fb40       _DrawTris                  00490b40 f   renderer:tr_shade.obj
 0001:0008fc20       _ProjectDlightTexture      00490c20 f   renderer:tr_shade.obj
 0001:00090260       _RB_FogPass                00491260 f   renderer:tr_shade.obj
 0001:00090390       _RB_IterateStagesGeneric   00491390 f   renderer:tr_shade.obj
 0001:00090990       _R_ArrayElementDiscrete@4  00491990 f   renderer:tr_shade.obj
 0001:00090a30       _R_BindAnimatedImage       00491a30 f   renderer:tr_shade.obj
 0001:00090ab0       _R_DrawElements            00491ab0 f   renderer:tr_shade.obj
 0001:00090b30       _R_DrawStripElements       00491b30 f   renderer:tr_shade.obj
 0001:00091ed4       $LN13                      00492ed4     renderer:tr_surface.obj
 0001:00091f30       _DoRailCore                00492f30 f   renderer:tr_surface.obj
 0001:000922e0       _DoRailDiscs               004932e0 f   renderer:tr_surface.obj
 0001:000928e0       _LerpMeshVertexes          004938e0 f   renderer:tr_surface.obj
 0001:00092c90       _LodErrorForVolume         00493c90 f   renderer:tr_surface.obj
 0001:000939f0       _RB_SurfaceSprite          004949f0 f   renderer:tr_surface.obj
 0001:00094740       _emit_message              00495740 f   renderer:jerror.obj
 0001:00094780       _error_exit                00495780 f   renderer:jerror.obj
 0001:000947e0       _format_message            004957e0 f   renderer:jerror.obj
 0001:000948f0       _output_message            004958f0 f   renderer:jerror.obj
 0001:00094940       _reset_error_mgr           00495940 f   renderer:jerror.obj
 0001:00094bf0       _default_decompress_parms  00495bf0 f   renderer:jdapimin.obj
 0001:00094e68       $LN15                      00495e68     renderer:jdapimin.obj
 0001:00094e7c       $LN11                      00495e7c     renderer:jdapimin.obj
 0001:000950b0       _fill_input_buffer         004960b0 f   renderer:jdatasrc.obj
 0001:000950f0       _init_source               004960f0 f   renderer:jdatasrc.obj
 0001:00095180       _skip_input_data           00496180 f   renderer:jdatasrc.obj
 0001:000951f0       _term_source               004961f0 f   renderer:jdatasrc.obj
 0001:000951f0       _start_pass_dcolor         004961f0 f   renderer:jdatasrc.obj
 0001:000951f0       _start_pass_downsample     004961f0 f   renderer:jdatasrc.obj
 0001:000951f0       _null_method               004961f0 f   renderer:jdatasrc.obj
 0001:0009532c       $LN15                      0049632c     renderer:jcparam.obj
 0001:000956dc       $LN25                      004966dc     renderer:jcparam.obj
 0001:00095880       _std_huff_tables           00496880 f   renderer:jcparam.obj
 0001:00095af0       _output_pass_setup         00496af0 f   renderer:jdapistd.obj
 0001:00095c30       _InvertCtrl                00496c30 f   renderer:tr_curve.obj
 0001:00095cf0       _InvertErrorTable          00496cf0 f   renderer:tr_curve.obj
 0001:00095e10       _MakeMeshNormals           00496e10 f   renderer:tr_curve.obj
 0001:000962d0       _PutPointsOnCurve          004972d0 f   renderer:tr_curve.obj
 0001:00097d40       _Transpose                 00498d40 f   renderer:tr_curve.obj
 0001:00097f00       _AddSkyPolygon             00498f00 f   renderer:tr_sky.obj
 0001:00098170       _ClearSkyBox               00499170 f   renderer:tr_sky.obj
 0001:00098270       _ClipSkyPolygon            00499270 f   renderer:tr_sky.obj
 0001:00098720       _DrawSkyBox                00499720 f   renderer:tr_sky.obj
 0001:00098a30       _DrawSkySide               00499a30 f   renderer:tr_sky.obj
 0001:00098b00       _FillCloudySkySide         00499b00 f   renderer:tr_sky.obj
 0001:00098d50       _MakeSkyVec                00499d50 f   renderer:tr_sky.obj
 0001:000997e0       _Autosprite2Deform         0049a7e0 f   renderer:tr_shade_calc.obj
 0001:00099f20       _AutospriteDeform          0049af20 f   renderer:tr_shade_calc.obj
 0001:0009be64       $LN24                      0049ce64     renderer:tr_shade_calc.obj
 0001:0009be84       $LN21                      0049ce84     renderer:tr_shade_calc.obj
 0001:0009bea0       _TableForFunc              0049cea0 f   renderer:tr_shade_calc.obj
 0001:0009bef4       $LN12                      0049cef4     renderer:tr_shade_calc.obj
 0001:0009bf30       _ProjectRadius             0049cf30 f   renderer:tr_mesh.obj
 0001:0009c510       _R_CullModel               0049d510 f   renderer:tr_mesh.obj
 0001:0009cdd0       _emit_2bytes               0049ddd0 f   renderer:jcmarker.obj
 0001:0009ce40       _emit_adobe_app14          0049de40 f   renderer:jcmarker.obj
 0001:0009cfb0       _emit_dht                  0049dfb0 f   renderer:jcmarker.obj
 0001:0009d170       _emit_dqt                  0049e170 f   renderer:jcmarker.obj
 0001:0009d380       _emit_jfif_app0            0049e380 f   renderer:jcmarker.obj
 0001:0009d5a0       _emit_marker               0049e5a0 f   renderer:jcmarker.obj
 0001:0009d610       _emit_sof                  0049e610 f   renderer:jcmarker.obj
 0001:0009d7a0       _emit_sos                  0049e7a0 f   renderer:jcmarker.obj
 0001:0009d9e0       _write_any_marker          0049e9e0 f   renderer:jcmarker.obj
 0001:0009da50       _write_file_header         0049ea50 f   renderer:jcmarker.obj
 0001:0009da90       _write_file_trailer        0049ea90 f   renderer:jcmarker.obj
 0001:0009dab0       _write_frame_header        0049eab0 f   renderer:jcmarker.obj
 0001:0009dbc0       _write_scan_header         0049ebc0 f   renderer:jcmarker.obj
 0001:0009dd40       _write_tables_only         0049ed40 f   renderer:jcmarker.obj
 0001:0009de20       _access_virt_barray        0049ee20 f   renderer:jmemmgr.obj
 0001:0009df70       _access_virt_sarray        0049ef70 f   renderer:jmemmgr.obj
 0001:0009e0c0       _alloc_barray              0049f0c0 f   renderer:jmemmgr.obj
 0001:0009e180       _alloc_large               0049f180 f   renderer:jmemmgr.obj
 0001:0009e250       _alloc_sarray              0049f250 f   renderer:jmemmgr.obj
 0001:0009e300       _alloc_small               0049f300 f   renderer:jmemmgr.obj
 0001:0009e450       _do_barray_io              0049f450 f   renderer:jmemmgr.obj
 0001:0009e4e0       _do_sarray_io              0049f4e0 f   renderer:jmemmgr.obj
 0001:0009e570       _free_pool                 0049f570 f   renderer:jmemmgr.obj
 0001:0009e7b0       _realize_virt_arrays       0049f7b0 f   renderer:jmemmgr.obj
 0001:0009e960       _request_virt_barray       0049f960 f   renderer:jmemmgr.obj
 0001:0009e9d0       _request_virt_sarray       0049f9d0 f   renderer:jmemmgr.obj
 0001:0009ea40       _self_destruct             0049fa40 f   renderer:jmemmgr.obj
 0001:0009eb80       _consume_markers           0049fb80 f   renderer:jdinput.obj
 0001:0009ec50       _finish_input_pass         0049fc50 f   renderer:jdinput.obj
 0001:0009ec70       _initial_setup             0049fc70 f   renderer:jdinput.obj
 0001:0009eec0       _latch_quant_tables        0049fec0 f   renderer:jdinput.obj
 0001:0009ef70       _per_scan_setup            0049ff70 f   renderer:jdinput.obj
 0001:0009f120       _reset_input_controller    004a0120 f   renderer:jdinput.obj
 0001:0009f160       _start_input_pass          004a0160 f   renderer:jdinput.obj
 0001:0009f1a0       _first_marker              004a01a0 f   renderer:jdmarker.obj
 0001:0009f250       _get_app0                  004a0250 f   renderer:jdmarker.obj
 0001:0009f4d0       _get_app14                 004a04d0 f   renderer:jdmarker.obj
 0001:0009f690       _get_dac                   004a0690 f   renderer:jdmarker.obj
 0001:0009f800       _get_dht                   004a0800 f   renderer:jdmarker.obj
 0001:0009fb40       _get_dqt                   004a0b40 f   renderer:jdmarker.obj
 0001:0009fd80       _get_dri                   004a0d80 f   renderer:jdmarker.obj
 0001:0009fe80       _get_sof                   004a0e80 f   renderer:jdmarker.obj
 0001:000a01a0       _get_soi                   004a11a0 f   renderer:jdmarker.obj
 0001:000a0240       _get_sos                   004a1240 f   renderer:jdmarker.obj
 0001:000a06e0       _next_marker               004a16e0 f   renderer:jdmarker.obj
 0001:000a0800       _read_markers              004a1800 f   renderer:jdmarker.obj
 0001:000a09ac       $LN70                      004a19ac     renderer:jdmarker.obj
 0001:000a09f0       $LN61                      004a19f0     renderer:jdmarker.obj
 0001:000a0af0       _read_restart_marker       004a1af0 f   renderer:jdmarker.obj
 0001:000a0b80       _reset_marker_reader       004a1b80 f   renderer:jdmarker.obj
 0001:000a0bd0       _skip_variable             004a1bd0 f   renderer:jdmarker.obj
 0001:000a0c90       _finish_output_pass        004a1c90 f   renderer:jdmaster.obj
 0001:000a0d88       $LN18                      004a1d88     renderer:jdmaster.obj
 0001:000a0da0       _master_selection          004a1da0 f   renderer:jdmaster.obj
 0001:000a0f60       _prepare_for_output_pass   004a1f60 f   renderer:jdmaster.obj
 0001:000a10a0       _prepare_range_limit_table 004a20a0 f   renderer:jdmaster.obj
 0001:000a1130       _finish_pass_master        004a2130 f   renderer:jcmaster.obj
 0001:000a11a0       _initial_setup             004a21a0 f   renderer:jcmaster.obj
 0001:000a1440       _pass_startup              004a2440 f   renderer:jcmaster.obj
 0001:000a1470       _per_scan_setup            004a2470 f   renderer:jcmaster.obj
 0001:000a1640       _prepare_for_pass          004a2640 f   renderer:jcmaster.obj
 0001:000a17f0       _select_scan_parameters    004a27f0 f   renderer:jcmaster.obj
 0001:000a18f0       _validate_script           004a28f0 f   renderer:jcmaster.obj
 0001:000a1de0       _process_data_simple_main  004a2de0 f   renderer:jcmainct.obj
 0001:000a1e80       _start_pass_main           004a2e80 f   renderer:jcmainct.obj
 0001:000a1ed0       _create_context_buffer     004a2ed0 f   renderer:jcprepct.obj
 0001:000a20c0       _pre_process_context       004a30c0 f   renderer:jcprepct.obj
 0001:000a2330       _pre_process_data          004a3330 f   renderer:jcprepct.obj
 0001:000a2510       _start_pass_prep           004a3510 f   renderer:jcprepct.obj
 0001:000a2560       _compress_data             004a3560 f   renderer:jccoefct.obj
 0001:000a27c0       _compress_first_pass       004a37c0 f   renderer:jccoefct.obj
 0001:000a29b0       _compress_output           004a39b0 f   renderer:jccoefct.obj
 0001:000a2cd0       _start_iMCU_row            004a3cd0 f   renderer:jccoefct.obj
 0001:000a2d40       _start_pass_coef           004a3d40 f   renderer:jccoefct.obj
 0001:000a2e00       _cmyk_ycck_convert         004a3e00 f   renderer:jccolor.obj
 0001:000a2f40       _grayscale_convert         004a3f40 f   renderer:jccolor.obj
 0001:000a3164       $LN51                      004a4164     renderer:jccolor.obj
 0001:000a3178       $LN52                      004a4178     renderer:jccolor.obj
 0001:000a3190       _null_convert              004a4190 f   renderer:jccolor.obj
 0001:000a3230       _rgb_gray_convert          004a4230 f   renderer:jccolor.obj
 0001:000a32e0       _rgb_ycc_convert           004a42e0 f   renderer:jccolor.obj
 0001:000a33f0       _rgb_ycc_start             004a43f0 f   renderer:jccolor.obj
 0001:000a3600       _expand_right_edge         004a4600 f   renderer:jcsample.obj
 0001:000a3660       _fullsize_downsample       004a4660 f   renderer:jcsample.obj
 0001:000a36a0       _fullsize_smooth_downsample 004a46a0 f   renderer:jcsample.obj
 0001:000a3800       _h2v1_downsample           004a4800 f   renderer:jcsample.obj
 0001:000a38a0       _h2v2_downsample           004a48a0 f   renderer:jcsample.obj
 0001:000a3960       _h2v2_smooth_downsample    004a4960 f   renderer:jcsample.obj
 0001:000a3bf0       _int_downsample            004a4bf0 f   renderer:jcsample.obj
 0001:000a3ec0       _sep_downsample            004a4ec0 f   renderer:jcsample.obj
 0001:000a3f50       _forward_DCT_float         004a4f50 f   renderer:jcdctmgr.obj
 0001:000a46d0       _start_pass_fdctmgr        004a56d0 f   renderer:jcdctmgr.obj
 0001:000a4960       _emit_bits                 004a5960 f   renderer:jchuff.obj
 0001:000a4a50       _emit_restart              004a5a50 f   renderer:jchuff.obj
 0001:000a4b10       _encode_mcu_gather         004a5b10 f   renderer:jchuff.obj
 0001:000a4c80       _encode_mcu_huff           004a5c80 f   renderer:jchuff.obj
 0001:000a4de0       _encode_one_block          004a5de0 f   renderer:jchuff.obj
 0001:000a4f30       _finish_pass_gather        004a5f30 f   renderer:jchuff.obj
 0001:000a5260       _finish_pass_huff          004a6260 f   renderer:jchuff.obj
 0001:000a5750       _start_pass_huff           004a6750 f   renderer:jchuff.obj
 0001:000a5900       _emit_bits                 004a6900 f   renderer:jcphuff.obj
 0001:000a5a40       _emit_buffered_bits        004a6a40 f   renderer:jcphuff.obj
 0001:000a5b80       _emit_eobrun               004a6b80 f   renderer:jcphuff.obj
 0001:000a5c00       _emit_restart              004a6c00 f   renderer:jcphuff.obj
 0001:000a5d10       _encode_mcu_AC_first       004a6d10 f   renderer:jcphuff.obj
 0001:000a5ef0       _encode_mcu_AC_refine      004a6ef0 f   renderer:jcphuff.obj
 0001:000a61b0       _encode_mcu_DC_first       004a71b0 f   renderer:jcphuff.obj
 0001:000a62f0       _encode_mcu_DC_refine      004a72f0 f   renderer:jcphuff.obj
 0001:000a63a0       _finish_pass_gather_phuff  004a73a0 f   renderer:jcphuff.obj
 0001:000a6460       _finish_pass_phuff         004a7460 f   renderer:jcphuff.obj
 0001:000a6530       _start_pass_phuff          004a7530 f   renderer:jcphuff.obj
 0001:000a6800       _alloc_funny_pointers      004a7800 f   renderer:jdmainct.obj
 0001:000a69b0       _make_funny_pointers       004a79b0 f   renderer:jdmainct.obj
 0001:000a6ad0       _process_data_context_main 004a7ad0 f   renderer:jdmainct.obj
 0001:000a6c00       _process_data_simple_main  004a7c00 f   renderer:jdmainct.obj
 0001:000a6c70       _set_bottom_pointers       004a7c70 f   renderer:jdmainct.obj
 0001:000a6d10       _set_wraparound_pointers   004a7d10 f   renderer:jdmainct.obj
 0001:000a6df0       _start_pass_main           004a7df0 f   renderer:jdmainct.obj
 0001:000a6e70       _decompress_onepass        004a7e70 f   renderer:jdcoefct.obj
 0001:000a7190       _start_iMCU_row            004a8190 f   renderer:jdcoefct.obj
 0001:000a7200       _start_input_pass          004a8200 f   renderer:jdcoefct.obj
 0001:000a7220       _start_output_pass         004a8220 f   renderer:jdcoefct.obj
 0001:000a72c0       _post_process_1pass        004a82c0 f   renderer:jdpostct.obj
 0001:000a7330       _start_pass_dpost          004a8330 f   renderer:jdpostct.obj
 0001:000a73d0       _decode_mcu                004a83d0 f   renderer:jdhuff.obj
 0001:000a7cc0       _process_restart           004a8cc0 f   renderer:jdhuff.obj
 0001:000a7d40       _start_pass_huff_decoder   004a8d40 f   renderer:jdhuff.obj
 0001:000a7f10       _start_pass                004a8f10 f   renderer:jddctmgr.obj
 0001:000a81e0       _fullsize_upsample         004a91e0 f   renderer:jdsample.obj
 0001:000a81f0       _h2v1_fancy_upsample       004a91f0 f   renderer:jdsample.obj
 0001:000a82c0       _h2v1_upsample             004a92c0 f   renderer:jdsample.obj
 0001:000a8320       _h2v2_fancy_upsample       004a9320 f   renderer:jdsample.obj
 0001:000a8450       _h2v2_upsample             004a9450 f   renderer:jdsample.obj
 0001:000a84d0       _int_upsample              004a94d0 f   renderer:jdsample.obj
 0001:000a87c0       _noop_upsample             004a97c0 f   renderer:jdsample.obj
 0001:000a87d0       _sep_upsample              004a97d0 f   renderer:jdsample.obj
 0001:000a88a0       _start_pass_upsample       004a98a0 f   renderer:jdsample.obj
 0001:000a88c0       _build_ycc_rgb_table       004a98c0 f   renderer:jdcolor.obj
 0001:000a8990       _grayscale_convert         004a9990 f   renderer:jdcolor.obj
 0001:000a8b30       $LN43                      004a9b30     renderer:jdcolor.obj
 0001:000a8b50       _null_convert              004a9b50 f   renderer:jdcolor.obj
 0001:000a8be0       _ycc_rgb_convert           004a9be0 f   renderer:jdcolor.obj
 0001:000a8d10       _ycck_cmyk_convert         004a9d10 f   renderer:jdcolor.obj
 0001:000aa6f0       $$000000                   004ab6f0     LIBCMT:strncpy.obj
 0001:000aa840       $$000000                   004ab840     LIBCMT:87ctriga.obj
 0001:000aa860       $$000000                   004ab860     LIBCMT:chkstk.obj
 0001:000aa890       $$000000                   004ab890     LIBCMT:cos_sse2_precise.obj
 0001:000aaa50       $$000000                   004aba50     LIBCMT:sin_sse2_precise.obj
 0001:000aac20       $$000000                   004abc20     LIBCMT:sqrt_sse2_precise.obj
 0001:000aad20       $$000000                   004abd20     LIBCMT:ceil_pentium4.obj
 0001:000aae40       $$000000                   004abe40     LIBCMT:floor_pentium4.obj
 0001:000aaf70       $$000000                   004abf70     LIBCMT:memcpy.obj
 0001:000ab1c0       LeadUpVec                  004ac1c0     LIBCMT:memcpy.obj
 0001:000ab23c       UnwindUpVec                004ac23c     LIBCMT:memcpy.obj
 0001:000ab2a8       TrailUpVec                 004ac2a8     LIBCMT:memcpy.obj
 0001:000ab34c       LeadDownVec                004ac34c     LIBCMT:memcpy.obj
 0001:000ab3d8       UnwindDownVec              004ac3d8     LIBCMT:memcpy.obj
 0001:000ab444       TrailDownVec               004ac444     LIBCMT:memcpy.obj
 0001:000ab630       $$000000                   004ac630     LIBCMT:strstr.obj
 0001:000ab8a0       $$000000                   004ac8a0     LIBCMT:ftol3.obj
 0001:000abe90       $$000000                   004ace90     LIBCMT:memmove.obj
 0001:000ac0e0       LeadUpVec                  004ad0e0     LIBCMT:memmove.obj
 0001:000ac15c       UnwindUpVec                004ad15c     LIBCMT:memmove.obj
 0001:000ac1c8       TrailUpVec                 004ad1c8     LIBCMT:memmove.obj
 0001:000ac26c       LeadDownVec                004ad26c     LIBCMT:memmove.obj
 0001:000ac2f8       UnwindDownVec              004ad2f8     LIBCMT:memmove.obj
 0001:000ac364       TrailDownVec               004ad364     LIBCMT:memmove.obj
 0001:000ac7fe       _vscan_fn                  004ad7fe f   LIBCMT:sscanf.obj
 0001:000ac9c0       $$000000                   004ad9c0     LIBCMT:strchr.obj
 0001:000acaf0       $$000000                   004adaf0     LIBCMT:strncat.obj
 0001:000acd60       $$000000                   004add60     LIBCMT:ftol2.obj
 0001:000ace10       $$000000                   004ade10     LIBCMT:strncmp.obj
 0001:000ad6d0       $$000000                   004ae6d0     LIBCMT:longjmp.obj
 0001:000ad790       $$000000                   004ae790     LIBCMT:acos_sse2_precise.obj
 0001:000adcb0       $$000000                   004aecb0     LIBCMT:setjmp3.obj
 0001:000add30       $$000000                   004aed30     LIBCMT:memset.obj
 0001:000adfaf       _flsall                    004aefaf f   LIBCMT:fflush.obj
 0001:000af030       _shortsort                 004b0030 f   LIBCMT:qsort.obj
 0001:000af0b0       _swap                      004b00b0 f   LIBCMT:qsort.obj
 0001:000af240       $$000000                   004b0240     LIBCMT:ftol.obj
 0001:000af5e9       __initterm                 004b05e9 f   LIBCMT:crt0dat.obj
 0001:000af653       _doexit                    004b0653 f   LIBCMT:crt0dat.obj
 0001:000afc8a       ___tmainCRTStartup         004b0c8a f   LIBCMT:wincrt0.obj
 0001:000afdda       _fast_error_exit           004b0dda f   LIBCMT:wincrt0.obj
 0001:000b0000       $$000000                   004b1000     LIBCMT:tan_sse2_precise.obj
 0001:000b03f0       $$000000                   004b13f0     LIBCMT:strrchr.obj
 0001:000b0530       $$000000                   004b1530     LIBCMT:svml_dpow2_dispatch.obj
 0001:000b0540       $$000000                   004b1540     LIBCMT:pow_sse2_precise.obj
 0001:000b10fc       __putenv_helper            004b20fc f   LIBCMT:putenv.obj
 0001:000b130d       ?strtoxl@@YAKPAUlocaleinfo_struct@@PBDPAPBDHH@Z 004b230d f   LIBCMT:strtol.obj
 0001:000b1560       $$000000                   004b2560     LIBCMT:87triga.obj
 0001:000b1610       $$000000                   004b2610     LIBCMT:87cdisp.obj
 0001:000b1890       $$000000                   004b2890     LIBCMT:cos.obj
 0001:000b19c0       $$000000                   004b29c0     LIBCMT:sin.obj
 0001:000b1d99       $LN79                      004b2d99     LIBCMT:libm_error.obj
 0001:000b1de0       $$000000                   004b2de0     LIBCMT:sqrt.obj
 0001:000b2478       __cftoe2_l                 004b3478 f   LIBCMT:cvt.obj
 0001:000b2697       __cftof2_l                 004b3697 f   LIBCMT:cvt.obj
 0001:000b2acd       __shift                    004b3acd f   LIBCMT:cvt.obj
 0001:000b3620       $$000000                   004b4620     LIBCMT:ulldiv.obj
 0001:000b3a88       ?CPtoLocaleName@@YAPB_WH@Z 004b4a88 f   LIBCMT:mbctype.obj
 0001:000b3ac2       ?getSystemCP@@YAHH@Z       004b4ac2 f   LIBCMT:mbctype.obj
 0001:000b3b30       ?setSBCS@@YAXPAUthreadmbcinfostruct@@@Z 004b4b30 f   LIBCMT:mbctype.obj
 0001:000b3b8f       ?setSBUpLow@@YAXPAUthreadmbcinfostruct@@@Z 004b4b8f f   LIBCMT:mbctype.obj
 0001:000b4256       ?__crtLCMapStringA_stat@@YAHPAUlocaleinfo_struct@@PB_WKPBDHPADHHH@Z 004b5256 f   LIBCMT:a_map.obj
 0001:000b5757       $LN277                     004b6757     LIBCMT:output.obj
 0001:000b5777       _write_char                004b6777 f   LIBCMT:output.obj
 0001:000b57bf       _write_multi_char          004b67bf f   LIBCMT:output.obj
 0001:000b57eb       _write_string              004b67eb f   LIBCMT:output.obj
 0001:000b5870       $$000000                   004b6870     LIBCMT:sehprolg4.obj
 0001:000b5a70       $$000000                   004b6a70     LIBCMT:strlen.obj
 0001:000b5afb       ___check_float_string      004b6afb f   LIBCMT:input.obj
 0001:000b5b5a       __hextodec                 004b6b5a f   LIBCMT:input.obj
 0001:000b5b7b       __inc                      004b6b7b f   LIBCMT:input.obj
 0001:000b6cec       __whiteout                 004b7cec f   LIBCMT:input.obj
 0001:000b7c36       $LN333                     004b8c36     LIBCMT:strgtold.obj
 0001:000b8162       __isindst_nolock           004b9162 f   LIBCMT:tzset.obj
 0001:000b8346       __tzset_nolock             004b9346 f   LIBCMT:tzset.obj
 0001:000b8678       _cvtdate                   004b9678 f   LIBCMT:tzset.obj
 0001:000b88a0       $$000000                   004b98a0     LIBCMT:lldiv.obj
 0001:000b8950       $$000000                   004b9950     LIBCMT:llrem.obj
 0001:000b8a10       $$000000                   004b9a10     LIBCMT:exsup.obj
 0001:000b8a30       __unwind_handler           004b9a30 f   LIBCMT:exsup.obj
 0001:000b8b90       $$000000                   004b9b90     LIBCMT:acos.obj
 0001:000b9c60       $$000000                   004bac60     LIBCMT:exsup4.obj
 0001:000b9cf0       __unwind_handler4          004bacf0 f   LIBCMT:exsup4.obj
 0001:000bb014       __onexit_nolock            004bc014 f   LIBCMT:onexit.obj
 0001:000bb317       _siglookup                 004bc317 f   LIBCMT:winsig.obj
 0001:000bbf2b       _parse_cmdline             004bcf2b f   LIBCMT:stdargv.obj
 0001:000bc360       $$000000                   004bd360     LIBCMT:tan.obj
 0001:000bc490       _TestInt                   004bd490 f   LIBCMT:svml_dpow2_sse2.obj
 0001:000bc490       $$000000                   004bd490     LIBCMT:svml_dpow2_sse2.obj
 0001:000bc520       __vmldPow_HA_scalar        004bd520 f   LIBCMT:svml_dpow2_sse2.obj
 0001:000bca00       __raise_zerodivide         004bda00 f   LIBCMT:svml_dpow2_sse2.obj
 0001:000bca20       _pow_scalar                004bda20 f   LIBCMT:svml_dpow2_sse2.obj
 0001:000bd570       __raise_invalid            004be570 f   LIBCMT:svml_dpow2_sse2.obj
 0001:000bd580       $$000000                   004be580     LIBCMT:pow.obj
 0001:000bda6b       _copy_environ              004bea6b f   LIBCMT:setenv.obj
 0001:000bdacb       _findenv                   004beacb f   LIBCMT:setenv.obj
 0001:000bdd95       _copy_environ              004bed95 f   LIBCMT:wsetenv.obj
 0001:000bddf5       _wfindenv                  004bedf5 f   LIBCMT:wsetenv.obj
 0001:000be050       $$000000                   004bf050     LIBCMT:llmul.obj
 0001:000be090       $$000000                   004bf090     LIBCMT:ulldvrm.obj
 0001:000be130       $$000000                   004bf130     LIBCMT:87disp.obj
 0001:000be410       $$000000                   004bf410     LIBCMT:cos_pentium4.obj
 0001:000be5c0       $$000000                   004bf5c0     LIBCMT:common.obj
 0001:000be750       $$000000                   004bf750     LIBCMT:genexcep.obj
 0001:000be7b0       $$000000                   004bf7b0     LIBCMT:sin_pentium4.obj
 0001:000bef90       $$000000                   004bff90     LIBCMT:lldvrm.obj
 0001:000bf070       $$000000                   004c0070     LIBCMT:ullshr.obj
 0001:000bf5d8       ?__crtGetStringTypeA_stat@@YAHPAUlocaleinfo_struct@@KPBDHPAGHH@Z 004c05d8 f   LIBCMT:a_str.obj
 0001:000bf890       $$000000                   004c0890     LIBCMT:alloca16.obj
 0001:000bffaf       ?__crtCompareStringA_stat@@YAHPAUlocaleinfo_struct@@PB_WKPBDH2HH@Z 004c0faf f   LIBCMT:a_cmp.obj
 0001:000c0233       ?strncnt@@YAHPBDH@Z        004c1233 f   LIBCMT:a_cmp.obj
 0001:000c1260       $$000000                   004c2260     LIBCMT:strcmp.obj
 0001:000c1390       $$000000                   004c2390     LIBCMT:acos_pentium4.obj
 0001:000c1dd2       ?x_ismbbtype_l@@YAHPAUlocaleinfo_struct@@IHH@Z 004c2dd2 f   LIBCMT:ismbbyte.obj
 0001:000c1e50       $$000000                   004c2e50     LIBCMT:tan_pentium4.obj
 0001:000c20b0       $$000000                   004c30b0     LIBCMT:pow_pentium4.obj
 0001:000c2c10       $$000000                   004c3c10     LIBCMT:87tran.obj
 0001:000c3e84       ___hw_cw_sse2              004c4e84 f   LIBCMT:ieee87.obj
 0001:000c422f       __hw_cw                    004c522f f   LIBCMT:ieee87.obj
 0001:000c4418       ___createFile              004c5418 f   LIBCMT:wopen.obj
 0001:000c4d00       $$000000                   004c5d00     LIBCMT:_strnicm.obj
 0002:00000308       _pinit                     004c7308     LIBCMT:clock.obj
 0002:0000030c       _pinit                     004c730c     LIBCMT:cpu_disp.obj
 0002:00000310       _pinit                     004c7310     LIBCMT:mathfcns.obj
 0002:00000314       _pinit                     004c7314     LIBCMT:mbctype.obj
 0002:00000318       _pinit                     004c7318     LIBCMT:_file.obj
 0002:0000031c       _pinit                     004c731c     LIBCMT:onexit.obj
 0002:00000320       _pinit                     004c7320     LIBCMT:wincrt0.obj
 0002:0000032c       _pterm                     004c732c     LIBCMT:wsetloca.obj
 0002:00000330       _pterm                     004c7330     LIBCMT:initcon.obj
 0002:00000334       _pterm                     004c7334     LIBCMT:_file.obj
 0002:00005c08       _border                    004ccc08     unzip.obj
 0002:00005c54       _inflate_copyright         004ccc54     unzip.obj
 0002:00005c88       _cplens                    004ccc88     unzip.obj
 0002:00005d08       _cplext                    004ccd08     unzip.obj
 0002:00005d88       _cpdist                    004ccd88     unzip.obj
 0002:00005e00       _cpdext                    004cce00     unzip.obj
 0002:00015420       ?std_luminance_quant_tbl@?1??jpeg_set_linear_quality@@9@9 004dc420     renderer:jcparam.obj
 0002:00015520       ?std_chrominance_quant_tbl@?1??jpeg_set_linear_quality@@9@9 004dc520     renderer:jcparam.obj
 0002:00015620       ?bits_dc_luminance@?1??std_huff_tables@@9@9 004dc620     renderer:jcparam.obj
 0002:00015634       ?val_dc_luminance@?1??std_huff_tables@@9@9 004dc634     renderer:jcparam.obj
 0002:00015640       ?bits_dc_chrominance@?1??std_huff_tables@@9@9 004dc640     renderer:jcparam.obj
 0002:00015654       ?val_dc_chrominance@?1??std_huff_tables@@9@9 004dc654     renderer:jcparam.obj
 0002:00015660       ?bits_ac_luminance@?1??std_huff_tables@@9@9 004dc660     renderer:jcparam.obj
 0002:00015678       ?val_ac_luminance@?1??std_huff_tables@@9@9 004dc678     renderer:jcparam.obj
 0002:0001571c       ?bits_ac_chrominance@?1??std_huff_tables@@9@9 004dc71c     renderer:jcparam.obj
 0002:00015730       ?val_ac_chrominance@?1??std_huff_tables@@9@9 004dc730     renderer:jcparam.obj
 0002:00015a14       _first_pool_slop           004dca14     renderer:jmemmgr.obj
 0002:00015a1c       _extra_pool_slop           004dca1c     renderer:jmemmgr.obj
 0002:00015ad0       ?aanscalefactor@?5??start_pass_fdctmgr@@9@9 004dcad0     renderer:jcdctmgr.obj
 0002:00015db0       _extend_test               004dcdb0     renderer:jdhuff.obj
 0002:00015df0       _extend_offset             004dcdf0     renderer:jdhuff.obj
 0002:00015e30       ?aanscalefactor@?7??start_pass@@9@9 004dce30     renderer:jddctmgr.obj
 0002:00015e90       Ctable                     004dce90     LIBCMT:cos_sse2_precise.obj
 0002:00016690       SC_1                       004dd690     LIBCMT:cos_sse2_precise.obj
 0002:000166a0       SC_2                       004dd6a0     LIBCMT:cos_sse2_precise.obj
 0002:000166b0       SC_3                       004dd6b0     LIBCMT:cos_sse2_precise.obj
 0002:000166c0       SC_4                       004dd6c0     LIBCMT:cos_sse2_precise.obj
 0002:000166d0       PI32INV                    004dd6d0     LIBCMT:cos_sse2_precise.obj
 0002:000166d8       SHIFTER                    004dd6d8     LIBCMT:cos_sse2_precise.obj
 0002:000166e0       P_2                        004dd6e0     LIBCMT:cos_sse2_precise.obj
 0002:000166f0       P_1                        004dd6f0     LIBCMT:cos_sse2_precise.obj
 0002:000166f8       P_3                        004dd6f8     LIBCMT:cos_sse2_precise.obj
 0002:00016700       TWO_POW_55                 004dd700     LIBCMT:cos_sse2_precise.obj
 0002:00016708       TWO_POW_M55                004dd708     LIBCMT:cos_sse2_precise.obj
 0002:00016710       ALL_ONES                   004dd710     LIBCMT:cos_sse2_precise.obj
 0002:00016718       NEG_ZERO                   004dd718     LIBCMT:cos_sse2_precise.obj
 0002:00016720       ONE                        004dd720     LIBCMT:cos_sse2_precise.obj
 0002:00016730       SIGN_MASK                  004dd730     LIBCMT:cos_sse2_precise.obj
 0002:00016740       Ctable                     004dd740     LIBCMT:sin_sse2_precise.obj
 0002:00016f40       SC_1                       004ddf40     LIBCMT:sin_sse2_precise.obj
 0002:00016f50       SC_2                       004ddf50     LIBCMT:sin_sse2_precise.obj
 0002:00016f60       SC_3                       004ddf60     LIBCMT:sin_sse2_precise.obj
 0002:00016f70       SC_4                       004ddf70     LIBCMT:sin_sse2_precise.obj
 0002:00016f80       PI32INV                    004ddf80     LIBCMT:sin_sse2_precise.obj
 0002:00016f88       SHIFTER                    004ddf88     LIBCMT:sin_sse2_precise.obj
 0002:00016f90       P_2                        004ddf90     LIBCMT:sin_sse2_precise.obj
 0002:00016fa0       P_1                        004ddfa0     LIBCMT:sin_sse2_precise.obj
 0002:00016fa8       P_3                        004ddfa8     LIBCMT:sin_sse2_precise.obj
 0002:00016fb0       TWO_POW_55                 004ddfb0     LIBCMT:sin_sse2_precise.obj
 0002:00016fb8       TWO_POW_M55                004ddfb8     LIBCMT:sin_sse2_precise.obj
 0002:00016fc0       ALL_ONES                   004ddfc0     LIBCMT:sin_sse2_precise.obj
 0002:00016fc8       NEG_ZERO                   004ddfc8     LIBCMT:sin_sse2_precise.obj
 0002:00016fd0       ONE                        004ddfd0     LIBCMT:sin_sse2_precise.obj
 0002:00016fe0       _One                       004ddfe0     LIBCMT:ceil_pentium4.obj
 0002:00016ff0       _Bns                       004ddff0     LIBCMT:ceil_pentium4.obj
 0002:00017000       _Zero                      004de000     LIBCMT:ceil_pentium4.obj
 0002:00017010       _S                         004de010     LIBCMT:ceil_pentium4.obj
 0002:00017020       _NegZero                   004de020     LIBCMT:ceil_pentium4.obj
 0002:00017030       _One                       004de030     LIBCMT:floor_pentium4.obj
 0002:00017040       _Bns                       004de040     LIBCMT:floor_pentium4.obj
 0002:00017050       _NegOne                    004de050     LIBCMT:floor_pentium4.obj
 0002:00017060       _NegZero                   004de060     LIBCMT:floor_pentium4.obj
 0002:00017070       _S                         004de070     LIBCMT:floor_pentium4.obj
 0002:00017090       _Int32ToUInt32             004de090     LIBCMT:ftol3.obj
 0002:000170a0       _MantissaMask              004de0a0     LIBCMT:ftol3.obj
 0002:000170a8       _IntegerBit                004de0a8     LIBCMT:ftol3.obj
 0002:000170b0       _SignBit64                 004de0b0     LIBCMT:ftol3.obj
 0002:000170b8       _MinFP64                   004de0b8     LIBCMT:ftol3.obj
 0002:000170c0       _MinInt64                  004de0c0     LIBCMT:ftol3.obj
 0002:000170c8       _MaxInt64                  004de0c8     LIBCMT:ftol3.obj
 0002:000170d0       _MaxUInt64                 004de0d0     LIBCMT:ftol3.obj
 0002:000170d8       _MaxFP32                   004de0d8     LIBCMT:ftol3.obj
 0002:000170e0       _MinFP32                   004de0e0     LIBCMT:ftol3.obj
 0002:000170e8       _MinSubInexact             004de0e8     LIBCMT:ftol3.obj
 0002:000170f0       _FpExcptTable              004de0f0     LIBCMT:ftol3.obj
 0002:00017100       _i1075                     004de100     LIBCMT:ftol3.obj
 0002:00017104       _i1087                     004de104     LIBCMT:ftol3.obj
 0002:00017108       _x0800                     004de108     LIBCMT:ftol3.obj
 0002:0001710c       _x17FF                     004de10c     LIBCMT:ftol3.obj
 0002:00017110       _CWMask                    004de110     LIBCMT:ftol3.obj
 0002:00017114       _GS_ExceptionPointers      004de114     LIBCMT:gs_report.obj
 0002:00017120       Shifter                    004de120     LIBCMT:acos_sse2_precise.obj
 0002:00017130       Tbl_addr                   004de130     LIBCMT:acos_sse2_precise.obj
 0002:00018030       T_table                    004df030     LIBCMT:acos_sse2_precise.obj
 0002:00018830       PI_BY_2                    004df830     LIBCMT:acos_sse2_precise.obj
 0002:00018840       NEG_PI                     004df840     LIBCMT:acos_sse2_precise.obj
 0002:00018850       PI                         004df850     LIBCMT:acos_sse2_precise.obj
 0002:00018860       SIGNMASK                   004df860     LIBCMT:acos_sse2_precise.obj
 0002:00018870       HALFMASK                   004df870     LIBCMT:acos_sse2_precise.obj
 0002:00018880       HALFMASK2                  004df880     LIBCMT:acos_sse2_precise.obj
 0002:00018890       cv                         004df890     LIBCMT:acos_sse2_precise.obj
 0002:000188b0       cv2                        004df8b0     LIBCMT:acos_sse2_precise.obj
 0002:000188f0       ABSVALMASK                 004df8f0     LIBCMT:acos_sse2_precise.obj
 0002:000188f8       TMASK                      004df8f8     LIBCMT:acos_sse2_precise.obj
 0002:00018900       ONEMASK                    004df900     LIBCMT:acos_sse2_precise.obj
 0002:00018908       ONE_BY_2                   004df908     LIBCMT:acos_sse2_precise.obj
 0002:00018910       EMIN                       004df910     LIBCMT:acos_sse2_precise.obj
 0002:00018918       MAX_ARG                    004df918     LIBCMT:acos_sse2_precise.obj
 0002:00018920       MIN_ARG                    004df920     LIBCMT:acos_sse2_precise.obj
 0002:00018928       INF                        004df928     LIBCMT:acos_sse2_precise.obj
 0002:00018930       ZERO                       004df930     LIBCMT:acos_sse2_precise.obj
 0002:00018938       ALPHA                      004df938     LIBCMT:acos_sse2_precise.obj
 0002:00018970       Ctable                     004df970     LIBCMT:tan_sse2_precise.obj
 0002:00019f70       PI32INV                    004e0f70     LIBCMT:tan_sse2_precise.obj
 0002:00019f80       SHIFTER                    004e0f80     LIBCMT:tan_sse2_precise.obj
 0002:00019f90       P_1                        004e0f90     LIBCMT:tan_sse2_precise.obj
 0002:00019fa0       P_2                        004e0fa0     LIBCMT:tan_sse2_precise.obj
 0002:00019fb0       P_3                        004e0fb0     LIBCMT:tan_sse2_precise.obj
 0002:00019fc0       QQ_2                       004e0fc0     LIBCMT:tan_sse2_precise.obj
 0002:00019fc8       ONE                        004e0fc8     LIBCMT:tan_sse2_precise.obj
 0002:00019fd0       MASK_35                    004e0fd0     LIBCMT:tan_sse2_precise.obj
 0002:00019fe0       sign_mask                  004e0fe0     LIBCMT:tan_sse2_precise.obj
 0002:00019fe8       TWO_POW_55                 004e0fe8     LIBCMT:tan_sse2_precise.obj
 0002:00019ff0       TWO_POW_M55                004e0ff0     LIBCMT:tan_sse2_precise.obj
 0002:00019ff8       TWO_POW_M53                004e0ff8     LIBCMT:tan_sse2_precise.obj
 0002:0001a000       INF                        004e1000     LIBCMT:tan_sse2_precise.obj
 0002:0001a010       rcp_t1                     004e1010     LIBCMT:pow_sse2_precise.obj
 0002:0001a420       log2_t1                    004e1420     LIBCMT:pow_sse2_precise.obj
 0002:0001ac30       rcp_t2                     004e1c30     LIBCMT:pow_sse2_precise.obj
 0002:0001b040       log2_t2                    004e2040     LIBCMT:pow_sse2_precise.obj
 0002:0001b850       rcp_t3                     004e2850     LIBCMT:pow_sse2_precise.obj
 0002:0001c060       log2_t3                    004e3060     LIBCMT:pow_sse2_precise.obj
 0002:0001d070       clv                        004e4070     LIBCMT:pow_sse2_precise.obj
 0002:0001d090       exp2_tbl                   004e4090     LIBCMT:pow_sse2_precise.obj
 0002:0001d890       Shifter                    004e4890     LIBCMT:pow_sse2_precise.obj
 0002:0001d8a0       SIGMASK                    004e48a0     LIBCMT:pow_sse2_precise.obj
 0002:0001d8b0       ONEMASK                    004e48b0     LIBCMT:pow_sse2_precise.obj
 0002:0001d8c0       ABSVALMASK                 004e48c0     LIBCMT:pow_sse2_precise.obj
 0002:0001d8d0       cev                        004e48d0     LIBCMT:pow_sse2_precise.obj
 0002:0001d8f8       HALFSIG                    004e48f8     LIBCMT:pow_sse2_precise.obj
 0002:0001d900       LHN                        004e4900     LIBCMT:pow_sse2_precise.obj
 0002:0001d908       sNaN                       004e4908     LIBCMT:pow_sse2_precise.obj
 0002:0001d910       INF                        004e4910     LIBCMT:pow_sse2_precise.obj
 0002:0001d918       NEG_INF                    004e4918     LIBCMT:pow_sse2_precise.obj
 0002:0001d920       NEG_ZERO                   004e4920     LIBCMT:pow_sse2_precise.obj
 0002:0001d928       NEG_BIG                    004e4928     LIBCMT:pow_sse2_precise.obj
 0002:0001d930       POS_BIG                    004e4930     LIBCMT:pow_sse2_precise.obj
 0002:0001d938       EMIN                       004e4938     LIBCMT:pow_sse2_precise.obj
 0002:0001d940       QIND                       004e4940     LIBCMT:pow_sse2_precise.obj
 0002:0001d9a0       DblMax                     004e49a0     LIBCMT:87cdisp.obj
 0002:0001d9a8       DblMin                     004e49a8     LIBCMT:87cdisp.obj
 0002:0001d9b0       IeeeAdjO                   004e49b0     LIBCMT:87cdisp.obj
 0002:0001d9b8       IeeeAdjU                   004e49b8     LIBCMT:87cdisp.obj
 0002:0001d9c0       _infinity                  004e49c0     LIBCMT:87cdisp.obj
 0002:0001d9c8       _zero                      004e49c8     LIBCMT:87cdisp.obj
 0002:0001d9d0       _INF                       004e49d0     LIBCMT:libm_error.obj
 0002:0001d9e0       _BIG                       004e49e0     LIBCMT:libm_error.obj
 0002:0001d9f0       _ZERO                      004e49f0     LIBCMT:libm_error.obj
 0002:0001da00       _INF_32                    004e4a00     LIBCMT:libm_error.obj
 0002:0001da08       _NAN_32                    004e4a08     LIBCMT:libm_error.obj
 0002:0001da10       _ZERO_32                   004e4a10     LIBCMT:libm_error.obj
 0002:0001da18       _libm_largef               004e4a18     LIBCMT:libm_error.obj
 0002:0001da20       _libm_smallf               004e4a20     LIBCMT:libm_error.obj
 0002:0001da28       _libm_small                004e4a28     LIBCMT:libm_error.obj
 0002:0001dde8       __mb_locale_names          004e4de8     LIBCMT:mbctype.obj
 0002:0001e188       __first_127char            004e5188     LIBCMT:wsetloca.obj
 0002:0001e280       _rterrs                    004e5280     LIBCMT:crt0msg.obj
 0002:0001ed28       ?ccsField@?P@??_openfile@@9@9 004e5d28     LIBCMT:_open.obj
 0002:0001ed2c       ?utf8encoding@?P@??_openfile@@9@9 004e5d2c     LIBCMT:_open.obj
 0002:0001ed34       ?utf16encoding@?P@??_openfile@@9@9 004e5d34     LIBCMT:_open.obj
 0002:0001ed40       ?unicodeencoding@?P@??_openfile@@9@9 004e5d40     LIBCMT:_open.obj
 0002:0001ee50       _static_const_table        004e5e50     LIBCMT:svml_dpow2_sse2.obj
 0002:000258e0       _2il0floatpacket_5         004ec8e0     LIBCMT:svml_dpow2_sse2.obj
 0002:000258e8       _2il0floatpacket_6         004ec8e8     LIBCMT:svml_dpow2_sse2.obj
 0002:00025904       One                        004ec904     LIBCMT:87disp.obj
 0002:0002590c       XAMtoTagTab                004ec90c     LIBCMT:87disp.obj
 0002:00025920       Ctable                     004ec920     LIBCMT:cos_pentium4.obj
 0002:00026120       SC_1                       004ed120     LIBCMT:cos_pentium4.obj
 0002:00026130       SC_2                       004ed130     LIBCMT:cos_pentium4.obj
 0002:00026140       SC_3                       004ed140     LIBCMT:cos_pentium4.obj
 0002:00026150       SC_4                       004ed150     LIBCMT:cos_pentium4.obj
 0002:00026160       PI32INV                    004ed160     LIBCMT:cos_pentium4.obj
 0002:00026168       SHIFTER                    004ed168     LIBCMT:cos_pentium4.obj
 0002:00026170       P_2                        004ed170     LIBCMT:cos_pentium4.obj
 0002:00026180       P_1                        004ed180     LIBCMT:cos_pentium4.obj
 0002:00026188       P_3                        004ed188     LIBCMT:cos_pentium4.obj
 0002:00026190       TWO_POW_55                 004ed190     LIBCMT:cos_pentium4.obj
 0002:00026198       TWO_POW_M55                004ed198     LIBCMT:cos_pentium4.obj
 0002:000261a0       ALL_ONES                   004ed1a0     LIBCMT:cos_pentium4.obj
 0002:000261a8       NEG_ZERO                   004ed1a8     LIBCMT:cos_pentium4.obj
 0002:000261b0       ONE                        004ed1b0     LIBCMT:cos_pentium4.obj
 0002:000261c0       SIGN_MASK                  004ed1c0     LIBCMT:cos_pentium4.obj
 0002:000261d0       One                        004ed1d0     LIBCMT:common.obj
 0002:000261e4       DblMax                     004ed1e4     LIBCMT:common.obj
 0002:000261ec       DblMin                     004ed1ec     LIBCMT:common.obj
 0002:000261f4       IeeeAdjO                   004ed1f4     LIBCMT:common.obj
 0002:000261fc       IeeeAdjU                   004ed1fc     LIBCMT:common.obj
 0002:00026204       _infinity                  004ed204     LIBCMT:common.obj
 0002:0002620c       _zero                      004ed20c     LIBCMT:common.obj
 0002:00026220       Ctable                     004ed220     LIBCMT:sin_pentium4.obj
 0002:00026a20       SC_1                       004eda20     LIBCMT:sin_pentium4.obj
 0002:00026a30       SC_2                       004eda30     LIBCMT:sin_pentium4.obj
 0002:00026a40       SC_3                       004eda40     LIBCMT:sin_pentium4.obj
 0002:00026a50       SC_4                       004eda50     LIBCMT:sin_pentium4.obj
 0002:00026a60       PI32INV                    004eda60     LIBCMT:sin_pentium4.obj
 0002:00026a68       SHIFTER                    004eda68     LIBCMT:sin_pentium4.obj
 0002:00026a70       P_2                        004eda70     LIBCMT:sin_pentium4.obj
 0002:00026a80       P_1                        004eda80     LIBCMT:sin_pentium4.obj
 0002:00026a88       P_3                        004eda88     LIBCMT:sin_pentium4.obj
 0002:00026a90       TWO_POW_55                 004eda90     LIBCMT:sin_pentium4.obj
 0002:00026a98       TWO_POW_M55                004eda98     LIBCMT:sin_pentium4.obj
 0002:00026aa0       ALL_ONES                   004edaa0     LIBCMT:sin_pentium4.obj
 0002:00026aa8       NEG_ZERO                   004edaa8     LIBCMT:sin_pentium4.obj
 0002:00026ab0       ONE                        004edab0     LIBCMT:sin_pentium4.obj
 0002:000293d0       Shifter                    004f03d0     LIBCMT:acos_pentium4.obj
 0002:000293e0       Tbl_addr                   004f03e0     LIBCMT:acos_pentium4.obj
 0002:0002a2e0       T_table                    004f12e0     LIBCMT:acos_pentium4.obj
 0002:0002aae0       PI_BY_2                    004f1ae0     LIBCMT:acos_pentium4.obj
 0002:0002aaf0       NEG_PI                     004f1af0     LIBCMT:acos_pentium4.obj
 0002:0002ab00       PI                         004f1b00     LIBCMT:acos_pentium4.obj
 0002:0002ab10       SIGNMASK                   004f1b10     LIBCMT:acos_pentium4.obj
 0002:0002ab20       HALFMASK                   004f1b20     LIBCMT:acos_pentium4.obj
 0002:0002ab30       HALFMASK2                  004f1b30     LIBCMT:acos_pentium4.obj
 0002:0002ab40       cv                         004f1b40     LIBCMT:acos_pentium4.obj
 0002:0002ab60       cv2                        004f1b60     LIBCMT:acos_pentium4.obj
 0002:0002aba0       ABSVALMASK                 004f1ba0     LIBCMT:acos_pentium4.obj
 0002:0002aba8       TMASK                      004f1ba8     LIBCMT:acos_pentium4.obj
 0002:0002abb0       ONEMASK                    004f1bb0     LIBCMT:acos_pentium4.obj
 0002:0002abb8       ONE_BY_2                   004f1bb8     LIBCMT:acos_pentium4.obj
 0002:0002abc0       EMIN                       004f1bc0     LIBCMT:acos_pentium4.obj
 0002:0002abc8       MAX_ARG                    004f1bc8     LIBCMT:acos_pentium4.obj
 0002:0002abd0       MIN_ARG                    004f1bd0     LIBCMT:acos_pentium4.obj
 0002:0002abd8       INF                        004f1bd8     LIBCMT:acos_pentium4.obj
 0002:0002abe0       ZERO                       004f1be0     LIBCMT:acos_pentium4.obj
 0002:0002abe8       ALPHA                      004f1be8     LIBCMT:acos_pentium4.obj
 0002:0002abf0       Ctable                     004f1bf0     LIBCMT:tan_pentium4.obj
 0002:0002c1f0       PI32INV                    004f31f0     LIBCMT:tan_pentium4.obj
 0002:0002c200       SHIFTER                    004f3200     LIBCMT:tan_pentium4.obj
 0002:0002c210       P_1                        004f3210     LIBCMT:tan_pentium4.obj
 0002:0002c220       P_2                        004f3220     LIBCMT:tan_pentium4.obj
 0002:0002c230       P_3                        004f3230     LIBCMT:tan_pentium4.obj
 0002:0002c240       QQ_2                       004f3240     LIBCMT:tan_pentium4.obj
 0002:0002c248       ONE                        004f3248     LIBCMT:tan_pentium4.obj
 0002:0002c250       MASK_35                    004f3250     LIBCMT:tan_pentium4.obj
 0002:0002c260       sign_mask                  004f3260     LIBCMT:tan_pentium4.obj
 0002:0002c268       TWO_POW_55                 004f3268     LIBCMT:tan_pentium4.obj
 0002:0002c270       TWO_POW_M55                004f3270     LIBCMT:tan_pentium4.obj
 0002:0002c278       TWO_POW_M53                004f3278     LIBCMT:tan_pentium4.obj
 0002:0002c280       INF                        004f3280     LIBCMT:tan_pentium4.obj
 0002:0002c290       rcp_t1                     004f3290     LIBCMT:pow_pentium4.obj
 0002:0002c6a0       log2_t1                    004f36a0     LIBCMT:pow_pentium4.obj
 0002:0002ceb0       rcp_t2                     004f3eb0     LIBCMT:pow_pentium4.obj
 0002:0002d2c0       log2_t2                    004f42c0     LIBCMT:pow_pentium4.obj
 0002:0002dad0       rcp_t3                     004f4ad0     LIBCMT:pow_pentium4.obj
 0002:0002e2e0       log2_t3                    004f52e0     LIBCMT:pow_pentium4.obj
 0002:0002f2f0       clv                        004f62f0     LIBCMT:pow_pentium4.obj
 0002:0002f310       exp2_tbl                   004f6310     LIBCMT:pow_pentium4.obj
 0002:0002fb10       Shifter                    004f6b10     LIBCMT:pow_pentium4.obj
 0002:0002fb20       SIGMASK                    004f6b20     LIBCMT:pow_pentium4.obj
 0002:0002fb30       ONEMASK                    004f6b30     LIBCMT:pow_pentium4.obj
 0002:0002fb40       ABSVALMASK                 004f6b40     LIBCMT:pow_pentium4.obj
 0002:0002fb50       cev                        004f6b50     LIBCMT:pow_pentium4.obj
 0002:0002fb78       HALFSIG                    004f6b78     LIBCMT:pow_pentium4.obj
 0002:0002fb80       LHN                        004f6b80     LIBCMT:pow_pentium4.obj
 0002:0002fb88       sNaN                       004f6b88     LIBCMT:pow_pentium4.obj
 0002:0002fb90       INF                        004f6b90     LIBCMT:pow_pentium4.obj
 0002:0002fb98       NEG_INF                    004f6b98     LIBCMT:pow_pentium4.obj
 0002:0002fba0       NEG_ZERO                   004f6ba0     LIBCMT:pow_pentium4.obj
 0002:0002fba8       NEG_BIG                    004f6ba8     LIBCMT:pow_pentium4.obj
 0002:0002fbb0       POS_BIG                    004f6bb0     LIBCMT:pow_pentium4.obj
 0002:0002fbb8       EMIN                       004f6bb8     LIBCMT:pow_pentium4.obj
 0002:0002fbc0       QIND                       004f6bc0     LIBCMT:pow_pentium4.obj
 0002:0002fbee       _log2max                   004f6bee     LIBCMT:87tran.obj
 0002:0002fbf8       _smallarg                  004f6bf8     LIBCMT:87tran.obj
 0002:0002fc02       _half                      004f6c02     LIBCMT:87tran.obj
 0002:0002fcd0       __sehtable$_printf         004f6cd0     LIBCMT:printf.obj
 0002:0002fcf0       __sehtable$_getenv         004f6cf0     LIBCMT:getenv.obj
 0002:0002fd10       __sehtable$_fclose         004f6d10     LIBCMT:fclose.obj
 0002:0002fd30       __sehtable$_fflush         004f6d30     LIBCMT:fflush.obj
 0002:0002fd50       __sehtable$_flsall         004f6d50     LIBCMT:fflush.obj
 0002:0002fd78       __sehtable$__fsopen        004f6d78     LIBCMT:fopen.obj
 0002:0002fd98       __sehtable$_fread_s        004f6d98     LIBCMT:fread.obj
 0002:0002fdb8       __sehtable$_fseek          004f6db8     LIBCMT:fseek.obj
 0002:0002fdd8       __sehtable$_ftell          004f6dd8     LIBCMT:ftell.obj
 0002:0002fdf8       __sehtable$_fwrite         004f6df8     LIBCMT:fwrite.obj
 0002:0002fe18       __sehtable$_setvbuf        004f6e18     LIBCMT:setvbuf.obj
 0002:0002fe38       __sehtable$_fprintf        004f6e38     LIBCMT:fprintf.obj
 0002:0002fe58       __sehtable$_doexit         004f6e58     LIBCMT:crt0dat.obj
 0002:0002fe78       __sehtable$__commit        004f6e78     LIBCMT:commit.obj
 0002:0002fe98       __sehtable$___tmainCRTStartup 004f6e98     LIBCMT:wincrt0.obj
 0002:0002feb8       __sehtable$_vfprintf_helper 004f6eb8     LIBCMT:vfprintf.obj
 0002:0002fed8       __sehtable$__putenv        004f6ed8     LIBCMT:putenv.obj
 0002:0002fef8       __sehtable$___updatetlocinfo 004f6ef8     LIBCMT:localref.obj
 0002:0002ff18       __sehtable$___updatetmbcinfo 004f6f18     LIBCMT:mbctype.obj
 0002:0002ff38       __sehtable$__setmbcp       004f6f38     LIBCMT:mbctype.obj
 0002:0002ff58       __sehtable$__freefls@4     004f6f58     LIBCMT:tidtable.obj
 0002:0002ff80       __sehtable$__initptd       004f6f80     LIBCMT:tidtable.obj
 0002:0002ffa8       __sehtable$__locterm       004f6fa8     LIBCMT:wsetloca.obj
 0002:0002ffc8       __sehtable$__mtinitlocknum 004f6fc8     LIBCMT:mlock.obj
 0002:0002ffe8       __sehtable$__isindst       004f6fe8     LIBCMT:tzset.obj
 0002:00030008       __sehtable$___tzset        004f7008     LIBCMT:tzset.obj
 0002:00030028       __sehtable$__tzset_nolock  004f7028     LIBCMT:tzset.obj
 0002:00030048       __sehtable$__rt_probe_read4@4 004f7048     LIBCMT:sehsupp.obj
 0002:00030068       __sehtable$__close         004f7068     LIBCMT:close.obj
 0002:00030088       __sehtable$__write         004f7088     LIBCMT:write.obj
 0002:000300a8       __sehtable$__getstream     004f70a8     LIBCMT:stream.obj
 0002:000300c8       __sehtable$__read          004f70c8     LIBCMT:read.obj
 0002:000300e8       __sehtable$__lseek         004f70e8     LIBCMT:lseek.obj
 0002:00030108       __sehtable$__lseeki64      004f7108     LIBCMT:lseeki64.obj
 0002:00030128       __sehtable$__ioinit        004f7128     LIBCMT:ioinit.obj
 0002:00030148       __sehtable$__IsNonwritableInCurrentImage 004f7148     LIBCMT:pesect.obj
 0002:00030168       __sehtable$__onexit        004f7168     LIBCMT:onexit.obj
 0002:00030188       __sehtable$?terminate@@YAXXZ 004f7188     LIBCMT:hooks.obj
 0002:000301a8       __sehtable$_raise          004f71a8     LIBCMT:winsig.obj
 0002:000301c8       __sehtable$__alloc_osfhnd  004f71c8     LIBCMT:osfinfo.obj
 0002:000301f0       __sehtable$___lock_fhandle 004f71f0     LIBCMT:osfinfo.obj
 0002:00030210       __sehtable$___set_fpsr_sse2 004f7210     LIBCMT:fpctrl.obj
 0002:00030230       __sehtable$__fcloseall     004f7230     LIBCMT:closeall.obj
 0002:00030250       __sehtable$__sopen_helper  004f7250     LIBCMT:open.obj
 0002:000306ba       .idata$6                   004f76ba     winmm:WINMM.dll
 0002:000306c4       .idata$6                   004f76c4     wsock32:WSOCK32.dll
 0002:00030774       .idata$6                   004f7774     kernel32:KERNEL32.dll
 0002:00030a6a       .idata$6                   004f7a6a     user32:USER32.dll
 0002:00030ac6       .idata$6                   004f7ac6     gdi32:GDI32.dll
 0002:00030ae0       .idata$6                   004f7ae0     advapi32:ADVAPI32.dll
 0002:00030b24       .idata$6                   004f7b24     ole32:ole32.dll
 0003:00000000       _currentHandle             004f9000     cl_cin.obj
 0003:00000004       _CL_handle                 004f9004     cl_cin.obj
 0003:00000780       _indexTable                004f9780     snd_adpcm.obj
 0003:000007c0       _stepsizeTable             004f97c0     snd_adpcm.obj
 0003:00000924       ?ot@?1??S_Update_@@9@9     004f9924     snd_dma.obj
 0003:00000928       ?musicVolume@?1??S_UpdateBackgroundTrack@@9@9 004f9928     snd_dma.obj
 0003:00000930       _numBits                   004f9930     snd_wavelet.obj
 0003:00001460       _fs_scrambledProductId     004fa460     files.obj
 0003:000014f8       _PADDING                   004fa4f8     md4.obj
 0003:00001e60       _netsrcString              004fae60     net_chan.obj
 0003:00001e68       _inflate_mask              004fae68     unzip.obj
 0003:00001eac       _fixed_bl                  004faeac     unzip.obj
 0003:00001eb0       _fixed_bd                  004faeb0     unzip.obj
 0003:00001eb8       _fixed_tl                  004faeb8     unzip.obj
 0003:00002eb8       _fixed_td                  004fbeb8     unzip.obj
 0003:00002fb8       ?string@?1??VM_Indent@@9@9 004fbfb8     vm_interpreted.obj
 0003:00002fbc       _ftolPtr                   004fbfbc     vm_x86.obj
 0003:00002fc0       _asmCallPtr                004fbfc0     vm_x86.obj
 0003:00002fc8       _ucmds                     004fbfc8     sv_client.obj
 0003:00003010       _rgodf                     004fc010     win_input.obj
 0003:00003080       _df                        004fc080     win_input.obj
 0003:000030d8       _s_scantokey               004fc0d8     win_wndproc.obj
 0003:00003158       ?flip@?1??MainWndProc@@9@9 004fc158     win_wndproc.obj
 0003:000032a0       _VEC_UP                    004fc2a0     botlib:be_aas_move.obj
 0003:000032ac       _MOVEDIR_UP                004fc2ac     botlib:be_aas_move.obj
 0003:000032b8       _VEC_DOWN                  004fc2b8     botlib:be_aas_move.obj
 0003:000032c4       _MOVEDIR_DOWN              004fc2c4     botlib:be_aas_move.obj
 0003:000033d8       _weaponinfo_fields         004fc3d8     botlib:be_ai_weap.obj
 0003:00003660       _projectileinfo_fields     004fc660     botlib:be_ai_weap.obj
 0003:00003804       _weaponinfo_struct         004fc804     botlib:be_ai_weap.obj
 0003:0000380c       _projectileinfo_struct     004fc80c     botlib:be_ai_weap.obj
 0003:00003d60       _s_numVidModes             004fcd60     renderer:tr_init.obj
 0003:00003d64       ?lastNumber@?1??R_ScreenShot_f@@9@9 004fcd64     renderer:tr_init.obj
 0003:00003d68       ?lastNumber@?1??R_ScreenShotJPEG_f@@9@9 004fcd68     renderer:tr_init.obj
 0003:00003d70       _s_flipMatrix              004fcd70     renderer:tr_backend.obj
 0003:00003e40       ?colorWhite@?4??RE_SetColor@@9@9 004fce40     renderer:tr_cmds.obj
 0003:00003e50       ?skipData@?1??ParseMesh@@9@9 004fce50     renderer:tr_bsp.obj
 0003:00003e58       ?suf@?1??ParseSkyParms@@9@9 004fce58     renderer:tr_shader.obj
 0003:00004070       _collapse                  004fd070     renderer:tr_shader.obj
 0003:00004100       _s_flipMatrix              004fd100     renderer:tr_main.obj
 0003:00004170       ?neighbors@?1??MakeMeshNormals@@9@9 004fd170     renderer:tr_curve.obj
 0003:000041b0       _sky_clip                  004fd1b0     renderer:tr_sky.obj
 0003:000041f8       ?vec_to_st@?1??AddSkyPolygon@@9@9 004fd1f8     renderer:tr_sky.obj
 0003:00004240       ?st_to_vec@?1??MakeSkyVec@@9@9 004fd240     renderer:tr_sky.obj
 0003:00004288       _sky_texorder              004fd288     renderer:tr_sky.obj
 0003:00004300       _NAME_                     004fd300     LIBCMT:cos.obj
 0003:00004310       _NAME_                     004fd310     LIBCMT:sin.obj
 0003:00004320       _NAME_                     004fd320     LIBCMT:sqrt.obj
 0003:00004328       _newcw                     004fd328     LIBCMT:ceil.obj
 0003:0000432c       _newcw                     004fd32c     LIBCMT:floor.obj
 0003:00004358       ?_names@?1??_get_fname@@9@9 004fd358     LIBCMT:fpexcept.obj
 0003:00004440       ?isPackaged@?1??__crtIsPackagedApp@@9@9 004fd440     LIBCMT:winapisupp.obj
 0003:00004450       _errtable                  004fd450     LIBCMT:dosmap.obj
 0003:000045b8       _ErrnoNoMem                004fd5b8     LIBCMT:dosmap.obj
 0003:000045bc       _DoserrorNoMem             004fd5bc     LIBCMT:dosmap.obj
 0003:000049e8       ___rgctypeflag             004fd9e8     LIBCMT:mbctype.obj
 0003:000049f0       ___rgcode_page_info        004fd9f0     LIBCMT:mbctype.obj
 0003:00004d1c       __ctype_loc_style          004fdd1c     LIBCMT:wsetloca.obj
 0003:00004fb0       __locktable                004fdfb0     LIBCMT:mlock.obj
 0003:000050e0       _tzstd                     004fe0e0     LIBCMT:timeset.obj
 0003:00005120       _tzdst                     004fe120     LIBCMT:timeset.obj
 0003:000051d0       _dststart                  004fe1d0     LIBCMT:tzset.obj
 0003:000051dc       _dstend                    004fe1dc     LIBCMT:tzset.obj
 0003:00005200       _NAME_                     004fe200     LIBCMT:acos.obj
 0003:00005350       _NAME_                     004fe350     LIBCMT:tan.obj
 0003:00005368       POW_name                   004fe368     LIBCMT:pow.obj
 0003:000053a0       _over                      004fe3a0     LIBCMT:fpctrl.obj
 0003:000053ac       _under                     004fe3ac     LIBCMT:fpctrl.obj
 0003:000053b8       ?__DAZ_ENABLED@?1??__set_fpsr_sse2@@9@9 004fe3b8     LIBCMT:fpctrl.obj
 0003:00005428       _DoubleFormat              004fe428     LIBCMT:intrncvt.obj
 0003:00005440       _FloatFormat               004fe440     LIBCMT:intrncvt.obj
 0003:00005740       ?bigConfigString@?1??CL_GetServerCommand@@9@9 004fe740     cl_cgame.obj
 0003:00007740       _ROQ_YY_tab                00500740     cl_cin.obj
 0003:00007b40       _ROQ_UB_tab                00500b40     cl_cin.obj
 0003:00007f40       _ROQ_UG_tab                00500f40     cl_cin.obj
 0003:00008340       _ROQ_VG_tab                00501340     cl_cin.obj
 0003:00008740       _ROQ_VR_tab                00501740     cl_cin.obj
 0003:00008b40       _vq2                       00501b40     cl_cin.obj
 0003:00010b40       _vq4                       00509b40     cl_cin.obj
 0003:00030b40       _vq8                       00529b40     cl_cin.obj
 0003:000b0b40       _cin                       005a9b40     cl_cin.obj
 0003:00301158       _cinTable                  007fa158     cl_cin.obj
 0003:00302d98       ?tinystr@?1??Key_KeynumToString@@9@9 007fbd98     cl_keys.obj
 0003:00302da0       ?recursive@?1??CL_Shutdown@@9@9 007fbda0     cl_main.obj
 0003:00302da8       _demoName                  007fbda8     cl_main.obj
 0003:00302df0       _current                   007fbdf0     cl_scrn.obj
 0003:00302df4       ?recursive@?1??SCR_UpdateScreen@@9@9 007fbdf4     cl_scrn.obj
 0003:00302df8       _values                    007fbdf8     cl_scrn.obj
 0003:00304dfc       _freelist                  007fddfc     snd_dma.obj
 0003:00304e00       ?lastTime@?1??S_Update_@@9@9 007fde00     snd_dma.obj
 0003:00304e04       _s_backgroundFile          007fde04     snd_dma.obj
 0003:00304e08       _s_backgroundInfo          007fde08     snd_dma.obj
 0003:00304e20       _s_backgroundSamples       007fde20     snd_dma.obj
 0003:00304e24       _s_soundStarted            007fde24     snd_dma.obj
 0003:00304e28       _s_backgroundLoop          007fde28     snd_dma.obj
 0003:00304e68       _s_soundMuted              007fde68     snd_dma.obj
 0003:00304e6c       _listener_number           007fde6c     snd_dma.obj
 0003:00304e70       _listener_origin           007fde70     snd_dma.obj
 0003:00304e7c       _listener_axis             007fde7c     snd_dma.obj
 0003:00304ea0       _sfxHash                   007fdea0     snd_dma.obj
 0003:003050a0       _loopSounds                007fe0a0     snd_dma.obj
 0003:003130a0       ?loopFrame@?1??S_AddLoopSounds@@9@9 0080c0a0     snd_dma.obj
 0003:003130a4       ?buffers@?1??S_GetSoundtime@@9@9 0080c0a4     snd_dma.obj
 0003:003130a8       ?oldsamplepos@?1??S_GetSoundtime@@9@9 0080c0a8     snd_dma.obj
 0003:003130b8       _buffer                    0080c0b8     snd_mem.obj
 0003:003130bc       _freelist                  0080c0bc     snd_mem.obj
 0003:003130c0       _inUse                     0080c0c0     snd_mem.obj
 0003:003130c4       _totalInUse                0080c0c4     snd_mem.obj
 0003:003130c8       _data_p                    0080c0c8     snd_mem.obj
 0003:003130cc       _iff_end                   0080c0cc     snd_mem.obj
 0003:003130d0       _last_chunk                0080c0d0     snd_mem.obj
 0003:003130d4       _iff_data                  0080c0d4     snd_mem.obj
 0003:003130d8       _iff_chunk_len             0080c0d8     snd_mem.obj
 0003:003130e0       _paintbuffer               0080c0e0     snd_mix.obj
 0003:0031b0e0       _snd_vol                   008140e0     snd_mix.obj
 0003:0031b0e4       _madeTable                 008140e4     snd_wavelet.obj
 0003:0031b0e8       _NXStreamCount             008140e8     snd_wavelet.obj
 0003:0031b0f8       ?bops_initialized@?1??BoxOnPlaneSide@@9@9 008140f8     q_math.obj
 0003:0031b0fc       ?Ljmptab@?1??BoxOnPlaneSide@@9@9 008140fc     q_math.obj
 0003:0031b11c       ?sr@?1??AngleVectors@@9@9  0081411c     q_math.obj
 0003:0031b120       ?sp@?1??AngleVectors@@9@9  00814120     q_math.obj
 0003:0031b124       ?sy@?1??AngleVectors@@9@9  00814124     q_math.obj
 0003:0031b128       ?cr@?1??AngleVectors@@9@9  00814128     q_math.obj
 0003:0031b12c       ?cp@?1??AngleVectors@@9@9  0081412c     q_math.obj
 0003:0031b130       ?cy@?1??AngleVectors@@9@9  00814130     q_math.obj
 0003:0031b138       ?index@?1??va@@9@9         00814138     q_shared.obj
 0003:0031b13c       ?valueindex@?1??Info_ValueForKey@@9@9 0081413c     q_shared.obj
 0003:0031b140       _com_token                 00814140     q_shared.obj
 0003:0031b540       _com_parsename             00814540     q_shared.obj
 0003:0031b940       _com_lines                 00814940     q_shared.obj
 0003:0031b948       ?string@?1??COM_ParseError@@9@9 00814948     q_shared.obj
 0003:0031c948       ?string@?1??COM_ParseWarning@@9@9 00815948     q_shared.obj
 0003:0031d948       ?string@?1??va@@9@9        00816948     q_shared.obj
 0003:0032d348       ?value@?1??Info_ValueForKey@@9@9 00826348     q_shared.obj
 0003:00331348       _cmd_argc                  0082a348     cmd.obj
 0003:0033134c       _cmd_functions             0082a34c     cmd.obj
 0003:00331350       _cmd_argv                  0082a350     cmd.obj
 0003:00332350       _cmd_tokenized             0082b350     cmd.obj
 0003:00334750       _cmd_cmd                   0082d750     cmd.obj
 0003:00336750       ?cmd_args@?1??Cmd_Args@@9@9 0082f750     cmd.obj
 0003:00336b50       ?cmd_args@?1??Cmd_ArgsFrom@@9@9 0082fb50     cmd.obj
 0003:00338b50       ?last_checksum@?1??CM_LoadMap@@9@9 00831b50     cm_load.obj
 0003:00338b58       _debugPatchCollide         00831b58     cm_patch.obj
 0003:00338b5c       _debugFacet                00831b5c     cm_patch.obj
 0003:00338b60       _debugBlock                00831b60     cm_patch.obj
 0003:00338b64       _debugBlockPoints          00831b64     cm_patch.obj
 0003:00338b94       _numPlanes                 00831b94     cm_patch.obj
 0003:00338b98       _planes                    00831b98     cm_patch.obj
 0003:00342b98       _numFacets                 0083bb98     cm_patch.obj
 0003:00342b9c       ?cv@?1??CM_TracePointThroughPatchCollide@@9@9 0083bb9c     cm_patch.obj
 0003:00342ba0       _facets                    0083bba0     cm_patch.obj
 0003:003e2ba0       ?cv@?1??CM_TraceThroughPatchCollide@@9@9 008dbba0     cm_patch.obj
 0003:003e2ba4       ?cv@?1??CM_DrawDebugSurface@@9@9 008dbba4     cm_patch.obj
 0003:003e2ba8       ?cv2@?1??CM_DrawDebugSurface@@9@9 008dbba8     cm_patch.obj
 0003:003e2bac       ?dot@?1??ClipWindingEpsilon@@9@9 008dbbac     cm_polylib.obj
 0003:003e2bb0       ?dot@?1??ChopWindingInPlace@@9@9 008dbbb0     cm_polylib.obj
 0003:003e2bb8       _s_hunkData                008dbbb8     common.obj
 0003:003e2bbc       _com_pushedEventsHead      008dbbbc     common.obj
 0003:003e2bc0       _com_pushedEventsTail      008dbbc0     common.obj
 0003:003e2bc4       ?printedWarning@?1??Com_PushEvent@@9@9 008dbbc4     common.obj
 0003:003e2bc8       ?opening_qconsole@?1??Com_Printf@@9@9 008dbbc8     common.obj
 0003:003e2bcc       _logfile                   008dbbcc     common.obj
 0003:003e2bd0       _rd_buffer                 008dbbd0     common.obj
 0003:003e2bd4       _rd_buffersize             008dbbd4     common.obj
 0003:003e2bd8       _rd_flush                  008dbbd8     common.obj
 0003:003e2bdc       ?lastErrorTime@?1??Com_Error@@9@9 008dbbdc     common.obj
 0003:003e2be0       ?errorCount@?1??Com_Error@@9@9 008dbbe0     common.obj
 0003:003e2be4       _hunkblocks                008dbbe4     common.obj
 0003:003e2be8       _hunk_low                  008dbbe8     common.obj
 0003:003e2bf8       _hunk_high                 008dbbf8     common.obj
 0003:003e2c08       _hunk_permanent            008dbc08     common.obj
 0003:003e2c0c       _hunk_temp                 008dbc0c     common.obj
 0003:003e2c10       _s_hunkTotal               008dbc10     common.obj
 0003:003e2c14       _s_zoneTotal               008dbc14     common.obj
 0003:003e2c18       _s_smallZoneTotal          008dbc18     common.obj
 0003:003e2c1c       ?seed@?8??Com_EventLoop@@9@9 008dbc1c     common.obj
 0003:003e2c20       _com_pushedEvents          008dbc20     common.obj
 0003:003e8c20       ?lastTime@?1??Com_Frame@@9@9 008e1c20     common.obj
 0003:003e8c24       _completionString          008e1c24     common.obj
 0003:003e8c28       _shortestMatch             008e1c28     common.obj
 0003:003e9028       _matchCount                008e2028     common.obj
 0003:003e902c       _completionField           008e202c     common.obj
 0003:003e9030       _hashTable                 008e2030     cvar.obj
 0003:003e9430       ?info@?1??Cvar_InfoString@@9@9 008e2430     cvar.obj
 0003:003e9830       ?info@?1??Cvar_InfoString_Big@@9@9 008e2830     cvar.obj
 0003:003eb830       _fs_gamedir                008e4830     files.obj
 0003:003eb930       _fs_debug                  008e4930     files.obj
 0003:003eb934       _fs_homepath               008e4934     files.obj
 0003:003eb938       _fs_basepath               008e4938     files.obj
 0003:003eb93c       _fs_basegame               008e493c     files.obj
 0003:003eb940       _fs_cdpath                 008e4940     files.obj
 0003:003eb944       _fs_copyfiles              008e4944     files.obj
 0003:003eb948       _fs_gamedirvar             008e4948     files.obj
 0003:003eb94c       _fs_restrict               008e494c     files.obj
 0003:003eb950       _fs_searchpaths            008e4950     files.obj
 0003:003eb954       _fs_readCount              008e4954     files.obj
 0003:003eb958       _fs_loadCount              008e4958     files.obj
 0003:003eb95c       _fs_loadStack              008e495c     files.obj
 0003:003eb960       _fs_packFiles              008e4960     files.obj
 0003:003eb964       _fs_fakeChkSum             008e4964     files.obj
 0003:003eb968       _fs_checksumFeed           008e4968     files.obj
 0003:003eb96c       _fs_reordered              008e496c     files.obj
 0003:003eb970       _fsh                       008e4970     files.obj
 0003:003f0170       _fs_numServerPaks          008e9170     files.obj
 0003:003f0174       _fs_numServerReferencedPaks 008e9174     files.obj
 0003:003f0178       _fs_serverPaks             008e9178     files.obj
 0003:003f4178       _fs_serverPakNames         008ed178     files.obj
 0003:003f8178       _fs_serverReferencedPaks   008f1178     files.obj
 0003:003fc178       _fs_serverReferencedPakNames 008f5178     files.obj
 0003:00400178       ?ospath@?1??FS_BuildOSPath@@9@9 008f9178     files.obj
 0003:00400378       ?toggle@?1??FS_BuildOSPath@@9@9 008f9378     files.obj
 0003:00400380       ?info@?1??FS_GamePureChecksum@@9@9 008f9380     files.obj
 0003:00400780       ?info@?1??FS_LoadedPakChecksums@@9@9 008f9780     files.obj
 0003:00402780       ?info@?1??FS_LoadedPakNames@@9@9 008fb780     files.obj
 0003:00404780       ?info@?1??FS_LoadedPakPureChecksums@@9@9 008fd780     files.obj
 0003:00406780       ?info@?1??FS_ReferencedPakChecksums@@9@9 008ff780     files.obj
 0003:00408780       ?info@?1??FS_ReferencedPakPureChecksums@@9@9 00901780     files.obj
 0003:0040a780       ?info@?1??FS_ReferencedPakNames@@9@9 00903780     files.obj
 0003:0040c780       _bloc                      00905780     huffman.obj
 0003:0040c788       _msgInit                   00905788     msg.obj
 0003:0040c790       _msgHuff                   00905790     msg.obj
 0003:0041a7c8       ?string@?1??MSG_ReadString@@9@9 009137c8     msg.obj
 0003:0041abc8       ?string@?1??MSG_ReadBigString@@9@9 00913bc8     msg.obj
 0003:0041cbc8       ?string@?1??MSG_ReadStringLine@@9@9 00915bc8     msg.obj
 0003:0041cfc8       ?s@?1??NET_AdrToString@@9@9 00915fc8     net_chan.obj
 0003:0041d010       ?text@?1??VM_ValueToSymbol@@9@9 00916010     vm.obj
 0003:0041d410       ?nullSym@?1??VM_ValueToFunctionSymbol@@9@9 00916410     vm.obj
 0003:0041d420       ?callnum@?1??VM_LogSyscalls@@9@9 00916420     vm.obj
 0003:0041d424       ?f@?1??VM_LogSyscalls@@9@9 00916424     vm.obj
 0003:0041d428       _buf                       00916428     vm_x86.obj
 0003:0041d42c       _jused                     0091642c     vm_x86.obj
 0003:0041d430       _compiledOfs               00916430     vm_x86.obj
 0003:0041d434       _code                      00916434     vm_x86.obj
 0003:0041d438       _pc                        00916438     vm_x86.obj
 0003:0041d43c       _instructionPointers       0091643c     vm_x86.obj
 0003:0041d440       _callMask                  00916440     vm_x86.obj
 0003:0041d444       _lastConst                 00916444     vm_x86.obj
 0003:0041d448       _instruction               00916448     vm_x86.obj
 0003:0041d44c       _pass                      0091644c     vm_x86.obj
 0003:0041d450       _oc0                       00916450     vm_x86.obj
 0003:0041d454       _oc1                       00916454     vm_x86.obj
 0003:0041d458       _pop0                      00916458     vm_x86.obj
 0003:0041d45c       _pop1                      0091645c     vm_x86.obj
 0003:0041d460       _LastCommand               00916460     vm_x86.obj
 0003:0041d464       _debugpolygons             00916464     sv_bot.obj
 0003:0041d468       ?bot_debug@?1??BotDrawDebugPolygons@@9@9 00916468     sv_bot.obj
 0003:0041d46c       ?bot_groundonly@?1??BotDrawDebugPolygons@@9@9 0091646c     sv_bot.obj
 0003:0041d470       ?bot_reachability@?1??BotDrawDebugPolygons@@9@9 00916470     sv_bot.obj
 0003:0041d474       ?bot_highlightarea@?1??BotDrawDebugPolygons@@9@9 00916474     sv_bot.obj
 0003:0041d478       ?initialized@?1??SV_AddOperatorCommands@@9@9 00916478     sv_ccmds.obj
 0003:0041d480       ?lasttime@?1??SVC_RemoteCommand@@9@9 00916480     sv_main.obj
 0003:0041d488       ?string@?1??SV_ExpandNewlines@@9@9 00916488     sv_main.obj
 0003:0041d888       ?adr@?1??SV_MasterHeartbeat@@9@9 00916888     sv_main.obj
 0003:0041d8f0       _s_wmv                     009168f0     win_input.obj
 0003:0041d900       _window_center_x           00916900     win_input.obj
 0003:0041d904       _window_center_y           00916904     win_input.obj
 0003:0041d908       _s_midiInfo                00916908     win_input.obj
 0003:0041da70       _joy                       00916a70     win_input.obj
 0003:0041dc48       _hInstDI                   00916c48     win_input.obj
 0003:0041dc4c       _g_pdi                     00916c4c     win_input.obj
 0003:0041dc50       _g_pMouse                  00916c50     win_input.obj
 0003:0041dc5c       ?lastWarning@?1??Sys_LoadDll@@9@9 00916c5c     win_main.obj
 0003:0041dc60       _sys_cmdline               00916c60     win_main.obj
 0003:0041e060       ?cwd@?1??Sys_Cwd@@9@9      00917060     win_main.obj
 0003:0041e160       ?cddir@?1??Sys_ScanForCD@@9@9 00917160     win_main.obj
 0003:0041e260       _winsockInitialized        00917260     win_net.obj
 0003:0041e264       _usingSocks                00917264     win_net.obj
 0003:0041e268       _networkingEnabled         00917268     win_net.obj
 0003:0041e26c       _net_noudp                 0091726c     win_net.obj
 0003:0041e270       _winsockdata               00917270     win_net.obj
 0003:0041e400       _net_noipx                 00917400     win_net.obj
 0003:0041e404       _net_socksEnabled          00917404     win_net.obj
 0003:0041e408       _net_socksServer           00917408     win_net.obj
 0003:0041e40c       _net_socksPort             0091740c     win_net.obj
 0003:0041e410       _net_socksUsername         00917410     win_net.obj
 0003:0041e414       _net_socksPassword         00917414     win_net.obj
 0003:0041e418       _socksRelayAddr            00917418     win_net.obj
 0003:0041e428       _ip_socket                 00917428     win_net.obj
 0003:0041e42c       _socks_socket              0091742c     win_net.obj
 0003:0041e430       _ipx_socket                00917430     win_net.obj
 0003:0041e434       _numIP                     00917434     win_net.obj
 0003:0041e438       _localIP                   00917438     win_net.obj
 0003:0041e478       _socksBuf                  00917478     win_net.obj
 0003:0041f478       ?initialized@?1??Sys_Milliseconds@@9@9 00918478     win_shared.obj
 0003:0041f47c       ?tmp@?1??fastftol@@9@9     0091847c     win_shared.obj
 0003:0041f480       ?s_userName@?1??Sys_GetCurrentUser@@9@9 00918480     win_shared.obj
 0003:0041f880       _dsound_init               00918880     win_snd.obj
 0003:0041f884       _sample16                  00918884     win_snd.obj
 0003:0041f888       _gSndBufSize               00918888     win_snd.obj
 0003:0041f88c       _locksize                  0091888c     win_snd.obj
 0003:0041f890       _pDS                       00918890     win_snd.obj
 0003:0041f894       _pDSBuf                    00918894     win_snd.obj
 0003:0041f898       _pDSPBuf                   00918898     win_snd.obj
 0003:0041f89c       _hInstDS                   0091889c     win_snd.obj
 0003:0041f8a0       _s_wcd                     009188a0     win_syscon.obj
 0003:0041fd3c       ?s_timePolarity@?1??ConWndProc@@9@9 00918d3c     win_syscon.obj
 0003:0041fd40       ?s_totalChars@?1??Conbuf_AppendText@@9@9 00918d40     win_syscon.obj
 0003:0041fd44       _MSH_MOUSEWHEEL            00918d44     win_wndproc.obj
 0003:0041fd48       _s_alttab_disabled         00918d48     win_wndproc.obj
 0003:0041fd50       _logfile                   00918d50     botlib:l_log.obj
 0003:00420158       ?framereachability@?1??AAS_ContinueInitReachability@@9@9 00919158     botlib:be_aas_reach.obj
 0003:0042015c       ?reachability_delay@?1??AAS_ContinueInitReachability@@9@9 0091915c     botlib:be_aas_reach.obj
 0003:00420160       ?lastpercentage@?1??AAS_ContinueInitReachability@@9@9 00919160     botlib:be_aas_reach.obj
 0003:00420164       ?hidetraveltimes@?1??AAS_NearestHideArea@@9@9 00919164     botlib:be_aas_route.obj
 0003:00420190       _botweaponstates           00919190     botlib:be_ai_weap.obj
 0003:00420294       _weaponconfig              00919294     botlib:be_ai_weap.obj
 0003:004202b0       _AAS_WriteAASLump_offset   009192b0     botlib:be_aas_file.obj
 0003:004202b8       _debugpolygons             009192b8     botlib:be_aas_debug.obj
 0003:004282b8       ?reach@?1??AAS_ShowReachableAreas@@9@9 009212b8     botlib:be_aas_debug.obj
 0003:004282e4       ?index@?1??AAS_ShowReachableAreas@@9@9 009212e4     botlib:be_aas_debug.obj
 0003:004282e8       ?lastareanum@?1??AAS_ShowReachableAreas@@9@9 009212e8     botlib:be_aas_debug.obj
 0003:004282ec       ?lasttime@?1??AAS_ShowReachableAreas@@9@9 009212ec     botlib:be_aas_debug.obj
 0003:004282f0       ?fileName@?1??R_TakeScreenshot@@9@9 009212f0     renderer:tr_init.obj
 0003:004283f0       ?re@?1??GetRefAPI@@9@9     009213f0     renderer:tr_init.obj
 0003:00428468       _s_noise_table             00921468     renderer:tr_noise.obj
 0003:00428868       _s_noise_perm              00921868     renderer:tr_noise.obj
 0003:00428c68       _s_intensitytable          00921c68     renderer:tr_image.obj
 0003:00428d68       _s_gammatable              00921d68     renderer:tr_image.obj
 0003:00428e68       _hashTable                 00921e68     renderer:tr_image.obj
 0003:00429e68       _hackSize                  00922e68     renderer:tr_image.obj
 0003:00429e70       ?com_token@?1??CommaParse@@9@9 00922e70     renderer:tr_image.obj
 0003:0042a270       _s_worldData               00923270     renderer:tr_bsp.obj
 0003:0042a378       _fileBase                  00923378     renderer:tr_bsp.obj
 0003:0042a380       _s_shaderText              00923380     renderer:tr_shader.obj
 0003:0042a384       _deferLoad                 00923384     renderer:tr_shader.obj
 0003:0042a388       _stages                    00923388     renderer:tr_shader.obj
 0003:0042ab68       _shader                    00923b68     renderer:tr_shader.obj
 0003:0042adb0       _texMods                   00923db0     renderer:tr_shader.obj
 0003:0042b630       _hashTable                 00924630     renderer:tr_shader.obj
 0003:0042c630       _shaderTextHashTable       00925630     renderer:tr_shader.obj
 0003:0042e630       _s_classRegistered         00927630     renderer:win_glimp.obj
 0003:0042e634       ?pfd@?1??GLW_InitDriver@@9@9 00927634     renderer:win_glimp.obj
 0003:0042e65c       _smpData                   0092765c     renderer:win_glimp.obj
 0003:0042e660       _wglErrors                 00927660     renderer:win_glimp.obj
 0003:0042e668       _registeredFontCount       00927668     renderer:tr_font.obj
 0003:0042e66c       _fdOffset                  0092766c     renderer:tr_font.obj
 0003:0042e670       _registeredFont            00927670     renderer:tr_font.obj
 0003:0044c808       _fdFile                    00945808     renderer:tr_font.obj
 0003:0044c810       _dllAccum                  00945810     renderer:win_qgl.obj
 0003:0044c814       _dllAlphaFunc              00945814     renderer:win_qgl.obj
 0003:0044c818       _dllArrayElement           00945818     renderer:win_qgl.obj
 0003:0044c81c       _dllBegin                  0094581c     renderer:win_qgl.obj
 0003:0044c820       _dllBindTexture            00945820     renderer:win_qgl.obj
 0003:0044c824       _dllBitmap                 00945824     renderer:win_qgl.obj
 0003:0044c828       _dllBlendFunc              00945828     renderer:win_qgl.obj
 0003:0044c82c       _dllCallList               0094582c     renderer:win_qgl.obj
 0003:0044c830       _dllCallLists              00945830     renderer:win_qgl.obj
 0003:0044c834       _dllClear                  00945834     renderer:win_qgl.obj
 0003:0044c838       _dllClearAccum             00945838     renderer:win_qgl.obj
 0003:0044c83c       _dllClearColor             0094583c     renderer:win_qgl.obj
 0003:0044c840       _dllClearDepth             00945840     renderer:win_qgl.obj
 0003:0044c844       _dllClearIndex             00945844     renderer:win_qgl.obj
 0003:0044c848       _dllClearStencil           00945848     renderer:win_qgl.obj
 0003:0044c84c       _dllClipPlane              0094584c     renderer:win_qgl.obj
 0003:0044c850       _dllColor3b                00945850     renderer:win_qgl.obj
 0003:0044c854       _dllColor3bv               00945854     renderer:win_qgl.obj
 0003:0044c858       _dllColor3d                00945858     renderer:win_qgl.obj
 0003:0044c85c       _dllColor3dv               0094585c     renderer:win_qgl.obj
 0003:0044c860       _dllColor3f                00945860     renderer:win_qgl.obj
 0003:0044c864       _dllColor3fv               00945864     renderer:win_qgl.obj
 0003:0044c868       _dllColor3i                00945868     renderer:win_qgl.obj
 0003:0044c86c       _dllColor3iv               0094586c     renderer:win_qgl.obj
 0003:0044c870       _dllColor3s                00945870     renderer:win_qgl.obj
 0003:0044c874       _dllColor3sv               00945874     renderer:win_qgl.obj
 0003:0044c878       _dllColor3ub               00945878     renderer:win_qgl.obj
 0003:0044c87c       _dllColor3ubv              0094587c     renderer:win_qgl.obj
 0003:0044c880       _dllColor3ui               00945880     renderer:win_qgl.obj
 0003:0044c884       _dllColor3uiv              00945884     renderer:win_qgl.obj
 0003:0044c888       _dllColor3us               00945888     renderer:win_qgl.obj
 0003:0044c88c       _dllColor3usv              0094588c     renderer:win_qgl.obj
 0003:0044c890       _dllColor4b                00945890     renderer:win_qgl.obj
 0003:0044c894       _dllColor4bv               00945894     renderer:win_qgl.obj
 0003:0044c898       _dllColor4d                00945898     renderer:win_qgl.obj
 0003:0044c89c       _dllColor4dv               0094589c     renderer:win_qgl.obj
 0003:0044c8a0       _dllColor4f                009458a0     renderer:win_qgl.obj
 0003:0044c8a4       _dllColor4fv               009458a4     renderer:win_qgl.obj
 0003:0044c8a8       _dllColor4i                009458a8     renderer:win_qgl.obj
 0003:0044c8ac       _dllColor4iv               009458ac     renderer:win_qgl.obj
 0003:0044c8b0       _dllColor4s                009458b0     renderer:win_qgl.obj
 0003:0044c8b4       _dllColor4sv               009458b4     renderer:win_qgl.obj
 0003:0044c8b8       _dllColor4ub               009458b8     renderer:win_qgl.obj
 0003:0044c8bc       _dllColor4ubv              009458bc     renderer:win_qgl.obj
 0003:0044c8c0       _dllColor4ui               009458c0     renderer:win_qgl.obj
 0003:0044c8c4       _dllColor4uiv              009458c4     renderer:win_qgl.obj
 0003:0044c8c8       _dllColor4us               009458c8     renderer:win_qgl.obj
 0003:0044c8cc       _dllColor4usv              009458cc     renderer:win_qgl.obj
 0003:0044c8d0       _dllColorMask              009458d0     renderer:win_qgl.obj
 0003:0044c8d4       _dllColorMaterial          009458d4     renderer:win_qgl.obj
 0003:0044c8d8       _dllColorPointer           009458d8     renderer:win_qgl.obj
 0003:0044c8dc       _dllCopyPixels             009458dc     renderer:win_qgl.obj
 0003:0044c8e0       _dllCopyTexImage1D         009458e0     renderer:win_qgl.obj
 0003:0044c8e4       _dllCopyTexImage2D         009458e4     renderer:win_qgl.obj
 0003:0044c8e8       _dllCopyTexSubImage1D      009458e8     renderer:win_qgl.obj
 0003:0044c8ec       _dllCopyTexSubImage2D      009458ec     renderer:win_qgl.obj
 0003:0044c8f0       _dllCullFace               009458f0     renderer:win_qgl.obj
 0003:0044c8f4       _dllDeleteLists            009458f4     renderer:win_qgl.obj
 0003:0044c8f8       _dllDeleteTextures         009458f8     renderer:win_qgl.obj
 0003:0044c8fc       _dllDepthFunc              009458fc     renderer:win_qgl.obj
 0003:0044c900       _dllDepthMask              00945900     renderer:win_qgl.obj
 0003:0044c904       _dllDepthRange             00945904     renderer:win_qgl.obj
 0003:0044c908       _dllDisable                00945908     renderer:win_qgl.obj
 0003:0044c90c       _dllDisableClientState     0094590c     renderer:win_qgl.obj
 0003:0044c910       _dllDrawArrays             00945910     renderer:win_qgl.obj
 0003:0044c914       _dllDrawBuffer             00945914     renderer:win_qgl.obj
 0003:0044c918       _dllDrawElements           00945918     renderer:win_qgl.obj
 0003:0044c91c       _dllDrawPixels             0094591c     renderer:win_qgl.obj
 0003:0044c920       _dllEdgeFlag               00945920     renderer:win_qgl.obj
 0003:0044c924       _dllEdgeFlagPointer        00945924     renderer:win_qgl.obj
 0003:0044c928       _dllEdgeFlagv              00945928     renderer:win_qgl.obj
 0003:0044c92c       _dllEnable                 0094592c     renderer:win_qgl.obj
 0003:0044c930       _dllEnableClientState      00945930     renderer:win_qgl.obj
 0003:0044c934       _dllEnd                    00945934     renderer:win_qgl.obj
 0003:0044c938       _dllEndList                00945938     renderer:win_qgl.obj
 0003:0044c93c       _dllEvalCoord1d            0094593c     renderer:win_qgl.obj
 0003:0044c940       _dllEvalCoord1dv           00945940     renderer:win_qgl.obj
 0003:0044c944       _dllEvalCoord1f            00945944     renderer:win_qgl.obj
 0003:0044c948       _dllEvalCoord1fv           00945948     renderer:win_qgl.obj
 0003:0044c94c       _dllEvalCoord2d            0094594c     renderer:win_qgl.obj
 0003:0044c950       _dllEvalCoord2dv           00945950     renderer:win_qgl.obj
 0003:0044c954       _dllEvalCoord2f            00945954     renderer:win_qgl.obj
 0003:0044c958       _dllEvalCoord2fv           00945958     renderer:win_qgl.obj
 0003:0044c95c       _dllEvalMesh1              0094595c     renderer:win_qgl.obj
 0003:0044c960       _dllEvalMesh2              00945960     renderer:win_qgl.obj
 0003:0044c964       _dllEvalPoint1             00945964     renderer:win_qgl.obj
 0003:0044c968       _dllEvalPoint2             00945968     renderer:win_qgl.obj
 0003:0044c96c       _dllFeedbackBuffer         0094596c     renderer:win_qgl.obj
 0003:0044c970       _dllFinish                 00945970     renderer:win_qgl.obj
 0003:0044c974       _dllFlush                  00945974     renderer:win_qgl.obj
 0003:0044c978       _dllFogf                   00945978     renderer:win_qgl.obj
 0003:0044c97c       _dllFogfv                  0094597c     renderer:win_qgl.obj
 0003:0044c980       _dllFogi                   00945980     renderer:win_qgl.obj
 0003:0044c984       _dllFogiv                  00945984     renderer:win_qgl.obj
 0003:0044c988       _dllFrontFace              00945988     renderer:win_qgl.obj
 0003:0044c98c       _dllFrustum                0094598c     renderer:win_qgl.obj
 0003:0044c990       _dllGenTextures            00945990     renderer:win_qgl.obj
 0003:0044c994       _dllGetBooleanv            00945994     renderer:win_qgl.obj
 0003:0044c998       _dllGetClipPlane           00945998     renderer:win_qgl.obj
 0003:0044c99c       _dllGetDoublev             0094599c     renderer:win_qgl.obj
 0003:0044c9a0       _dllGetFloatv              009459a0     renderer:win_qgl.obj
 0003:0044c9a4       _dllGetIntegerv            009459a4     renderer:win_qgl.obj
 0003:0044c9a8       _dllGetLightfv             009459a8     renderer:win_qgl.obj
 0003:0044c9ac       _dllGetLightiv             009459ac     renderer:win_qgl.obj
 0003:0044c9b0       _dllGetMapdv               009459b0     renderer:win_qgl.obj
 0003:0044c9b4       _dllGetMapfv               009459b4     renderer:win_qgl.obj
 0003:0044c9b8       _dllGetMapiv               009459b8     renderer:win_qgl.obj
 0003:0044c9bc       _dllGetMaterialfv          009459bc     renderer:win_qgl.obj
 0003:0044c9c0       _dllGetMaterialiv          009459c0     renderer:win_qgl.obj
 0003:0044c9c4       _dllGetPixelMapfv          009459c4     renderer:win_qgl.obj
 0003:0044c9c8       _dllGetPixelMapuiv         009459c8     renderer:win_qgl.obj
 0003:0044c9cc       _dllGetPixelMapusv         009459cc     renderer:win_qgl.obj
 0003:0044c9d0       _dllGetPointerv            009459d0     renderer:win_qgl.obj
 0003:0044c9d4       _dllGetPolygonStipple      009459d4     renderer:win_qgl.obj
 0003:0044c9d8       _dllGetTexEnvfv            009459d8     renderer:win_qgl.obj
 0003:0044c9dc       _dllGetTexEnviv            009459dc     renderer:win_qgl.obj
 0003:0044c9e0       _dllGetTexGendv            009459e0     renderer:win_qgl.obj
 0003:0044c9e4       _dllGetTexGenfv            009459e4     renderer:win_qgl.obj
 0003:0044c9e8       _dllGetTexGeniv            009459e8     renderer:win_qgl.obj
 0003:0044c9ec       _dllGetTexImage            009459ec     renderer:win_qgl.obj
 0003:0044c9f0       _dllGetTexLevelParameterfv 009459f0     renderer:win_qgl.obj
 0003:0044c9f4       _dllGetTexLevelParameteriv 009459f4     renderer:win_qgl.obj
 0003:0044c9f8       _dllGetTexParameterfv      009459f8     renderer:win_qgl.obj
 0003:0044c9fc       _dllGetTexParameteriv      009459fc     renderer:win_qgl.obj
 0003:0044ca00       _dllHint                   00945a00     renderer:win_qgl.obj
 0003:0044ca04       _dllIndexMask              00945a04     renderer:win_qgl.obj
 0003:0044ca08       _dllIndexPointer           00945a08     renderer:win_qgl.obj
 0003:0044ca0c       _dllIndexd                 00945a0c     renderer:win_qgl.obj
 0003:0044ca10       _dllIndexdv                00945a10     renderer:win_qgl.obj
 0003:0044ca14       _dllIndexf                 00945a14     renderer:win_qgl.obj
 0003:0044ca18       _dllIndexfv                00945a18     renderer:win_qgl.obj
 0003:0044ca1c       _dllIndexi                 00945a1c     renderer:win_qgl.obj
 0003:0044ca20       _dllIndexiv                00945a20     renderer:win_qgl.obj
 0003:0044ca24       _dllIndexs                 00945a24     renderer:win_qgl.obj
 0003:0044ca28       _dllIndexsv                00945a28     renderer:win_qgl.obj
 0003:0044ca2c       _dllIndexub                00945a2c     renderer:win_qgl.obj
 0003:0044ca30       _dllIndexubv               00945a30     renderer:win_qgl.obj
 0003:0044ca34       _dllInitNames              00945a34     renderer:win_qgl.obj
 0003:0044ca38       _dllInterleavedArrays      00945a38     renderer:win_qgl.obj
 0003:0044ca3c       _dllLightModelf            00945a3c     renderer:win_qgl.obj
 0003:0044ca40       _dllLightModelfv           00945a40     renderer:win_qgl.obj
 0003:0044ca44       _dllLightModeli            00945a44     renderer:win_qgl.obj
 0003:0044ca48       _dllLightModeliv           00945a48     renderer:win_qgl.obj
 0003:0044ca4c       _dllLightf                 00945a4c     renderer:win_qgl.obj
 0003:0044ca50       _dllLightfv                00945a50     renderer:win_qgl.obj
 0003:0044ca54       _dllLighti                 00945a54     renderer:win_qgl.obj
 0003:0044ca58       _dllLightiv                00945a58     renderer:win_qgl.obj
 0003:0044ca5c       _dllLineStipple            00945a5c     renderer:win_qgl.obj
 0003:0044ca60       _dllLineWidth              00945a60     renderer:win_qgl.obj
 0003:0044ca64       _dllListBase               00945a64     renderer:win_qgl.obj
 0003:0044ca68       _dllLoadIdentity           00945a68     renderer:win_qgl.obj
 0003:0044ca6c       _dllLoadMatrixd            00945a6c     renderer:win_qgl.obj
 0003:0044ca70       _dllLoadMatrixf            00945a70     renderer:win_qgl.obj
 0003:0044ca74       _dllLoadName               00945a74     renderer:win_qgl.obj
 0003:0044ca78       _dllLogicOp                00945a78     renderer:win_qgl.obj
 0003:0044ca7c       _dllMap1d                  00945a7c     renderer:win_qgl.obj
 0003:0044ca80       _dllMap1f                  00945a80     renderer:win_qgl.obj
 0003:0044ca84       _dllMap2d                  00945a84     renderer:win_qgl.obj
 0003:0044ca88       _dllMap2f                  00945a88     renderer:win_qgl.obj
 0003:0044ca8c       _dllMapGrid1d              00945a8c     renderer:win_qgl.obj
 0003:0044ca90       _dllMapGrid1f              00945a90     renderer:win_qgl.obj
 0003:0044ca94       _dllMapGrid2d              00945a94     renderer:win_qgl.obj
 0003:0044ca98       _dllMapGrid2f              00945a98     renderer:win_qgl.obj
 0003:0044ca9c       _dllMaterialf              00945a9c     renderer:win_qgl.obj
 0003:0044caa0       _dllMaterialfv             00945aa0     renderer:win_qgl.obj
 0003:0044caa4       _dllMateriali              00945aa4     renderer:win_qgl.obj
 0003:0044caa8       _dllMaterialiv             00945aa8     renderer:win_qgl.obj
 0003:0044caac       _dllMatrixMode             00945aac     renderer:win_qgl.obj
 0003:0044cab0       _dllMultMatrixd            00945ab0     renderer:win_qgl.obj
 0003:0044cab4       _dllMultMatrixf            00945ab4     renderer:win_qgl.obj
 0003:0044cab8       _dllNewList                00945ab8     renderer:win_qgl.obj
 0003:0044cabc       _dllNormal3b               00945abc     renderer:win_qgl.obj
 0003:0044cac0       _dllNormal3bv              00945ac0     renderer:win_qgl.obj
 0003:0044cac4       _dllNormal3d               00945ac4     renderer:win_qgl.obj
 0003:0044cac8       _dllNormal3dv              00945ac8     renderer:win_qgl.obj
 0003:0044cacc       _dllNormal3f               00945acc     renderer:win_qgl.obj
 0003:0044cad0       _dllNormal3fv              00945ad0     renderer:win_qgl.obj
 0003:0044cad4       _dllNormal3i               00945ad4     renderer:win_qgl.obj
 0003:0044cad8       _dllNormal3iv              00945ad8     renderer:win_qgl.obj
 0003:0044cadc       _dllNormal3s               00945adc     renderer:win_qgl.obj
 0003:0044cae0       _dllNormal3sv              00945ae0     renderer:win_qgl.obj
 0003:0044cae4       _dllNormalPointer          00945ae4     renderer:win_qgl.obj
 0003:0044cae8       _dllOrtho                  00945ae8     renderer:win_qgl.obj
 0003:0044caec       _dllPassThrough            00945aec     renderer:win_qgl.obj
 0003:0044caf0       _dllPixelMapfv             00945af0     renderer:win_qgl.obj
 0003:0044caf4       _dllPixelMapuiv            00945af4     renderer:win_qgl.obj
 0003:0044caf8       _dllPixelMapusv            00945af8     renderer:win_qgl.obj
 0003:0044cafc       _dllPixelStoref            00945afc     renderer:win_qgl.obj
 0003:0044cb00       _dllPixelStorei            00945b00     renderer:win_qgl.obj
 0003:0044cb04       _dllPixelTransferf         00945b04     renderer:win_qgl.obj
 0003:0044cb08       _dllPixelTransferi         00945b08     renderer:win_qgl.obj
 0003:0044cb0c       _dllPixelZoom              00945b0c     renderer:win_qgl.obj
 0003:0044cb10       _dllPointSize              00945b10     renderer:win_qgl.obj
 0003:0044cb14       _dllPolygonMode            00945b14     renderer:win_qgl.obj
 0003:0044cb18       _dllPolygonOffset          00945b18     renderer:win_qgl.obj
 0003:0044cb1c       _dllPolygonStipple         00945b1c     renderer:win_qgl.obj
 0003:0044cb20       _dllPopAttrib              00945b20     renderer:win_qgl.obj
 0003:0044cb24       _dllPopClientAttrib        00945b24     renderer:win_qgl.obj
 0003:0044cb28       _dllPopMatrix              00945b28     renderer:win_qgl.obj
 0003:0044cb2c       _dllPopName                00945b2c     renderer:win_qgl.obj
 0003:0044cb30       _dllPrioritizeTextures     00945b30     renderer:win_qgl.obj
 0003:0044cb34       _dllPushAttrib             00945b34     renderer:win_qgl.obj
 0003:0044cb38       _dllPushClientAttrib       00945b38     renderer:win_qgl.obj
 0003:0044cb3c       _dllPushMatrix             00945b3c     renderer:win_qgl.obj
 0003:0044cb40       _dllPushName               00945b40     renderer:win_qgl.obj
 0003:0044cb44       _dllRasterPos2d            00945b44     renderer:win_qgl.obj
 0003:0044cb48       _dllRasterPos2dv           00945b48     renderer:win_qgl.obj
 0003:0044cb4c       _dllRasterPos2f            00945b4c     renderer:win_qgl.obj
 0003:0044cb50       _dllRasterPos2fv           00945b50     renderer:win_qgl.obj
 0003:0044cb54       _dllRasterPos2i            00945b54     renderer:win_qgl.obj
 0003:0044cb58       _dllRasterPos2iv           00945b58     renderer:win_qgl.obj
 0003:0044cb5c       _dllRasterPos2s            00945b5c     renderer:win_qgl.obj
 0003:0044cb60       _dllRasterPos2sv           00945b60     renderer:win_qgl.obj
 0003:0044cb64       _dllRasterPos3d            00945b64     renderer:win_qgl.obj
 0003:0044cb68       _dllRasterPos3dv           00945b68     renderer:win_qgl.obj
 0003:0044cb6c       _dllRasterPos3f            00945b6c     renderer:win_qgl.obj
 0003:0044cb70       _dllRasterPos3fv           00945b70     renderer:win_qgl.obj
 0003:0044cb74       _dllRasterPos3i            00945b74     renderer:win_qgl.obj
 0003:0044cb78       _dllRasterPos3iv           00945b78     renderer:win_qgl.obj
 0003:0044cb7c       _dllRasterPos3s            00945b7c     renderer:win_qgl.obj
 0003:0044cb80       _dllRasterPos3sv           00945b80     renderer:win_qgl.obj
 0003:0044cb84       _dllRasterPos4d            00945b84     renderer:win_qgl.obj
 0003:0044cb88       _dllRasterPos4dv           00945b88     renderer:win_qgl.obj
 0003:0044cb8c       _dllRasterPos4f            00945b8c     renderer:win_qgl.obj
 0003:0044cb90       _dllRasterPos4fv           00945b90     renderer:win_qgl.obj
 0003:0044cb94       _dllRasterPos4i            00945b94     renderer:win_qgl.obj
 0003:0044cb98       _dllRasterPos4iv           00945b98     renderer:win_qgl.obj
 0003:0044cb9c       _dllRasterPos4s            00945b9c     renderer:win_qgl.obj
 0003:0044cba0       _dllRasterPos4sv           00945ba0     renderer:win_qgl.obj
 0003:0044cba4       _dllReadBuffer             00945ba4     renderer:win_qgl.obj
 0003:0044cba8       _dllReadPixels             00945ba8     renderer:win_qgl.obj
 0003:0044cbac       _dllRectd                  00945bac     renderer:win_qgl.obj
 0003:0044cbb0       _dllRectdv                 00945bb0     renderer:win_qgl.obj
 0003:0044cbb4       _dllRectf                  00945bb4     renderer:win_qgl.obj
 0003:0044cbb8       _dllRectfv                 00945bb8     renderer:win_qgl.obj
 0003:0044cbbc       _dllRecti                  00945bbc     renderer:win_qgl.obj
 0003:0044cbc0       _dllRectiv                 00945bc0     renderer:win_qgl.obj
 0003:0044cbc4       _dllRects                  00945bc4     renderer:win_qgl.obj
 0003:0044cbc8       _dllRectsv                 00945bc8     renderer:win_qgl.obj
 0003:0044cbcc       _dllRotated                00945bcc     renderer:win_qgl.obj
 0003:0044cbd0       _dllRotatef                00945bd0     renderer:win_qgl.obj
 0003:0044cbd4       _dllScaled                 00945bd4     renderer:win_qgl.obj
 0003:0044cbd8       _dllScalef                 00945bd8     renderer:win_qgl.obj
 0003:0044cbdc       _dllScissor                00945bdc     renderer:win_qgl.obj
 0003:0044cbe0       _dllSelectBuffer           00945be0     renderer:win_qgl.obj
 0003:0044cbe4       _dllShadeModel             00945be4     renderer:win_qgl.obj
 0003:0044cbe8       _dllStencilFunc            00945be8     renderer:win_qgl.obj
 0003:0044cbec       _dllStencilMask            00945bec     renderer:win_qgl.obj
 0003:0044cbf0       _dllStencilOp              00945bf0     renderer:win_qgl.obj
 0003:0044cbf4       _dllTexCoord1d             00945bf4     renderer:win_qgl.obj
 0003:0044cbf8       _dllTexCoord1dv            00945bf8     renderer:win_qgl.obj
 0003:0044cbfc       _dllTexCoord1f             00945bfc     renderer:win_qgl.obj
 0003:0044cc00       _dllTexCoord1fv            00945c00     renderer:win_qgl.obj
 0003:0044cc04       _dllTexCoord1i             00945c04     renderer:win_qgl.obj
 0003:0044cc08       _dllTexCoord1iv            00945c08     renderer:win_qgl.obj
 0003:0044cc0c       _dllTexCoord1s             00945c0c     renderer:win_qgl.obj
 0003:0044cc10       _dllTexCoord1sv            00945c10     renderer:win_qgl.obj
 0003:0044cc14       _dllTexCoord2d             00945c14     renderer:win_qgl.obj
 0003:0044cc18       _dllTexCoord2dv            00945c18     renderer:win_qgl.obj
 0003:0044cc1c       _dllTexCoord2f             00945c1c     renderer:win_qgl.obj
 0003:0044cc20       _dllTexCoord2fv            00945c20     renderer:win_qgl.obj
 0003:0044cc24       _dllTexCoord2i             00945c24     renderer:win_qgl.obj
 0003:0044cc28       _dllTexCoord2iv            00945c28     renderer:win_qgl.obj
 0003:0044cc2c       _dllTexCoord2s             00945c2c     renderer:win_qgl.obj
 0003:0044cc30       _dllTexCoord2sv            00945c30     renderer:win_qgl.obj
 0003:0044cc34       _dllTexCoord3d             00945c34     renderer:win_qgl.obj
 0003:0044cc38       _dllTexCoord3dv            00945c38     renderer:win_qgl.obj
 0003:0044cc3c       _dllTexCoord3f             00945c3c     renderer:win_qgl.obj
 0003:0044cc40       _dllTexCoord3fv            00945c40     renderer:win_qgl.obj
 0003:0044cc44       _dllTexCoord3i             00945c44     renderer:win_qgl.obj
 0003:0044cc48       _dllTexCoord3iv            00945c48     renderer:win_qgl.obj
 0003:0044cc4c       _dllTexCoord3s             00945c4c     renderer:win_qgl.obj
 0003:0044cc50       _dllTexCoord3sv            00945c50     renderer:win_qgl.obj
 0003:0044cc54       _dllTexCoord4d             00945c54     renderer:win_qgl.obj
 0003:0044cc58       _dllTexCoord4dv            00945c58     renderer:win_qgl.obj
 0003:0044cc5c       _dllTexCoord4f             00945c5c     renderer:win_qgl.obj
 0003:0044cc60       _dllTexCoord4fv            00945c60     renderer:win_qgl.obj
 0003:0044cc64       _dllTexCoord4i             00945c64     renderer:win_qgl.obj
 0003:0044cc68       _dllTexCoord4iv            00945c68     renderer:win_qgl.obj
 0003:0044cc6c       _dllTexCoord4s             00945c6c     renderer:win_qgl.obj
 0003:0044cc70       _dllTexCoord4sv            00945c70     renderer:win_qgl.obj
 0003:0044cc74       _dllTexCoordPointer        00945c74     renderer:win_qgl.obj
 0003:0044cc78       _dllTexEnvf                00945c78     renderer:win_qgl.obj
 0003:0044cc7c       _dllTexEnvfv               00945c7c     renderer:win_qgl.obj
 0003:0044cc80       _dllTexEnvi                00945c80     renderer:win_qgl.obj
 0003:0044cc84       _dllTexEnviv               00945c84     renderer:win_qgl.obj
 0003:0044cc88       _dllTexGend                00945c88     renderer:win_qgl.obj
 0003:0044cc8c       _dllTexGendv               00945c8c     renderer:win_qgl.obj
 0003:0044cc90       _dllTexGenf                00945c90     renderer:win_qgl.obj
 0003:0044cc94       _dllTexGenfv               00945c94     renderer:win_qgl.obj
 0003:0044cc98       _dllTexGeni                00945c98     renderer:win_qgl.obj
 0003:0044cc9c       _dllTexGeniv               00945c9c     renderer:win_qgl.obj
 0003:0044cca0       _dllTexImage1D             00945ca0     renderer:win_qgl.obj
 0003:0044cca4       _dllTexImage2D             00945ca4     renderer:win_qgl.obj
 0003:0044cca8       _dllTexParameterf          00945ca8     renderer:win_qgl.obj
 0003:0044ccac       _dllTexParameterfv         00945cac     renderer:win_qgl.obj
 0003:0044ccb0       _dllTexParameteri          00945cb0     renderer:win_qgl.obj
 0003:0044ccb4       _dllTexParameteriv         00945cb4     renderer:win_qgl.obj
 0003:0044ccb8       _dllTexSubImage1D          00945cb8     renderer:win_qgl.obj
 0003:0044ccbc       _dllTexSubImage2D          00945cbc     renderer:win_qgl.obj
 0003:0044ccc0       _dllTranslated             00945cc0     renderer:win_qgl.obj
 0003:0044ccc4       _dllTranslatef             00945cc4     renderer:win_qgl.obj
 0003:0044ccc8       _dllVertex2d               00945cc8     renderer:win_qgl.obj
 0003:0044cccc       _dllVertex2dv              00945ccc     renderer:win_qgl.obj
 0003:0044ccd0       _dllVertex2f               00945cd0     renderer:win_qgl.obj
 0003:0044ccd4       _dllVertex2fv              00945cd4     renderer:win_qgl.obj
 0003:0044ccd8       _dllVertex2i               00945cd8     renderer:win_qgl.obj
 0003:0044ccdc       _dllVertex2iv              00945cdc     renderer:win_qgl.obj
 0003:0044cce0       _dllVertex2s               00945ce0     renderer:win_qgl.obj
 0003:0044cce4       _dllVertex2sv              00945ce4     renderer:win_qgl.obj
 0003:0044cce8       _dllVertex3d               00945ce8     renderer:win_qgl.obj
 0003:0044ccec       _dllVertex3dv              00945cec     renderer:win_qgl.obj
 0003:0044ccf0       _dllVertex3f               00945cf0     renderer:win_qgl.obj
 0003:0044ccf4       _dllVertex3fv              00945cf4     renderer:win_qgl.obj
 0003:0044ccf8       _dllVertex3i               00945cf8     renderer:win_qgl.obj
 0003:0044ccfc       _dllVertex3iv              00945cfc     renderer:win_qgl.obj
 0003:0044cd00       _dllVertex3s               00945d00     renderer:win_qgl.obj
 0003:0044cd04       _dllVertex3sv              00945d04     renderer:win_qgl.obj
 0003:0044cd08       _dllVertex4d               00945d08     renderer:win_qgl.obj
 0003:0044cd0c       _dllVertex4dv              00945d0c     renderer:win_qgl.obj
 0003:0044cd10       _dllVertex4f               00945d10     renderer:win_qgl.obj
 0003:0044cd14       _dllVertex4fv              00945d14     renderer:win_qgl.obj
 0003:0044cd18       _dllVertex4i               00945d18     renderer:win_qgl.obj
 0003:0044cd1c       _dllVertex4iv              00945d1c     renderer:win_qgl.obj
 0003:0044cd20       _dllVertex4s               00945d20     renderer:win_qgl.obj
 0003:0044cd24       _dllVertex4sv              00945d24     renderer:win_qgl.obj
 0003:0044cd28       _dllVertexPointer          00945d28     renderer:win_qgl.obj
 0003:0044cd2c       _dllViewport               00945d2c     renderer:win_qgl.obj
 0003:0044cd30       ?prim@?1??PrimToString@@9@9 00945d30     renderer:win_qgl.obj
 0003:0044d130       ?buffer@?1??CapToString@@9@9 00946130     renderer:win_qgl.obj
 0003:0044d530       ?isEnabled@?1??QGL_EnableLogging@@9@9 00946530     renderer:win_qgl.obj
 0003:0044d534       _c_vertexes                00946534     renderer:tr_shade.obj
 0003:0044d538       _c_begins                  00946538     renderer:tr_shade.obj
 0003:0044d53c       _setArraysOnce             0094653c     renderer:tr_shade.obj
 0003:0044d540       _edgeDefs                  00946540     renderer:tr_shadows.obj
 0003:0048bd40       _numEdgeDefs               00984d40     renderer:tr_shadows.obj
 0003:0048cce0       _facing                    00985ce0     renderer:tr_shadows.obj
 0003:0048ec20       _s_oldHardwareGamma        00987c20     renderer:win_gamma.obj
 0003:0048f220       _s_cloudTexCoords          00988220     renderer:tr_sky.obj
 0003:00490150       _s_cloudTexP               00989150     renderer:tr_sky.obj
 0003:004908e8       _sky_mins                  009898e8     renderer:tr_sky.obj
 0003:00490918       _sky_maxs                  00989918     renderer:tr_sky.obj
 0003:00490948       _sky_min                   00989948     renderer:tr_sky.obj
 0003:0049094c       _sky_max                   0098994c     renderer:tr_sky.obj
 0003:00490950       _s_skyPoints               00989950     renderer:tr_sky.obj
 0003:00490d20       _s_skyTexCoords            00989d20     renderer:tr_sky.obj
 0003:00490fa8       ?tmp@?1??myftol@@9@9       00989fa8     renderer:tr_shade_calc.obj
 0003:00490fb0       _GS_ExceptionRecord        00989fb0     LIBCMT:gs_report.obj
 0003:00491000       _GS_ContextRecord          0098a000     LIBCMT:gs_report.obj
 0003:004912cc       _DebuggerWasPresent        0098a2cc     LIBCMT:gs_report.obj
 0003:004912d0       ___enable_percent_n        0098a2d0     LIBCMT:printf.obj
 0003:004912d4       _buf                       0098a2d4     LIBCMT:asctime.obj
 0003:00491330       _start_tics                0098a330     LIBCMT:clock.obj
 0003:00491340       __pmatherr_set             0098a340     LIBCMT:libm_error.obj
 0003:0049135c       _fSystemSet                0098a35c     LIBCMT:mbctype.obj
 0003:00491378       _lclcritsects              0098a378     LIBCMT:mlock.obj
 0003:004914d8       ?outmsg@?9??_NMSG_WRITE@@9@9 0098a4d8     LIBCMT:crt0msg.obj
 0003:00491b10       _lastTZ                    0098ab10     LIBCMT:tzset.obj
 0003:00491b14       ?first_time@?1??__tzset@@9@9 0098ab14     LIBCMT:tzset.obj
 0003:00491b18       _tzapiused                 0098ab18     LIBCMT:tzset.obj
 0003:00491b20       _tzinfo                    0098ab20     LIBCMT:tzset.obj
 0003:00491cd8       _ctrlc_action              0098acd8     LIBCMT:winsig.obj
 0003:00491cdc       _ctrlbreak_action          0098acdc     LIBCMT:winsig.obj
 0003:00491ce0       _abort_action              0098ace0     LIBCMT:winsig.obj
 0003:00491ce4       _term_action               0098ace4     LIBCMT:winsig.obj
 0003:00491ce8       _ConsoleCtrlHandler_Installed 0098ace8     LIBCMT:winsig.obj
 0003:00491cec       _g_pfnRtlGenRandom         0098acec     LIBCMT:rand_s.obj
 0003:00491cf0       ?_pgmname@?1??_setargv@@9@9 0098acf0     LIBCMT:stdargv.obj
 0003:00491e08       ___crtCallProc             0098ae08     LIBCMT:winapinls.obj
 0003:00491e0c       ?pfnMessageBox@?1??__crtMessageBoxW@@9@9 0098ae0c     LIBCMT:crtmboxw.obj
 0003:00491e10       ?pfnGetActiveWindow@?1??__crtMessageBoxW@@9@9 0098ae10     LIBCMT:crtmboxw.obj
 0003:00491e14       ?pfnGetLastActivePopup@?1??__crtMessageBoxW@@9@9 0098ae14     LIBCMT:crtmboxw.obj
 0003:00491e18       ?pfnGetProcessWindowStation@?1??__crtMessageBoxW@@9@9 0098ae18     LIBCMT:crtmboxw.obj
 0003:00491e1c       ?pfnGetUserObjectInformation@?1??__crtMessageBoxW@@9@9 0098ae1c     LIBCMT:crtmboxw.obj
 0004:00000000       INF_c_1917_0_4             00c90000     LIBCMT:svml_dpow2_sse2.obj
 0004:00000010       QNaN_c_1917_0_4            00c90010     LIBCMT:svml_dpow2_sse2.obj
 0005:00000130       $R000000                   00c91130     winquake.res
 0005:00000418       $R0002E8                   00c91418     winquake.res
 0005:00000430       $R000300                   00c91430     winquake.res
 0005:00000460       $R000330                   00c91460     winquake.res
